ARM GAS  C:\Users\CL\AppData\Local\Temp\ccdNDNHq.s 			page 1


   1              		.cpu cortex-m4
   2              		.arch armv7e-m
   3              		.fpu fpv4-sp-d16
   4              		.eabi_attribute 27, 1
   5              		.eabi_attribute 28, 1
   6              		.eabi_attribute 20, 1
   7              		.eabi_attribute 21, 1
   8              		.eabi_attribute 23, 3
   9              		.eabi_attribute 24, 1
  10              		.eabi_attribute 25, 1
  11              		.eabi_attribute 26, 1
  12              		.eabi_attribute 30, 4
  13              		.eabi_attribute 34, 1
  14              		.eabi_attribute 18, 4
  15              		.file	"adc.c"
  16              		.text
  17              		.section	.text.MX_ADC1_Init,"ax",%progbits
  18              		.align	1
  19              		.global	MX_ADC1_Init
  20              		.syntax unified
  21              		.thumb
  22              		.thumb_func
  24              	MX_ADC1_Init:
  25              		@ args = 0, pretend = 0, frame = 24
  26              		@ frame_needed = 0, uses_anonymous_args = 0
  27 0000 7FB5     		push	{r0, r1, r2, r3, r4, r5, r6, lr}
  28 0002 1822     		movs	r2, #24
  29 0004 0021     		movs	r1, #0
  30 0006 6846     		mov	r0, sp
  31 0008 FFF7FEFF 		bl	memset
  32 000c 1948     		ldr	r0, .L10
  33 000e 1A49     		ldr	r1, .L10+4
  34 0010 0023     		movs	r3, #0
  35 0012 0422     		movs	r2, #4
  36 0014 4261     		str	r2, [r0, #20]
  37 0016 0383     		strh	r3, [r0, #24]	@ movhi
  38 0018 0122     		movs	r2, #1
  39 001a C0E90013 		strd	r1, r3, [r0]
  40 001e C0E90233 		strd	r3, r3, [r0, #8]
  41 0022 C0E90A33 		strd	r3, r3, [r0, #40]
  42 0026 0361     		str	r3, [r0, #16]
  43 0028 C261     		str	r2, [r0, #28]
  44 002a 80F82030 		strb	r3, [r0, #32]
  45 002e 80F83030 		strb	r3, [r0, #48]
  46 0032 4363     		str	r3, [r0, #52]
  47 0034 80F83830 		strb	r3, [r0, #56]
  48 0038 FFF7FEFF 		bl	HAL_ADC_Init
  49 003c 08B1     		cbz	r0, .L2
  50 003e FFF7FEFF 		bl	Error_Handler
  51              	.L2:
  52 0042 0E4A     		ldr	r2, .L10+8
  53 0044 0B48     		ldr	r0, .L10
  54 0046 0623     		movs	r3, #6
  55 0048 CDE90023 		strd	r2, r3, [sp]
  56 004c 0023     		movs	r3, #0
  57 004e 7F22     		movs	r2, #127
  58 0050 CDE90232 		strd	r3, r2, [sp, #8]
ARM GAS  C:\Users\CL\AppData\Local\Temp\ccdNDNHq.s 			page 2


  59 0054 6946     		mov	r1, sp
  60 0056 0422     		movs	r2, #4
  61 0058 CDE90423 		strd	r2, r3, [sp, #16]
  62 005c FFF7FEFF 		bl	HAL_ADC_ConfigChannel
  63 0060 08B1     		cbz	r0, .L3
  64 0062 FFF7FEFF 		bl	Error_Handler
  65              	.L3:
  66 0066 7F21     		movs	r1, #127
  67 0068 0248     		ldr	r0, .L10
  68 006a FFF7FEFF 		bl	HAL_ADCEx_Calibration_Start
  69 006e 07B0     		add	sp, sp, #28
  70              		@ sp needed
  71 0070 5DF804FB 		ldr	pc, [sp], #4
  72              	.L11:
  73              		.align	2
  74              	.L10:
  75 0074 00000000 		.word	.LANCHOR0
  76 0078 00000450 		.word	1342439424
  77 007c 2000F014 		.word	351272992
  79              		.section	.text.HAL_ADC_MspInit,"ax",%progbits
  80              		.align	1
  81              		.global	HAL_ADC_MspInit
  82              		.syntax unified
  83              		.thumb
  84              		.thumb_func
  86              	HAL_ADC_MspInit:
  87              		@ args = 0, pretend = 0, frame = 120
  88              		@ frame_needed = 0, uses_anonymous_args = 0
  89 0000 10B5     		push	{r4, lr}
  90 0002 9EB0     		sub	sp, sp, #120
  91 0004 0446     		mov	r4, r0
  92 0006 1422     		movs	r2, #20
  93 0008 0021     		movs	r1, #0
  94 000a 02A8     		add	r0, sp, #8
  95 000c FFF7FEFF 		bl	memset
  96 0010 5C22     		movs	r2, #92
  97 0012 0021     		movs	r1, #0
  98 0014 07A8     		add	r0, sp, #28
  99 0016 FFF7FEFF 		bl	memset
 100 001a 2268     		ldr	r2, [r4]
 101 001c 1E4B     		ldr	r3, .L18
 102 001e 9A42     		cmp	r2, r3
 103 0020 38D1     		bne	.L12
 104 0022 4FF48043 		mov	r3, #16384
 105 0026 0793     		str	r3, [sp, #28]
 106 0028 4FF08053 		mov	r3, #268435456
 107 002c 1B93     		str	r3, [sp, #108]
 108 002e 0324     		movs	r4, #3
 109 0030 0123     		movs	r3, #1
 110 0032 CDE90843 		strd	r4, r3, [sp, #32]
 111 0036 4FF0080C 		mov	ip, #8
 112 003a 0723     		movs	r3, #7
 113 003c CDE90AC3 		strd	ip, r3, [sp, #40]
 114 0040 0223     		movs	r3, #2
 115 0042 CDE90C33 		strd	r3, r3, [sp, #48]
 116 0046 07A8     		add	r0, sp, #28
 117 0048 4FF08073 		mov	r3, #16777216
ARM GAS  C:\Users\CL\AppData\Local\Temp\ccdNDNHq.s 			page 3


 118 004c 0E93     		str	r3, [sp, #56]
 119 004e FFF7FEFF 		bl	HAL_RCCEx_PeriphCLKConfig
 120 0052 08B1     		cbz	r0, .L14
 121 0054 FFF7FEFF 		bl	Error_Handler
 122              	.L14:
 123 0058 104B     		ldr	r3, .L18+4
 124 005a DA6C     		ldr	r2, [r3, #76]
 125 005c 42F40052 		orr	r2, r2, #8192
 126 0060 DA64     		str	r2, [r3, #76]
 127 0062 DA6C     		ldr	r2, [r3, #76]
 128 0064 02F40052 		and	r2, r2, #8192
 129 0068 0092     		str	r2, [sp]
 130 006a 009A     		ldr	r2, [sp]
 131 006c DA6C     		ldr	r2, [r3, #76]
 132 006e 42F00102 		orr	r2, r2, #1
 133 0072 DA64     		str	r2, [r3, #76]
 134 0074 DB6C     		ldr	r3, [r3, #76]
 135 0076 03F00103 		and	r3, r3, #1
 136 007a 0193     		str	r3, [sp, #4]
 137 007c 019B     		ldr	r3, [sp, #4]
 138 007e 2122     		movs	r2, #33
 139 0080 0B23     		movs	r3, #11
 140 0082 CDE90223 		strd	r2, r3, [sp, #8]
 141 0086 02A9     		add	r1, sp, #8
 142 0088 0023     		movs	r3, #0
 143 008a 4FF09040 		mov	r0, #1207959552
 144 008e 0493     		str	r3, [sp, #16]
 145 0090 FFF7FEFF 		bl	HAL_GPIO_Init
 146              	.L12:
 147 0094 1EB0     		add	sp, sp, #120
 148              		@ sp needed
 149 0096 10BD     		pop	{r4, pc}
 150              	.L19:
 151              		.align	2
 152              	.L18:
 153 0098 00000450 		.word	1342439424
 154 009c 00100240 		.word	1073876992
 156              		.section	.text.HAL_ADC_MspDeInit,"ax",%progbits
 157              		.align	1
 158              		.global	HAL_ADC_MspDeInit
 159              		.syntax unified
 160              		.thumb
 161              		.thumb_func
 163              	HAL_ADC_MspDeInit:
 164              		@ args = 0, pretend = 0, frame = 0
 165              		@ frame_needed = 0, uses_anonymous_args = 0
 166              		@ link register save eliminated.
 167 0000 0268     		ldr	r2, [r0]
 168 0002 074B     		ldr	r3, .L22
 169 0004 9A42     		cmp	r2, r3
 170 0006 09D1     		bne	.L20
 171 0008 064A     		ldr	r2, .L22+4
 172 000a D36C     		ldr	r3, [r2, #76]
 173 000c 23F40053 		bic	r3, r3, #8192
 174 0010 D364     		str	r3, [r2, #76]
 175 0012 2121     		movs	r1, #33
 176 0014 4FF09040 		mov	r0, #1207959552
ARM GAS  C:\Users\CL\AppData\Local\Temp\ccdNDNHq.s 			page 4


 177 0018 FFF7FEBF 		b	HAL_GPIO_DeInit
 178              	.L20:
 179 001c 7047     		bx	lr
 180              	.L23:
 181 001e 00BF     		.align	2
 182              	.L22:
 183 0020 00000450 		.word	1342439424
 184 0024 00100240 		.word	1073876992
 186              		.section	.text.ADC_Average_Get,"ax",%progbits
 187              		.align	1
 188              		.global	ADC_Average_Get
 189              		.syntax unified
 190              		.thumb
 191              		.thumb_func
 193              	ADC_Average_Get:
 194              		@ args = 0, pretend = 0, frame = 24
 195              		@ frame_needed = 0, uses_anonymous_args = 0
 196 0000 F0B5     		push	{r4, r5, r6, r7, lr}
 197 0002 0528     		cmp	r0, #5
 198 0004 87B0     		sub	sp, sp, #28
 199 0006 0F46     		mov	r7, r1
 200 0008 1AD0     		beq	.L25
 201 000a 0A28     		cmp	r0, #10
 202 000c 1BD0     		beq	.L26
 203              	.L27:
 204 000e 0622     		movs	r2, #6
 205 0010 0023     		movs	r3, #0
 206 0012 7F21     		movs	r1, #127
 207 0014 CDE90123 		strd	r2, r3, [sp, #4]
 208 0018 0422     		movs	r2, #4
 209 001a CDE90312 		strd	r1, r2, [sp, #12]
 210 001e 1548     		ldr	r0, .L39
 211 0020 0593     		str	r3, [sp, #20]
 212 0022 6946     		mov	r1, sp
 213 0024 FFF7FEFF 		bl	HAL_ADC_ConfigChannel
 214 0028 08B1     		cbz	r0, .L28
 215 002a FFF7FEFF 		bl	Error_Handler
 216              	.L28:
 217 002e 0024     		movs	r4, #0
 218 0030 104D     		ldr	r5, .L39
 219 0032 2646     		mov	r6, r4
 220              	.L29:
 221 0034 BC42     		cmp	r4, r7
 222 0036 08D1     		bne	.L31
 223 0038 B6FBF4F0 		udiv	r0, r6, r4
 224 003c 07B0     		add	sp, sp, #28
 225              		@ sp needed
 226 003e F0BD     		pop	{r4, r5, r6, r7, pc}
 227              	.L25:
 228 0040 0D4B     		ldr	r3, .L39+4
 229              	.L38:
 230 0042 0093     		str	r3, [sp]
 231 0044 E3E7     		b	.L27
 232              	.L26:
 233 0046 0D4B     		ldr	r3, .L39+8
 234 0048 FBE7     		b	.L38
 235              	.L31:
ARM GAS  C:\Users\CL\AppData\Local\Temp\ccdNDNHq.s 			page 5


 236 004a 2846     		mov	r0, r5
 237 004c FFF7FEFF 		bl	HAL_ADC_Start
 238 0050 0A21     		movs	r1, #10
 239 0052 2846     		mov	r0, r5
 240 0054 FFF7FEFF 		bl	HAL_ADC_PollForConversion
 241 0058 2846     		mov	r0, r5
 242 005a FFF7FEFF 		bl	HAL_ADC_GetState
 243 005e 8305     		lsls	r3, r0, #22
 244 0060 03D5     		bpl	.L30
 245 0062 2846     		mov	r0, r5
 246 0064 FFF7FEFF 		bl	HAL_ADC_GetValue
 247 0068 0644     		add	r6, r6, r0
 248              	.L30:
 249 006a 2846     		mov	r0, r5
 250 006c FFF7FEFF 		bl	HAL_ADC_Stop
 251 0070 0134     		adds	r4, r4, #1
 252 0072 DFE7     		b	.L29
 253              	.L40:
 254              		.align	2
 255              	.L39:
 256 0074 00000000 		.word	.LANCHOR0
 257 0078 2000F014 		.word	351272992
 258 007c 0004002A 		.word	704644096
 260              		.section	.rodata.LDR_Value_Get.str1.1,"aMS",%progbits,1
 261              	.LC0:
 262 0000 4C44523A 		.ascii	"LDR:%d,LDR Test OK\015\012\000"
 262      25642C4C 
 262      44522054 
 262      65737420 
 262      4F4B0D0A 
 263              	.LC1:
 264 0015 4C44523A 		.ascii	"LDR:%d,LDR Test Exception\015\012\000"
 264      25642C4C 
 264      44522054 
 264      65737420 
 264      45786365 
 265              		.section	.text.LDR_Value_Get,"ax",%progbits
 266              		.align	1
 267              		.global	LDR_Value_Get
 268              		.syntax unified
 269              		.thumb
 270              		.thumb_func
 272              	LDR_Value_Get:
 273              		@ args = 0, pretend = 0, frame = 0
 274              		@ frame_needed = 0, uses_anonymous_args = 0
 275 0000 08B5     		push	{r3, lr}
 276 0002 3221     		movs	r1, #50
 277 0004 0A20     		movs	r0, #10
 278 0006 FFF7FEFF 		bl	ADC_Average_Get
 279 000a C828     		cmp	r0, #200
 280 000c 0246     		mov	r2, r0
 281 000e 08D9     		bls	.L42
 282 0010 0749     		ldr	r1, .L45
 283 0012 0848     		ldr	r0, .L45+4
 284 0014 FFF7FEFF 		bl	shellPrint
 285 0018 074A     		ldr	r2, .L45+8
 286              	.L44:
ARM GAS  C:\Users\CL\AppData\Local\Temp\ccdNDNHq.s 			page 6


 287 001a 1378     		ldrb	r3, [r2]	@ zero_extendqisi2
 288 001c 0133     		adds	r3, r3, #1
 289 001e 1370     		strb	r3, [r2]
 290 0020 08BD     		pop	{r3, pc}
 291              	.L42:
 292 0022 0649     		ldr	r1, .L45+12
 293 0024 0348     		ldr	r0, .L45+4
 294 0026 FFF7FEFF 		bl	shellPrint
 295 002a 054A     		ldr	r2, .L45+16
 296 002c F5E7     		b	.L44
 297              	.L46:
 298 002e 00BF     		.align	2
 299              	.L45:
 300 0030 00000000 		.word	.LC0
 301 0034 00000000 		.word	shell
 302 0038 00000000 		.word	test_ok_cnt
 303 003c 15000000 		.word	.LC1
 304 0040 00000000 		.word	test_error_cnt
 306              		.global	__aeabi_f2d
 307              		.global	__aeabi_dmul
 308              		.global	__aeabi_dadd
 309              		.global	__aeabi_d2f
 310              		.section	.rodata.Battery_Test.str1.1,"aMS",%progbits,1
 311              	.LC2:
 312 0000 766F6C74 		.ascii	"voltage:%d.%02dv\015\012\000"
 312      6167653A 
 312      25642E25 
 312      30326476 
 312      0D0A00
 313              	.LC3:
 314 0013 42617474 		.ascii	"Battery Test OK\015\012\000"
 314      65727920 
 314      54657374 
 314      204F4B0D 
 314      0A00
 315              	.LC4:
 316 0025 766F6C74 		.ascii	"voltage:%.2fv,Battery Test Exception\015\012\000"
 316      6167653A 
 316      252E3266 
 316      762C4261 
 316      74746572 
 317              		.section	.text.Battery_Test,"ax",%progbits
 318              		.align	1
 319              		.global	Battery_Test
 320              		.syntax unified
 321              		.thumb
 322              		.thumb_func
 324              	Battery_Test:
 325              		@ args = 0, pretend = 0, frame = 0
 326              		@ frame_needed = 0, uses_anonymous_args = 0
 327 0000 08B5     		push	{r3, lr}
 328 0002 3221     		movs	r1, #50
 329 0004 0520     		movs	r0, #5
 330 0006 FFF7FEFF 		bl	ADC_Average_Get
 331 000a 07EE900A 		vmov	s15, r0	@ int
 332 000e FBEECA7A 		vcvt.f32.u32	s15, s15, #12
 333 0012 17EE900A 		vmov	r0, s15
ARM GAS  C:\Users\CL\AppData\Local\Temp\ccdNDNHq.s 			page 7


 334 0016 FFF7FEFF 		bl	__aeabi_f2d
 335 001a 26A3     		adr	r3, .L54+28
 336 001c D3E90023 		ldrd	r2, [r3]
 337 0020 FFF7FEFF 		bl	__aeabi_dmul
 338 0024 0246     		mov	r2, r0
 339 0026 0B46     		mov	r3, r1
 340 0028 FFF7FEFF 		bl	__aeabi_dadd
 341 002c FFF7FEFF 		bl	__aeabi_d2f
 342 0030 07EE100A 		vmov	s14, r0
 343 0034 F0EE087A 		vmov.f32	s15, #3.0e+0
 344 0038 B4EEE77A 		vcmpe.f32	s14, s15
 345 003c F1EE10FA 		vmrs	APSR_nzcv, FPSCR
 346 0040 1DDD     		ble	.L52
 347 0042 DFED157A 		vldr.32	s15, .L54
 348 0046 1548     		ldr	r0, .L54+4
 349 0048 67EE277A 		vmul.f32	s15, s14, s15
 350 004c 6422     		movs	r2, #100
 351 004e FCEEE77A 		vcvt.u32.f32	s15, s15
 352 0052 17EE903A 		vmov	r3, s15	@ int
 353 0056 FCEEC77A 		vcvt.u32.f32	s15, s14
 354 005a B3FBF2F1 		udiv	r1, r3, r2
 355 005e 02FB1133 		mls	r3, r2, r1, r3
 356 0062 17EE902A 		vmov	r2, s15	@ int
 357 0066 0E49     		ldr	r1, .L54+8
 358 0068 FFF7FEFF 		bl	shellPrint
 359 006c 0D49     		ldr	r1, .L54+12
 360 006e 0B48     		ldr	r0, .L54+4
 361 0070 FFF7FEFF 		bl	shellPrint
 362 0074 0C4A     		ldr	r2, .L54+16
 363              	.L53:
 364 0076 1378     		ldrb	r3, [r2]	@ zero_extendqisi2
 365 0078 0133     		adds	r3, r3, #1
 366 007a 1370     		strb	r3, [r2]
 367 007c 08BD     		pop	{r3, pc}
 368              	.L52:
 369 007e FFF7FEFF 		bl	__aeabi_f2d
 370 0082 0246     		mov	r2, r0
 371 0084 0B46     		mov	r3, r1
 372 0086 0548     		ldr	r0, .L54+4
 373 0088 0849     		ldr	r1, .L54+20
 374 008a FFF7FEFF 		bl	shellPrint
 375 008e 084A     		ldr	r2, .L54+24
 376 0090 F1E7     		b	.L53
 377              	.L55:
 378 0092 00BFAFF3 		.align	3
 378      0080
 379              	.L54:
 380 0098 0000C842 		.word	1120403456
 381 009c 00000000 		.word	shell
 382 00a0 00000000 		.word	.LC2
 383 00a4 13000000 		.word	.LC3
 384 00a8 00000000 		.word	test_ok_cnt
 385 00ac 25000000 		.word	.LC4
 386 00b0 00000000 		.word	test_error_cnt
 387 00b4 66666666 		.word	1717986918
 388 00b8 66660A40 		.word	1074423398
 390              		.global	shellCommandbattery_test
ARM GAS  C:\Users\CL\AppData\Local\Temp\ccdNDNHq.s 			page 8


 391              		.global	shellDescbattery_test
 392              		.global	shellCmdbattery_test
 393              		.global	shellCommandldr_test
 394              		.global	shellDescldr_test
 395              		.global	shellCmdldr_test
 396              		.global	hadc1
 397              		.section	.bss.hadc1,"aw",%nobits
 398              		.align	2
 399              		.set	.LANCHOR0,. + 0
 402              	hadc1:
 403 0000 00000000 		.space	100
 403      00000000 
 403      00000000 
 403      00000000 
 403      00000000 
 404              		.section	.rodata.shellCmdbattery_test,"a"
 407              	shellCmdbattery_test:
 408 0000 62617474 		.ascii	"battery_test\000"
 408      6572795F 
 408      74657374 
 408      00
 409              		.section	.rodata.shellCmdldr_test,"a"
 412              	shellCmdldr_test:
 413 0000 6C64725F 		.ascii	"ldr_test\000"
 413      74657374 
 413      00
 414              		.section	.rodata.shellDescbattery_test,"a"
 417              	shellDescbattery_test:
 418 0000 67657420 		.ascii	"get battery voltage value\000"
 418      62617474 
 418      65727920 
 418      766F6C74 
 418      61676520 
 419              		.section	.rodata.shellDescldr_test,"a"
 422              	shellDescldr_test:
 423 0000 67657420 		.ascii	"get ldr value\000"
 423      6C647220 
 423      76616C75 
 423      6500
 424              		.section	shellCommand,"a"
 427              	shellCommandbattery_test:
 428 0000 00210000 		.4byte	8448
 429 0004 00000000 		.4byte	shellCmdbattery_test
 430 0008 00000000 		.4byte	Battery_Test
 431 000c 00000000 		.4byte	shellDescbattery_test
 434              	shellCommandldr_test:
 435 0010 00210000 		.4byte	8448
 436 0014 00000000 		.4byte	shellCmdldr_test
 437 0018 00000000 		.4byte	LDR_Value_Get
 438 001c 00000000 		.4byte	shellDescldr_test
 439              		.ident	"GCC: (GNU Arm Embedded Toolchain 10.3-2021.10) 10.3.1 20210824 (release)"
ARM GAS  C:\Users\CL\AppData\Local\Temp\ccdNDNHq.s 			page 9

