ARM GAS  C:\Users\CL\AppData\Local\Temp\ccwKQGnb.s 			page 1


   1              		.cpu cortex-m4
   2              		.arch armv7e-m
   3              		.fpu fpv4-sp-d16
   4              		.eabi_attribute 27, 1
   5              		.eabi_attribute 28, 1
   6              		.eabi_attribute 20, 1
   7              		.eabi_attribute 21, 1
   8              		.eabi_attribute 23, 3
   9              		.eabi_attribute 24, 1
  10              		.eabi_attribute 25, 1
  11              		.eabi_attribute 26, 1
  12              		.eabi_attribute 30, 1
  13              		.eabi_attribute 34, 1
  14              		.eabi_attribute 18, 4
  15              		.file	"ATGM332D.c"
  16              		.text
  17              	.Ltext0:
  18              		.cfi_sections	.debug_frame
  19              		.section	.text.atgm_io_init,"ax",%progbits
  20              		.align	1
  21              		.global	atgm_io_init
  22              		.syntax unified
  23              		.thumb
  24              		.thumb_func
  26              	atgm_io_init:
  27              	.LVL0:
  28              	.LFB288:
  29              		.file 1 "FML/Src/ATGM332D.c"
   1:FML/Src/ATGM332D.c **** /**
   2:FML/Src/ATGM332D.c ****  ******************************************************************************
   3:FML/Src/ATGM332D.c ****  *
   4:FML/Src/ATGM332D.c ****  * @file   
   5:FML/Src/ATGM332D.c ****  *
   6:FML/Src/ATGM332D.c ****  * @brief   
   7:FML/Src/ATGM332D.c ****  *
   8:FML/Src/ATGM332D.c ****  * @attention
   9:FML/Src/ATGM332D.c ****  *
  10:FML/Src/ATGM332D.c ****  *Copyright (c) 2023 STMicroelectronics.
  11:FML/Src/ATGM332D.c ****  *
  12:FML/Src/ATGM332D.c ****  *All rights reserved.
  13:FML/Src/ATGM332D.c ****  ******************************************************************************
  14:FML/Src/ATGM332D.c ****  */
  15:FML/Src/ATGM332D.c **** 
  16:FML/Src/ATGM332D.c **** 
  17:FML/Src/ATGM332D.c **** /*----------------------------------include-----------------------------------*/
  18:FML/Src/ATGM332D.c **** #include "ATGM332D.h"
  19:FML/Src/ATGM332D.c **** #include "usart.h"
  20:FML/Src/ATGM332D.c **** #include "shell_port.h"
  21:FML/Src/ATGM332D.c **** #include "stdarg.h"
  22:FML/Src/ATGM332D.c **** #include "string.h"
  23:FML/Src/ATGM332D.c **** /*-----------------------------------macro------------------------------------*/
  24:FML/Src/ATGM332D.c **** 
  25:FML/Src/ATGM332D.c **** /*----------------------------------variable----------------------------------*/
  26:FML/Src/ATGM332D.c **** uint8_t dev0_buff[300]={0xff,};
  27:FML/Src/ATGM332D.c **** 
  28:FML/Src/ATGM332D.c **** /*----------------------------------typedef-----------------------------------*/
  29:FML/Src/ATGM332D.c **** ATGM332D_HandleTypeDef atgm_dev[]=
ARM GAS  C:\Users\CL\AppData\Local\Temp\ccwKQGnb.s 			page 2


  30:FML/Src/ATGM332D.c **** {
  31:FML/Src/ATGM332D.c ****     {
  32:FML/Src/ATGM332D.c ****         "uart2/bds_0",
  33:FML/Src/ATGM332D.c ****         &huart2,
  34:FML/Src/ATGM332D.c ****         GPIOA,
  35:FML/Src/ATGM332D.c ****         GPIO_PIN_2,
  36:FML/Src/ATGM332D.c ****         dev0_buff,
  37:FML/Src/ATGM332D.c ****         0,
  38:FML/Src/ATGM332D.c ****         sizeof(dev0_buff)/sizeof(uint8_t)
  39:FML/Src/ATGM332D.c ****     }
  40:FML/Src/ATGM332D.c **** };
  41:FML/Src/ATGM332D.c **** /*-------------------------------------os-------------------------------------*/
  42:FML/Src/ATGM332D.c **** 
  43:FML/Src/ATGM332D.c **** /*----------------------------------function----------------------------------*/
  44:FML/Src/ATGM332D.c **** void atgm_io_init(ATGM332D_HandleTypeDef *device)
  45:FML/Src/ATGM332D.c **** {
  30              		.loc 1 45 1 view -0
  31              		.cfi_startproc
  32              		@ args = 0, pretend = 0, frame = 24
  33              		@ frame_needed = 0, uses_anonymous_args = 0
  34              		.loc 1 45 1 is_stmt 0 view .LVU1
  35 0000 30B5     		push	{r4, r5, lr}
  36              	.LCFI0:
  37              		.cfi_def_cfa_offset 12
  38              		.cfi_offset 4, -12
  39              		.cfi_offset 5, -8
  40              		.cfi_offset 14, -4
  41 0002 87B0     		sub	sp, sp, #28
  42              	.LCFI1:
  43              		.cfi_def_cfa_offset 40
  44 0004 0446     		mov	r4, r0
  46:FML/Src/ATGM332D.c ****      GPIO_InitTypeDef GPIO_InitStruct = {0};
  45              		.loc 1 46 6 is_stmt 1 view .LVU2
  46              		.loc 1 46 23 is_stmt 0 view .LVU3
  47 0006 0025     		movs	r5, #0
  48 0008 0195     		str	r5, [sp, #4]
  49 000a 0295     		str	r5, [sp, #8]
  50 000c 0395     		str	r5, [sp, #12]
  51 000e 0495     		str	r5, [sp, #16]
  52 0010 0595     		str	r5, [sp, #20]
  47:FML/Src/ATGM332D.c ****     
  48:FML/Src/ATGM332D.c ****     // 使能UART和GPIO时钟
  49:FML/Src/ATGM332D.c ****     //__HAL_RCC_UARTX_CLK_ENABLE(); // 替换为实际的UART时钟
  50:FML/Src/ATGM332D.c ****     __HAL_RCC_GPIOA_CLK_ENABLE(); // 替换为实际的GPIO时钟
  53              		.loc 1 50 5 is_stmt 1 view .LVU4
  54              	.LBB2:
  55              		.loc 1 50 5 view .LVU5
  56              		.loc 1 50 5 view .LVU6
  57 0012 0C4B     		ldr	r3, .L3
  58 0014 DA6C     		ldr	r2, [r3, #76]
  59 0016 42F00102 		orr	r2, r2, #1
  60 001a DA64     		str	r2, [r3, #76]
  61              		.loc 1 50 5 view .LVU7
  62 001c DB6C     		ldr	r3, [r3, #76]
  63 001e 03F00103 		and	r3, r3, #1
  64 0022 0093     		str	r3, [sp]
  65              		.loc 1 50 5 view .LVU8
ARM GAS  C:\Users\CL\AppData\Local\Temp\ccwKQGnb.s 			page 3


  66 0024 009B     		ldr	r3, [sp]
  67              	.LBE2:
  68              		.loc 1 50 5 view .LVU9
  51:FML/Src/ATGM332D.c ****     
  52:FML/Src/ATGM332D.c ****     // 配置GPIO引脚
  53:FML/Src/ATGM332D.c ****     GPIO_InitStruct.Pin = device->en_pin;
  69              		.loc 1 53 5 view .LVU10
  70              		.loc 1 53 33 is_stmt 0 view .LVU11
  71 0026 038B     		ldrh	r3, [r0, #24]
  72              		.loc 1 53 25 view .LVU12
  73 0028 0193     		str	r3, [sp, #4]
  54:FML/Src/ATGM332D.c ****     GPIO_InitStruct.Mode = GPIO_MODE_OUTPUT_PP;
  74              		.loc 1 54 5 is_stmt 1 view .LVU13
  75              		.loc 1 54 26 is_stmt 0 view .LVU14
  76 002a 0123     		movs	r3, #1
  77 002c 0293     		str	r3, [sp, #8]
  55:FML/Src/ATGM332D.c ****     GPIO_InitStruct.Pull = GPIO_NOPULL;
  78              		.loc 1 55 5 is_stmt 1 view .LVU15
  56:FML/Src/ATGM332D.c ****     GPIO_InitStruct.Speed = GPIO_SPEED_FREQ_LOW;
  79              		.loc 1 56 5 view .LVU16
  57:FML/Src/ATGM332D.c ****     HAL_GPIO_Init(device->en_port, &GPIO_InitStruct);
  80              		.loc 1 57 5 view .LVU17
  81 002e 01A9     		add	r1, sp, #4
  82 0030 4069     		ldr	r0, [r0, #20]
  83              	.LVL1:
  84              		.loc 1 57 5 is_stmt 0 view .LVU18
  85 0032 FFF7FEFF 		bl	HAL_GPIO_Init
  86              	.LVL2:
  58:FML/Src/ATGM332D.c ****     
  59:FML/Src/ATGM332D.c ****     
  60:FML/Src/ATGM332D.c ****     // 初始化DE引脚为发送模式
  61:FML/Src/ATGM332D.c ****     HAL_GPIO_WritePin(device->en_port, device->en_pin, GPIO_PIN_RESET);
  87              		.loc 1 61 5 is_stmt 1 view .LVU19
  88 0036 2A46     		mov	r2, r5
  89 0038 218B     		ldrh	r1, [r4, #24]
  90 003a 6069     		ldr	r0, [r4, #20]
  91 003c FFF7FEFF 		bl	HAL_GPIO_WritePin
  92              	.LVL3:
  62:FML/Src/ATGM332D.c **** }
  93              		.loc 1 62 1 is_stmt 0 view .LVU20
  94 0040 07B0     		add	sp, sp, #28
  95              	.LCFI2:
  96              		.cfi_def_cfa_offset 12
  97              		@ sp needed
  98 0042 30BD     		pop	{r4, r5, pc}
  99              	.LVL4:
 100              	.L4:
 101              		.loc 1 62 1 view .LVU21
 102              		.align	2
 103              	.L3:
 104 0044 00100240 		.word	1073876992
 105              		.cfi_endproc
 106              	.LFE288:
 108              		.section	.text.atgm_open,"ax",%progbits
 109              		.align	1
 110              		.global	atgm_open
 111              		.syntax unified
ARM GAS  C:\Users\CL\AppData\Local\Temp\ccwKQGnb.s 			page 4


 112              		.thumb
 113              		.thumb_func
 115              	atgm_open:
 116              	.LVL5:
 117              	.LFB289:
  63:FML/Src/ATGM332D.c **** int atgm_open(char *dev_name)
  64:FML/Src/ATGM332D.c **** {
 118              		.loc 1 64 1 is_stmt 1 view -0
 119              		.cfi_startproc
 120              		@ args = 0, pretend = 0, frame = 0
 121              		@ frame_needed = 0, uses_anonymous_args = 0
 122              		.loc 1 64 1 is_stmt 0 view .LVU23
 123 0000 70B5     		push	{r4, r5, r6, lr}
 124              	.LCFI3:
 125              		.cfi_def_cfa_offset 16
 126              		.cfi_offset 4, -16
 127              		.cfi_offset 5, -12
 128              		.cfi_offset 6, -8
 129              		.cfi_offset 14, -4
 130 0002 0546     		mov	r5, r0
  65:FML/Src/ATGM332D.c ****     uint8_t i = 0;
 131              		.loc 1 65 5 is_stmt 1 view .LVU24
 132              	.LVL6:
  66:FML/Src/ATGM332D.c ****     for(i = 0;i < sizeof(atgm_dev)/ sizeof(ATGM332D_HandleTypeDef);i++)
 133              		.loc 1 66 5 view .LVU25
 134              		.loc 1 66 11 is_stmt 0 view .LVU26
 135 0004 0024     		movs	r4, #0
 136              	.LVL7:
 137              	.L6:
 138              		.loc 1 66 15 is_stmt 1 discriminator 1 view .LVU27
 139              		.loc 1 66 5 is_stmt 0 discriminator 1 view .LVU28
 140 0006 1CB1     		cbz	r4, .L9
  67:FML/Src/ATGM332D.c ****     {
  68:FML/Src/ATGM332D.c ****         if(strcmp(dev_name,atgm_dev[i].dev_name) == 0)
  69:FML/Src/ATGM332D.c ****         {
  70:FML/Src/ATGM332D.c ****             atgm_io_init(&atgm_dev[i]);
  71:FML/Src/ATGM332D.c ****             return i;
  72:FML/Src/ATGM332D.c ****         }
  73:FML/Src/ATGM332D.c ****     }
  74:FML/Src/ATGM332D.c ****     return -1;
 141              		.loc 1 74 12 view .LVU29
 142 0008 4FF0FF36 		mov	r6, #-1
 143              	.L5:
  75:FML/Src/ATGM332D.c **** };
 144              		.loc 1 75 1 view .LVU30
 145 000c 3046     		mov	r0, r6
 146 000e 70BD     		pop	{r4, r5, r6, pc}
 147              	.LVL8:
 148              	.L9:
  68:FML/Src/ATGM332D.c ****         {
 149              		.loc 1 68 9 is_stmt 1 view .LVU31
  68:FML/Src/ATGM332D.c ****         {
 150              		.loc 1 68 39 is_stmt 0 view .LVU32
 151 0010 2646     		mov	r6, r4
 152 0012 04EBC403 		add	r3, r4, r4, lsl #3
  68:FML/Src/ATGM332D.c ****         {
 153              		.loc 1 68 12 view .LVU33
ARM GAS  C:\Users\CL\AppData\Local\Temp\ccwKQGnb.s 			page 5


 154 0016 0949     		ldr	r1, .L12
 155 0018 01EB8301 		add	r1, r1, r3, lsl #2
 156 001c 2846     		mov	r0, r5
 157 001e FFF7FEFF 		bl	strcmp
 158              	.LVL9:
  68:FML/Src/ATGM332D.c ****         {
 159              		.loc 1 68 11 view .LVU34
 160 0022 10B1     		cbz	r0, .L11
  66:FML/Src/ATGM332D.c ****     {
 161              		.loc 1 66 68 is_stmt 1 discriminator 2 view .LVU35
  66:FML/Src/ATGM332D.c ****     {
 162              		.loc 1 66 69 is_stmt 0 discriminator 2 view .LVU36
 163 0024 0134     		adds	r4, r4, #1
 164              	.LVL10:
  66:FML/Src/ATGM332D.c ****     {
 165              		.loc 1 66 69 discriminator 2 view .LVU37
 166 0026 E4B2     		uxtb	r4, r4
 167              	.LVL11:
  66:FML/Src/ATGM332D.c ****     {
 168              		.loc 1 66 69 discriminator 2 view .LVU38
 169 0028 EDE7     		b	.L6
 170              	.L11:
  70:FML/Src/ATGM332D.c ****             return i;
 171              		.loc 1 70 13 is_stmt 1 view .LVU39
 172 002a 04EBC403 		add	r3, r4, r4, lsl #3
 173 002e 0348     		ldr	r0, .L12
 174 0030 00EB8300 		add	r0, r0, r3, lsl #2
 175 0034 FFF7FEFF 		bl	atgm_io_init
 176              	.LVL12:
  71:FML/Src/ATGM332D.c ****         }
 177              		.loc 1 71 13 view .LVU40
  71:FML/Src/ATGM332D.c ****         }
 178              		.loc 1 71 20 is_stmt 0 view .LVU41
 179 0038 E8E7     		b	.L5
 180              	.L13:
 181 003a 00BF     		.align	2
 182              	.L12:
 183 003c 00000000 		.word	.LANCHOR0
 184              		.cfi_endproc
 185              	.LFE289:
 187              		.section	.text.atgm_read,"ax",%progbits
 188              		.align	1
 189              		.global	atgm_read
 190              		.syntax unified
 191              		.thumb
 192              		.thumb_func
 194              	atgm_read:
 195              	.LVL13:
 196              	.LFB290:
  76:FML/Src/ATGM332D.c **** int atgm_close(int fd);
  77:FML/Src/ATGM332D.c **** int atgm_write(int fd);
  78:FML/Src/ATGM332D.c **** int atgm_read(int fd,uint8_t *buff,...){
 197              		.loc 1 78 40 is_stmt 1 view -0
 198              		.cfi_startproc
 199              		@ args = 4, pretend = 12, frame = 8
 200              		@ frame_needed = 0, uses_anonymous_args = 1
  79:FML/Src/ATGM332D.c ****     if(fd >= sizeof(atgm_dev)/ sizeof(ATGM332D_HandleTypeDef))
ARM GAS  C:\Users\CL\AppData\Local\Temp\ccwKQGnb.s 			page 6


 201              		.loc 1 79 5 view .LVU43
 202              		.loc 1 79 7 is_stmt 0 view .LVU44
 203 0000 10B1     		cbz	r0, .L22
  80:FML/Src/ATGM332D.c ****         return -1;
 204              		.loc 1 80 16 view .LVU45
 205 0002 4FF0FF30 		mov	r0, #-1
 206              	.LVL14:
  81:FML/Src/ATGM332D.c ****     else{
  82:FML/Src/ATGM332D.c ****         int cmd;
  83:FML/Src/ATGM332D.c ****         va_list p_args;
  84:FML/Src/ATGM332D.c ****         va_start(p_args,buff);
  85:FML/Src/ATGM332D.c ****         cmd = va_arg(p_args,int);
  86:FML/Src/ATGM332D.c ****         va_end(p_args);
  87:FML/Src/ATGM332D.c ****         if(cmd == 0){
  88:FML/Src/ATGM332D.c ****             memcpy(buff,(uint8_t *)atgm_dev[fd].data_buff,atgm_dev[fd].data_index);
  89:FML/Src/ATGM332D.c ****             return atgm_dev[fd].data_index;
  90:FML/Src/ATGM332D.c ****         }
  91:FML/Src/ATGM332D.c ****     }
  92:FML/Src/ATGM332D.c **** };
 207              		.loc 1 92 1 view .LVU46
 208 0006 7047     		bx	lr
 209              	.LVL15:
 210              	.L22:
  78:FML/Src/ATGM332D.c ****     if(fd >= sizeof(atgm_dev)/ sizeof(ATGM332D_HandleTypeDef))
 211              		.loc 1 78 40 view .LVU47
 212 0008 0EB4     		push	{r1, r2, r3}
 213              	.LCFI4:
 214              		.cfi_def_cfa_offset 12
 215              		.cfi_offset 1, -12
 216              		.cfi_offset 2, -8
 217              		.cfi_offset 3, -4
 218 000a 70B5     		push	{r4, r5, r6, lr}
 219              	.LCFI5:
 220              		.cfi_def_cfa_offset 28
 221              		.cfi_offset 4, -28
 222              		.cfi_offset 5, -24
 223              		.cfi_offset 6, -20
 224              		.cfi_offset 14, -16
 225 000c 83B0     		sub	sp, sp, #12
 226              	.LCFI6:
 227              		.cfi_def_cfa_offset 40
 228 000e 0446     		mov	r4, r0
 229              	.LBB3:
  82:FML/Src/ATGM332D.c ****         va_list p_args;
 230              		.loc 1 82 9 is_stmt 1 view .LVU48
  83:FML/Src/ATGM332D.c ****         va_start(p_args,buff);
 231              		.loc 1 83 9 view .LVU49
  84:FML/Src/ATGM332D.c ****         cmd = va_arg(p_args,int);
 232              		.loc 1 84 9 view .LVU50
 233 0010 08AB     		add	r3, sp, #32
 234 0012 0193     		str	r3, [sp, #4]
  85:FML/Src/ATGM332D.c ****         va_end(p_args);
 235              		.loc 1 85 9 view .LVU51
  85:FML/Src/ATGM332D.c ****         va_end(p_args);
 236              		.loc 1 85 13 is_stmt 0 view .LVU52
 237 0014 09AB     		add	r3, sp, #36
 238 0016 0193     		str	r3, [sp, #4]
ARM GAS  C:\Users\CL\AppData\Local\Temp\ccwKQGnb.s 			page 7


 239 0018 089B     		ldr	r3, [sp, #32]
  86:FML/Src/ATGM332D.c ****         if(cmd == 0){
 240              		.loc 1 86 9 is_stmt 1 view .LVU53
  87:FML/Src/ATGM332D.c ****             memcpy(buff,(uint8_t *)atgm_dev[fd].data_buff,atgm_dev[fd].data_index);
 241              		.loc 1 87 9 view .LVU54
  87:FML/Src/ATGM332D.c ****             memcpy(buff,(uint8_t *)atgm_dev[fd].data_buff,atgm_dev[fd].data_index);
 242              		.loc 1 87 11 is_stmt 0 view .LVU55
 243 001a 23B1     		cbz	r3, .L23
 244              	.LVL16:
 245              	.L14:
  87:FML/Src/ATGM332D.c ****             memcpy(buff,(uint8_t *)atgm_dev[fd].data_buff,atgm_dev[fd].data_index);
 246              		.loc 1 87 11 view .LVU56
 247              	.LBE3:
 248              		.loc 1 92 1 view .LVU57
 249 001c 03B0     		add	sp, sp, #12
 250              	.LCFI7:
 251              		.cfi_remember_state
 252              		.cfi_def_cfa_offset 28
 253              		@ sp needed
 254 001e BDE87040 		pop	{r4, r5, r6, lr}
 255              	.LCFI8:
 256              		.cfi_restore 14
 257              		.cfi_restore 6
 258              		.cfi_restore 5
 259              		.cfi_restore 4
 260              		.cfi_def_cfa_offset 12
 261 0022 03B0     		add	sp, sp, #12
 262              	.LCFI9:
 263              		.cfi_restore 3
 264              		.cfi_restore 2
 265              		.cfi_restore 1
 266              		.cfi_def_cfa_offset 0
 267 0024 7047     		bx	lr
 268              	.LVL17:
 269              	.L23:
 270              	.LCFI10:
 271              		.cfi_restore_state
 272              	.LBB4:
  88:FML/Src/ATGM332D.c ****             return atgm_dev[fd].data_index;
 273              		.loc 1 88 13 is_stmt 1 view .LVU58
  88:FML/Src/ATGM332D.c ****             return atgm_dev[fd].data_index;
 274              		.loc 1 88 25 is_stmt 0 view .LVU59
 275 0026 084D     		ldr	r5, .L24
 276 0028 C600     		lsls	r6, r0, #3
 277 002a 00EBC003 		add	r3, r0, r0, lsl #3
 278 002e 05EB8303 		add	r3, r5, r3, lsl #2
  88:FML/Src/ATGM332D.c ****             return atgm_dev[fd].data_index;
 279              		.loc 1 88 13 view .LVU60
 280 0032 1A8C     		ldrh	r2, [r3, #32]
 281 0034 D969     		ldr	r1, [r3, #28]
 282 0036 0798     		ldr	r0, [sp, #28]
 283              	.LVL18:
  88:FML/Src/ATGM332D.c ****             return atgm_dev[fd].data_index;
 284              		.loc 1 88 13 view .LVU61
 285 0038 FFF7FEFF 		bl	memcpy
 286              	.LVL19:
  89:FML/Src/ATGM332D.c ****         }
ARM GAS  C:\Users\CL\AppData\Local\Temp\ccwKQGnb.s 			page 8


 287              		.loc 1 89 13 is_stmt 1 view .LVU62
  89:FML/Src/ATGM332D.c ****         }
 288              		.loc 1 89 32 is_stmt 0 view .LVU63
 289 003c 3444     		add	r4, r4, r6
 290              	.LVL20:
  89:FML/Src/ATGM332D.c ****         }
 291              		.loc 1 89 32 view .LVU64
 292 003e 05EB8405 		add	r5, r5, r4, lsl #2
 293 0042 288C     		ldrh	r0, [r5, #32]
 294 0044 EAE7     		b	.L14
 295              	.L25:
 296 0046 00BF     		.align	2
 297              	.L24:
 298 0048 00000000 		.word	.LANCHOR0
 299              	.LBE4:
 300              		.cfi_endproc
 301              	.LFE290:
 303              		.section	.text.atgm_handler,"ax",%progbits
 304              		.align	1
 305              		.global	atgm_handler
 306              		.syntax unified
 307              		.thumb
 308              		.thumb_func
 310              	atgm_handler:
 311              	.LVL21:
 312              	.LFB291:
  93:FML/Src/ATGM332D.c **** int atgm_ioctl(int fd);
  94:FML/Src/ATGM332D.c **** void atgm_handler(UART_HandleTypeDef *huart,uint8_t *data,uint16_t len)
  95:FML/Src/ATGM332D.c **** {
 313              		.loc 1 95 1 is_stmt 1 view -0
 314              		.cfi_startproc
 315              		@ args = 0, pretend = 0, frame = 0
 316              		@ frame_needed = 0, uses_anonymous_args = 0
 317              		.loc 1 95 1 is_stmt 0 view .LVU66
 318 0000 2DE9F047 		push	{r4, r5, r6, r7, r8, r9, r10, lr}
 319              	.LCFI11:
 320              		.cfi_def_cfa_offset 32
 321              		.cfi_offset 4, -32
 322              		.cfi_offset 5, -28
 323              		.cfi_offset 6, -24
 324              		.cfi_offset 7, -20
 325              		.cfi_offset 8, -16
 326              		.cfi_offset 9, -12
 327              		.cfi_offset 10, -8
 328              		.cfi_offset 14, -4
 329 0004 0646     		mov	r6, r0
 330 0006 0F46     		mov	r7, r1
 331 0008 1546     		mov	r5, r2
  96:FML/Src/ATGM332D.c ****     uint8_t i = 0;
 332              		.loc 1 96 5 is_stmt 1 view .LVU67
 333              	.LVL22:
  97:FML/Src/ATGM332D.c ****     //shellPrint(&shell,"%s",data);
  98:FML/Src/ATGM332D.c ****     for(i = 0;i < sizeof(atgm_dev)/ sizeof(ATGM332D_HandleTypeDef);i++)
 334              		.loc 1 98 5 view .LVU68
 335              		.loc 1 98 11 is_stmt 0 view .LVU69
 336 000a 0024     		movs	r4, #0
 337              	.LVL23:
ARM GAS  C:\Users\CL\AppData\Local\Temp\ccwKQGnb.s 			page 9


 338              	.L27:
 339              		.loc 1 98 15 is_stmt 1 discriminator 1 view .LVU70
 340              		.loc 1 98 5 is_stmt 0 discriminator 1 view .LVU71
 341 000c 0CB1     		cbz	r4, .L30
  99:FML/Src/ATGM332D.c ****     {
 100:FML/Src/ATGM332D.c ****         if(huart == atgm_dev[i].huart)
 101:FML/Src/ATGM332D.c ****         {
 102:FML/Src/ATGM332D.c ****             // if(len > atgm_dev[i].capacity)
 103:FML/Src/ATGM332D.c ****             // {
 104:FML/Src/ATGM332D.c ****             //     atgm_dev[i].capacity = sizeof(atgm_dev->data_buff)/sizeof(uint8_t);
 105:FML/Src/ATGM332D.c ****             //     atgm_dev[i].data_index = 0;
 106:FML/Src/ATGM332D.c ****             // }
 107:FML/Src/ATGM332D.c ****             if(len >300)
 108:FML/Src/ATGM332D.c ****                 len =300;
 109:FML/Src/ATGM332D.c ****             memcpy(atgm_dev[i].data_buff,data,len);
 110:FML/Src/ATGM332D.c ****             // atgm_dev[i].capacity -= len;
 111:FML/Src/ATGM332D.c ****             atgm_dev[i].data_index = len;
 112:FML/Src/ATGM332D.c ****         }
 113:FML/Src/ATGM332D.c ****     }
 114:FML/Src/ATGM332D.c **** }
 342              		.loc 1 114 1 view .LVU72
 343 000e BDE8F087 		pop	{r4, r5, r6, r7, r8, r9, r10, pc}
 344              	.LVL24:
 345              	.L30:
 100:FML/Src/ATGM332D.c ****         {
 346              		.loc 1 100 9 is_stmt 1 view .LVU73
 100:FML/Src/ATGM332D.c ****         {
 347              		.loc 1 100 32 is_stmt 0 view .LVU74
 348 0012 A046     		mov	r8, r4
 349 0014 04EBC403 		add	r3, r4, r4, lsl #3
 350 0018 104A     		ldr	r2, .L34
 351 001a 02EB8303 		add	r3, r2, r3, lsl #2
 352 001e 1B69     		ldr	r3, [r3, #16]
 100:FML/Src/ATGM332D.c ****         {
 353              		.loc 1 100 11 view .LVU75
 354 0020 B342     		cmp	r3, r6
 355 0022 02D0     		beq	.L33
 356              	.L28:
  98:FML/Src/ATGM332D.c ****     {
 357              		.loc 1 98 68 is_stmt 1 discriminator 2 view .LVU76
  98:FML/Src/ATGM332D.c ****     {
 358              		.loc 1 98 69 is_stmt 0 discriminator 2 view .LVU77
 359 0024 0134     		adds	r4, r4, #1
 360              	.LVL25:
  98:FML/Src/ATGM332D.c ****     {
 361              		.loc 1 98 69 discriminator 2 view .LVU78
 362 0026 E4B2     		uxtb	r4, r4
 363              	.LVL26:
  98:FML/Src/ATGM332D.c ****     {
 364              		.loc 1 98 69 discriminator 2 view .LVU79
 365 0028 F0E7     		b	.L27
 366              	.L33:
 107:FML/Src/ATGM332D.c ****                 len =300;
 367              		.loc 1 107 13 is_stmt 1 view .LVU80
 107:FML/Src/ATGM332D.c ****                 len =300;
 368              		.loc 1 107 15 is_stmt 0 view .LVU81
 369 002a B5F5967F 		cmp	r5, #300
ARM GAS  C:\Users\CL\AppData\Local\Temp\ccwKQGnb.s 			page 10


 370 002e 01D9     		bls	.L29
 108:FML/Src/ATGM332D.c ****             memcpy(atgm_dev[i].data_buff,data,len);
 371              		.loc 1 108 21 view .LVU82
 372 0030 4FF49675 		mov	r5, #300
 373              	.LVL27:
 374              	.L29:
 109:FML/Src/ATGM332D.c ****             // atgm_dev[i].capacity -= len;
 375              		.loc 1 109 13 is_stmt 1 view .LVU83
 109:FML/Src/ATGM332D.c ****             // atgm_dev[i].capacity -= len;
 376              		.loc 1 109 31 is_stmt 0 view .LVU84
 377 0034 DFF82490 		ldr	r9, .L34
 378 0038 4FEAC80A 		lsl	r10, r8, #3
 379 003c 08EBC803 		add	r3, r8, r8, lsl #3
 380 0040 09EB8303 		add	r3, r9, r3, lsl #2
 109:FML/Src/ATGM332D.c ****             // atgm_dev[i].capacity -= len;
 381              		.loc 1 109 13 view .LVU85
 382 0044 2A46     		mov	r2, r5
 383 0046 3946     		mov	r1, r7
 384 0048 D869     		ldr	r0, [r3, #28]
 385 004a FFF7FEFF 		bl	memcpy
 386              	.LVL28:
 111:FML/Src/ATGM332D.c ****         }
 387              		.loc 1 111 13 is_stmt 1 view .LVU86
 111:FML/Src/ATGM332D.c ****         }
 388              		.loc 1 111 36 is_stmt 0 view .LVU87
 389 004e D044     		add	r8, r8, r10
 390 0050 09EB8809 		add	r9, r9, r8, lsl #2
 391 0054 A9F82050 		strh	r5, [r9, #32]	@ movhi
 392 0058 E4E7     		b	.L28
 393              	.L35:
 394 005a 00BF     		.align	2
 395              	.L34:
 396 005c 00000000 		.word	.LANCHOR0
 397              		.cfi_endproc
 398              	.LFE291:
 400              		.global	atgm_dev
 401              		.global	dev0_buff
 402              		.section	.data.atgm_dev,"aw"
 403              		.align	2
 404              		.set	.LANCHOR0,. + 0
 407              	atgm_dev:
 408 0000 75617274 		.ascii	"uart2/bds_0\000"
 408      322F6264 
 408      735F3000 
 409 000c 000000   		.space	3
 410 000f 00       		.space	1
 411 0010 00000000 		.word	huart2
 412 0014 00000048 		.word	1207959552
 413 0018 0400     		.short	4
 414 001a 0000     		.space	2
 415 001c 00000000 		.word	dev0_buff
 416 0020 0000     		.short	0
 417 0022 2C01     		.short	300
 418              		.section	.data.dev0_buff,"aw"
 419              		.align	2
 422              	dev0_buff:
 423 0000 FF00     		.ascii	"\377\000"
ARM GAS  C:\Users\CL\AppData\Local\Temp\ccwKQGnb.s 			page 11


 424 0002 00000000 		.space	298
 424      00000000 
 424      00000000 
 424      00000000 
 424      00000000 
 425              		.text
 426              	.Letext0:
 427              		.file 2 "e:\\gcc-arm-none-eabi-10.3-2021.10-win32\\gcc-arm-none-eabi-10.3-2021.10\\arm-none-eabi\\
 428              		.file 3 "e:\\gcc-arm-none-eabi-10.3-2021.10-win32\\gcc-arm-none-eabi-10.3-2021.10\\arm-none-eabi\\
 429              		.file 4 "Drivers/CMSIS/Device/ST/STM32L4xx/Include/stm32l431xx.h"
 430              		.file 5 "Drivers/STM32L4xx_HAL_Driver/Inc/stm32l4xx_hal_def.h"
 431              		.file 6 "Drivers/STM32L4xx_HAL_Driver/Inc/stm32l4xx_hal_gpio.h"
 432              		.file 7 "Drivers/STM32L4xx_HAL_Driver/Inc/stm32l4xx_hal_dma.h"
 433              		.file 8 "Drivers/STM32L4xx_HAL_Driver/Inc/stm32l4xx_hal_uart.h"
 434              		.file 9 "FML/Inc/ATGM332D.h"
 435              		.file 10 "e:\\gcc-arm-none-eabi-10.3-2021.10-win32\\gcc-arm-none-eabi-10.3-2021.10\\lib\\gcc\\arm-
 436              		.file 11 "HAL/Inc/usart.h"
 437              		.file 12 "e:\\gcc-arm-none-eabi-10.3-2021.10-win32\\gcc-arm-none-eabi-10.3-2021.10\\arm-none-eabi\
 438              		.file 13 "<built-in>"
ARM GAS  C:\Users\CL\AppData\Local\Temp\ccwKQGnb.s 			page 12


DEFINED SYMBOLS
                            *ABS*:00000000 ATGM332D.c
C:\Users\CL\AppData\Local\Temp\ccwKQGnb.s:20     .text.atgm_io_init:00000000 $t
C:\Users\CL\AppData\Local\Temp\ccwKQGnb.s:26     .text.atgm_io_init:00000000 atgm_io_init
C:\Users\CL\AppData\Local\Temp\ccwKQGnb.s:104    .text.atgm_io_init:00000044 $d
C:\Users\CL\AppData\Local\Temp\ccwKQGnb.s:109    .text.atgm_open:00000000 $t
C:\Users\CL\AppData\Local\Temp\ccwKQGnb.s:115    .text.atgm_open:00000000 atgm_open
C:\Users\CL\AppData\Local\Temp\ccwKQGnb.s:183    .text.atgm_open:0000003c $d
C:\Users\CL\AppData\Local\Temp\ccwKQGnb.s:188    .text.atgm_read:00000000 $t
C:\Users\CL\AppData\Local\Temp\ccwKQGnb.s:194    .text.atgm_read:00000000 atgm_read
C:\Users\CL\AppData\Local\Temp\ccwKQGnb.s:298    .text.atgm_read:00000048 $d
C:\Users\CL\AppData\Local\Temp\ccwKQGnb.s:304    .text.atgm_handler:00000000 $t
C:\Users\CL\AppData\Local\Temp\ccwKQGnb.s:310    .text.atgm_handler:00000000 atgm_handler
C:\Users\CL\AppData\Local\Temp\ccwKQGnb.s:396    .text.atgm_handler:0000005c $d
C:\Users\CL\AppData\Local\Temp\ccwKQGnb.s:407    .data.atgm_dev:00000000 atgm_dev
C:\Users\CL\AppData\Local\Temp\ccwKQGnb.s:422    .data.dev0_buff:00000000 dev0_buff
C:\Users\CL\AppData\Local\Temp\ccwKQGnb.s:403    .data.atgm_dev:00000000 $d
C:\Users\CL\AppData\Local\Temp\ccwKQGnb.s:419    .data.dev0_buff:00000000 $d

UNDEFINED SYMBOLS
HAL_GPIO_Init
HAL_GPIO_WritePin
strcmp
memcpy
huart2
