Archive member included to satisfy reference by file (symbol)

e:/gcc-arm-none-eabi-10.3-2021.10-win32/gcc-arm-none-eabi-10.3-2021.10/bin/../lib/gcc/arm-none-eabi/10.3.1/../../../../arm-none-eabi/lib/thumb/v7e-m+fp/hard\libc_nano.a(lib_a-exit.o)
                              e:/gcc-arm-none-eabi-10.3-2021.10-win32/gcc-arm-none-eabi-10.3-2021.10/bin/../lib/gcc/arm-none-eabi/10.3.1/../../../../arm-none-eabi/lib/thumb/v7e-m+fp/hard/crt0.o (exit)
e:/gcc-arm-none-eabi-10.3-2021.10-win32/gcc-arm-none-eabi-10.3-2021.10/bin/../lib/gcc/arm-none-eabi/10.3.1/../../../../arm-none-eabi/lib/thumb/v7e-m+fp/hard\libc_nano.a(lib_a-impure.o)
                              e:/gcc-arm-none-eabi-10.3-2021.10-win32/gcc-arm-none-eabi-10.3-2021.10/bin/../lib/gcc/arm-none-eabi/10.3.1/../../../../arm-none-eabi/lib/thumb/v7e-m+fp/hard\libc_nano.a(lib_a-exit.o) (_global_impure_ptr)
e:/gcc-arm-none-eabi-10.3-2021.10-win32/gcc-arm-none-eabi-10.3-2021.10/bin/../lib/gcc/arm-none-eabi/10.3.1/../../../../arm-none-eabi/lib/thumb/v7e-m+fp/hard\libc_nano.a(lib_a-init.o)
                              e:/gcc-arm-none-eabi-10.3-2021.10-win32/gcc-arm-none-eabi-10.3-2021.10/bin/../lib/gcc/arm-none-eabi/10.3.1/../../../../arm-none-eabi/lib/thumb/v7e-m+fp/hard/crt0.o (__libc_init_array)
e:/gcc-arm-none-eabi-10.3-2021.10-win32/gcc-arm-none-eabi-10.3-2021.10/bin/../lib/gcc/arm-none-eabi/10.3.1/../../../../arm-none-eabi/lib/thumb/v7e-m+fp/hard\libc_nano.a(lib_a-malloc.o)
                              build/timer.o (malloc)
e:/gcc-arm-none-eabi-10.3-2021.10-win32/gcc-arm-none-eabi-10.3-2021.10/bin/../lib/gcc/arm-none-eabi/10.3.1/../../../../arm-none-eabi/lib/thumb/v7e-m+fp/hard\libc_nano.a(lib_a-memcpy-stub.o)
                              build/ATGM332D.o (memcpy)
e:/gcc-arm-none-eabi-10.3-2021.10-win32/gcc-arm-none-eabi-10.3-2021.10/bin/../lib/gcc/arm-none-eabi/10.3.1/../../../../arm-none-eabi/lib/thumb/v7e-m+fp/hard\libc_nano.a(lib_a-memset.o)
                              e:/gcc-arm-none-eabi-10.3-2021.10-win32/gcc-arm-none-eabi-10.3-2021.10/bin/../lib/gcc/arm-none-eabi/10.3.1/../../../../arm-none-eabi/lib/thumb/v7e-m+fp/hard/crt0.o (memset)
e:/gcc-arm-none-eabi-10.3-2021.10-win32/gcc-arm-none-eabi-10.3-2021.10/bin/../lib/gcc/arm-none-eabi/10.3.1/../../../../arm-none-eabi/lib/thumb/v7e-m+fp/hard\libc_nano.a(lib_a-nano-freer.o)
                              e:/gcc-arm-none-eabi-10.3-2021.10-win32/gcc-arm-none-eabi-10.3-2021.10/bin/../lib/gcc/arm-none-eabi/10.3.1/../../../../arm-none-eabi/lib/thumb/v7e-m+fp/hard\libc_nano.a(lib_a-malloc.o) (_free_r)
e:/gcc-arm-none-eabi-10.3-2021.10-win32/gcc-arm-none-eabi-10.3-2021.10/bin/../lib/gcc/arm-none-eabi/10.3.1/../../../../arm-none-eabi/lib/thumb/v7e-m+fp/hard\libc_nano.a(lib_a-nano-mallocr.o)
                              e:/gcc-arm-none-eabi-10.3-2021.10-win32/gcc-arm-none-eabi-10.3-2021.10/bin/../lib/gcc/arm-none-eabi/10.3.1/../../../../arm-none-eabi/lib/thumb/v7e-m+fp/hard\libc_nano.a(lib_a-malloc.o) (_malloc_r)
e:/gcc-arm-none-eabi-10.3-2021.10-win32/gcc-arm-none-eabi-10.3-2021.10/bin/../lib/gcc/arm-none-eabi/10.3.1/../../../../arm-none-eabi/lib/thumb/v7e-m+fp/hard\libc_nano.a(lib_a-sbrkr.o)
                              e:/gcc-arm-none-eabi-10.3-2021.10-win32/gcc-arm-none-eabi-10.3-2021.10/bin/../lib/gcc/arm-none-eabi/10.3.1/../../../../arm-none-eabi/lib/thumb/v7e-m+fp/hard\libc_nano.a(lib_a-nano-mallocr.o) (_sbrk_r)
e:/gcc-arm-none-eabi-10.3-2021.10-win32/gcc-arm-none-eabi-10.3-2021.10/bin/../lib/gcc/arm-none-eabi/10.3.1/../../../../arm-none-eabi/lib/thumb/v7e-m+fp/hard\libc_nano.a(lib_a-strcmp.o)
                              build/shell.o (strcmp)
e:/gcc-arm-none-eabi-10.3-2021.10-win32/gcc-arm-none-eabi-10.3-2021.10/bin/../lib/gcc/arm-none-eabi/10.3.1/../../../../arm-none-eabi/lib/thumb/v7e-m+fp/hard\libc_nano.a(lib_a-strlen.o)
                              build/shell.o (strlen)
e:/gcc-arm-none-eabi-10.3-2021.10-win32/gcc-arm-none-eabi-10.3-2021.10/bin/../lib/gcc/arm-none-eabi/10.3.1/../../../../arm-none-eabi/lib/thumb/v7e-m+fp/hard\libc_nano.a(lib_a-strncmp.o)
                              build/shell.o (strncmp)
e:/gcc-arm-none-eabi-10.3-2021.10-win32/gcc-arm-none-eabi-10.3-2021.10/bin/../lib/gcc/arm-none-eabi/10.3.1/../../../../arm-none-eabi/lib/thumb/v7e-m+fp/hard\libc_nano.a(lib_a-strstr.o)
                              build/main.o (strstr)
e:/gcc-arm-none-eabi-10.3-2021.10-win32/gcc-arm-none-eabi-10.3-2021.10/bin/../lib/gcc/arm-none-eabi/10.3.1/../../../../arm-none-eabi/lib/thumb/v7e-m+fp/hard\libc_nano.a(lib_a-vsnprintf.o)
                              build/shell.o (vsnprintf)
e:/gcc-arm-none-eabi-10.3-2021.10-win32/gcc-arm-none-eabi-10.3-2021.10/bin/../lib/gcc/arm-none-eabi/10.3.1/../../../../arm-none-eabi/lib/thumb/v7e-m+fp/hard\libc_nano.a(lib_a-mlock.o)
                              e:/gcc-arm-none-eabi-10.3-2021.10-win32/gcc-arm-none-eabi-10.3-2021.10/bin/../lib/gcc/arm-none-eabi/10.3.1/../../../../arm-none-eabi/lib/thumb/v7e-m+fp/hard\libc_nano.a(lib_a-nano-freer.o) (__malloc_lock)
e:/gcc-arm-none-eabi-10.3-2021.10-win32/gcc-arm-none-eabi-10.3-2021.10/bin/../lib/gcc/arm-none-eabi/10.3.1/../../../../arm-none-eabi/lib/thumb/v7e-m+fp/hard\libc_nano.a(lib_a-nano-svfprintf.o)
                              e:/gcc-arm-none-eabi-10.3-2021.10-win32/gcc-arm-none-eabi-10.3-2021.10/bin/../lib/gcc/arm-none-eabi/10.3.1/../../../../arm-none-eabi/lib/thumb/v7e-m+fp/hard\libc_nano.a(lib_a-vsnprintf.o) (_svfprintf_r)
e:/gcc-arm-none-eabi-10.3-2021.10-win32/gcc-arm-none-eabi-10.3-2021.10/bin/../lib/gcc/arm-none-eabi/10.3.1/../../../../arm-none-eabi/lib/thumb/v7e-m+fp/hard\libc_nano.a(lib_a-nano-vfprintf_i.o)
                              e:/gcc-arm-none-eabi-10.3-2021.10-win32/gcc-arm-none-eabi-10.3-2021.10/bin/../lib/gcc/arm-none-eabi/10.3.1/../../../../arm-none-eabi/lib/thumb/v7e-m+fp/hard\libc_nano.a(lib_a-nano-svfprintf.o) (_printf_i)
e:/gcc-arm-none-eabi-10.3-2021.10-win32/gcc-arm-none-eabi-10.3-2021.10/bin/../lib/gcc/arm-none-eabi/10.3.1/../../../../arm-none-eabi/lib/thumb/v7e-m+fp/hard\libc_nano.a(lib_a-reent.o)
                              e:/gcc-arm-none-eabi-10.3-2021.10-win32/gcc-arm-none-eabi-10.3-2021.10/bin/../lib/gcc/arm-none-eabi/10.3.1/../../../../arm-none-eabi/lib/thumb/v7e-m+fp/hard\libc_nano.a(lib_a-sbrkr.o) (errno)
e:/gcc-arm-none-eabi-10.3-2021.10-win32/gcc-arm-none-eabi-10.3-2021.10/bin/../lib/gcc/arm-none-eabi/10.3.1/../../../../arm-none-eabi/lib/thumb/v7e-m+fp/hard\libc_nano.a(lib_a-lock.o)
                              e:/gcc-arm-none-eabi-10.3-2021.10-win32/gcc-arm-none-eabi-10.3-2021.10/bin/../lib/gcc/arm-none-eabi/10.3.1/../../../../arm-none-eabi/lib/thumb/v7e-m+fp/hard\libc_nano.a(lib_a-mlock.o) (__retarget_lock_acquire_recursive)
e:/gcc-arm-none-eabi-10.3-2021.10-win32/gcc-arm-none-eabi-10.3-2021.10/bin/../lib/gcc/arm-none-eabi/10.3.1/../../../../arm-none-eabi/lib/thumb/v7e-m+fp/hard\libc_nano.a(lib_a-memchr.o)
                              e:/gcc-arm-none-eabi-10.3-2021.10-win32/gcc-arm-none-eabi-10.3-2021.10/bin/../lib/gcc/arm-none-eabi/10.3.1/../../../../arm-none-eabi/lib/thumb/v7e-m+fp/hard\libc_nano.a(lib_a-nano-svfprintf.o) (memchr)
e:/gcc-arm-none-eabi-10.3-2021.10-win32/gcc-arm-none-eabi-10.3-2021.10/bin/../lib/gcc/arm-none-eabi/10.3.1/../../../../arm-none-eabi/lib/thumb/v7e-m+fp/hard\libc_nano.a(lib_a-memmove.o)
                              e:/gcc-arm-none-eabi-10.3-2021.10-win32/gcc-arm-none-eabi-10.3-2021.10/bin/../lib/gcc/arm-none-eabi/10.3.1/../../../../arm-none-eabi/lib/thumb/v7e-m+fp/hard\libc_nano.a(lib_a-nano-svfprintf.o) (memmove)
e:/gcc-arm-none-eabi-10.3-2021.10-win32/gcc-arm-none-eabi-10.3-2021.10/bin/../lib/gcc/arm-none-eabi/10.3.1/../../../../arm-none-eabi/lib/thumb/v7e-m+fp/hard\libc_nano.a(lib_a-nano-reallocr.o)
                              e:/gcc-arm-none-eabi-10.3-2021.10-win32/gcc-arm-none-eabi-10.3-2021.10/bin/../lib/gcc/arm-none-eabi/10.3.1/../../../../arm-none-eabi/lib/thumb/v7e-m+fp/hard\libc_nano.a(lib_a-nano-svfprintf.o) (_realloc_r)
e:/gcc-arm-none-eabi-10.3-2021.10-win32/gcc-arm-none-eabi-10.3-2021.10/bin/../lib/gcc/arm-none-eabi/10.3.1/../../../../arm-none-eabi/lib/thumb/v7e-m+fp/hard\libc_nano.a(lib_a-nano-msizer.o)
                              e:/gcc-arm-none-eabi-10.3-2021.10-win32/gcc-arm-none-eabi-10.3-2021.10/bin/../lib/gcc/arm-none-eabi/10.3.1/../../../../arm-none-eabi/lib/thumb/v7e-m+fp/hard\libc_nano.a(lib_a-nano-reallocr.o) (_malloc_usable_size_r)
e:/gcc-arm-none-eabi-10.3-2021.10-win32/gcc-arm-none-eabi-10.3-2021.10/bin/../lib/gcc/arm-none-eabi/10.3.1/../../../../arm-none-eabi/lib/thumb/v7e-m+fp/hard\libm.a(lib_a-w_pow.o)
                              build/W25QXX.o (pow)
e:/gcc-arm-none-eabi-10.3-2021.10-win32/gcc-arm-none-eabi-10.3-2021.10/bin/../lib/gcc/arm-none-eabi/10.3.1/../../../../arm-none-eabi/lib/thumb/v7e-m+fp/hard\libm.a(lib_a-e_pow.o)
                              e:/gcc-arm-none-eabi-10.3-2021.10-win32/gcc-arm-none-eabi-10.3-2021.10/bin/../lib/gcc/arm-none-eabi/10.3.1/../../../../arm-none-eabi/lib/thumb/v7e-m+fp/hard\libm.a(lib_a-w_pow.o) (__ieee754_pow)
e:/gcc-arm-none-eabi-10.3-2021.10-win32/gcc-arm-none-eabi-10.3-2021.10/bin/../lib/gcc/arm-none-eabi/10.3.1/../../../../arm-none-eabi/lib/thumb/v7e-m+fp/hard\libm.a(lib_a-e_sqrt.o)
                              e:/gcc-arm-none-eabi-10.3-2021.10-win32/gcc-arm-none-eabi-10.3-2021.10/bin/../lib/gcc/arm-none-eabi/10.3.1/../../../../arm-none-eabi/lib/thumb/v7e-m+fp/hard\libm.a(lib_a-e_pow.o) (__ieee754_sqrt)
e:/gcc-arm-none-eabi-10.3-2021.10-win32/gcc-arm-none-eabi-10.3-2021.10/bin/../lib/gcc/arm-none-eabi/10.3.1/../../../../arm-none-eabi/lib/thumb/v7e-m+fp/hard\libm.a(lib_a-math_err.o)
                              e:/gcc-arm-none-eabi-10.3-2021.10-win32/gcc-arm-none-eabi-10.3-2021.10/bin/../lib/gcc/arm-none-eabi/10.3.1/../../../../arm-none-eabi/lib/thumb/v7e-m+fp/hard\libm.a(lib_a-e_pow.o) (__math_uflow)
e:/gcc-arm-none-eabi-10.3-2021.10-win32/gcc-arm-none-eabi-10.3-2021.10/bin/../lib/gcc/arm-none-eabi/10.3.1/../../../../arm-none-eabi/lib/thumb/v7e-m+fp/hard\libm.a(lib_a-s_fabs.o)
                              e:/gcc-arm-none-eabi-10.3-2021.10-win32/gcc-arm-none-eabi-10.3-2021.10/bin/../lib/gcc/arm-none-eabi/10.3.1/../../../../arm-none-eabi/lib/thumb/v7e-m+fp/hard\libm.a(lib_a-e_pow.o) (fabs)
e:/gcc-arm-none-eabi-10.3-2021.10-win32/gcc-arm-none-eabi-10.3-2021.10/bin/../lib/gcc/arm-none-eabi/10.3.1/../../../../arm-none-eabi/lib/thumb/v7e-m+fp/hard\libm.a(lib_a-s_finite.o)
                              e:/gcc-arm-none-eabi-10.3-2021.10-win32/gcc-arm-none-eabi-10.3-2021.10/bin/../lib/gcc/arm-none-eabi/10.3.1/../../../../arm-none-eabi/lib/thumb/v7e-m+fp/hard\libm.a(lib_a-w_pow.o) (finite)
e:/gcc-arm-none-eabi-10.3-2021.10-win32/gcc-arm-none-eabi-10.3-2021.10/bin/../lib/gcc/arm-none-eabi/10.3.1/../../../../arm-none-eabi/lib/thumb/v7e-m+fp/hard\libm.a(lib_a-s_scalbn.o)
                              e:/gcc-arm-none-eabi-10.3-2021.10-win32/gcc-arm-none-eabi-10.3-2021.10/bin/../lib/gcc/arm-none-eabi/10.3.1/../../../../arm-none-eabi/lib/thumb/v7e-m+fp/hard\libm.a(lib_a-e_pow.o) (scalbn)
e:/gcc-arm-none-eabi-10.3-2021.10-win32/gcc-arm-none-eabi-10.3-2021.10/bin/../lib/gcc/arm-none-eabi/10.3.1/../../../../arm-none-eabi/lib/thumb/v7e-m+fp/hard\libnosys.a(sbrk.o)
                              e:/gcc-arm-none-eabi-10.3-2021.10-win32/gcc-arm-none-eabi-10.3-2021.10/bin/../lib/gcc/arm-none-eabi/10.3.1/../../../../arm-none-eabi/lib/thumb/v7e-m+fp/hard\libc_nano.a(lib_a-sbrkr.o) (_sbrk)
e:/gcc-arm-none-eabi-10.3-2021.10-win32/gcc-arm-none-eabi-10.3-2021.10/bin/../lib/gcc/arm-none-eabi/10.3.1/../../../../arm-none-eabi/lib/thumb/v7e-m+fp/hard\libnosys.a(_exit.o)
                              e:/gcc-arm-none-eabi-10.3-2021.10-win32/gcc-arm-none-eabi-10.3-2021.10/bin/../lib/gcc/arm-none-eabi/10.3.1/../../../../arm-none-eabi/lib/thumb/v7e-m+fp/hard\libc_nano.a(lib_a-exit.o) (_exit)
e:/gcc-arm-none-eabi-10.3-2021.10-win32/gcc-arm-none-eabi-10.3-2021.10/bin/../lib/gcc/arm-none-eabi/10.3.1/thumb/v7e-m+fp/hard\libgcc.a(_arm_muldf3.o)
                              build/adc.o (__aeabi_dmul)
e:/gcc-arm-none-eabi-10.3-2021.10-win32/gcc-arm-none-eabi-10.3-2021.10/bin/../lib/gcc/arm-none-eabi/10.3.1/thumb/v7e-m+fp/hard\libgcc.a(_arm_addsubdf3.o)
                              e:/gcc-arm-none-eabi-10.3-2021.10-win32/gcc-arm-none-eabi-10.3-2021.10/bin/../lib/gcc/arm-none-eabi/10.3.1/../../../../arm-none-eabi/lib/thumb/v7e-m+fp/hard\libm.a(lib_a-e_pow.o) (__aeabi_dsub)
e:/gcc-arm-none-eabi-10.3-2021.10-win32/gcc-arm-none-eabi-10.3-2021.10/bin/../lib/gcc/arm-none-eabi/10.3.1/thumb/v7e-m+fp/hard\libgcc.a(_arm_muldivdf3.o)
                              e:/gcc-arm-none-eabi-10.3-2021.10-win32/gcc-arm-none-eabi-10.3-2021.10/bin/../lib/gcc/arm-none-eabi/10.3.1/../../../../arm-none-eabi/lib/thumb/v7e-m+fp/hard\libm.a(lib_a-e_pow.o) (__aeabi_ddiv)
e:/gcc-arm-none-eabi-10.3-2021.10-win32/gcc-arm-none-eabi-10.3-2021.10/bin/../lib/gcc/arm-none-eabi/10.3.1/thumb/v7e-m+fp/hard\libgcc.a(_arm_cmpdf2.o)
                              e:/gcc-arm-none-eabi-10.3-2021.10-win32/gcc-arm-none-eabi-10.3-2021.10/bin/../lib/gcc/arm-none-eabi/10.3.1/../../../../arm-none-eabi/lib/thumb/v7e-m+fp/hard\libm.a(lib_a-w_pow.o) (__aeabi_dcmpeq)
e:/gcc-arm-none-eabi-10.3-2021.10-win32/gcc-arm-none-eabi-10.3-2021.10/bin/../lib/gcc/arm-none-eabi/10.3.1/thumb/v7e-m+fp/hard\libgcc.a(_arm_unorddf2.o)
                              e:/gcc-arm-none-eabi-10.3-2021.10-win32/gcc-arm-none-eabi-10.3-2021.10/bin/../lib/gcc/arm-none-eabi/10.3.1/../../../../arm-none-eabi/lib/thumb/v7e-m+fp/hard\libm.a(lib_a-w_pow.o) (__aeabi_dcmpun)
e:/gcc-arm-none-eabi-10.3-2021.10-win32/gcc-arm-none-eabi-10.3-2021.10/bin/../lib/gcc/arm-none-eabi/10.3.1/thumb/v7e-m+fp/hard\libgcc.a(_arm_fixunsdfsi.o)
                              build/W25QXX.o (__aeabi_d2uiz)
e:/gcc-arm-none-eabi-10.3-2021.10-win32/gcc-arm-none-eabi-10.3-2021.10/bin/../lib/gcc/arm-none-eabi/10.3.1/thumb/v7e-m+fp/hard\libgcc.a(_arm_truncdfsf2.o)
                              build/adc.o (__aeabi_d2f)
e:/gcc-arm-none-eabi-10.3-2021.10-win32/gcc-arm-none-eabi-10.3-2021.10/bin/../lib/gcc/arm-none-eabi/10.3.1/thumb/v7e-m+fp/hard\libgcc.a(_aeabi_ldivmod.o)
                              build/stm32l4xx_hal_uart.o (__aeabi_ldivmod)
e:/gcc-arm-none-eabi-10.3-2021.10-win32/gcc-arm-none-eabi-10.3-2021.10/bin/../lib/gcc/arm-none-eabi/10.3.1/thumb/v7e-m+fp/hard\libgcc.a(_aeabi_uldivmod.o)
                              build/stm32l4xx_hal_uart.o (__aeabi_uldivmod)
e:/gcc-arm-none-eabi-10.3-2021.10-win32/gcc-arm-none-eabi-10.3-2021.10/bin/../lib/gcc/arm-none-eabi/10.3.1/thumb/v7e-m+fp/hard\libgcc.a(_udivmoddi4.o)
                              e:/gcc-arm-none-eabi-10.3-2021.10-win32/gcc-arm-none-eabi-10.3-2021.10/bin/../lib/gcc/arm-none-eabi/10.3.1/thumb/v7e-m+fp/hard\libgcc.a(_aeabi_ldivmod.o) (__udivmoddi4)
e:/gcc-arm-none-eabi-10.3-2021.10-win32/gcc-arm-none-eabi-10.3-2021.10/bin/../lib/gcc/arm-none-eabi/10.3.1/thumb/v7e-m+fp/hard\libgcc.a(_dvmd_tls.o)
                              e:/gcc-arm-none-eabi-10.3-2021.10-win32/gcc-arm-none-eabi-10.3-2021.10/bin/../lib/gcc/arm-none-eabi/10.3.1/thumb/v7e-m+fp/hard\libgcc.a(_aeabi_ldivmod.o) (__aeabi_ldiv0)
e:/gcc-arm-none-eabi-10.3-2021.10-win32/gcc-arm-none-eabi-10.3-2021.10/bin/../lib/gcc/arm-none-eabi/10.3.1/../../../../arm-none-eabi/lib/thumb/v7e-m+fp/hard\libc_nano.a(lib_a-errno.o)
                              e:/gcc-arm-none-eabi-10.3-2021.10-win32/gcc-arm-none-eabi-10.3-2021.10/bin/../lib/gcc/arm-none-eabi/10.3.1/../../../../arm-none-eabi/lib/thumb/v7e-m+fp/hard\libm.a(lib_a-w_pow.o) (__errno)

Discarded input sections

 .text          0x00000000        0x0 e:/gcc-arm-none-eabi-10.3-2021.10-win32/gcc-arm-none-eabi-10.3-2021.10/bin/../lib/gcc/arm-none-eabi/10.3.1/thumb/v7e-m+fp/hard/crti.o
 .data          0x00000000        0x0 e:/gcc-arm-none-eabi-10.3-2021.10-win32/gcc-arm-none-eabi-10.3-2021.10/bin/../lib/gcc/arm-none-eabi/10.3.1/thumb/v7e-m+fp/hard/crti.o
 .bss           0x00000000        0x0 e:/gcc-arm-none-eabi-10.3-2021.10-win32/gcc-arm-none-eabi-10.3-2021.10/bin/../lib/gcc/arm-none-eabi/10.3.1/thumb/v7e-m+fp/hard/crti.o
 .data          0x00000000        0x4 e:/gcc-arm-none-eabi-10.3-2021.10-win32/gcc-arm-none-eabi-10.3-2021.10/bin/../lib/gcc/arm-none-eabi/10.3.1/thumb/v7e-m+fp/hard/crtbegin.o
 .rodata        0x00000000       0x24 e:/gcc-arm-none-eabi-10.3-2021.10-win32/gcc-arm-none-eabi-10.3-2021.10/bin/../lib/gcc/arm-none-eabi/10.3.1/thumb/v7e-m+fp/hard/crtbegin.o
 .text          0x00000000       0x7c e:/gcc-arm-none-eabi-10.3-2021.10-win32/gcc-arm-none-eabi-10.3-2021.10/bin/../lib/gcc/arm-none-eabi/10.3.1/../../../../arm-none-eabi/lib/thumb/v7e-m+fp/hard/crt0.o
 .data          0x00000000        0x0 e:/gcc-arm-none-eabi-10.3-2021.10-win32/gcc-arm-none-eabi-10.3-2021.10/bin/../lib/gcc/arm-none-eabi/10.3.1/../../../../arm-none-eabi/lib/thumb/v7e-m+fp/hard/crt0.o
 .bss           0x00000000        0x0 e:/gcc-arm-none-eabi-10.3-2021.10-win32/gcc-arm-none-eabi-10.3-2021.10/bin/../lib/gcc/arm-none-eabi/10.3.1/../../../../arm-none-eabi/lib/thumb/v7e-m+fp/hard/crt0.o
 .ARM.extab     0x00000000        0x0 e:/gcc-arm-none-eabi-10.3-2021.10-win32/gcc-arm-none-eabi-10.3-2021.10/bin/../lib/gcc/arm-none-eabi/10.3.1/../../../../arm-none-eabi/lib/thumb/v7e-m+fp/hard/crt0.o
 .ARM.exidx     0x00000000       0x10 e:/gcc-arm-none-eabi-10.3-2021.10-win32/gcc-arm-none-eabi-10.3-2021.10/bin/../lib/gcc/arm-none-eabi/10.3.1/../../../../arm-none-eabi/lib/thumb/v7e-m+fp/hard/crt0.o
 .ARM.attributes
                0x00000000       0x1c e:/gcc-arm-none-eabi-10.3-2021.10-win32/gcc-arm-none-eabi-10.3-2021.10/bin/../lib/gcc/arm-none-eabi/10.3.1/../../../../arm-none-eabi/lib/thumb/v7e-m+fp/hard/crt0.o
 .text          0x00000000        0x0 build/main.o
 .data          0x00000000        0x0 build/main.o
 .bss           0x00000000        0x0 build/main.o
 .text          0x00000000        0x0 build/stm32l4xx_it.o
 .data          0x00000000        0x0 build/stm32l4xx_it.o
 .bss           0x00000000        0x0 build/stm32l4xx_it.o
 .text          0x00000000        0x0 build/stm32l4xx_hal_msp.o
 .data          0x00000000        0x0 build/stm32l4xx_hal_msp.o
 .bss           0x00000000        0x0 build/stm32l4xx_hal_msp.o
 .text          0x00000000        0x0 build/stm32l4xx_hal_adc.o
 .data          0x00000000        0x0 build/stm32l4xx_hal_adc.o
 .bss           0x00000000        0x0 build/stm32l4xx_hal_adc.o
 .text.LL_ADC_SetAnalogWDMonitChannels
                0x00000000       0x2c build/stm32l4xx_hal_adc.o
 .text.HAL_ADC_MspInit
                0x00000000        0x2 build/stm32l4xx_hal_adc.o
 .text.HAL_ADC_MspDeInit
                0x00000000        0x2 build/stm32l4xx_hal_adc.o
 .text.HAL_ADC_PollForEvent
                0x00000000       0xb8 build/stm32l4xx_hal_adc.o
 .text.HAL_ADC_ConvCpltCallback
                0x00000000        0x2 build/stm32l4xx_hal_adc.o
 .text.HAL_ADC_ConvHalfCpltCallback
                0x00000000        0x2 build/stm32l4xx_hal_adc.o
 .text.ADC_DMAHalfConvCplt
                0x00000000        0xa build/stm32l4xx_hal_adc.o
 .text.HAL_ADC_LevelOutOfWindowCallback
                0x00000000        0x2 build/stm32l4xx_hal_adc.o
 .text.HAL_ADC_ErrorCallback
                0x00000000        0x2 build/stm32l4xx_hal_adc.o
 .text.HAL_ADC_IRQHandler
                0x00000000      0x1e6 build/stm32l4xx_hal_adc.o
 .text.ADC_DMAConvCplt
                0x00000000       0x68 build/stm32l4xx_hal_adc.o
 .text.ADC_DMAError
                0x00000000       0x1a build/stm32l4xx_hal_adc.o
 .text.HAL_ADC_AnalogWDGConfig
                0x00000000      0x254 build/stm32l4xx_hal_adc.o
 .text.HAL_ADC_GetError
                0x00000000        0x4 build/stm32l4xx_hal_adc.o
 .text.HAL_ADC_Start_IT
                0x00000000       0xca build/stm32l4xx_hal_adc.o
 .text.HAL_ADC_Start_DMA
                0x00000000       0xac build/stm32l4xx_hal_adc.o
 .text.HAL_ADC_DeInit
                0x00000000      0x14c build/stm32l4xx_hal_adc.o
 .text.HAL_ADC_Stop_IT
                0x00000000       0x48 build/stm32l4xx_hal_adc.o
 .text.HAL_ADC_Stop_DMA
                0x00000000       0x7c build/stm32l4xx_hal_adc.o
 .text          0x00000000        0x0 build/stm32l4xx_hal_adc_ex.o
 .data          0x00000000        0x0 build/stm32l4xx_hal_adc_ex.o
 .bss           0x00000000        0x0 build/stm32l4xx_hal_adc_ex.o
 .text.LL_ADC_SetChannelSamplingTime
                0x00000000       0x22 build/stm32l4xx_hal_adc_ex.o
 .text.LL_ADC_INJ_IsConversionOngoing
                0x00000000        0x8 build/stm32l4xx_hal_adc_ex.o
 .text.HAL_ADCEx_Calibration_GetValue
                0x00000000       0x16 build/stm32l4xx_hal_adc_ex.o
 .text.HAL_ADCEx_Calibration_SetValue
                0x00000000       0x6c build/stm32l4xx_hal_adc_ex.o
 .text.HAL_ADCEx_InjectedStart
                0x00000000       0x90 build/stm32l4xx_hal_adc_ex.o
 .text.HAL_ADCEx_InjectedStop
                0x00000000       0x50 build/stm32l4xx_hal_adc_ex.o
 .text.HAL_ADCEx_InjectedPollForConversion
                0x00000000       0xa4 build/stm32l4xx_hal_adc_ex.o
 .text.HAL_ADCEx_InjectedStart_IT
                0x00000000       0xc4 build/stm32l4xx_hal_adc_ex.o
 .text.HAL_ADCEx_InjectedStop_IT
                0x00000000       0x58 build/stm32l4xx_hal_adc_ex.o
 .text.HAL_ADCEx_InjectedGetValue
                0x00000000       0x2e build/stm32l4xx_hal_adc_ex.o
 .text.HAL_ADCEx_InjectedConvCpltCallback
                0x00000000        0x2 build/stm32l4xx_hal_adc_ex.o
 .text.HAL_ADCEx_InjectedQueueOverflowCallback
                0x00000000        0x2 build/stm32l4xx_hal_adc_ex.o
 .text.HAL_ADCEx_LevelOutOfWindow2Callback
                0x00000000        0x2 build/stm32l4xx_hal_adc_ex.o
 .text.HAL_ADCEx_LevelOutOfWindow3Callback
                0x00000000        0x2 build/stm32l4xx_hal_adc_ex.o
 .text.HAL_ADCEx_EndOfSamplingCallback
                0x00000000        0x2 build/stm32l4xx_hal_adc_ex.o
 .text.HAL_ADCEx_RegularStop
                0x00000000       0x5a build/stm32l4xx_hal_adc_ex.o
 .text.HAL_ADCEx_RegularStop_IT
                0x00000000       0x62 build/stm32l4xx_hal_adc_ex.o
 .text.HAL_ADCEx_RegularStop_DMA
                0x00000000       0x88 build/stm32l4xx_hal_adc_ex.o
 .text.HAL_ADCEx_InjectedConfigChannel
                0x00000000      0x428 build/stm32l4xx_hal_adc_ex.o
 .text.HAL_ADCEx_EnableInjectedQueue
                0x00000000       0x2e build/stm32l4xx_hal_adc_ex.o
 .text.HAL_ADCEx_DisableInjectedQueue
                0x00000000       0x2e build/stm32l4xx_hal_adc_ex.o
 .text.HAL_ADCEx_DisableVoltageRegulator
                0x00000000       0x1c build/stm32l4xx_hal_adc_ex.o
 .text.HAL_ADCEx_EnterADCDeepPowerDownMode
                0x00000000       0x20 build/stm32l4xx_hal_adc_ex.o
 .text          0x00000000        0x0 build/stm32l4xx_hal.o
 .data          0x00000000        0x0 build/stm32l4xx_hal.o
 .bss           0x00000000        0x0 build/stm32l4xx_hal.o
 .text.HAL_MspInit
                0x00000000        0x2 build/stm32l4xx_hal.o
 .text.HAL_MspDeInit
                0x00000000        0x2 build/stm32l4xx_hal.o
 .text.HAL_DeInit
                0x00000000       0x30 build/stm32l4xx_hal.o
 .text.HAL_GetTickPrio
                0x00000000        0xc build/stm32l4xx_hal.o
 .text.HAL_SetTickFreq
                0x00000000       0x28 build/stm32l4xx_hal.o
 .text.HAL_GetTickFreq
                0x00000000        0xc build/stm32l4xx_hal.o
 .text.HAL_Delay
                0x00000000        0x4 build/stm32l4xx_hal.o
 .text.HAL_SuspendTick
                0x00000000        0xe build/stm32l4xx_hal.o
 .text.HAL_ResumeTick
                0x00000000        0xe build/stm32l4xx_hal.o
 .text.HAL_GetHalVersion
                0x00000000        0x8 build/stm32l4xx_hal.o
 .text.HAL_GetREVID
                0x00000000        0xc build/stm32l4xx_hal.o
 .text.HAL_GetDEVID
                0x00000000       0x10 build/stm32l4xx_hal.o
 .text.HAL_GetUIDw0
                0x00000000        0xc build/stm32l4xx_hal.o
 .text.HAL_GetUIDw1
                0x00000000        0xc build/stm32l4xx_hal.o
 .text.HAL_GetUIDw2
                0x00000000        0xc build/stm32l4xx_hal.o
 .text.HAL_DBGMCU_EnableDBGSleepMode
                0x00000000       0x10 build/stm32l4xx_hal.o
 .text.HAL_DBGMCU_DisableDBGSleepMode
                0x00000000       0x10 build/stm32l4xx_hal.o
 .text.HAL_DBGMCU_EnableDBGStopMode
                0x00000000       0x10 build/stm32l4xx_hal.o
 .text.HAL_DBGMCU_DisableDBGStopMode
                0x00000000       0x10 build/stm32l4xx_hal.o
 .text.HAL_DBGMCU_EnableDBGStandbyMode
                0x00000000       0x10 build/stm32l4xx_hal.o
 .text.HAL_DBGMCU_DisableDBGStandbyMode
                0x00000000       0x10 build/stm32l4xx_hal.o
 .text.HAL_SYSCFG_SRAM2Erase
                0x00000000       0x1c build/stm32l4xx_hal.o
 .text.HAL_SYSCFG_EnableMemorySwappingBank
                0x00000000        0xc build/stm32l4xx_hal.o
 .text.HAL_SYSCFG_DisableMemorySwappingBank
                0x00000000        0xc build/stm32l4xx_hal.o
 .text.HAL_SYSCFG_VREFBUF_VoltageScalingConfig
                0x00000000       0x14 build/stm32l4xx_hal.o
 .text.HAL_SYSCFG_VREFBUF_HighImpedanceConfig
                0x00000000       0x14 build/stm32l4xx_hal.o
 .text.HAL_SYSCFG_VREFBUF_TrimmingConfig
                0x00000000       0x14 build/stm32l4xx_hal.o
 .text.HAL_SYSCFG_EnableVREFBUF
                0x00000000       0x30 build/stm32l4xx_hal.o
 .text.HAL_SYSCFG_DisableVREFBUF
                0x00000000       0x10 build/stm32l4xx_hal.o
 .text.HAL_SYSCFG_EnableIOAnalogSwitchBooster
                0x00000000       0x10 build/stm32l4xx_hal.o
 .text.HAL_SYSCFG_DisableIOAnalogSwitchBooster
                0x00000000       0x10 build/stm32l4xx_hal.o
 .text          0x00000000        0x0 build/stm32l4xx_hal_i2c.o
 .data          0x00000000        0x0 build/stm32l4xx_hal_i2c.o
 .bss           0x00000000        0x0 build/stm32l4xx_hal_i2c.o
 .text.I2C_Flush_TXDR
                0x00000000       0x1c build/stm32l4xx_hal_i2c.o
 .text.I2C_TransferConfig
                0x00000000       0x2c build/stm32l4xx_hal_i2c.o
 .text.I2C_Enable_IRQ
                0x00000000       0x74 build/stm32l4xx_hal_i2c.o
 .text.I2C_Disable_IRQ
                0x00000000       0x42 build/stm32l4xx_hal_i2c.o
 .text.I2C_IsErrorOccurred
                0x00000000      0x116 build/stm32l4xx_hal_i2c.o
 .text.I2C_WaitOnTXISFlagUntilTimeout
                0x00000000       0x4e build/stm32l4xx_hal_i2c.o
 .text.I2C_WaitOnRXNEFlagUntilTimeout
                0x00000000       0x90 build/stm32l4xx_hal_i2c.o
 .text.I2C_ConvertOtherXferOptions
                0x00000000       0x1a build/stm32l4xx_hal_i2c.o
 .text.I2C_WaitOnFlagUntilTimeout
                0x00000000       0x54 build/stm32l4xx_hal_i2c.o
 .text.I2C_WaitOnSTOPFlagUntilTimeout
                0x00000000       0x4a build/stm32l4xx_hal_i2c.o
 .text.HAL_I2C_MspInit
                0x00000000        0x2 build/stm32l4xx_hal_i2c.o
 .text.HAL_I2C_Init
                0x00000000       0xa2 build/stm32l4xx_hal_i2c.o
 .text.HAL_I2C_MspDeInit
                0x00000000        0x2 build/stm32l4xx_hal_i2c.o
 .text.HAL_I2C_DeInit
                0x00000000       0x32 build/stm32l4xx_hal_i2c.o
 .text.HAL_I2C_Master_Transmit
                0x00000000      0x12c build/stm32l4xx_hal_i2c.o
 .text.HAL_I2C_Master_Receive
                0x00000000      0x130 build/stm32l4xx_hal_i2c.o
 .text.HAL_I2C_Slave_Transmit
                0x00000000      0x14c build/stm32l4xx_hal_i2c.o
 .text.HAL_I2C_Slave_Receive
                0x00000000      0x140 build/stm32l4xx_hal_i2c.o
 .text.HAL_I2C_Master_Transmit_IT
                0x00000000       0x88 build/stm32l4xx_hal_i2c.o
 .text.HAL_I2C_Master_Receive_IT
                0x00000000       0x88 build/stm32l4xx_hal_i2c.o
 .text.HAL_I2C_Slave_Transmit_IT
                0x00000000       0x58 build/stm32l4xx_hal_i2c.o
 .text.HAL_I2C_Slave_Receive_IT
                0x00000000       0x58 build/stm32l4xx_hal_i2c.o
 .text.HAL_I2C_Master_Transmit_DMA
                0x00000000      0x12c build/stm32l4xx_hal_i2c.o
 .text.HAL_I2C_Master_Receive_DMA
                0x00000000      0x12c build/stm32l4xx_hal_i2c.o
 .text.HAL_I2C_Slave_Transmit_DMA
                0x00000000       0xd0 build/stm32l4xx_hal_i2c.o
 .text.HAL_I2C_Slave_Receive_DMA
                0x00000000       0xd4 build/stm32l4xx_hal_i2c.o
 .text.HAL_I2C_Mem_Write
                0x00000000      0x1b4 build/stm32l4xx_hal_i2c.o
 .text.HAL_I2C_Mem_Read
                0x00000000      0x1bc build/stm32l4xx_hal_i2c.o
 .text.HAL_I2C_Mem_Write_IT
                0x00000000       0xa8 build/stm32l4xx_hal_i2c.o
 .text.HAL_I2C_Mem_Read_IT
                0x00000000       0xa4 build/stm32l4xx_hal_i2c.o
 .text.HAL_I2C_Mem_Write_DMA
                0x00000000      0x11c build/stm32l4xx_hal_i2c.o
 .text.HAL_I2C_Mem_Read_DMA
                0x00000000      0x120 build/stm32l4xx_hal_i2c.o
 .text.HAL_I2C_IsDeviceReady
                0x00000000      0x13a build/stm32l4xx_hal_i2c.o
 .text.HAL_I2C_Master_Seq_Transmit_IT
                0x00000000       0xa4 build/stm32l4xx_hal_i2c.o
 .text.HAL_I2C_Master_Seq_Transmit_DMA
                0x00000000      0x158 build/stm32l4xx_hal_i2c.o
 .text.HAL_I2C_Master_Seq_Receive_IT
                0x00000000       0xa4 build/stm32l4xx_hal_i2c.o
 .text.HAL_I2C_Master_Seq_Receive_DMA
                0x00000000      0x154 build/stm32l4xx_hal_i2c.o
 .text.HAL_I2C_Slave_Seq_Transmit_IT
                0x00000000       0xbc build/stm32l4xx_hal_i2c.o
 .text.HAL_I2C_Slave_Seq_Transmit_DMA
                0x00000000      0x164 build/stm32l4xx_hal_i2c.o
 .text.HAL_I2C_Slave_Seq_Receive_IT
                0x00000000       0xbc build/stm32l4xx_hal_i2c.o
 .text.HAL_I2C_Slave_Seq_Receive_DMA
                0x00000000      0x164 build/stm32l4xx_hal_i2c.o
 .text.HAL_I2C_EnableListen_IT
                0x00000000       0x28 build/stm32l4xx_hal_i2c.o
 .text.HAL_I2C_DisableListen_IT
                0x00000000       0x38 build/stm32l4xx_hal_i2c.o
 .text.HAL_I2C_Master_Abort_IT
                0x00000000       0x78 build/stm32l4xx_hal_i2c.o
 .text.HAL_I2C_EV_IRQHandler
                0x00000000        0xe build/stm32l4xx_hal_i2c.o
 .text.HAL_I2C_MasterTxCpltCallback
                0x00000000        0x2 build/stm32l4xx_hal_i2c.o
 .text.HAL_I2C_MasterRxCpltCallback
                0x00000000        0x2 build/stm32l4xx_hal_i2c.o
 .text.I2C_ITMasterSeqCplt
                0x00000000       0x44 build/stm32l4xx_hal_i2c.o
 .text.HAL_I2C_SlaveTxCpltCallback
                0x00000000        0x2 build/stm32l4xx_hal_i2c.o
 .text.HAL_I2C_SlaveRxCpltCallback
                0x00000000        0x2 build/stm32l4xx_hal_i2c.o
 .text.I2C_ITSlaveSeqCplt
                0x00000000       0x6c build/stm32l4xx_hal_i2c.o
 .text.I2C_DMASlaveTransmitCplt
                0x00000000       0x1a build/stm32l4xx_hal_i2c.o
 .text.I2C_DMASlaveReceiveCplt
                0x00000000       0x22 build/stm32l4xx_hal_i2c.o
 .text.HAL_I2C_AddrCallback
                0x00000000        0x2 build/stm32l4xx_hal_i2c.o
 .text.I2C_ITAddrCplt.constprop.0
                0x00000000       0x86 build/stm32l4xx_hal_i2c.o
 .text.HAL_I2C_ListenCpltCallback
                0x00000000        0x2 build/stm32l4xx_hal_i2c.o
 .text.I2C_ITListenCplt
                0x00000000       0x60 build/stm32l4xx_hal_i2c.o
 .text.HAL_I2C_MemTxCpltCallback
                0x00000000        0x2 build/stm32l4xx_hal_i2c.o
 .text.HAL_I2C_MemRxCpltCallback
                0x00000000        0x2 build/stm32l4xx_hal_i2c.o
 .text.HAL_I2C_ErrorCallback
                0x00000000        0x2 build/stm32l4xx_hal_i2c.o
 .text.HAL_I2C_AbortCpltCallback
                0x00000000        0x2 build/stm32l4xx_hal_i2c.o
 .text.I2C_TreatErrorCallback
                0x00000000       0x2c build/stm32l4xx_hal_i2c.o
 .text.I2C_ITError
                0x00000000       0xe4 build/stm32l4xx_hal_i2c.o
 .text.I2C_ITSlaveCplt
                0x00000000      0x128 build/stm32l4xx_hal_i2c.o
 .text.I2C_Slave_ISR_IT
                0x00000000      0x112 build/stm32l4xx_hal_i2c.o
 .text.I2C_ITMasterCplt
                0x00000000       0xee build/stm32l4xx_hal_i2c.o
 .text.I2C_Master_ISR_IT
                0x00000000      0x122 build/stm32l4xx_hal_i2c.o
 .text.I2C_Slave_ISR_DMA
                0x00000000       0xf0 build/stm32l4xx_hal_i2c.o
 .text.I2C_Master_ISR_DMA
                0x00000000      0x104 build/stm32l4xx_hal_i2c.o
 .text.I2C_DMAError
                0x00000000       0x12 build/stm32l4xx_hal_i2c.o
 .text.I2C_DMAMasterTransmitCplt
                0x00000000       0x52 build/stm32l4xx_hal_i2c.o
 .text.I2C_DMAMasterReceiveCplt
                0x00000000       0x52 build/stm32l4xx_hal_i2c.o
 .text.I2C_Mem_ISR_IT
                0x00000000      0x10c build/stm32l4xx_hal_i2c.o
 .text.I2C_Mem_ISR_DMA
                0x00000000      0x124 build/stm32l4xx_hal_i2c.o
 .text.HAL_I2C_ER_IRQHandler
                0x00000000       0x60 build/stm32l4xx_hal_i2c.o
 .text.I2C_DMAAbort
                0x00000000       0x16 build/stm32l4xx_hal_i2c.o
 .text.HAL_I2C_GetState
                0x00000000        0x6 build/stm32l4xx_hal_i2c.o
 .text.HAL_I2C_GetMode
                0x00000000        0x6 build/stm32l4xx_hal_i2c.o
 .text.HAL_I2C_GetError
                0x00000000        0x4 build/stm32l4xx_hal_i2c.o
 .debug_info    0x00000000     0x3fb9 build/stm32l4xx_hal_i2c.o
 .debug_abbrev  0x00000000      0x3eb build/stm32l4xx_hal_i2c.o
 .debug_loc     0x00000000     0x4af3 build/stm32l4xx_hal_i2c.o
 .debug_aranges
                0x00000000      0x240 build/stm32l4xx_hal_i2c.o
 .debug_ranges  0x00000000      0x2d0 build/stm32l4xx_hal_i2c.o
 .debug_line    0x00000000     0x4cdd build/stm32l4xx_hal_i2c.o
 .debug_str     0x00000000      0xfbc build/stm32l4xx_hal_i2c.o
 .comment       0x00000000       0x4a build/stm32l4xx_hal_i2c.o
 .debug_frame   0x00000000      0x8f8 build/stm32l4xx_hal_i2c.o
 .ARM.attributes
                0x00000000       0x34 build/stm32l4xx_hal_i2c.o
 .text          0x00000000        0x0 build/stm32l4xx_hal_i2c_ex.o
 .data          0x00000000        0x0 build/stm32l4xx_hal_i2c_ex.o
 .bss           0x00000000        0x0 build/stm32l4xx_hal_i2c_ex.o
 .text.HAL_I2CEx_ConfigAnalogFilter
                0x00000000       0x4c build/stm32l4xx_hal_i2c_ex.o
 .text.HAL_I2CEx_ConfigDigitalFilter
                0x00000000       0x4a build/stm32l4xx_hal_i2c_ex.o
 .text.HAL_I2CEx_EnableWakeUp
                0x00000000       0x44 build/stm32l4xx_hal_i2c_ex.o
 .text.HAL_I2CEx_DisableWakeUp
                0x00000000       0x44 build/stm32l4xx_hal_i2c_ex.o
 .text.HAL_I2CEx_EnableFastModePlus
                0x00000000       0x2c build/stm32l4xx_hal_i2c_ex.o
 .text.HAL_I2CEx_DisableFastModePlus
                0x00000000       0x2c build/stm32l4xx_hal_i2c_ex.o
 .debug_info    0x00000000      0xb75 build/stm32l4xx_hal_i2c_ex.o
 .debug_abbrev  0x00000000      0x1d4 build/stm32l4xx_hal_i2c_ex.o
 .debug_loc     0x00000000      0x270 build/stm32l4xx_hal_i2c_ex.o
 .debug_aranges
                0x00000000       0x48 build/stm32l4xx_hal_i2c_ex.o
 .debug_ranges  0x00000000       0x78 build/stm32l4xx_hal_i2c_ex.o
 .debug_line    0x00000000      0x4de build/stm32l4xx_hal_i2c_ex.o
 .debug_str     0x00000000      0x8f3 build/stm32l4xx_hal_i2c_ex.o
 .comment       0x00000000       0x4a build/stm32l4xx_hal_i2c_ex.o
 .debug_frame   0x00000000       0x90 build/stm32l4xx_hal_i2c_ex.o
 .ARM.attributes
                0x00000000       0x34 build/stm32l4xx_hal_i2c_ex.o
 .text          0x00000000        0x0 build/stm32l4xx_hal_rcc.o
 .data          0x00000000        0x0 build/stm32l4xx_hal_rcc.o
 .bss           0x00000000        0x0 build/stm32l4xx_hal_rcc.o
 .text.HAL_RCC_DeInit
                0x00000000       0xd8 build/stm32l4xx_hal_rcc.o
 .text.HAL_RCC_MCOConfig
                0x00000000       0x50 build/stm32l4xx_hal_rcc.o
 .text.HAL_RCC_GetHCLKFreq
                0x00000000        0xc build/stm32l4xx_hal_rcc.o
 .text.HAL_RCC_GetOscConfig
                0x00000000       0xc4 build/stm32l4xx_hal_rcc.o
 .text.HAL_RCC_GetClockConfig
                0x00000000       0x3c build/stm32l4xx_hal_rcc.o
 .text.HAL_RCC_EnableCSS
                0x00000000       0x10 build/stm32l4xx_hal_rcc.o
 .text.HAL_RCC_CSSCallback
                0x00000000        0x2 build/stm32l4xx_hal_rcc.o
 .text.HAL_RCC_NMI_IRQHandler
                0x00000000       0x1c build/stm32l4xx_hal_rcc.o
 .text.HAL_RCC_GetResetSource
                0x00000000       0x1c build/stm32l4xx_hal_rcc.o
 .text          0x00000000        0x0 build/stm32l4xx_hal_rcc_ex.o
 .data          0x00000000        0x0 build/stm32l4xx_hal_rcc_ex.o
 .bss           0x00000000        0x0 build/stm32l4xx_hal_rcc_ex.o
 .text.HAL_RCCEx_GetPeriphCLKConfig
                0x00000000       0xe4 build/stm32l4xx_hal_rcc_ex.o
 .text.HAL_RCCEx_GetPeriphCLKFreq
                0x00000000      0x3b4 build/stm32l4xx_hal_rcc_ex.o
 .text.HAL_RCCEx_EnablePLLSAI1
                0x00000000       0x84 build/stm32l4xx_hal_rcc_ex.o
 .text.HAL_RCCEx_DisablePLLSAI1
                0x00000000       0x4c build/stm32l4xx_hal_rcc_ex.o
 .text.HAL_RCCEx_WakeUpStopCLKConfig
                0x00000000       0x14 build/stm32l4xx_hal_rcc_ex.o
 .text.HAL_RCCEx_StandbyMSIRangeConfig
                0x00000000       0x18 build/stm32l4xx_hal_rcc_ex.o
 .text.HAL_RCCEx_EnableLSECSS
                0x00000000       0x14 build/stm32l4xx_hal_rcc_ex.o
 .text.HAL_RCCEx_DisableLSECSS
                0x00000000       0x1c build/stm32l4xx_hal_rcc_ex.o
 .text.HAL_RCCEx_EnableLSECSS_IT
                0x00000000       0x30 build/stm32l4xx_hal_rcc_ex.o
 .text.HAL_RCCEx_LSECSS_Callback
                0x00000000        0x2 build/stm32l4xx_hal_rcc_ex.o
 .text.HAL_RCCEx_LSECSS_IRQHandler
                0x00000000       0x1c build/stm32l4xx_hal_rcc_ex.o
 .text.HAL_RCCEx_EnableLSCO
                0x00000000       0x90 build/stm32l4xx_hal_rcc_ex.o
 .text.HAL_RCCEx_DisableLSCO
                0x00000000       0x5c build/stm32l4xx_hal_rcc_ex.o
 .text.HAL_RCCEx_EnableMSIPLLMode
                0x00000000       0x10 build/stm32l4xx_hal_rcc_ex.o
 .text.HAL_RCCEx_DisableMSIPLLMode
                0x00000000       0x10 build/stm32l4xx_hal_rcc_ex.o
 .text.HAL_RCCEx_CRSConfig
                0x00000000       0x4c build/stm32l4xx_hal_rcc_ex.o
 .text.HAL_RCCEx_CRSSoftwareSynchronizationGenerate
                0x00000000       0x10 build/stm32l4xx_hal_rcc_ex.o
 .text.HAL_RCCEx_CRSGetSynchronizationInfo
                0x00000000       0x24 build/stm32l4xx_hal_rcc_ex.o
 .text.HAL_RCCEx_CRSWaitSynchronization
                0x00000000       0x88 build/stm32l4xx_hal_rcc_ex.o
 .text.HAL_RCCEx_CRS_SyncOkCallback
                0x00000000        0x2 build/stm32l4xx_hal_rcc_ex.o
 .text.HAL_RCCEx_CRS_SyncWarnCallback
                0x00000000        0x2 build/stm32l4xx_hal_rcc_ex.o
 .text.HAL_RCCEx_CRS_ExpectedSyncCallback
                0x00000000        0x2 build/stm32l4xx_hal_rcc_ex.o
 .text.HAL_RCCEx_CRS_ErrorCallback
                0x00000000        0x2 build/stm32l4xx_hal_rcc_ex.o
 .text.HAL_RCCEx_CRS_IRQHandler
                0x00000000       0x74 build/stm32l4xx_hal_rcc_ex.o
 .text          0x00000000        0x0 build/stm32l4xx_hal_flash.o
 .data          0x00000000        0x0 build/stm32l4xx_hal_flash.o
 .bss           0x00000000        0x0 build/stm32l4xx_hal_flash.o
 .text.FLASH_Program_Fast
                0x00000000       0x2c build/stm32l4xx_hal_flash.o
 .text.HAL_FLASH_Program_IT
                0x00000000       0x74 build/stm32l4xx_hal_flash.o
 .text.HAL_FLASH_EndOfOperationCallback
                0x00000000        0x2 build/stm32l4xx_hal_flash.o
 .text.HAL_FLASH_OperationErrorCallback
                0x00000000        0x2 build/stm32l4xx_hal_flash.o
 .text.HAL_FLASH_IRQHandler
                0x00000000       0xe4 build/stm32l4xx_hal_flash.o
 .text.HAL_FLASH_Unlock
                0x00000000       0x24 build/stm32l4xx_hal_flash.o
 .text.HAL_FLASH_Lock
                0x00000000       0x14 build/stm32l4xx_hal_flash.o
 .text.HAL_FLASH_OB_Unlock
                0x00000000       0x24 build/stm32l4xx_hal_flash.o
 .text.HAL_FLASH_OB_Lock
                0x00000000       0x14 build/stm32l4xx_hal_flash.o
 .text.HAL_FLASH_GetError
                0x00000000        0xc build/stm32l4xx_hal_flash.o
 .text.FLASH_WaitForLastOperation
                0x00000000       0x58 build/stm32l4xx_hal_flash.o
 .text.HAL_FLASH_Program
                0x00000000       0xa4 build/stm32l4xx_hal_flash.o
 .text.HAL_FLASH_OB_Launch
                0x00000000       0x18 build/stm32l4xx_hal_flash.o
 .data.pFlash   0x00000000       0x20 build/stm32l4xx_hal_flash.o
 .debug_info    0x00000000      0x92d build/stm32l4xx_hal_flash.o
 .debug_abbrev  0x00000000      0x387 build/stm32l4xx_hal_flash.o
 .debug_loc     0x00000000      0x586 build/stm32l4xx_hal_flash.o
 .debug_aranges
                0x00000000       0x78 build/stm32l4xx_hal_flash.o
 .debug_ranges  0x00000000       0x80 build/stm32l4xx_hal_flash.o
 .debug_line    0x00000000      0x828 build/stm32l4xx_hal_flash.o
 .debug_str     0x00000000      0x61b build/stm32l4xx_hal_flash.o
 .comment       0x00000000       0x4a build/stm32l4xx_hal_flash.o
 .debug_frame   0x00000000      0x11c build/stm32l4xx_hal_flash.o
 .ARM.attributes
                0x00000000       0x34 build/stm32l4xx_hal_flash.o
 .text          0x00000000        0x0 build/stm32l4xx_hal_flash_ex.o
 .data          0x00000000        0x0 build/stm32l4xx_hal_flash_ex.o
 .bss           0x00000000        0x0 build/stm32l4xx_hal_flash_ex.o
 .text.FLASH_MassErase
                0x00000000       0x20 build/stm32l4xx_hal_flash_ex.o
 .text.HAL_FLASHEx_OBProgram
                0x00000000      0x244 build/stm32l4xx_hal_flash_ex.o
 .text.HAL_FLASHEx_OBGetConfig
                0x00000000       0x90 build/stm32l4xx_hal_flash_ex.o
 .text.FLASH_PageErase
                0x00000000       0x28 build/stm32l4xx_hal_flash_ex.o
 .text.HAL_FLASHEx_Erase_IT
                0x00000000       0x88 build/stm32l4xx_hal_flash_ex.o
 .text.FLASH_FlushCaches
                0x00000000       0x60 build/stm32l4xx_hal_flash_ex.o
 .text.HAL_FLASHEx_Erase
                0x00000000       0xdc build/stm32l4xx_hal_flash_ex.o
 .debug_info    0x00000000      0xb23 build/stm32l4xx_hal_flash_ex.o
 .debug_abbrev  0x00000000      0x2be build/stm32l4xx_hal_flash_ex.o
 .debug_loc     0x00000000      0x61f build/stm32l4xx_hal_flash_ex.o
 .debug_aranges
                0x00000000       0x50 build/stm32l4xx_hal_flash_ex.o
 .debug_ranges  0x00000000       0xe0 build/stm32l4xx_hal_flash_ex.o
 .debug_line    0x00000000      0x998 build/stm32l4xx_hal_flash_ex.o
 .debug_str     0x00000000      0x65b build/stm32l4xx_hal_flash_ex.o
 .comment       0x00000000       0x4a build/stm32l4xx_hal_flash_ex.o
 .debug_frame   0x00000000       0xb0 build/stm32l4xx_hal_flash_ex.o
 .ARM.attributes
                0x00000000       0x34 build/stm32l4xx_hal_flash_ex.o
 .text          0x00000000        0x0 build/stm32l4xx_hal_flash_ramfunc.o
 .data          0x00000000        0x0 build/stm32l4xx_hal_flash_ramfunc.o
 .bss           0x00000000        0x0 build/stm32l4xx_hal_flash_ramfunc.o
 .RamFunc       0x00000000       0x48 build/stm32l4xx_hal_flash_ramfunc.o
 .debug_info    0x00000000      0x1e1 build/stm32l4xx_hal_flash_ramfunc.o
 .debug_abbrev  0x00000000       0xba build/stm32l4xx_hal_flash_ramfunc.o
 .debug_aranges
                0x00000000       0x28 build/stm32l4xx_hal_flash_ramfunc.o
 .debug_ranges  0x00000000       0x18 build/stm32l4xx_hal_flash_ramfunc.o
 .debug_line    0x00000000      0x1ec build/stm32l4xx_hal_flash_ramfunc.o
 .debug_str     0x00000000      0x27b build/stm32l4xx_hal_flash_ramfunc.o
 .comment       0x00000000       0x4a build/stm32l4xx_hal_flash_ramfunc.o
 .debug_frame   0x00000000       0x30 build/stm32l4xx_hal_flash_ramfunc.o
 .ARM.attributes
                0x00000000       0x34 build/stm32l4xx_hal_flash_ramfunc.o
 .text          0x00000000        0x0 build/stm32l4xx_hal_gpio.o
 .data          0x00000000        0x0 build/stm32l4xx_hal_gpio.o
 .bss           0x00000000        0x0 build/stm32l4xx_hal_gpio.o
 .text.HAL_GPIO_DeInit
                0x00000000       0xf4 build/stm32l4xx_hal_gpio.o
 .text.HAL_GPIO_LockPin
                0x00000000       0x2a build/stm32l4xx_hal_gpio.o
 .text.HAL_GPIO_EXTI_Callback
                0x00000000        0x2 build/stm32l4xx_hal_gpio.o
 .text.HAL_GPIO_EXTI_IRQHandler
                0x00000000       0x18 build/stm32l4xx_hal_gpio.o
 .text          0x00000000        0x0 build/stm32l4xx_hal_dma.o
 .data          0x00000000        0x0 build/stm32l4xx_hal_dma.o
 .bss           0x00000000        0x0 build/stm32l4xx_hal_dma.o
 .text.HAL_DMA_Init
                0x00000000       0xd8 build/stm32l4xx_hal_dma.o
 .text.HAL_DMA_DeInit
                0x00000000       0xa0 build/stm32l4xx_hal_dma.o
 .text.HAL_DMA_Start
                0x00000000       0x62 build/stm32l4xx_hal_dma.o
 .text.HAL_DMA_Start_IT
                0x00000000       0x7e build/stm32l4xx_hal_dma.o
 .text.HAL_DMA_PollForTransfer
                0x00000000       0xcc build/stm32l4xx_hal_dma.o
 .text.HAL_DMA_IRQHandler
                0x00000000       0x94 build/stm32l4xx_hal_dma.o
 .text.HAL_DMA_RegisterCallback
                0x00000000       0x44 build/stm32l4xx_hal_dma.o
 .text.HAL_DMA_UnRegisterCallback
                0x00000000       0x54 build/stm32l4xx_hal_dma.o
 .text.HAL_DMA_GetState
                0x00000000        0x6 build/stm32l4xx_hal_dma.o
 .text.HAL_DMA_GetError
                0x00000000        0x4 build/stm32l4xx_hal_dma.o
 .text          0x00000000        0x0 build/stm32l4xx_hal_dma_ex.o
 .data          0x00000000        0x0 build/stm32l4xx_hal_dma_ex.o
 .bss           0x00000000        0x0 build/stm32l4xx_hal_dma_ex.o
 .debug_info    0x00000000       0x6b build/stm32l4xx_hal_dma_ex.o
 .debug_abbrev  0x00000000       0x26 build/stm32l4xx_hal_dma_ex.o
 .debug_aranges
                0x00000000       0x18 build/stm32l4xx_hal_dma_ex.o
 .debug_line    0x00000000       0x1d build/stm32l4xx_hal_dma_ex.o
 .debug_str     0x00000000      0x193 build/stm32l4xx_hal_dma_ex.o
 .comment       0x00000000       0x4a build/stm32l4xx_hal_dma_ex.o
 .ARM.attributes
                0x00000000       0x34 build/stm32l4xx_hal_dma_ex.o
 .text          0x00000000        0x0 build/stm32l4xx_hal_pwr.o
 .data          0x00000000        0x0 build/stm32l4xx_hal_pwr.o
 .bss           0x00000000        0x0 build/stm32l4xx_hal_pwr.o
 .text.HAL_PWR_DeInit
                0x00000000       0x18 build/stm32l4xx_hal_pwr.o
 .text.HAL_PWR_EnableBkUpAccess
                0x00000000       0x10 build/stm32l4xx_hal_pwr.o
 .text.HAL_PWR_DisableBkUpAccess
                0x00000000       0x10 build/stm32l4xx_hal_pwr.o
 .text.HAL_PWR_ConfigPVD
                0x00000000       0x70 build/stm32l4xx_hal_pwr.o
 .text.HAL_PWR_EnablePVD
                0x00000000       0x10 build/stm32l4xx_hal_pwr.o
 .text.HAL_PWR_DisablePVD
                0x00000000       0x10 build/stm32l4xx_hal_pwr.o
 .text.HAL_PWR_EnableWakeUpPin
                0x00000000       0x20 build/stm32l4xx_hal_pwr.o
 .text.HAL_PWR_DisableWakeUpPin
                0x00000000       0x14 build/stm32l4xx_hal_pwr.o
 .text.HAL_PWR_EnterSLEEPMode
                0x00000000       0x40 build/stm32l4xx_hal_pwr.o
 .text.HAL_PWR_EnterSTOPMode
                0x00000000       0x12 build/stm32l4xx_hal_pwr.o
 .text.HAL_PWR_EnterSTANDBYMode
                0x00000000       0x24 build/stm32l4xx_hal_pwr.o
 .text.HAL_PWR_EnableSleepOnExit
                0x00000000       0x10 build/stm32l4xx_hal_pwr.o
 .text.HAL_PWR_DisableSleepOnExit
                0x00000000       0x10 build/stm32l4xx_hal_pwr.o
 .text.HAL_PWR_EnableSEVOnPend
                0x00000000       0x10 build/stm32l4xx_hal_pwr.o
 .text.HAL_PWR_DisableSEVOnPend
                0x00000000       0x10 build/stm32l4xx_hal_pwr.o
 .text.HAL_PWR_PVDCallback
                0x00000000        0x2 build/stm32l4xx_hal_pwr.o
 .debug_info    0x00000000      0xab8 build/stm32l4xx_hal_pwr.o
 .debug_abbrev  0x00000000      0x1b4 build/stm32l4xx_hal_pwr.o
 .debug_loc     0x00000000      0x1a4 build/stm32l4xx_hal_pwr.o
 .debug_aranges
                0x00000000       0x98 build/stm32l4xx_hal_pwr.o
 .debug_ranges  0x00000000       0x88 build/stm32l4xx_hal_pwr.o
 .debug_line    0x00000000      0x42e build/stm32l4xx_hal_pwr.o
 .debug_str     0x00000000      0x670 build/stm32l4xx_hal_pwr.o
 .comment       0x00000000       0x4a build/stm32l4xx_hal_pwr.o
 .debug_frame   0x00000000      0x118 build/stm32l4xx_hal_pwr.o
 .ARM.attributes
                0x00000000       0x34 build/stm32l4xx_hal_pwr.o
 .text          0x00000000        0x0 build/stm32l4xx_hal_pwr_ex.o
 .data          0x00000000        0x0 build/stm32l4xx_hal_pwr_ex.o
 .bss           0x00000000        0x0 build/stm32l4xx_hal_pwr_ex.o
 .text.HAL_PWREx_EnableBatteryCharging
                0x00000000       0x1c build/stm32l4xx_hal_pwr_ex.o
 .text.HAL_PWREx_DisableBatteryCharging
                0x00000000       0x10 build/stm32l4xx_hal_pwr_ex.o
 .text.HAL_PWREx_EnableInternalWakeUpLine
                0x00000000       0x10 build/stm32l4xx_hal_pwr_ex.o
 .text.HAL_PWREx_DisableInternalWakeUpLine
                0x00000000       0x10 build/stm32l4xx_hal_pwr_ex.o
 .text.HAL_PWREx_EnableGPIOPullUp
                0x00000000       0x98 build/stm32l4xx_hal_pwr_ex.o
 .text.HAL_PWREx_DisableGPIOPullUp
                0x00000000       0x6c build/stm32l4xx_hal_pwr_ex.o
 .text.HAL_PWREx_EnableGPIOPullDown
                0x00000000       0x98 build/stm32l4xx_hal_pwr_ex.o
 .text.HAL_PWREx_DisableGPIOPullDown
                0x00000000       0x70 build/stm32l4xx_hal_pwr_ex.o
 .text.HAL_PWREx_EnablePullUpPullDownConfig
                0x00000000       0x10 build/stm32l4xx_hal_pwr_ex.o
 .text.HAL_PWREx_DisablePullUpPullDownConfig
                0x00000000       0x10 build/stm32l4xx_hal_pwr_ex.o
 .text.HAL_PWREx_EnableSRAM2ContentRetention
                0x00000000       0x10 build/stm32l4xx_hal_pwr_ex.o
 .text.HAL_PWREx_SetSRAM2ContentRetention
                0x00000000       0x2c build/stm32l4xx_hal_pwr_ex.o
 .text.HAL_PWREx_DisableSRAM2ContentRetention
                0x00000000        0x6 build/stm32l4xx_hal_pwr_ex.o
 .text.HAL_PWREx_EnablePVM3
                0x00000000       0x10 build/stm32l4xx_hal_pwr_ex.o
 .text.HAL_PWREx_DisablePVM3
                0x00000000       0x10 build/stm32l4xx_hal_pwr_ex.o
 .text.HAL_PWREx_EnablePVM4
                0x00000000       0x10 build/stm32l4xx_hal_pwr_ex.o
 .text.HAL_PWREx_DisablePVM4
                0x00000000       0x10 build/stm32l4xx_hal_pwr_ex.o
 .text.HAL_PWREx_ConfigPVM
                0x00000000       0xc0 build/stm32l4xx_hal_pwr_ex.o
 .text.HAL_PWREx_EnableLowPowerRunMode
                0x00000000       0x10 build/stm32l4xx_hal_pwr_ex.o
 .text.HAL_PWREx_DisableLowPowerRunMode
                0x00000000       0x40 build/stm32l4xx_hal_pwr_ex.o
 .text.HAL_PWREx_EnterSTOP0Mode
                0x00000000       0x34 build/stm32l4xx_hal_pwr_ex.o
 .text.HAL_PWREx_EnterSTOP1Mode
                0x00000000       0x38 build/stm32l4xx_hal_pwr_ex.o
 .text.HAL_PWREx_EnterSTOP2Mode
                0x00000000       0x38 build/stm32l4xx_hal_pwr_ex.o
 .text.HAL_PWREx_EnterSHUTDOWNMode
                0x00000000       0x24 build/stm32l4xx_hal_pwr_ex.o
 .text.HAL_PWREx_PVM3Callback
                0x00000000        0x2 build/stm32l4xx_hal_pwr_ex.o
 .text.HAL_PWREx_PVM4Callback
                0x00000000        0x2 build/stm32l4xx_hal_pwr_ex.o
 .text.HAL_PWREx_PVD_PVM_IRQHandler
                0x00000000       0x38 build/stm32l4xx_hal_pwr_ex.o
 .text          0x00000000        0x0 build/stm32l4xx_hal_cortex.o
 .data          0x00000000        0x0 build/stm32l4xx_hal_cortex.o
 .bss           0x00000000        0x0 build/stm32l4xx_hal_cortex.o
 .text.HAL_NVIC_DisableIRQ
                0x00000000       0x28 build/stm32l4xx_hal_cortex.o
 .text.HAL_NVIC_SystemReset
                0x00000000       0x24 build/stm32l4xx_hal_cortex.o
 .text.HAL_NVIC_GetPriorityGrouping
                0x00000000       0x10 build/stm32l4xx_hal_cortex.o
 .text.HAL_NVIC_GetPriority
                0x00000000       0x5c build/stm32l4xx_hal_cortex.o
 .text.HAL_NVIC_SetPendingIRQ
                0x00000000       0x20 build/stm32l4xx_hal_cortex.o
 .text.HAL_NVIC_GetPendingIRQ
                0x00000000       0x24 build/stm32l4xx_hal_cortex.o
 .text.HAL_NVIC_ClearPendingIRQ
                0x00000000       0x20 build/stm32l4xx_hal_cortex.o
 .text.HAL_NVIC_GetActive
                0x00000000       0x24 build/stm32l4xx_hal_cortex.o
 .text.HAL_SYSTICK_CLKSourceConfig
                0x00000000       0x16 build/stm32l4xx_hal_cortex.o
 .text.HAL_SYSTICK_Callback
                0x00000000        0x2 build/stm32l4xx_hal_cortex.o
 .text.HAL_SYSTICK_IRQHandler
                0x00000000        0x8 build/stm32l4xx_hal_cortex.o
 .text.HAL_MPU_Enable
                0x00000000       0x18 build/stm32l4xx_hal_cortex.o
 .text.HAL_MPU_Disable
                0x00000000       0x14 build/stm32l4xx_hal_cortex.o
 .text.HAL_MPU_ConfigRegion
                0x00000000       0x58 build/stm32l4xx_hal_cortex.o
 .text          0x00000000        0x0 build/stm32l4xx_hal_exti.o
 .data          0x00000000        0x0 build/stm32l4xx_hal_exti.o
 .bss           0x00000000        0x0 build/stm32l4xx_hal_exti.o
 .text.HAL_EXTI_SetConfigLine
                0x00000000       0xb4 build/stm32l4xx_hal_exti.o
 .text.HAL_EXTI_GetConfigLine
                0x00000000       0xa4 build/stm32l4xx_hal_exti.o
 .text.HAL_EXTI_ClearConfigLine
                0x00000000       0x8c build/stm32l4xx_hal_exti.o
 .text.HAL_EXTI_RegisterCallback
                0x00000000        0xc build/stm32l4xx_hal_exti.o
 .text.HAL_EXTI_GetHandle
                0x00000000        0xc build/stm32l4xx_hal_exti.o
 .text.HAL_EXTI_IRQHandler
                0x00000000       0x30 build/stm32l4xx_hal_exti.o
 .text.HAL_EXTI_GetPending
                0x00000000       0x20 build/stm32l4xx_hal_exti.o
 .text.HAL_EXTI_ClearPending
                0x00000000       0x1c build/stm32l4xx_hal_exti.o
 .text.HAL_EXTI_GenerateSWI
                0x00000000       0x1c build/stm32l4xx_hal_exti.o
 .debug_info    0x00000000      0x7eb build/stm32l4xx_hal_exti.o
 .debug_abbrev  0x00000000      0x1ce build/stm32l4xx_hal_exti.o
 .debug_loc     0x00000000      0xa9b build/stm32l4xx_hal_exti.o
 .debug_aranges
                0x00000000       0x60 build/stm32l4xx_hal_exti.o
 .debug_ranges  0x00000000       0x50 build/stm32l4xx_hal_exti.o
 .debug_line    0x00000000      0x6f0 build/stm32l4xx_hal_exti.o
 .debug_str     0x00000000      0x442 build/stm32l4xx_hal_exti.o
 .comment       0x00000000       0x4a build/stm32l4xx_hal_exti.o
 .debug_frame   0x00000000       0xdc build/stm32l4xx_hal_exti.o
 .ARM.attributes
                0x00000000       0x34 build/stm32l4xx_hal_exti.o
 .text          0x00000000        0x0 build/stm32l4xx_hal_spi.o
 .data          0x00000000        0x0 build/stm32l4xx_hal_spi.o
 .bss           0x00000000        0x0 build/stm32l4xx_hal_spi.o
 .text.SPI_AbortRx_ISR
                0x00000000       0x7c build/stm32l4xx_hal_spi.o
 .text.SPI_AbortTx_ISR
                0x00000000       0xd8 build/stm32l4xx_hal_spi.o
 .text.HAL_SPI_MspInit
                0x00000000        0x2 build/stm32l4xx_hal_spi.o
 .text.HAL_SPI_MspDeInit
                0x00000000        0x2 build/stm32l4xx_hal_spi.o
 .text.HAL_SPI_DeInit
                0x00000000       0x2c build/stm32l4xx_hal_spi.o
 .text.HAL_SPI_Transmit_IT
                0x00000000       0x9c build/stm32l4xx_hal_spi.o
 .text.HAL_SPI_TransmitReceive_IT
                0x00000000       0xcc build/stm32l4xx_hal_spi.o
 .text.HAL_SPI_Receive_IT
                0x00000000       0xcc build/stm32l4xx_hal_spi.o
 .text.HAL_SPI_Transmit_DMA
                0x00000000      0x10c build/stm32l4xx_hal_spi.o
 .text.HAL_SPI_TransmitReceive_DMA
                0x00000000      0x1b4 build/stm32l4xx_hal_spi.o
 .text.HAL_SPI_Receive_DMA
                0x00000000      0x154 build/stm32l4xx_hal_spi.o
 .text.HAL_SPI_Abort
                0x00000000      0x17c build/stm32l4xx_hal_spi.o
 .text.HAL_SPI_DMAPause
                0x00000000       0x20 build/stm32l4xx_hal_spi.o
 .text.HAL_SPI_DMAResume
                0x00000000       0x20 build/stm32l4xx_hal_spi.o
 .text.HAL_SPI_DMAStop
                0x00000000       0x46 build/stm32l4xx_hal_spi.o
 .text.HAL_SPI_TxCpltCallback
                0x00000000        0x2 build/stm32l4xx_hal_spi.o
 .text.HAL_SPI_RxCpltCallback
                0x00000000        0x2 build/stm32l4xx_hal_spi.o
 .text.HAL_SPI_TxRxCpltCallback
                0x00000000        0x2 build/stm32l4xx_hal_spi.o
 .text.HAL_SPI_TxHalfCpltCallback
                0x00000000        0x2 build/stm32l4xx_hal_spi.o
 .text.SPI_DMAHalfTransmitCplt
                0x00000000        0xa build/stm32l4xx_hal_spi.o
 .text.HAL_SPI_RxHalfCpltCallback
                0x00000000        0x2 build/stm32l4xx_hal_spi.o
 .text.SPI_DMAHalfReceiveCplt
                0x00000000        0xa build/stm32l4xx_hal_spi.o
 .text.HAL_SPI_TxRxHalfCpltCallback
                0x00000000        0x2 build/stm32l4xx_hal_spi.o
 .text.SPI_DMAHalfTransmitReceiveCplt
                0x00000000        0xa build/stm32l4xx_hal_spi.o
 .text.SPI_CloseTx_ISR
                0x00000000       0x52 build/stm32l4xx_hal_spi.o
 .text.SPI_TxISR_8BIT
                0x00000000       0x22 build/stm32l4xx_hal_spi.o
 .text.SPI_TxISR_16BIT
                0x00000000       0x2a build/stm32l4xx_hal_spi.o
 .text.SPI_CloseRx_ISR
                0x00000000       0x3e build/stm32l4xx_hal_spi.o
 .text.SPI_RxISR_8BIT
                0x00000000       0x28 build/stm32l4xx_hal_spi.o
 .text.SPI_RxISR_16BIT
                0x00000000       0x26 build/stm32l4xx_hal_spi.o
 .text.SPI_CloseRxTx_ISR
                0x00000000       0x56 build/stm32l4xx_hal_spi.o
 .text.SPI_2linesTxISR_8BIT
                0x00000000       0x4a build/stm32l4xx_hal_spi.o
 .text.SPI_2linesRxISR_8BIT
                0x00000000       0x6a build/stm32l4xx_hal_spi.o
 .text.SPI_2linesTxISR_16BIT
                0x00000000       0x3a build/stm32l4xx_hal_spi.o
 .text.SPI_2linesRxISR_16BIT
                0x00000000       0x3e build/stm32l4xx_hal_spi.o
 .text.SPI_DMAError
                0x00000000       0x22 build/stm32l4xx_hal_spi.o
 .text.SPI_DMATransmitCplt
                0x00000000       0x6a build/stm32l4xx_hal_spi.o
 .text.SPI_DMAReceiveCplt
                0x00000000       0x68 build/stm32l4xx_hal_spi.o
 .text.SPI_DMATransmitReceiveCplt
                0x00000000       0x5c build/stm32l4xx_hal_spi.o
 .text.HAL_SPI_AbortCpltCallback
                0x00000000        0x2 build/stm32l4xx_hal_spi.o
 .text.HAL_SPI_Abort_IT
                0x00000000      0x130 build/stm32l4xx_hal_spi.o
 .text.SPI_DMARxAbortCallback
                0x00000000       0x86 build/stm32l4xx_hal_spi.o
 .text.SPI_DMATxAbortCallback
                0x00000000       0x88 build/stm32l4xx_hal_spi.o
 .text.HAL_SPI_GetError
                0x00000000        0x4 build/stm32l4xx_hal_spi.o
 .text          0x00000000        0x0 build/stm32l4xx_hal_spi_ex.o
 .data          0x00000000        0x0 build/stm32l4xx_hal_spi_ex.o
 .bss           0x00000000        0x0 build/stm32l4xx_hal_spi_ex.o
 .text.HAL_SPIEx_FlushRxFifo
                0x00000000       0x24 build/stm32l4xx_hal_spi_ex.o
 .debug_info    0x00000000      0x6ad build/stm32l4xx_hal_spi_ex.o
 .debug_abbrev  0x00000000      0x157 build/stm32l4xx_hal_spi_ex.o
 .debug_loc     0x00000000       0xa6 build/stm32l4xx_hal_spi_ex.o
 .debug_aranges
                0x00000000       0x20 build/stm32l4xx_hal_spi_ex.o
 .debug_ranges  0x00000000       0x10 build/stm32l4xx_hal_spi_ex.o
 .debug_line    0x00000000      0x232 build/stm32l4xx_hal_spi_ex.o
 .debug_str     0x00000000      0x5f5 build/stm32l4xx_hal_spi_ex.o
 .comment       0x00000000       0x4a build/stm32l4xx_hal_spi_ex.o
 .debug_frame   0x00000000       0x2c build/stm32l4xx_hal_spi_ex.o
 .ARM.attributes
                0x00000000       0x34 build/stm32l4xx_hal_spi_ex.o
 .text          0x00000000        0x0 build/stm32l4xx_hal_tim.o
 .data          0x00000000        0x0 build/stm32l4xx_hal_tim.o
 .bss           0x00000000        0x0 build/stm32l4xx_hal_tim.o
 .debug_info    0x00000000       0x6b build/stm32l4xx_hal_tim.o
 .debug_abbrev  0x00000000       0x26 build/stm32l4xx_hal_tim.o
 .debug_aranges
                0x00000000       0x18 build/stm32l4xx_hal_tim.o
 .debug_line    0x00000000       0x1d build/stm32l4xx_hal_tim.o
 .debug_str     0x00000000      0x190 build/stm32l4xx_hal_tim.o
 .comment       0x00000000       0x4a build/stm32l4xx_hal_tim.o
 .ARM.attributes
                0x00000000       0x34 build/stm32l4xx_hal_tim.o
 .text          0x00000000        0x0 build/stm32l4xx_hal_tim_ex.o
 .data          0x00000000        0x0 build/stm32l4xx_hal_tim_ex.o
 .bss           0x00000000        0x0 build/stm32l4xx_hal_tim_ex.o
 .debug_info    0x00000000       0x6b build/stm32l4xx_hal_tim_ex.o
 .debug_abbrev  0x00000000       0x26 build/stm32l4xx_hal_tim_ex.o
 .debug_aranges
                0x00000000       0x18 build/stm32l4xx_hal_tim_ex.o
 .debug_line    0x00000000       0x1d build/stm32l4xx_hal_tim_ex.o
 .debug_str     0x00000000      0x193 build/stm32l4xx_hal_tim_ex.o
 .comment       0x00000000       0x4a build/stm32l4xx_hal_tim_ex.o
 .ARM.attributes
                0x00000000       0x34 build/stm32l4xx_hal_tim_ex.o
 .text          0x00000000        0x0 build/stm32l4xx_hal_uart.o
 .data          0x00000000        0x0 build/stm32l4xx_hal_uart.o
 .bss           0x00000000        0x0 build/stm32l4xx_hal_uart.o
 .text.HAL_UART_MspInit
                0x00000000        0x2 build/stm32l4xx_hal_uart.o
 .text.HAL_UART_MspDeInit
                0x00000000        0x2 build/stm32l4xx_hal_uart.o
 .text.HAL_UART_DeInit
                0x00000000       0x36 build/stm32l4xx_hal_uart.o
 .text.HAL_UART_Transmit_DMA
                0x00000000       0xa0 build/stm32l4xx_hal_uart.o
 .text.HAL_UART_DMAPause
                0x00000000       0x90 build/stm32l4xx_hal_uart.o
 .text.HAL_UART_DMAResume
                0x00000000       0x8c build/stm32l4xx_hal_uart.o
 .text.HAL_UART_DMAStop
                0x00000000       0xa4 build/stm32l4xx_hal_uart.o
 .text.HAL_UART_Abort
                0x00000000       0xe2 build/stm32l4xx_hal_uart.o
 .text.HAL_UART_AbortTransmit
                0x00000000       0x62 build/stm32l4xx_hal_uart.o
 .text.HAL_UART_AbortReceive
                0x00000000       0xa2 build/stm32l4xx_hal_uart.o
 .text.HAL_UART_TxCpltCallback
                0x00000000        0x2 build/stm32l4xx_hal_uart.o
 .text.UART_DMATransmitCplt
                0x00000000       0x46 build/stm32l4xx_hal_uart.o
 .text.HAL_UART_TxHalfCpltCallback
                0x00000000        0x2 build/stm32l4xx_hal_uart.o
 .text.UART_DMATxHalfCplt
                0x00000000        0xa build/stm32l4xx_hal_uart.o
 .text.HAL_UART_RxCpltCallback
                0x00000000        0x2 build/stm32l4xx_hal_uart.o
 .text.HAL_UART_RxHalfCpltCallback
                0x00000000        0x2 build/stm32l4xx_hal_uart.o
 .text.HAL_UART_ErrorCallback
                0x00000000        0x2 build/stm32l4xx_hal_uart.o
 .text.UART_DMAError
                0x00000000       0x54 build/stm32l4xx_hal_uart.o
 .text.HAL_UART_AbortCpltCallback
                0x00000000        0x2 build/stm32l4xx_hal_uart.o
 .text.HAL_UART_Abort_IT
                0x00000000      0x114 build/stm32l4xx_hal_uart.o
 .text.UART_DMARxAbortCallback
                0x00000000       0x3c build/stm32l4xx_hal_uart.o
 .text.UART_DMATxAbortCallback
                0x00000000       0x32 build/stm32l4xx_hal_uart.o
 .text.HAL_UART_AbortTransmitCpltCallback
                0x00000000        0x2 build/stm32l4xx_hal_uart.o
 .text.HAL_UART_AbortTransmit_IT
                0x00000000       0x70 build/stm32l4xx_hal_uart.o
 .text.UART_DMATxOnlyAbortCallback
                0x00000000       0x14 build/stm32l4xx_hal_uart.o
 .text.HAL_UART_AbortReceiveCpltCallback
                0x00000000        0x2 build/stm32l4xx_hal_uart.o
 .text.HAL_UART_AbortReceive_IT
                0x00000000       0xb8 build/stm32l4xx_hal_uart.o
 .text.UART_DMARxOnlyAbortCallback
                0x00000000       0x26 build/stm32l4xx_hal_uart.o
 .text.HAL_UARTEx_RxEventCallback
                0x00000000        0x2 build/stm32l4xx_hal_uart.o
 .text.UART_DMARxHalfCplt
                0x00000000       0x1c build/stm32l4xx_hal_uart.o
 .text.UART_DMAReceiveCplt
                0x00000000       0x88 build/stm32l4xx_hal_uart.o
 .text.HAL_UART_ReceiverTimeout_Config
                0x00000000       0x18 build/stm32l4xx_hal_uart.o
 .text.HAL_UART_EnableReceiverTimeout
                0x00000000       0x3c build/stm32l4xx_hal_uart.o
 .text.HAL_UART_DisableReceiverTimeout
                0x00000000       0x3c build/stm32l4xx_hal_uart.o
 .text.HAL_MultiProcessor_EnterMuteMode
                0x00000000        0xe build/stm32l4xx_hal_uart.o
 .text.HAL_HalfDuplex_EnableTransmitter
                0x00000000       0x48 build/stm32l4xx_hal_uart.o
 .text.HAL_HalfDuplex_EnableReceiver
                0x00000000       0x48 build/stm32l4xx_hal_uart.o
 .text.HAL_LIN_SendBreak
                0x00000000       0x2a build/stm32l4xx_hal_uart.o
 .text.HAL_UART_GetState
                0x00000000        0x8 build/stm32l4xx_hal_uart.o
 .text.HAL_UART_GetError
                0x00000000        0x6 build/stm32l4xx_hal_uart.o
 .text.HAL_UART_Receive
                0x00000000       0xec build/stm32l4xx_hal_uart.o
 .text.HAL_HalfDuplex_Init
                0x00000000       0x64 build/stm32l4xx_hal_uart.o
 .text.HAL_LIN_Init
                0x00000000       0x80 build/stm32l4xx_hal_uart.o
 .text.HAL_MultiProcessor_Init
                0x00000000       0x7e build/stm32l4xx_hal_uart.o
 .text.HAL_MultiProcessor_EnableMuteMode
                0x00000000       0x30 build/stm32l4xx_hal_uart.o
 .text.HAL_MultiProcessor_DisableMuteMode
                0x00000000       0x30 build/stm32l4xx_hal_uart.o
 .text.UART_Start_Receive_DMA
                0x00000000       0xa4 build/stm32l4xx_hal_uart.o
 .text.HAL_UART_Receive_DMA
                0x00000000       0x50 build/stm32l4xx_hal_uart.o
 .text          0x00000000        0x0 build/stm32l4xx_hal_uart_ex.o
 .data          0x00000000        0x0 build/stm32l4xx_hal_uart_ex.o
 .bss           0x00000000        0x0 build/stm32l4xx_hal_uart_ex.o
 .text.HAL_RS485Ex_Init
                0x00000000       0x7a build/stm32l4xx_hal_uart_ex.o
 .text.HAL_UARTEx_EnableClockStopMode
                0x00000000       0x32 build/stm32l4xx_hal_uart_ex.o
 .text.HAL_UARTEx_DisableClockStopMode
                0x00000000       0x32 build/stm32l4xx_hal_uart_ex.o
 .text.HAL_MultiProcessorEx_AddressLength_Set
                0x00000000       0x2a build/stm32l4xx_hal_uart_ex.o
 .text.HAL_UARTEx_StopModeWakeUpSourceConfig
                0x00000000       0x88 build/stm32l4xx_hal_uart_ex.o
 .text.HAL_UARTEx_EnableStopMode
                0x00000000       0x2c build/stm32l4xx_hal_uart_ex.o
 .text.HAL_UARTEx_DisableStopMode
                0x00000000       0x2c build/stm32l4xx_hal_uart_ex.o
 .text.HAL_UARTEx_ReceiveToIdle
                0x00000000      0x130 build/stm32l4xx_hal_uart_ex.o
 .text.HAL_UARTEx_ReceiveToIdle_DMA
                0x00000000       0x50 build/stm32l4xx_hal_uart_ex.o
 .text          0x00000000        0x0 build/system_stm32l4xx.o
 .data          0x00000000        0x0 build/system_stm32l4xx.o
 .bss           0x00000000        0x0 build/system_stm32l4xx.o
 .text.SystemCoreClockUpdate
                0x00000000       0xa8 build/system_stm32l4xx.o
 .text          0x00000000        0x0 build/shell_cmd_list.o
 .data          0x00000000        0x0 build/shell_cmd_list.o
 .bss           0x00000000        0x0 build/shell_cmd_list.o
 .debug_info    0x00000000       0x48 build/shell_cmd_list.o
 .debug_abbrev  0x00000000       0x26 build/shell_cmd_list.o
 .debug_aranges
                0x00000000       0x18 build/shell_cmd_list.o
 .debug_line    0x00000000       0x1d build/shell_cmd_list.o
 .debug_str     0x00000000      0x135 build/shell_cmd_list.o
 .comment       0x00000000       0x4a build/shell_cmd_list.o
 .ARM.attributes
                0x00000000       0x34 build/shell_cmd_list.o
 .text          0x00000000        0x0 build/shell_companion.o
 .data          0x00000000        0x0 build/shell_companion.o
 .bss           0x00000000        0x0 build/shell_companion.o
 .debug_info    0x00000000       0x48 build/shell_companion.o
 .debug_abbrev  0x00000000       0x26 build/shell_companion.o
 .debug_aranges
                0x00000000       0x18 build/shell_companion.o
 .debug_line    0x00000000       0x1d build/shell_companion.o
 .debug_str     0x00000000      0x136 build/shell_companion.o
 .comment       0x00000000       0x4a build/shell_companion.o
 .ARM.attributes
                0x00000000       0x34 build/shell_companion.o
 .text          0x00000000        0x0 build/shell_ext.o
 .data          0x00000000        0x0 build/shell_ext.o
 .bss           0x00000000        0x0 build/shell_ext.o
 .text          0x00000000        0x0 build/shell_port.o
 .data          0x00000000        0x0 build/shell_port.o
 .bss           0x00000000        0x0 build/shell_port.o
 .text          0x00000000        0x0 build/shell.o
 .data          0x00000000        0x0 build/shell.o
 .bss           0x00000000        0x0 build/shell.o
 .text.shellRemove
                0x00000000       0x24 build/shell.o
 .text.shellListAll
                0x00000000        0x4 build/shell.o
 .text.shellTask
                0x00000000       0x22 build/shell.o
 .text.shellRun
                0x00000000       0x54 build/shell.o
 .text          0x00000000        0x0 build/fsm.o
 .data          0x00000000        0x0 build/fsm.o
 .bss           0x00000000        0x0 build/fsm.o
 .text.FSM_Regist
                0x00000000        0x8 build/fsm.o
 .text.FSM_StateTransfer
                0x00000000        0x4 build/fsm.o
 .text.FindTrans
                0x00000000       0x2c build/fsm.o
 .text.FSM_EventHandle
                0x00000000       0x1a build/fsm.o
 .debug_info    0x00000000      0x2d3 build/fsm.o
 .debug_abbrev  0x00000000      0x1b4 build/fsm.o
 .debug_loc     0x00000000      0x188 build/fsm.o
 .debug_aranges
                0x00000000       0x38 build/fsm.o
 .debug_ranges  0x00000000       0x28 build/fsm.o
 .debug_line    0x00000000      0x12e build/fsm.o
 .debug_str     0x00000000      0x250 build/fsm.o
 .comment       0x00000000       0x4a build/fsm.o
 .debug_frame   0x00000000       0x70 build/fsm.o
 .ARM.attributes
                0x00000000       0x34 build/fsm.o
 .text          0x00000000        0x0 build/gpio.o
 .data          0x00000000        0x0 build/gpio.o
 .bss           0x00000000        0x0 build/gpio.o
 .text          0x00000000        0x0 build/adc.o
 .data          0x00000000        0x0 build/adc.o
 .bss           0x00000000        0x0 build/adc.o
 .text.HAL_ADC_MspDeInit
                0x00000000       0x28 build/adc.o
 .text          0x00000000        0x0 build/spi.o
 .data          0x00000000        0x0 build/spi.o
 .bss           0x00000000        0x0 build/spi.o
 .text.HAL_SPI_MspDeInit
                0x00000000       0x64 build/spi.o
 .bss.hspi1     0x00000000       0x64 build/spi.o
 .text          0x00000000        0x0 build/usart.o
 .data          0x00000000        0x0 build/usart.o
 .bss           0x00000000        0x0 build/usart.o
 .text.HAL_UART_MspDeInit
                0x00000000       0x80 build/usart.o
 .text          0x00000000        0x0 build/timer.o
 .data          0x00000000        0x0 build/timer.o
 .bss           0x00000000        0x0 build/timer.o
 .text.timer_insert
                0x00000000       0x40 build/timer.o
 .text          0x00000000        0x0 build/queue.o
 .data          0x00000000        0x0 build/queue.o
 .bss           0x00000000        0x0 build/queue.o
 .text.queue_init
                0x00000000        0xe build/queue.o
 .text.queue_insert
                0x00000000       0x3c build/queue.o
 .text.queue_pull
                0x00000000       0x5e build/queue.o
 .text.queue_pop
                0x00000000       0x60 build/queue.o
 .text.queue_is_full
                0x00000000       0x32 build/queue.o
 .text.queue_is_empty
                0x00000000       0x26 build/queue.o
 .debug_info    0x00000000      0x398 build/queue.o
 .debug_abbrev  0x00000000      0x13c build/queue.o
 .debug_loc     0x00000000      0x531 build/queue.o
 .debug_aranges
                0x00000000       0x48 build/queue.o
 .debug_ranges  0x00000000       0x68 build/queue.o
 .debug_line    0x00000000      0x419 build/queue.o
 .debug_str     0x00000000      0x239 build/queue.o
 .comment       0x00000000       0x4a build/queue.o
 .debug_frame   0x00000000       0xa8 build/queue.o
 .ARM.attributes
                0x00000000       0x34 build/queue.o
 .text          0x00000000        0x0 build/SX1278_hw.o
 .data          0x00000000        0x0 build/SX1278_hw.o
 .bss           0x00000000        0x0 build/SX1278_hw.o
 .text          0x00000000        0x0 build/W25QXX.o
 .data          0x00000000        0x0 build/W25QXX.o
 .bss           0x00000000        0x0 build/W25QXX.o
 .text.BSP_W25Qx_Erase_Page
                0x00000000       0x70 build/W25QXX.o
 .text.BSP_W25Qx_Erase_Block
                0x00000000       0x70 build/W25QXX.o
 .text.BSP_W25Qx_Erase_Chip
                0x00000000       0x5c build/W25QXX.o
 .text          0x00000000        0x0 build/led.o
 .data          0x00000000        0x0 build/led.o
 .bss           0x00000000        0x0 build/led.o
 .text.LED1_Toggle
                0x00000000        0xc build/led.o
 .text          0x00000000        0x0 build/rs485.o
 .data          0x00000000        0x0 build/rs485.o
 .bss           0x00000000        0x0 build/rs485.o
 .text.RS485_Init
                0x00000000       0x44 build/rs485.o
 .text.RS485_ReceiveData
                0x00000000       0x24 build/rs485.o
 .text          0x00000000        0x0 build/ATGM332D.o
 .data          0x00000000        0x0 build/ATGM332D.o
 .bss           0x00000000        0x0 build/ATGM332D.o
 .text          0x00000000        0x0 build/EC2x.o
 .data          0x00000000        0x0 build/EC2x.o
 .bss           0x00000000        0x0 build/EC2x.o
 .bss.tcpconnct_step
                0x00000000        0x1 build/EC2x.o
 .text          0x00000000        0x0 build/SX1278.o
 .data          0x00000000        0x0 build/SX1278.o
 .bss           0x00000000        0x0 build/SX1278.o
 .text.SX1278_available
                0x00000000        0x4 build/SX1278.o
 .text.SX1278_read
                0x00000000       0x22 build/SX1278.o
 .text.SX1278_RSSI_LoRa
                0x00000000        0xe build/SX1278.o
 .text.SX1278_RSSI
                0x00000000       0x14 build/SX1278.o
 .text          0x00000000       0x14 build/startup_stm32l431xx.o
 .data          0x00000000        0x0 build/startup_stm32l431xx.o
 .bss           0x00000000        0x0 build/startup_stm32l431xx.o
 .text          0x00000000        0x0 e:/gcc-arm-none-eabi-10.3-2021.10-win32/gcc-arm-none-eabi-10.3-2021.10/bin/../lib/gcc/arm-none-eabi/10.3.1/../../../../arm-none-eabi/lib/thumb/v7e-m+fp/hard\libc_nano.a(lib_a-exit.o)
 .data          0x00000000        0x0 e:/gcc-arm-none-eabi-10.3-2021.10-win32/gcc-arm-none-eabi-10.3-2021.10/bin/../lib/gcc/arm-none-eabi/10.3.1/../../../../arm-none-eabi/lib/thumb/v7e-m+fp/hard\libc_nano.a(lib_a-exit.o)
 .bss           0x00000000        0x0 e:/gcc-arm-none-eabi-10.3-2021.10-win32/gcc-arm-none-eabi-10.3-2021.10/bin/../lib/gcc/arm-none-eabi/10.3.1/../../../../arm-none-eabi/lib/thumb/v7e-m+fp/hard\libc_nano.a(lib_a-exit.o)
 .text.exit     0x00000000       0x28 e:/gcc-arm-none-eabi-10.3-2021.10-win32/gcc-arm-none-eabi-10.3-2021.10/bin/../lib/gcc/arm-none-eabi/10.3.1/../../../../arm-none-eabi/lib/thumb/v7e-m+fp/hard\libc_nano.a(lib_a-exit.o)
 .debug_frame   0x00000000       0x28 e:/gcc-arm-none-eabi-10.3-2021.10-win32/gcc-arm-none-eabi-10.3-2021.10/bin/../lib/gcc/arm-none-eabi/10.3.1/../../../../arm-none-eabi/lib/thumb/v7e-m+fp/hard\libc_nano.a(lib_a-exit.o)
 .ARM.attributes
                0x00000000       0x34 e:/gcc-arm-none-eabi-10.3-2021.10-win32/gcc-arm-none-eabi-10.3-2021.10/bin/../lib/gcc/arm-none-eabi/10.3.1/../../../../arm-none-eabi/lib/thumb/v7e-m+fp/hard\libc_nano.a(lib_a-exit.o)
 .text          0x00000000        0x0 e:/gcc-arm-none-eabi-10.3-2021.10-win32/gcc-arm-none-eabi-10.3-2021.10/bin/../lib/gcc/arm-none-eabi/10.3.1/../../../../arm-none-eabi/lib/thumb/v7e-m+fp/hard\libc_nano.a(lib_a-impure.o)
 .data          0x00000000        0x0 e:/gcc-arm-none-eabi-10.3-2021.10-win32/gcc-arm-none-eabi-10.3-2021.10/bin/../lib/gcc/arm-none-eabi/10.3.1/../../../../arm-none-eabi/lib/thumb/v7e-m+fp/hard\libc_nano.a(lib_a-impure.o)
 .bss           0x00000000        0x0 e:/gcc-arm-none-eabi-10.3-2021.10-win32/gcc-arm-none-eabi-10.3-2021.10/bin/../lib/gcc/arm-none-eabi/10.3.1/../../../../arm-none-eabi/lib/thumb/v7e-m+fp/hard\libc_nano.a(lib_a-impure.o)
 .rodata._global_impure_ptr
                0x00000000        0x4 e:/gcc-arm-none-eabi-10.3-2021.10-win32/gcc-arm-none-eabi-10.3-2021.10/bin/../lib/gcc/arm-none-eabi/10.3.1/../../../../arm-none-eabi/lib/thumb/v7e-m+fp/hard\libc_nano.a(lib_a-impure.o)
 .text          0x00000000        0x0 e:/gcc-arm-none-eabi-10.3-2021.10-win32/gcc-arm-none-eabi-10.3-2021.10/bin/../lib/gcc/arm-none-eabi/10.3.1/../../../../arm-none-eabi/lib/thumb/v7e-m+fp/hard\libc_nano.a(lib_a-init.o)
 .data          0x00000000        0x0 e:/gcc-arm-none-eabi-10.3-2021.10-win32/gcc-arm-none-eabi-10.3-2021.10/bin/../lib/gcc/arm-none-eabi/10.3.1/../../../../arm-none-eabi/lib/thumb/v7e-m+fp/hard\libc_nano.a(lib_a-init.o)
 .bss           0x00000000        0x0 e:/gcc-arm-none-eabi-10.3-2021.10-win32/gcc-arm-none-eabi-10.3-2021.10/bin/../lib/gcc/arm-none-eabi/10.3.1/../../../../arm-none-eabi/lib/thumb/v7e-m+fp/hard\libc_nano.a(lib_a-init.o)
 .text          0x00000000        0x0 e:/gcc-arm-none-eabi-10.3-2021.10-win32/gcc-arm-none-eabi-10.3-2021.10/bin/../lib/gcc/arm-none-eabi/10.3.1/../../../../arm-none-eabi/lib/thumb/v7e-m+fp/hard\libc_nano.a(lib_a-malloc.o)
 .data          0x00000000        0x0 e:/gcc-arm-none-eabi-10.3-2021.10-win32/gcc-arm-none-eabi-10.3-2021.10/bin/../lib/gcc/arm-none-eabi/10.3.1/../../../../arm-none-eabi/lib/thumb/v7e-m+fp/hard\libc_nano.a(lib_a-malloc.o)
 .bss           0x00000000        0x0 e:/gcc-arm-none-eabi-10.3-2021.10-win32/gcc-arm-none-eabi-10.3-2021.10/bin/../lib/gcc/arm-none-eabi/10.3.1/../../../../arm-none-eabi/lib/thumb/v7e-m+fp/hard\libc_nano.a(lib_a-malloc.o)
 .text          0x00000000        0x0 e:/gcc-arm-none-eabi-10.3-2021.10-win32/gcc-arm-none-eabi-10.3-2021.10/bin/../lib/gcc/arm-none-eabi/10.3.1/../../../../arm-none-eabi/lib/thumb/v7e-m+fp/hard\libc_nano.a(lib_a-memcpy-stub.o)
 .data          0x00000000        0x0 e:/gcc-arm-none-eabi-10.3-2021.10-win32/gcc-arm-none-eabi-10.3-2021.10/bin/../lib/gcc/arm-none-eabi/10.3.1/../../../../arm-none-eabi/lib/thumb/v7e-m+fp/hard\libc_nano.a(lib_a-memcpy-stub.o)
 .bss           0x00000000        0x0 e:/gcc-arm-none-eabi-10.3-2021.10-win32/gcc-arm-none-eabi-10.3-2021.10/bin/../lib/gcc/arm-none-eabi/10.3.1/../../../../arm-none-eabi/lib/thumb/v7e-m+fp/hard\libc_nano.a(lib_a-memcpy-stub.o)
 .text          0x00000000        0x0 e:/gcc-arm-none-eabi-10.3-2021.10-win32/gcc-arm-none-eabi-10.3-2021.10/bin/../lib/gcc/arm-none-eabi/10.3.1/../../../../arm-none-eabi/lib/thumb/v7e-m+fp/hard\libc_nano.a(lib_a-memset.o)
 .data          0x00000000        0x0 e:/gcc-arm-none-eabi-10.3-2021.10-win32/gcc-arm-none-eabi-10.3-2021.10/bin/../lib/gcc/arm-none-eabi/10.3.1/../../../../arm-none-eabi/lib/thumb/v7e-m+fp/hard\libc_nano.a(lib_a-memset.o)
 .bss           0x00000000        0x0 e:/gcc-arm-none-eabi-10.3-2021.10-win32/gcc-arm-none-eabi-10.3-2021.10/bin/../lib/gcc/arm-none-eabi/10.3.1/../../../../arm-none-eabi/lib/thumb/v7e-m+fp/hard\libc_nano.a(lib_a-memset.o)
 .text          0x00000000        0x0 e:/gcc-arm-none-eabi-10.3-2021.10-win32/gcc-arm-none-eabi-10.3-2021.10/bin/../lib/gcc/arm-none-eabi/10.3.1/../../../../arm-none-eabi/lib/thumb/v7e-m+fp/hard\libc_nano.a(lib_a-nano-freer.o)
 .data          0x00000000        0x0 e:/gcc-arm-none-eabi-10.3-2021.10-win32/gcc-arm-none-eabi-10.3-2021.10/bin/../lib/gcc/arm-none-eabi/10.3.1/../../../../arm-none-eabi/lib/thumb/v7e-m+fp/hard\libc_nano.a(lib_a-nano-freer.o)
 .bss           0x00000000        0x0 e:/gcc-arm-none-eabi-10.3-2021.10-win32/gcc-arm-none-eabi-10.3-2021.10/bin/../lib/gcc/arm-none-eabi/10.3.1/../../../../arm-none-eabi/lib/thumb/v7e-m+fp/hard\libc_nano.a(lib_a-nano-freer.o)
 .text          0x00000000        0x0 e:/gcc-arm-none-eabi-10.3-2021.10-win32/gcc-arm-none-eabi-10.3-2021.10/bin/../lib/gcc/arm-none-eabi/10.3.1/../../../../arm-none-eabi/lib/thumb/v7e-m+fp/hard\libc_nano.a(lib_a-nano-mallocr.o)
 .data          0x00000000        0x0 e:/gcc-arm-none-eabi-10.3-2021.10-win32/gcc-arm-none-eabi-10.3-2021.10/bin/../lib/gcc/arm-none-eabi/10.3.1/../../../../arm-none-eabi/lib/thumb/v7e-m+fp/hard\libc_nano.a(lib_a-nano-mallocr.o)
 .bss           0x00000000        0x0 e:/gcc-arm-none-eabi-10.3-2021.10-win32/gcc-arm-none-eabi-10.3-2021.10/bin/../lib/gcc/arm-none-eabi/10.3.1/../../../../arm-none-eabi/lib/thumb/v7e-m+fp/hard\libc_nano.a(lib_a-nano-mallocr.o)
 .text          0x00000000        0x0 e:/gcc-arm-none-eabi-10.3-2021.10-win32/gcc-arm-none-eabi-10.3-2021.10/bin/../lib/gcc/arm-none-eabi/10.3.1/../../../../arm-none-eabi/lib/thumb/v7e-m+fp/hard\libc_nano.a(lib_a-sbrkr.o)
 .data          0x00000000        0x0 e:/gcc-arm-none-eabi-10.3-2021.10-win32/gcc-arm-none-eabi-10.3-2021.10/bin/../lib/gcc/arm-none-eabi/10.3.1/../../../../arm-none-eabi/lib/thumb/v7e-m+fp/hard\libc_nano.a(lib_a-sbrkr.o)
 .bss           0x00000000        0x0 e:/gcc-arm-none-eabi-10.3-2021.10-win32/gcc-arm-none-eabi-10.3-2021.10/bin/../lib/gcc/arm-none-eabi/10.3.1/../../../../arm-none-eabi/lib/thumb/v7e-m+fp/hard\libc_nano.a(lib_a-sbrkr.o)
 .data          0x00000000        0x0 e:/gcc-arm-none-eabi-10.3-2021.10-win32/gcc-arm-none-eabi-10.3-2021.10/bin/../lib/gcc/arm-none-eabi/10.3.1/../../../../arm-none-eabi/lib/thumb/v7e-m+fp/hard\libc_nano.a(lib_a-strcmp.o)
 .bss           0x00000000        0x0 e:/gcc-arm-none-eabi-10.3-2021.10-win32/gcc-arm-none-eabi-10.3-2021.10/bin/../lib/gcc/arm-none-eabi/10.3.1/../../../../arm-none-eabi/lib/thumb/v7e-m+fp/hard\libc_nano.a(lib_a-strcmp.o)
 .data          0x00000000        0x0 e:/gcc-arm-none-eabi-10.3-2021.10-win32/gcc-arm-none-eabi-10.3-2021.10/bin/../lib/gcc/arm-none-eabi/10.3.1/../../../../arm-none-eabi/lib/thumb/v7e-m+fp/hard\libc_nano.a(lib_a-strlen.o)
 .bss           0x00000000        0x0 e:/gcc-arm-none-eabi-10.3-2021.10-win32/gcc-arm-none-eabi-10.3-2021.10/bin/../lib/gcc/arm-none-eabi/10.3.1/../../../../arm-none-eabi/lib/thumb/v7e-m+fp/hard\libc_nano.a(lib_a-strlen.o)
 .text          0x00000000        0x0 e:/gcc-arm-none-eabi-10.3-2021.10-win32/gcc-arm-none-eabi-10.3-2021.10/bin/../lib/gcc/arm-none-eabi/10.3.1/../../../../arm-none-eabi/lib/thumb/v7e-m+fp/hard\libc_nano.a(lib_a-strncmp.o)
 .data          0x00000000        0x0 e:/gcc-arm-none-eabi-10.3-2021.10-win32/gcc-arm-none-eabi-10.3-2021.10/bin/../lib/gcc/arm-none-eabi/10.3.1/../../../../arm-none-eabi/lib/thumb/v7e-m+fp/hard\libc_nano.a(lib_a-strncmp.o)
 .bss           0x00000000        0x0 e:/gcc-arm-none-eabi-10.3-2021.10-win32/gcc-arm-none-eabi-10.3-2021.10/bin/../lib/gcc/arm-none-eabi/10.3.1/../../../../arm-none-eabi/lib/thumb/v7e-m+fp/hard\libc_nano.a(lib_a-strncmp.o)
 .text          0x00000000        0x0 e:/gcc-arm-none-eabi-10.3-2021.10-win32/gcc-arm-none-eabi-10.3-2021.10/bin/../lib/gcc/arm-none-eabi/10.3.1/../../../../arm-none-eabi/lib/thumb/v7e-m+fp/hard\libc_nano.a(lib_a-strstr.o)
 .data          0x00000000        0x0 e:/gcc-arm-none-eabi-10.3-2021.10-win32/gcc-arm-none-eabi-10.3-2021.10/bin/../lib/gcc/arm-none-eabi/10.3.1/../../../../arm-none-eabi/lib/thumb/v7e-m+fp/hard\libc_nano.a(lib_a-strstr.o)
 .bss           0x00000000        0x0 e:/gcc-arm-none-eabi-10.3-2021.10-win32/gcc-arm-none-eabi-10.3-2021.10/bin/../lib/gcc/arm-none-eabi/10.3.1/../../../../arm-none-eabi/lib/thumb/v7e-m+fp/hard\libc_nano.a(lib_a-strstr.o)
 .text          0x00000000        0x0 e:/gcc-arm-none-eabi-10.3-2021.10-win32/gcc-arm-none-eabi-10.3-2021.10/bin/../lib/gcc/arm-none-eabi/10.3.1/../../../../arm-none-eabi/lib/thumb/v7e-m+fp/hard\libc_nano.a(lib_a-vsnprintf.o)
 .data          0x00000000        0x0 e:/gcc-arm-none-eabi-10.3-2021.10-win32/gcc-arm-none-eabi-10.3-2021.10/bin/../lib/gcc/arm-none-eabi/10.3.1/../../../../arm-none-eabi/lib/thumb/v7e-m+fp/hard\libc_nano.a(lib_a-vsnprintf.o)
 .bss           0x00000000        0x0 e:/gcc-arm-none-eabi-10.3-2021.10-win32/gcc-arm-none-eabi-10.3-2021.10/bin/../lib/gcc/arm-none-eabi/10.3.1/../../../../arm-none-eabi/lib/thumb/v7e-m+fp/hard\libc_nano.a(lib_a-vsnprintf.o)
 .text          0x00000000        0x0 e:/gcc-arm-none-eabi-10.3-2021.10-win32/gcc-arm-none-eabi-10.3-2021.10/bin/../lib/gcc/arm-none-eabi/10.3.1/../../../../arm-none-eabi/lib/thumb/v7e-m+fp/hard\libc_nano.a(lib_a-mlock.o)
 .data          0x00000000        0x0 e:/gcc-arm-none-eabi-10.3-2021.10-win32/gcc-arm-none-eabi-10.3-2021.10/bin/../lib/gcc/arm-none-eabi/10.3.1/../../../../arm-none-eabi/lib/thumb/v7e-m+fp/hard\libc_nano.a(lib_a-mlock.o)
 .bss           0x00000000        0x0 e:/gcc-arm-none-eabi-10.3-2021.10-win32/gcc-arm-none-eabi-10.3-2021.10/bin/../lib/gcc/arm-none-eabi/10.3.1/../../../../arm-none-eabi/lib/thumb/v7e-m+fp/hard\libc_nano.a(lib_a-mlock.o)
 .text          0x00000000        0x0 e:/gcc-arm-none-eabi-10.3-2021.10-win32/gcc-arm-none-eabi-10.3-2021.10/bin/../lib/gcc/arm-none-eabi/10.3.1/../../../../arm-none-eabi/lib/thumb/v7e-m+fp/hard\libc_nano.a(lib_a-nano-svfprintf.o)
 .data          0x00000000        0x0 e:/gcc-arm-none-eabi-10.3-2021.10-win32/gcc-arm-none-eabi-10.3-2021.10/bin/../lib/gcc/arm-none-eabi/10.3.1/../../../../arm-none-eabi/lib/thumb/v7e-m+fp/hard\libc_nano.a(lib_a-nano-svfprintf.o)
 .bss           0x00000000        0x0 e:/gcc-arm-none-eabi-10.3-2021.10-win32/gcc-arm-none-eabi-10.3-2021.10/bin/../lib/gcc/arm-none-eabi/10.3.1/../../../../arm-none-eabi/lib/thumb/v7e-m+fp/hard\libc_nano.a(lib_a-nano-svfprintf.o)
 .text.__ssprint_r
                0x00000000       0xf6 e:/gcc-arm-none-eabi-10.3-2021.10-win32/gcc-arm-none-eabi-10.3-2021.10/bin/../lib/gcc/arm-none-eabi/10.3.1/../../../../arm-none-eabi/lib/thumb/v7e-m+fp/hard\libc_nano.a(lib_a-nano-svfprintf.o)
 .text          0x00000000        0x0 e:/gcc-arm-none-eabi-10.3-2021.10-win32/gcc-arm-none-eabi-10.3-2021.10/bin/../lib/gcc/arm-none-eabi/10.3.1/../../../../arm-none-eabi/lib/thumb/v7e-m+fp/hard\libc_nano.a(lib_a-nano-vfprintf_i.o)
 .data          0x00000000        0x0 e:/gcc-arm-none-eabi-10.3-2021.10-win32/gcc-arm-none-eabi-10.3-2021.10/bin/../lib/gcc/arm-none-eabi/10.3.1/../../../../arm-none-eabi/lib/thumb/v7e-m+fp/hard\libc_nano.a(lib_a-nano-vfprintf_i.o)
 .bss           0x00000000        0x0 e:/gcc-arm-none-eabi-10.3-2021.10-win32/gcc-arm-none-eabi-10.3-2021.10/bin/../lib/gcc/arm-none-eabi/10.3.1/../../../../arm-none-eabi/lib/thumb/v7e-m+fp/hard\libc_nano.a(lib_a-nano-vfprintf_i.o)
 .text          0x00000000        0x0 e:/gcc-arm-none-eabi-10.3-2021.10-win32/gcc-arm-none-eabi-10.3-2021.10/bin/../lib/gcc/arm-none-eabi/10.3.1/../../../../arm-none-eabi/lib/thumb/v7e-m+fp/hard\libc_nano.a(lib_a-reent.o)
 .data          0x00000000        0x0 e:/gcc-arm-none-eabi-10.3-2021.10-win32/gcc-arm-none-eabi-10.3-2021.10/bin/../lib/gcc/arm-none-eabi/10.3.1/../../../../arm-none-eabi/lib/thumb/v7e-m+fp/hard\libc_nano.a(lib_a-reent.o)
 .bss           0x00000000        0x0 e:/gcc-arm-none-eabi-10.3-2021.10-win32/gcc-arm-none-eabi-10.3-2021.10/bin/../lib/gcc/arm-none-eabi/10.3.1/../../../../arm-none-eabi/lib/thumb/v7e-m+fp/hard\libc_nano.a(lib_a-reent.o)
 .text.cleanup_glue
                0x00000000       0x1a e:/gcc-arm-none-eabi-10.3-2021.10-win32/gcc-arm-none-eabi-10.3-2021.10/bin/../lib/gcc/arm-none-eabi/10.3.1/../../../../arm-none-eabi/lib/thumb/v7e-m+fp/hard\libc_nano.a(lib_a-reent.o)
 .text._reclaim_reent
                0x00000000       0xb8 e:/gcc-arm-none-eabi-10.3-2021.10-win32/gcc-arm-none-eabi-10.3-2021.10/bin/../lib/gcc/arm-none-eabi/10.3.1/../../../../arm-none-eabi/lib/thumb/v7e-m+fp/hard\libc_nano.a(lib_a-reent.o)
 .text          0x00000000        0x0 e:/gcc-arm-none-eabi-10.3-2021.10-win32/gcc-arm-none-eabi-10.3-2021.10/bin/../lib/gcc/arm-none-eabi/10.3.1/../../../../arm-none-eabi/lib/thumb/v7e-m+fp/hard\libc_nano.a(lib_a-lock.o)
 .data          0x00000000        0x0 e:/gcc-arm-none-eabi-10.3-2021.10-win32/gcc-arm-none-eabi-10.3-2021.10/bin/../lib/gcc/arm-none-eabi/10.3.1/../../../../arm-none-eabi/lib/thumb/v7e-m+fp/hard\libc_nano.a(lib_a-lock.o)
 .bss           0x00000000        0x0 e:/gcc-arm-none-eabi-10.3-2021.10-win32/gcc-arm-none-eabi-10.3-2021.10/bin/../lib/gcc/arm-none-eabi/10.3.1/../../../../arm-none-eabi/lib/thumb/v7e-m+fp/hard\libc_nano.a(lib_a-lock.o)
 .text.__retarget_lock_init
                0x00000000        0x2 e:/gcc-arm-none-eabi-10.3-2021.10-win32/gcc-arm-none-eabi-10.3-2021.10/bin/../lib/gcc/arm-none-eabi/10.3.1/../../../../arm-none-eabi/lib/thumb/v7e-m+fp/hard\libc_nano.a(lib_a-lock.o)
 .text.__retarget_lock_init_recursive
                0x00000000        0x2 e:/gcc-arm-none-eabi-10.3-2021.10-win32/gcc-arm-none-eabi-10.3-2021.10/bin/../lib/gcc/arm-none-eabi/10.3.1/../../../../arm-none-eabi/lib/thumb/v7e-m+fp/hard\libc_nano.a(lib_a-lock.o)
 .text.__retarget_lock_close
                0x00000000        0x2 e:/gcc-arm-none-eabi-10.3-2021.10-win32/gcc-arm-none-eabi-10.3-2021.10/bin/../lib/gcc/arm-none-eabi/10.3.1/../../../../arm-none-eabi/lib/thumb/v7e-m+fp/hard\libc_nano.a(lib_a-lock.o)
 .text.__retarget_lock_close_recursive
                0x00000000        0x2 e:/gcc-arm-none-eabi-10.3-2021.10-win32/gcc-arm-none-eabi-10.3-2021.10/bin/../lib/gcc/arm-none-eabi/10.3.1/../../../../arm-none-eabi/lib/thumb/v7e-m+fp/hard\libc_nano.a(lib_a-lock.o)
 .text.__retarget_lock_acquire
                0x00000000        0x2 e:/gcc-arm-none-eabi-10.3-2021.10-win32/gcc-arm-none-eabi-10.3-2021.10/bin/../lib/gcc/arm-none-eabi/10.3.1/../../../../arm-none-eabi/lib/thumb/v7e-m+fp/hard\libc_nano.a(lib_a-lock.o)
 .text.__retarget_lock_try_acquire
                0x00000000        0x4 e:/gcc-arm-none-eabi-10.3-2021.10-win32/gcc-arm-none-eabi-10.3-2021.10/bin/../lib/gcc/arm-none-eabi/10.3.1/../../../../arm-none-eabi/lib/thumb/v7e-m+fp/hard\libc_nano.a(lib_a-lock.o)
 .text.__retarget_lock_try_acquire_recursive
                0x00000000        0x4 e:/gcc-arm-none-eabi-10.3-2021.10-win32/gcc-arm-none-eabi-10.3-2021.10/bin/../lib/gcc/arm-none-eabi/10.3.1/../../../../arm-none-eabi/lib/thumb/v7e-m+fp/hard\libc_nano.a(lib_a-lock.o)
 .text.__retarget_lock_release
                0x00000000        0x2 e:/gcc-arm-none-eabi-10.3-2021.10-win32/gcc-arm-none-eabi-10.3-2021.10/bin/../lib/gcc/arm-none-eabi/10.3.1/../../../../arm-none-eabi/lib/thumb/v7e-m+fp/hard\libc_nano.a(lib_a-lock.o)
 .bss.__lock___arc4random_mutex
                0x00000000        0x1 e:/gcc-arm-none-eabi-10.3-2021.10-win32/gcc-arm-none-eabi-10.3-2021.10/bin/../lib/gcc/arm-none-eabi/10.3.1/../../../../arm-none-eabi/lib/thumb/v7e-m+fp/hard\libc_nano.a(lib_a-lock.o)
 .bss.__lock___at_quick_exit_mutex
                0x00000000        0x1 e:/gcc-arm-none-eabi-10.3-2021.10-win32/gcc-arm-none-eabi-10.3-2021.10/bin/../lib/gcc/arm-none-eabi/10.3.1/../../../../arm-none-eabi/lib/thumb/v7e-m+fp/hard\libc_nano.a(lib_a-lock.o)
 .bss.__lock___atexit_recursive_mutex
                0x00000000        0x1 e:/gcc-arm-none-eabi-10.3-2021.10-win32/gcc-arm-none-eabi-10.3-2021.10/bin/../lib/gcc/arm-none-eabi/10.3.1/../../../../arm-none-eabi/lib/thumb/v7e-m+fp/hard\libc_nano.a(lib_a-lock.o)
 .bss.__lock___dd_hash_mutex
                0x00000000        0x1 e:/gcc-arm-none-eabi-10.3-2021.10-win32/gcc-arm-none-eabi-10.3-2021.10/bin/../lib/gcc/arm-none-eabi/10.3.1/../../../../arm-none-eabi/lib/thumb/v7e-m+fp/hard\libc_nano.a(lib_a-lock.o)
 .bss.__lock___env_recursive_mutex
                0x00000000        0x1 e:/gcc-arm-none-eabi-10.3-2021.10-win32/gcc-arm-none-eabi-10.3-2021.10/bin/../lib/gcc/arm-none-eabi/10.3.1/../../../../arm-none-eabi/lib/thumb/v7e-m+fp/hard\libc_nano.a(lib_a-lock.o)
 .bss.__lock___sfp_recursive_mutex
                0x00000000        0x1 e:/gcc-arm-none-eabi-10.3-2021.10-win32/gcc-arm-none-eabi-10.3-2021.10/bin/../lib/gcc/arm-none-eabi/10.3.1/../../../../arm-none-eabi/lib/thumb/v7e-m+fp/hard\libc_nano.a(lib_a-lock.o)
 .bss.__lock___sinit_recursive_mutex
                0x00000000        0x1 e:/gcc-arm-none-eabi-10.3-2021.10-win32/gcc-arm-none-eabi-10.3-2021.10/bin/../lib/gcc/arm-none-eabi/10.3.1/../../../../arm-none-eabi/lib/thumb/v7e-m+fp/hard\libc_nano.a(lib_a-lock.o)
 .bss.__lock___tz_mutex
                0x00000000        0x1 e:/gcc-arm-none-eabi-10.3-2021.10-win32/gcc-arm-none-eabi-10.3-2021.10/bin/../lib/gcc/arm-none-eabi/10.3.1/../../../../arm-none-eabi/lib/thumb/v7e-m+fp/hard\libc_nano.a(lib_a-lock.o)
 .data          0x00000000        0x0 e:/gcc-arm-none-eabi-10.3-2021.10-win32/gcc-arm-none-eabi-10.3-2021.10/bin/../lib/gcc/arm-none-eabi/10.3.1/../../../../arm-none-eabi/lib/thumb/v7e-m+fp/hard\libc_nano.a(lib_a-memchr.o)
 .bss           0x00000000        0x0 e:/gcc-arm-none-eabi-10.3-2021.10-win32/gcc-arm-none-eabi-10.3-2021.10/bin/../lib/gcc/arm-none-eabi/10.3.1/../../../../arm-none-eabi/lib/thumb/v7e-m+fp/hard\libc_nano.a(lib_a-memchr.o)
 .text          0x00000000        0x0 e:/gcc-arm-none-eabi-10.3-2021.10-win32/gcc-arm-none-eabi-10.3-2021.10/bin/../lib/gcc/arm-none-eabi/10.3.1/../../../../arm-none-eabi/lib/thumb/v7e-m+fp/hard\libc_nano.a(lib_a-memmove.o)
 .data          0x00000000        0x0 e:/gcc-arm-none-eabi-10.3-2021.10-win32/gcc-arm-none-eabi-10.3-2021.10/bin/../lib/gcc/arm-none-eabi/10.3.1/../../../../arm-none-eabi/lib/thumb/v7e-m+fp/hard\libc_nano.a(lib_a-memmove.o)
 .bss           0x00000000        0x0 e:/gcc-arm-none-eabi-10.3-2021.10-win32/gcc-arm-none-eabi-10.3-2021.10/bin/../lib/gcc/arm-none-eabi/10.3.1/../../../../arm-none-eabi/lib/thumb/v7e-m+fp/hard\libc_nano.a(lib_a-memmove.o)
 .text          0x00000000        0x0 e:/gcc-arm-none-eabi-10.3-2021.10-win32/gcc-arm-none-eabi-10.3-2021.10/bin/../lib/gcc/arm-none-eabi/10.3.1/../../../../arm-none-eabi/lib/thumb/v7e-m+fp/hard\libc_nano.a(lib_a-nano-reallocr.o)
 .data          0x00000000        0x0 e:/gcc-arm-none-eabi-10.3-2021.10-win32/gcc-arm-none-eabi-10.3-2021.10/bin/../lib/gcc/arm-none-eabi/10.3.1/../../../../arm-none-eabi/lib/thumb/v7e-m+fp/hard\libc_nano.a(lib_a-nano-reallocr.o)
 .bss           0x00000000        0x0 e:/gcc-arm-none-eabi-10.3-2021.10-win32/gcc-arm-none-eabi-10.3-2021.10/bin/../lib/gcc/arm-none-eabi/10.3.1/../../../../arm-none-eabi/lib/thumb/v7e-m+fp/hard\libc_nano.a(lib_a-nano-reallocr.o)
 .text          0x00000000        0x0 e:/gcc-arm-none-eabi-10.3-2021.10-win32/gcc-arm-none-eabi-10.3-2021.10/bin/../lib/gcc/arm-none-eabi/10.3.1/../../../../arm-none-eabi/lib/thumb/v7e-m+fp/hard\libc_nano.a(lib_a-nano-msizer.o)
 .data          0x00000000        0x0 e:/gcc-arm-none-eabi-10.3-2021.10-win32/gcc-arm-none-eabi-10.3-2021.10/bin/../lib/gcc/arm-none-eabi/10.3.1/../../../../arm-none-eabi/lib/thumb/v7e-m+fp/hard\libc_nano.a(lib_a-nano-msizer.o)
 .bss           0x00000000        0x0 e:/gcc-arm-none-eabi-10.3-2021.10-win32/gcc-arm-none-eabi-10.3-2021.10/bin/../lib/gcc/arm-none-eabi/10.3.1/../../../../arm-none-eabi/lib/thumb/v7e-m+fp/hard\libc_nano.a(lib_a-nano-msizer.o)
 .text          0x00000000        0x0 e:/gcc-arm-none-eabi-10.3-2021.10-win32/gcc-arm-none-eabi-10.3-2021.10/bin/../lib/gcc/arm-none-eabi/10.3.1/../../../../arm-none-eabi/lib/thumb/v7e-m+fp/hard\libm.a(lib_a-w_pow.o)
 .data          0x00000000        0x0 e:/gcc-arm-none-eabi-10.3-2021.10-win32/gcc-arm-none-eabi-10.3-2021.10/bin/../lib/gcc/arm-none-eabi/10.3.1/../../../../arm-none-eabi/lib/thumb/v7e-m+fp/hard\libm.a(lib_a-w_pow.o)
 .bss           0x00000000        0x0 e:/gcc-arm-none-eabi-10.3-2021.10-win32/gcc-arm-none-eabi-10.3-2021.10/bin/../lib/gcc/arm-none-eabi/10.3.1/../../../../arm-none-eabi/lib/thumb/v7e-m+fp/hard\libm.a(lib_a-w_pow.o)
 .text          0x00000000        0x0 e:/gcc-arm-none-eabi-10.3-2021.10-win32/gcc-arm-none-eabi-10.3-2021.10/bin/../lib/gcc/arm-none-eabi/10.3.1/../../../../arm-none-eabi/lib/thumb/v7e-m+fp/hard\libm.a(lib_a-e_pow.o)
 .data          0x00000000        0x0 e:/gcc-arm-none-eabi-10.3-2021.10-win32/gcc-arm-none-eabi-10.3-2021.10/bin/../lib/gcc/arm-none-eabi/10.3.1/../../../../arm-none-eabi/lib/thumb/v7e-m+fp/hard\libm.a(lib_a-e_pow.o)
 .bss           0x00000000        0x0 e:/gcc-arm-none-eabi-10.3-2021.10-win32/gcc-arm-none-eabi-10.3-2021.10/bin/../lib/gcc/arm-none-eabi/10.3.1/../../../../arm-none-eabi/lib/thumb/v7e-m+fp/hard\libm.a(lib_a-e_pow.o)
 .text          0x00000000        0x0 e:/gcc-arm-none-eabi-10.3-2021.10-win32/gcc-arm-none-eabi-10.3-2021.10/bin/../lib/gcc/arm-none-eabi/10.3.1/../../../../arm-none-eabi/lib/thumb/v7e-m+fp/hard\libm.a(lib_a-e_sqrt.o)
 .data          0x00000000        0x0 e:/gcc-arm-none-eabi-10.3-2021.10-win32/gcc-arm-none-eabi-10.3-2021.10/bin/../lib/gcc/arm-none-eabi/10.3.1/../../../../arm-none-eabi/lib/thumb/v7e-m+fp/hard\libm.a(lib_a-e_sqrt.o)
 .bss           0x00000000        0x0 e:/gcc-arm-none-eabi-10.3-2021.10-win32/gcc-arm-none-eabi-10.3-2021.10/bin/../lib/gcc/arm-none-eabi/10.3.1/../../../../arm-none-eabi/lib/thumb/v7e-m+fp/hard\libm.a(lib_a-e_sqrt.o)
 .text          0x00000000        0x0 e:/gcc-arm-none-eabi-10.3-2021.10-win32/gcc-arm-none-eabi-10.3-2021.10/bin/../lib/gcc/arm-none-eabi/10.3.1/../../../../arm-none-eabi/lib/thumb/v7e-m+fp/hard\libm.a(lib_a-math_err.o)
 .data          0x00000000        0x0 e:/gcc-arm-none-eabi-10.3-2021.10-win32/gcc-arm-none-eabi-10.3-2021.10/bin/../lib/gcc/arm-none-eabi/10.3.1/../../../../arm-none-eabi/lib/thumb/v7e-m+fp/hard\libm.a(lib_a-math_err.o)
 .bss           0x00000000        0x0 e:/gcc-arm-none-eabi-10.3-2021.10-win32/gcc-arm-none-eabi-10.3-2021.10/bin/../lib/gcc/arm-none-eabi/10.3.1/../../../../arm-none-eabi/lib/thumb/v7e-m+fp/hard\libm.a(lib_a-math_err.o)
 .text.__math_may_uflow
                0x00000000       0x14 e:/gcc-arm-none-eabi-10.3-2021.10-win32/gcc-arm-none-eabi-10.3-2021.10/bin/../lib/gcc/arm-none-eabi/10.3.1/../../../../arm-none-eabi/lib/thumb/v7e-m+fp/hard\libm.a(lib_a-math_err.o)
 .text.__math_divzero
                0x00000000       0x38 e:/gcc-arm-none-eabi-10.3-2021.10-win32/gcc-arm-none-eabi-10.3-2021.10/bin/../lib/gcc/arm-none-eabi/10.3.1/../../../../arm-none-eabi/lib/thumb/v7e-m+fp/hard\libm.a(lib_a-math_err.o)
 .text.__math_invalid
                0x00000000       0x50 e:/gcc-arm-none-eabi-10.3-2021.10-win32/gcc-arm-none-eabi-10.3-2021.10/bin/../lib/gcc/arm-none-eabi/10.3.1/../../../../arm-none-eabi/lib/thumb/v7e-m+fp/hard\libm.a(lib_a-math_err.o)
 .text.__math_check_uflow
                0x00000000       0x30 e:/gcc-arm-none-eabi-10.3-2021.10-win32/gcc-arm-none-eabi-10.3-2021.10/bin/../lib/gcc/arm-none-eabi/10.3.1/../../../../arm-none-eabi/lib/thumb/v7e-m+fp/hard\libm.a(lib_a-math_err.o)
 .text.__math_check_oflow
                0x00000000       0x4c e:/gcc-arm-none-eabi-10.3-2021.10-win32/gcc-arm-none-eabi-10.3-2021.10/bin/../lib/gcc/arm-none-eabi/10.3.1/../../../../arm-none-eabi/lib/thumb/v7e-m+fp/hard\libm.a(lib_a-math_err.o)
 .text          0x00000000        0x0 e:/gcc-arm-none-eabi-10.3-2021.10-win32/gcc-arm-none-eabi-10.3-2021.10/bin/../lib/gcc/arm-none-eabi/10.3.1/../../../../arm-none-eabi/lib/thumb/v7e-m+fp/hard\libm.a(lib_a-s_fabs.o)
 .data          0x00000000        0x0 e:/gcc-arm-none-eabi-10.3-2021.10-win32/gcc-arm-none-eabi-10.3-2021.10/bin/../lib/gcc/arm-none-eabi/10.3.1/../../../../arm-none-eabi/lib/thumb/v7e-m+fp/hard\libm.a(lib_a-s_fabs.o)
 .bss           0x00000000        0x0 e:/gcc-arm-none-eabi-10.3-2021.10-win32/gcc-arm-none-eabi-10.3-2021.10/bin/../lib/gcc/arm-none-eabi/10.3.1/../../../../arm-none-eabi/lib/thumb/v7e-m+fp/hard\libm.a(lib_a-s_fabs.o)
 .text          0x00000000        0x0 e:/gcc-arm-none-eabi-10.3-2021.10-win32/gcc-arm-none-eabi-10.3-2021.10/bin/../lib/gcc/arm-none-eabi/10.3.1/../../../../arm-none-eabi/lib/thumb/v7e-m+fp/hard\libm.a(lib_a-s_finite.o)
 .data          0x00000000        0x0 e:/gcc-arm-none-eabi-10.3-2021.10-win32/gcc-arm-none-eabi-10.3-2021.10/bin/../lib/gcc/arm-none-eabi/10.3.1/../../../../arm-none-eabi/lib/thumb/v7e-m+fp/hard\libm.a(lib_a-s_finite.o)
 .bss           0x00000000        0x0 e:/gcc-arm-none-eabi-10.3-2021.10-win32/gcc-arm-none-eabi-10.3-2021.10/bin/../lib/gcc/arm-none-eabi/10.3.1/../../../../arm-none-eabi/lib/thumb/v7e-m+fp/hard\libm.a(lib_a-s_finite.o)
 .text          0x00000000        0x0 e:/gcc-arm-none-eabi-10.3-2021.10-win32/gcc-arm-none-eabi-10.3-2021.10/bin/../lib/gcc/arm-none-eabi/10.3.1/../../../../arm-none-eabi/lib/thumb/v7e-m+fp/hard\libm.a(lib_a-s_scalbn.o)
 .data          0x00000000        0x0 e:/gcc-arm-none-eabi-10.3-2021.10-win32/gcc-arm-none-eabi-10.3-2021.10/bin/../lib/gcc/arm-none-eabi/10.3.1/../../../../arm-none-eabi/lib/thumb/v7e-m+fp/hard\libm.a(lib_a-s_scalbn.o)
 .bss           0x00000000        0x0 e:/gcc-arm-none-eabi-10.3-2021.10-win32/gcc-arm-none-eabi-10.3-2021.10/bin/../lib/gcc/arm-none-eabi/10.3.1/../../../../arm-none-eabi/lib/thumb/v7e-m+fp/hard\libm.a(lib_a-s_scalbn.o)
 .text          0x00000000        0x0 e:/gcc-arm-none-eabi-10.3-2021.10-win32/gcc-arm-none-eabi-10.3-2021.10/bin/../lib/gcc/arm-none-eabi/10.3.1/../../../../arm-none-eabi/lib/thumb/v7e-m+fp/hard\libnosys.a(sbrk.o)
 .data          0x00000000        0x0 e:/gcc-arm-none-eabi-10.3-2021.10-win32/gcc-arm-none-eabi-10.3-2021.10/bin/../lib/gcc/arm-none-eabi/10.3.1/../../../../arm-none-eabi/lib/thumb/v7e-m+fp/hard\libnosys.a(sbrk.o)
 .bss           0x00000000        0x0 e:/gcc-arm-none-eabi-10.3-2021.10-win32/gcc-arm-none-eabi-10.3-2021.10/bin/../lib/gcc/arm-none-eabi/10.3.1/../../../../arm-none-eabi/lib/thumb/v7e-m+fp/hard\libnosys.a(sbrk.o)
 .text          0x00000000        0x0 e:/gcc-arm-none-eabi-10.3-2021.10-win32/gcc-arm-none-eabi-10.3-2021.10/bin/../lib/gcc/arm-none-eabi/10.3.1/../../../../arm-none-eabi/lib/thumb/v7e-m+fp/hard\libnosys.a(_exit.o)
 .data          0x00000000        0x0 e:/gcc-arm-none-eabi-10.3-2021.10-win32/gcc-arm-none-eabi-10.3-2021.10/bin/../lib/gcc/arm-none-eabi/10.3.1/../../../../arm-none-eabi/lib/thumb/v7e-m+fp/hard\libnosys.a(_exit.o)
 .bss           0x00000000        0x0 e:/gcc-arm-none-eabi-10.3-2021.10-win32/gcc-arm-none-eabi-10.3-2021.10/bin/../lib/gcc/arm-none-eabi/10.3.1/../../../../arm-none-eabi/lib/thumb/v7e-m+fp/hard\libnosys.a(_exit.o)
 .text._exit    0x00000000        0x4 e:/gcc-arm-none-eabi-10.3-2021.10-win32/gcc-arm-none-eabi-10.3-2021.10/bin/../lib/gcc/arm-none-eabi/10.3.1/../../../../arm-none-eabi/lib/thumb/v7e-m+fp/hard\libnosys.a(_exit.o)
 .debug_frame   0x00000000       0x20 e:/gcc-arm-none-eabi-10.3-2021.10-win32/gcc-arm-none-eabi-10.3-2021.10/bin/../lib/gcc/arm-none-eabi/10.3.1/../../../../arm-none-eabi/lib/thumb/v7e-m+fp/hard\libnosys.a(_exit.o)
 .ARM.attributes
                0x00000000       0x34 e:/gcc-arm-none-eabi-10.3-2021.10-win32/gcc-arm-none-eabi-10.3-2021.10/bin/../lib/gcc/arm-none-eabi/10.3.1/../../../../arm-none-eabi/lib/thumb/v7e-m+fp/hard\libnosys.a(_exit.o)
 .text          0x00000000      0x254 e:/gcc-arm-none-eabi-10.3-2021.10-win32/gcc-arm-none-eabi-10.3-2021.10/bin/../lib/gcc/arm-none-eabi/10.3.1/thumb/v7e-m+fp/hard\libgcc.a(_arm_muldf3.o)
 .data          0x00000000        0x0 e:/gcc-arm-none-eabi-10.3-2021.10-win32/gcc-arm-none-eabi-10.3-2021.10/bin/../lib/gcc/arm-none-eabi/10.3.1/thumb/v7e-m+fp/hard\libgcc.a(_arm_muldf3.o)
 .bss           0x00000000        0x0 e:/gcc-arm-none-eabi-10.3-2021.10-win32/gcc-arm-none-eabi-10.3-2021.10/bin/../lib/gcc/arm-none-eabi/10.3.1/thumb/v7e-m+fp/hard\libgcc.a(_arm_muldf3.o)
 .debug_frame   0x00000000       0x30 e:/gcc-arm-none-eabi-10.3-2021.10-win32/gcc-arm-none-eabi-10.3-2021.10/bin/../lib/gcc/arm-none-eabi/10.3.1/thumb/v7e-m+fp/hard\libgcc.a(_arm_muldf3.o)
 .ARM.attributes
                0x00000000       0x1e e:/gcc-arm-none-eabi-10.3-2021.10-win32/gcc-arm-none-eabi-10.3-2021.10/bin/../lib/gcc/arm-none-eabi/10.3.1/thumb/v7e-m+fp/hard\libgcc.a(_arm_muldf3.o)
 .data          0x00000000        0x0 e:/gcc-arm-none-eabi-10.3-2021.10-win32/gcc-arm-none-eabi-10.3-2021.10/bin/../lib/gcc/arm-none-eabi/10.3.1/thumb/v7e-m+fp/hard\libgcc.a(_arm_addsubdf3.o)
 .bss           0x00000000        0x0 e:/gcc-arm-none-eabi-10.3-2021.10-win32/gcc-arm-none-eabi-10.3-2021.10/bin/../lib/gcc/arm-none-eabi/10.3.1/thumb/v7e-m+fp/hard\libgcc.a(_arm_addsubdf3.o)
 .data          0x00000000        0x0 e:/gcc-arm-none-eabi-10.3-2021.10-win32/gcc-arm-none-eabi-10.3-2021.10/bin/../lib/gcc/arm-none-eabi/10.3.1/thumb/v7e-m+fp/hard\libgcc.a(_arm_muldivdf3.o)
 .bss           0x00000000        0x0 e:/gcc-arm-none-eabi-10.3-2021.10-win32/gcc-arm-none-eabi-10.3-2021.10/bin/../lib/gcc/arm-none-eabi/10.3.1/thumb/v7e-m+fp/hard\libgcc.a(_arm_muldivdf3.o)
 .data          0x00000000        0x0 e:/gcc-arm-none-eabi-10.3-2021.10-win32/gcc-arm-none-eabi-10.3-2021.10/bin/../lib/gcc/arm-none-eabi/10.3.1/thumb/v7e-m+fp/hard\libgcc.a(_arm_cmpdf2.o)
 .bss           0x00000000        0x0 e:/gcc-arm-none-eabi-10.3-2021.10-win32/gcc-arm-none-eabi-10.3-2021.10/bin/../lib/gcc/arm-none-eabi/10.3.1/thumb/v7e-m+fp/hard\libgcc.a(_arm_cmpdf2.o)
 .data          0x00000000        0x0 e:/gcc-arm-none-eabi-10.3-2021.10-win32/gcc-arm-none-eabi-10.3-2021.10/bin/../lib/gcc/arm-none-eabi/10.3.1/thumb/v7e-m+fp/hard\libgcc.a(_arm_unorddf2.o)
 .bss           0x00000000        0x0 e:/gcc-arm-none-eabi-10.3-2021.10-win32/gcc-arm-none-eabi-10.3-2021.10/bin/../lib/gcc/arm-none-eabi/10.3.1/thumb/v7e-m+fp/hard\libgcc.a(_arm_unorddf2.o)
 .data          0x00000000        0x0 e:/gcc-arm-none-eabi-10.3-2021.10-win32/gcc-arm-none-eabi-10.3-2021.10/bin/../lib/gcc/arm-none-eabi/10.3.1/thumb/v7e-m+fp/hard\libgcc.a(_arm_fixunsdfsi.o)
 .bss           0x00000000        0x0 e:/gcc-arm-none-eabi-10.3-2021.10-win32/gcc-arm-none-eabi-10.3-2021.10/bin/../lib/gcc/arm-none-eabi/10.3.1/thumb/v7e-m+fp/hard\libgcc.a(_arm_fixunsdfsi.o)
 .data          0x00000000        0x0 e:/gcc-arm-none-eabi-10.3-2021.10-win32/gcc-arm-none-eabi-10.3-2021.10/bin/../lib/gcc/arm-none-eabi/10.3.1/thumb/v7e-m+fp/hard\libgcc.a(_arm_truncdfsf2.o)
 .bss           0x00000000        0x0 e:/gcc-arm-none-eabi-10.3-2021.10-win32/gcc-arm-none-eabi-10.3-2021.10/bin/../lib/gcc/arm-none-eabi/10.3.1/thumb/v7e-m+fp/hard\libgcc.a(_arm_truncdfsf2.o)
 .text          0x00000000       0xa0 e:/gcc-arm-none-eabi-10.3-2021.10-win32/gcc-arm-none-eabi-10.3-2021.10/bin/../lib/gcc/arm-none-eabi/10.3.1/thumb/v7e-m+fp/hard\libgcc.a(_aeabi_ldivmod.o)
 .data          0x00000000        0x0 e:/gcc-arm-none-eabi-10.3-2021.10-win32/gcc-arm-none-eabi-10.3-2021.10/bin/../lib/gcc/arm-none-eabi/10.3.1/thumb/v7e-m+fp/hard\libgcc.a(_aeabi_ldivmod.o)
 .bss           0x00000000        0x0 e:/gcc-arm-none-eabi-10.3-2021.10-win32/gcc-arm-none-eabi-10.3-2021.10/bin/../lib/gcc/arm-none-eabi/10.3.1/thumb/v7e-m+fp/hard\libgcc.a(_aeabi_ldivmod.o)
 .debug_frame   0x00000000       0x44 e:/gcc-arm-none-eabi-10.3-2021.10-win32/gcc-arm-none-eabi-10.3-2021.10/bin/../lib/gcc/arm-none-eabi/10.3.1/thumb/v7e-m+fp/hard\libgcc.a(_aeabi_ldivmod.o)
 .ARM.attributes
                0x00000000       0x1e e:/gcc-arm-none-eabi-10.3-2021.10-win32/gcc-arm-none-eabi-10.3-2021.10/bin/../lib/gcc/arm-none-eabi/10.3.1/thumb/v7e-m+fp/hard\libgcc.a(_aeabi_ldivmod.o)
 .data          0x00000000        0x0 e:/gcc-arm-none-eabi-10.3-2021.10-win32/gcc-arm-none-eabi-10.3-2021.10/bin/../lib/gcc/arm-none-eabi/10.3.1/thumb/v7e-m+fp/hard\libgcc.a(_aeabi_uldivmod.o)
 .bss           0x00000000        0x0 e:/gcc-arm-none-eabi-10.3-2021.10-win32/gcc-arm-none-eabi-10.3-2021.10/bin/../lib/gcc/arm-none-eabi/10.3.1/thumb/v7e-m+fp/hard\libgcc.a(_aeabi_uldivmod.o)
 .data          0x00000000        0x0 e:/gcc-arm-none-eabi-10.3-2021.10-win32/gcc-arm-none-eabi-10.3-2021.10/bin/../lib/gcc/arm-none-eabi/10.3.1/thumb/v7e-m+fp/hard\libgcc.a(_udivmoddi4.o)
 .bss           0x00000000        0x0 e:/gcc-arm-none-eabi-10.3-2021.10-win32/gcc-arm-none-eabi-10.3-2021.10/bin/../lib/gcc/arm-none-eabi/10.3.1/thumb/v7e-m+fp/hard\libgcc.a(_udivmoddi4.o)
 .ARM.extab     0x00000000        0x0 e:/gcc-arm-none-eabi-10.3-2021.10-win32/gcc-arm-none-eabi-10.3-2021.10/bin/../lib/gcc/arm-none-eabi/10.3.1/thumb/v7e-m+fp/hard\libgcc.a(_udivmoddi4.o)
 .data          0x00000000        0x0 e:/gcc-arm-none-eabi-10.3-2021.10-win32/gcc-arm-none-eabi-10.3-2021.10/bin/../lib/gcc/arm-none-eabi/10.3.1/thumb/v7e-m+fp/hard\libgcc.a(_dvmd_tls.o)
 .bss           0x00000000        0x0 e:/gcc-arm-none-eabi-10.3-2021.10-win32/gcc-arm-none-eabi-10.3-2021.10/bin/../lib/gcc/arm-none-eabi/10.3.1/thumb/v7e-m+fp/hard\libgcc.a(_dvmd_tls.o)
 .text          0x00000000        0x0 e:/gcc-arm-none-eabi-10.3-2021.10-win32/gcc-arm-none-eabi-10.3-2021.10/bin/../lib/gcc/arm-none-eabi/10.3.1/../../../../arm-none-eabi/lib/thumb/v7e-m+fp/hard\libc_nano.a(lib_a-errno.o)
 .data          0x00000000        0x0 e:/gcc-arm-none-eabi-10.3-2021.10-win32/gcc-arm-none-eabi-10.3-2021.10/bin/../lib/gcc/arm-none-eabi/10.3.1/../../../../arm-none-eabi/lib/thumb/v7e-m+fp/hard\libc_nano.a(lib_a-errno.o)
 .bss           0x00000000        0x0 e:/gcc-arm-none-eabi-10.3-2021.10-win32/gcc-arm-none-eabi-10.3-2021.10/bin/../lib/gcc/arm-none-eabi/10.3.1/../../../../arm-none-eabi/lib/thumb/v7e-m+fp/hard\libc_nano.a(lib_a-errno.o)
 .text          0x00000000        0x0 e:/gcc-arm-none-eabi-10.3-2021.10-win32/gcc-arm-none-eabi-10.3-2021.10/bin/../lib/gcc/arm-none-eabi/10.3.1/thumb/v7e-m+fp/hard/crtend.o
 .data          0x00000000        0x0 e:/gcc-arm-none-eabi-10.3-2021.10-win32/gcc-arm-none-eabi-10.3-2021.10/bin/../lib/gcc/arm-none-eabi/10.3.1/thumb/v7e-m+fp/hard/crtend.o
 .bss           0x00000000        0x0 e:/gcc-arm-none-eabi-10.3-2021.10-win32/gcc-arm-none-eabi-10.3-2021.10/bin/../lib/gcc/arm-none-eabi/10.3.1/thumb/v7e-m+fp/hard/crtend.o
 .rodata        0x00000000       0x24 e:/gcc-arm-none-eabi-10.3-2021.10-win32/gcc-arm-none-eabi-10.3-2021.10/bin/../lib/gcc/arm-none-eabi/10.3.1/thumb/v7e-m+fp/hard/crtend.o
 .eh_frame      0x00000000        0x4 e:/gcc-arm-none-eabi-10.3-2021.10-win32/gcc-arm-none-eabi-10.3-2021.10/bin/../lib/gcc/arm-none-eabi/10.3.1/thumb/v7e-m+fp/hard/crtend.o
 .ARM.attributes
                0x00000000       0x34 e:/gcc-arm-none-eabi-10.3-2021.10-win32/gcc-arm-none-eabi-10.3-2021.10/bin/../lib/gcc/arm-none-eabi/10.3.1/thumb/v7e-m+fp/hard/crtend.o
 .text          0x00000000        0x0 e:/gcc-arm-none-eabi-10.3-2021.10-win32/gcc-arm-none-eabi-10.3-2021.10/bin/../lib/gcc/arm-none-eabi/10.3.1/thumb/v7e-m+fp/hard/crtn.o
 .data          0x00000000        0x0 e:/gcc-arm-none-eabi-10.3-2021.10-win32/gcc-arm-none-eabi-10.3-2021.10/bin/../lib/gcc/arm-none-eabi/10.3.1/thumb/v7e-m+fp/hard/crtn.o
 .bss           0x00000000        0x0 e:/gcc-arm-none-eabi-10.3-2021.10-win32/gcc-arm-none-eabi-10.3-2021.10/bin/../lib/gcc/arm-none-eabi/10.3.1/thumb/v7e-m+fp/hard/crtn.o

Memory Configuration

Name             Origin             Length             Attributes
RAM              0x20000000         0x00010000         xrw
RAM2             0x10000000         0x00004000         xrw
FLASH            0x08000000         0x00020000         xr
*default*        0x00000000         0xffffffff

Linker script and memory map

LOAD e:/gcc-arm-none-eabi-10.3-2021.10-win32/gcc-arm-none-eabi-10.3-2021.10/bin/../lib/gcc/arm-none-eabi/10.3.1/thumb/v7e-m+fp/hard/crti.o
LOAD e:/gcc-arm-none-eabi-10.3-2021.10-win32/gcc-arm-none-eabi-10.3-2021.10/bin/../lib/gcc/arm-none-eabi/10.3.1/thumb/v7e-m+fp/hard/crtbegin.o
LOAD e:/gcc-arm-none-eabi-10.3-2021.10-win32/gcc-arm-none-eabi-10.3-2021.10/bin/../lib/gcc/arm-none-eabi/10.3.1/../../../../arm-none-eabi/lib/thumb/v7e-m+fp/hard/crt0.o
LOAD build/main.o
LOAD build/stm32l4xx_it.o
LOAD build/stm32l4xx_hal_msp.o
LOAD build/stm32l4xx_hal_adc.o
LOAD build/stm32l4xx_hal_adc_ex.o
LOAD build/stm32l4xx_hal.o
LOAD build/stm32l4xx_hal_i2c.o
LOAD build/stm32l4xx_hal_i2c_ex.o
LOAD build/stm32l4xx_hal_rcc.o
LOAD build/stm32l4xx_hal_rcc_ex.o
LOAD build/stm32l4xx_hal_flash.o
LOAD build/stm32l4xx_hal_flash_ex.o
LOAD build/stm32l4xx_hal_flash_ramfunc.o
LOAD build/stm32l4xx_hal_gpio.o
LOAD build/stm32l4xx_hal_dma.o
LOAD build/stm32l4xx_hal_dma_ex.o
LOAD build/stm32l4xx_hal_pwr.o
LOAD build/stm32l4xx_hal_pwr_ex.o
LOAD build/stm32l4xx_hal_cortex.o
LOAD build/stm32l4xx_hal_exti.o
LOAD build/stm32l4xx_hal_spi.o
LOAD build/stm32l4xx_hal_spi_ex.o
LOAD build/stm32l4xx_hal_tim.o
LOAD build/stm32l4xx_hal_tim_ex.o
LOAD build/stm32l4xx_hal_uart.o
LOAD build/stm32l4xx_hal_uart_ex.o
LOAD build/system_stm32l4xx.o
LOAD build/shell_cmd_list.o
LOAD build/shell_companion.o
LOAD build/shell_ext.o
LOAD build/shell_port.o
LOAD build/shell.o
LOAD build/fsm.o
LOAD build/gpio.o
LOAD build/adc.o
LOAD build/spi.o
LOAD build/usart.o
LOAD build/timer.o
LOAD build/queue.o
LOAD build/SX1278_hw.o
LOAD build/W25QXX.o
LOAD build/led.o
LOAD build/rs485.o
LOAD build/ATGM332D.o
LOAD build/EC2x.o
LOAD build/SX1278.o
LOAD build/startup_stm32l431xx.o
LOAD e:/gcc-arm-none-eabi-10.3-2021.10-win32/gcc-arm-none-eabi-10.3-2021.10/bin/../lib/gcc/arm-none-eabi/10.3.1/../../../../arm-none-eabi/lib/thumb/v7e-m+fp/hard\libc_nano.a
LOAD e:/gcc-arm-none-eabi-10.3-2021.10-win32/gcc-arm-none-eabi-10.3-2021.10/bin/../lib/gcc/arm-none-eabi/10.3.1/../../../../arm-none-eabi/lib/thumb/v7e-m+fp/hard\libm.a
LOAD e:/gcc-arm-none-eabi-10.3-2021.10-win32/gcc-arm-none-eabi-10.3-2021.10/bin/../lib/gcc/arm-none-eabi/10.3.1/../../../../arm-none-eabi/lib/thumb/v7e-m+fp/hard\libnosys.a
START GROUP
LOAD e:/gcc-arm-none-eabi-10.3-2021.10-win32/gcc-arm-none-eabi-10.3-2021.10/bin/../lib/gcc/arm-none-eabi/10.3.1/thumb/v7e-m+fp/hard\libgcc.a
LOAD e:/gcc-arm-none-eabi-10.3-2021.10-win32/gcc-arm-none-eabi-10.3-2021.10/bin/../lib/gcc/arm-none-eabi/10.3.1/../../../../arm-none-eabi/lib/thumb/v7e-m+fp/hard\libc_nano.a
END GROUP
START GROUP
LOAD e:/gcc-arm-none-eabi-10.3-2021.10-win32/gcc-arm-none-eabi-10.3-2021.10/bin/../lib/gcc/arm-none-eabi/10.3.1/thumb/v7e-m+fp/hard\libgcc.a
LOAD e:/gcc-arm-none-eabi-10.3-2021.10-win32/gcc-arm-none-eabi-10.3-2021.10/bin/../lib/gcc/arm-none-eabi/10.3.1/../../../../arm-none-eabi/lib/thumb/v7e-m+fp/hard\libc_nano.a
END GROUP
LOAD e:/gcc-arm-none-eabi-10.3-2021.10-win32/gcc-arm-none-eabi-10.3-2021.10/bin/../lib/gcc/arm-none-eabi/10.3.1/thumb/v7e-m+fp/hard/crtend.o
LOAD e:/gcc-arm-none-eabi-10.3-2021.10-win32/gcc-arm-none-eabi-10.3-2021.10/bin/../lib/gcc/arm-none-eabi/10.3.1/thumb/v7e-m+fp/hard/crtn.o
                0x20010000                _estack = 0x20010000
                0x00000600                _Min_Heap_Size = 0x600
                0x00000400                _Min_Stack_Size = 0x400

.isr_vector     0x08000000      0x190
                0x08000000                . = ALIGN (0x8)
 *(.isr_vector)
 .isr_vector    0x08000000      0x18c build/startup_stm32l431xx.o
                0x08000000                g_pfnVectors
                0x08000190                . = ALIGN (0x8)
 *fill*         0x0800018c        0x4 

.text           0x08000190     0x86a8
                0x08000190                . = ALIGN (0x8)
 *(.text)
 .text          0x08000190       0x40 e:/gcc-arm-none-eabi-10.3-2021.10-win32/gcc-arm-none-eabi-10.3-2021.10/bin/../lib/gcc/arm-none-eabi/10.3.1/thumb/v7e-m+fp/hard/crtbegin.o
 .text          0x080001d0       0x14 e:/gcc-arm-none-eabi-10.3-2021.10-win32/gcc-arm-none-eabi-10.3-2021.10/bin/../lib/gcc/arm-none-eabi/10.3.1/../../../../arm-none-eabi/lib/thumb/v7e-m+fp/hard\libc_nano.a(lib_a-strcmp.o)
                0x080001d0                strcmp
 .text          0x080001e4       0x10 e:/gcc-arm-none-eabi-10.3-2021.10-win32/gcc-arm-none-eabi-10.3-2021.10/bin/../lib/gcc/arm-none-eabi/10.3.1/../../../../arm-none-eabi/lib/thumb/v7e-m+fp/hard\libc_nano.a(lib_a-strlen.o)
                0x080001e4                strlen
 *fill*         0x080001f4        0xc 
 .text          0x08000200       0xa0 e:/gcc-arm-none-eabi-10.3-2021.10-win32/gcc-arm-none-eabi-10.3-2021.10/bin/../lib/gcc/arm-none-eabi/10.3.1/../../../../arm-none-eabi/lib/thumb/v7e-m+fp/hard\libc_nano.a(lib_a-memchr.o)
                0x08000200                memchr
 .text          0x080002a0      0x378 e:/gcc-arm-none-eabi-10.3-2021.10-win32/gcc-arm-none-eabi-10.3-2021.10/bin/../lib/gcc/arm-none-eabi/10.3.1/thumb/v7e-m+fp/hard\libgcc.a(_arm_addsubdf3.o)
                0x080002a0                __aeabi_drsub
                0x080002a8                __aeabi_dsub
                0x080002a8                __subdf3
                0x080002ac                __aeabi_dadd
                0x080002ac                __adddf3
                0x08000524                __floatunsidf
                0x08000524                __aeabi_ui2d
                0x08000544                __floatsidf
                0x08000544                __aeabi_i2d
                0x08000568                __aeabi_f2d
                0x08000568                __extendsfdf2
                0x080005ac                __floatundidf
                0x080005ac                __aeabi_ul2d
                0x080005bc                __floatdidf
                0x080005bc                __aeabi_l2d
 .text          0x08000618      0x424 e:/gcc-arm-none-eabi-10.3-2021.10-win32/gcc-arm-none-eabi-10.3-2021.10/bin/../lib/gcc/arm-none-eabi/10.3.1/thumb/v7e-m+fp/hard\libgcc.a(_arm_muldivdf3.o)
                0x08000618                __aeabi_dmul
                0x08000618                __muldf3
                0x0800086c                __divdf3
                0x0800086c                __aeabi_ddiv
 .text          0x08000a3c      0x110 e:/gcc-arm-none-eabi-10.3-2021.10-win32/gcc-arm-none-eabi-10.3-2021.10/bin/../lib/gcc/arm-none-eabi/10.3.1/thumb/v7e-m+fp/hard\libgcc.a(_arm_cmpdf2.o)
                0x08000a3c                __gtdf2
                0x08000a3c                __gedf2
                0x08000a44                __ltdf2
                0x08000a44                __ledf2
                0x08000a4c                __nedf2
                0x08000a4c                __eqdf2
                0x08000a4c                __cmpdf2
                0x08000ac8                __aeabi_cdrcmple
                0x08000ad8                __aeabi_cdcmpeq
                0x08000ad8                __aeabi_cdcmple
                0x08000ae8                __aeabi_dcmpeq
                0x08000afc                __aeabi_dcmplt
                0x08000b10                __aeabi_dcmple
                0x08000b24                __aeabi_dcmpge
                0x08000b38                __aeabi_dcmpgt
 .text          0x08000b4c       0x2c e:/gcc-arm-none-eabi-10.3-2021.10-win32/gcc-arm-none-eabi-10.3-2021.10/bin/../lib/gcc/arm-none-eabi/10.3.1/thumb/v7e-m+fp/hard\libgcc.a(_arm_unorddf2.o)
                0x08000b4c                __unorddf2
                0x08000b4c                __aeabi_dcmpun
 .text          0x08000b78       0x40 e:/gcc-arm-none-eabi-10.3-2021.10-win32/gcc-arm-none-eabi-10.3-2021.10/bin/../lib/gcc/arm-none-eabi/10.3.1/thumb/v7e-m+fp/hard\libgcc.a(_arm_fixunsdfsi.o)
                0x08000b78                __aeabi_d2uiz
                0x08000b78                __fixunsdfsi
 .text          0x08000bb8       0xa0 e:/gcc-arm-none-eabi-10.3-2021.10-win32/gcc-arm-none-eabi-10.3-2021.10/bin/../lib/gcc/arm-none-eabi/10.3.1/thumb/v7e-m+fp/hard\libgcc.a(_arm_truncdfsf2.o)
                0x08000bb8                __truncdfsf2
                0x08000bb8                __aeabi_d2f
 .text          0x08000c58       0x30 e:/gcc-arm-none-eabi-10.3-2021.10-win32/gcc-arm-none-eabi-10.3-2021.10/bin/../lib/gcc/arm-none-eabi/10.3.1/thumb/v7e-m+fp/hard\libgcc.a(_aeabi_uldivmod.o)
                0x08000c58                __aeabi_uldivmod
 .text          0x08000c88      0x2d0 e:/gcc-arm-none-eabi-10.3-2021.10-win32/gcc-arm-none-eabi-10.3-2021.10/bin/../lib/gcc/arm-none-eabi/10.3.1/thumb/v7e-m+fp/hard\libgcc.a(_udivmoddi4.o)
                0x08000c88                __udivmoddi4
 .text          0x08000f58        0x4 e:/gcc-arm-none-eabi-10.3-2021.10-win32/gcc-arm-none-eabi-10.3-2021.10/bin/../lib/gcc/arm-none-eabi/10.3.1/thumb/v7e-m+fp/hard\libgcc.a(_dvmd_tls.o)
                0x08000f58                __aeabi_idiv0
                0x08000f58                __aeabi_ldiv0
 *(.text*)
 .text.DeviceID_Print
                0x08000f5c       0x68 build/main.o
                0x08000f5c                DeviceID_Print
 .text.Test_All
                0x08000fc4       0xe8 build/main.o
                0x08000fc4                Test_All
 .text.SystemClock_Config
                0x080010ac       0x70 build/main.o
                0x080010ac                SystemClock_Config
 .text.startup.main
                0x0800111c      0x1d4 build/main.o
                0x0800111c                main
 .text.Error_Handler
                0x080012f0        0x4 build/main.o
                0x080012f0                Error_Handler
 .text.NMI_Handler
                0x080012f4        0x2 build/stm32l4xx_it.o
                0x080012f4                NMI_Handler
 .text.HardFault_Handler
                0x080012f6        0x2 build/stm32l4xx_it.o
                0x080012f6                HardFault_Handler
 .text.MemManage_Handler
                0x080012f8        0x2 build/stm32l4xx_it.o
                0x080012f8                MemManage_Handler
 .text.BusFault_Handler
                0x080012fa        0x2 build/stm32l4xx_it.o
                0x080012fa                BusFault_Handler
 .text.UsageFault_Handler
                0x080012fc        0x2 build/stm32l4xx_it.o
                0x080012fc                UsageFault_Handler
 .text.SVC_Handler
                0x080012fe        0x2 build/stm32l4xx_it.o
                0x080012fe                SVC_Handler
 .text.DebugMon_Handler
                0x08001300        0x2 build/stm32l4xx_it.o
                0x08001300                DebugMon_Handler
 .text.PendSV_Handler
                0x08001302        0x2 build/stm32l4xx_it.o
                0x08001302                PendSV_Handler
 .text.SysTick_Handler
                0x08001304        0xe build/stm32l4xx_it.o
                0x08001304                SysTick_Handler
 *fill*         0x08001312        0x2 
 .text.SPI2_IRQHandler
                0x08001314        0xc build/stm32l4xx_it.o
                0x08001314                SPI2_IRQHandler
 .text.USART1_IRQHandler
                0x08001320        0xc build/stm32l4xx_it.o
                0x08001320                USART1_IRQHandler
 .text.USART2_IRQHandler
                0x0800132c        0xc build/stm32l4xx_it.o
                0x0800132c                USART2_IRQHandler
 .text.USART3_IRQHandler
                0x08001338        0xc build/stm32l4xx_it.o
                0x08001338                USART3_IRQHandler
 .text.SPI3_IRQHandler
                0x08001344        0xc build/stm32l4xx_it.o
                0x08001344                SPI3_IRQHandler
 .text.EXTI9_5_IRQHandler
                0x08001350       0x54 build/stm32l4xx_it.o
                0x08001350                EXTI9_5_IRQHandler
 .text.HAL_MspInit
                0x080013a4       0x34 build/stm32l4xx_hal_msp.o
                0x080013a4                HAL_MspInit
 .text.LL_ADC_SetChannelSamplingTime
                0x080013d8       0x22 build/stm32l4xx_hal_adc.o
 .text.LL_ADC_REG_IsConversionOngoing
                0x080013fa        0x8 build/stm32l4xx_hal_adc.o
 *fill*         0x08001402        0x2 
 .text.HAL_ADC_Init
                0x08001404      0x1a4 build/stm32l4xx_hal_adc.o
                0x08001404                HAL_ADC_Init
 .text.HAL_ADC_PollForConversion
                0x080015a8       0xa2 build/stm32l4xx_hal_adc.o
                0x080015a8                HAL_ADC_PollForConversion
 .text.HAL_ADC_GetValue
                0x0800164a        0x6 build/stm32l4xx_hal_adc.o
                0x0800164a                HAL_ADC_GetValue
 .text.HAL_ADC_ConfigChannel
                0x08001650      0x370 build/stm32l4xx_hal_adc.o
                0x08001650                HAL_ADC_ConfigChannel
 .text.HAL_ADC_GetState
                0x080019c0        0x4 build/stm32l4xx_hal_adc.o
                0x080019c0                HAL_ADC_GetState
 .text.ADC_ConversionStop
                0x080019c4       0xd0 build/stm32l4xx_hal_adc.o
                0x080019c4                ADC_ConversionStop
 .text.ADC_Enable
                0x08001a94       0xb0 build/stm32l4xx_hal_adc.o
                0x08001a94                ADC_Enable
 .text.HAL_ADC_Start
                0x08001b44       0x82 build/stm32l4xx_hal_adc.o
                0x08001b44                HAL_ADC_Start
 .text.ADC_Disable
                0x08001bc6       0x68 build/stm32l4xx_hal_adc.o
                0x08001bc6                ADC_Disable
 .text.HAL_ADC_Stop
                0x08001c2e       0x3e build/stm32l4xx_hal_adc.o
                0x08001c2e                HAL_ADC_Stop
 .text.HAL_ADCEx_Calibration_Start
                0x08001c6c       0x94 build/stm32l4xx_hal_adc_ex.o
                0x08001c6c                HAL_ADCEx_Calibration_Start
 .text.HAL_InitTick
                0x08001d00       0x4c build/stm32l4xx_hal.o
                0x08001d00                HAL_InitTick
 .text.HAL_Init
                0x08001d4c       0x1e build/stm32l4xx_hal.o
                0x08001d4c                HAL_Init
 *fill*         0x08001d6a        0x2 
 .text.HAL_IncTick
                0x08001d6c       0x18 build/stm32l4xx_hal.o
                0x08001d6c                HAL_IncTick
 .text.HAL_GetTick
                0x08001d84        0xc build/stm32l4xx_hal.o
                0x08001d84                HAL_GetTick
 .text.Delay_us
                0x08001d90       0x24 build/stm32l4xx_hal.o
                0x08001d90                Delay_us
 .text.Delay_ms
                0x08001db4       0x18 build/stm32l4xx_hal.o
                0x08001db4                Delay_ms
 .text.RCC_SetFlashLatencyFromMSIRange
                0x08001dcc       0x84 build/stm32l4xx_hal_rcc.o
 .text.HAL_RCC_GetSysClockFreq
                0x08001e50       0x9c build/stm32l4xx_hal_rcc.o
                0x08001e50                HAL_RCC_GetSysClockFreq
 .text.HAL_RCC_OscConfig
                0x08001eec      0x548 build/stm32l4xx_hal_rcc.o
                0x08001eec                HAL_RCC_OscConfig
 .text.HAL_RCC_ClockConfig
                0x08002434      0x14c build/stm32l4xx_hal_rcc.o
                0x08002434                HAL_RCC_ClockConfig
 .text.HAL_RCC_GetPCLK1Freq
                0x08002580       0x24 build/stm32l4xx_hal_rcc.o
                0x08002580                HAL_RCC_GetPCLK1Freq
 .text.HAL_RCC_GetPCLK2Freq
                0x080025a4       0x24 build/stm32l4xx_hal_rcc.o
                0x080025a4                HAL_RCC_GetPCLK2Freq
 .text.RCCEx_PLLSAI1_Config
                0x080025c8      0x114 build/stm32l4xx_hal_rcc_ex.o
 .text.HAL_RCCEx_PeriphCLKConfig
                0x080026dc      0x2b4 build/stm32l4xx_hal_rcc_ex.o
                0x080026dc                HAL_RCCEx_PeriphCLKConfig
 .text.HAL_GPIO_Init
                0x08002990      0x188 build/stm32l4xx_hal_gpio.o
                0x08002990                HAL_GPIO_Init
 .text.HAL_GPIO_ReadPin
                0x08002b18        0xc build/stm32l4xx_hal_gpio.o
                0x08002b18                HAL_GPIO_ReadPin
 .text.HAL_GPIO_WritePin
                0x08002b24        0xa build/stm32l4xx_hal_gpio.o
                0x08002b24                HAL_GPIO_WritePin
 .text.HAL_GPIO_TogglePin
                0x08002b2e       0x12 build/stm32l4xx_hal_gpio.o
                0x08002b2e                HAL_GPIO_TogglePin
 .text.HAL_DMA_Abort
                0x08002b40       0x46 build/stm32l4xx_hal_dma.o
                0x08002b40                HAL_DMA_Abort
 .text.HAL_DMA_Abort_IT
                0x08002b86       0x4c build/stm32l4xx_hal_dma.o
                0x08002b86                HAL_DMA_Abort_IT
 *fill*         0x08002bd2        0x2 
 .text.HAL_PWREx_GetVoltageRange
                0x08002bd4       0x10 build/stm32l4xx_hal_pwr_ex.o
                0x08002bd4                HAL_PWREx_GetVoltageRange
 .text.HAL_PWREx_ControlVoltageScaling
                0x08002be4       0x6c build/stm32l4xx_hal_pwr_ex.o
                0x08002be4                HAL_PWREx_ControlVoltageScaling
 .text.HAL_NVIC_SetPriorityGrouping
                0x08002c50       0x24 build/stm32l4xx_hal_cortex.o
                0x08002c50                HAL_NVIC_SetPriorityGrouping
 .text.HAL_NVIC_SetPriority
                0x08002c74       0x64 build/stm32l4xx_hal_cortex.o
                0x08002c74                HAL_NVIC_SetPriority
 .text.HAL_NVIC_EnableIRQ
                0x08002cd8       0x1c build/stm32l4xx_hal_cortex.o
                0x08002cd8                HAL_NVIC_EnableIRQ
 .text.HAL_SYSTICK_Config
                0x08002cf4       0x28 build/stm32l4xx_hal_cortex.o
                0x08002cf4                HAL_SYSTICK_Config
 .text.SPI_WaitFifoStateUntilTimeout.constprop.0
                0x08002d1c       0xcc build/stm32l4xx_hal_spi.o
 .text.SPI_WaitFlagStateUntilTimeout.constprop.0
                0x08002de8       0xa4 build/stm32l4xx_hal_spi.o
 .text.SPI_EndRxTransaction
                0x08002e8c       0x72 build/stm32l4xx_hal_spi.o
 .text.SPI_EndRxTxTransaction
                0x08002efe       0x4a build/stm32l4xx_hal_spi.o
 .text.HAL_SPI_Init
                0x08002f48       0xd4 build/stm32l4xx_hal_spi.o
                0x08002f48                HAL_SPI_Init
 .text.HAL_SPI_Transmit
                0x0800301c      0x192 build/stm32l4xx_hal_spi.o
                0x0800301c                HAL_SPI_Transmit
 .text.HAL_SPI_TransmitReceive
                0x080031ae      0x258 build/stm32l4xx_hal_spi.o
                0x080031ae                HAL_SPI_TransmitReceive
 .text.HAL_SPI_Receive
                0x08003406      0x170 build/stm32l4xx_hal_spi.o
                0x08003406                HAL_SPI_Receive
 .text.HAL_SPI_ErrorCallback
                0x08003576        0x2 build/stm32l4xx_hal_spi.o
                0x08003576                HAL_SPI_ErrorCallback
 .text.HAL_SPI_IRQHandler
                0x08003578      0x10c build/stm32l4xx_hal_spi.o
                0x08003578                HAL_SPI_IRQHandler
 .text.SPI_DMAAbortOnError
                0x08003684       0x12 build/stm32l4xx_hal_spi.o
 .text.HAL_SPI_GetState
                0x08003696        0x6 build/stm32l4xx_hal_spi.o
                0x08003696                HAL_SPI_GetState
 .text.UART_EndRxTransfer
                0x0800369c       0x4e build/stm32l4xx_hal_uart.o
 .text.UART_TxISR_8BIT.part.0
                0x080036ea       0x26 build/stm32l4xx_hal_uart.o
 .text.UART_TxISR_8BIT
                0x08003710       0x2e build/stm32l4xx_hal_uart.o
 .text.UART_TxISR_16BIT
                0x0800373e       0x32 build/stm32l4xx_hal_uart.o
 .text.HAL_UART_Transmit_IT
                0x08003770       0x6c build/stm32l4xx_hal_uart.o
                0x08003770                HAL_UART_Transmit_IT
 .text.UART_DMAAbortOnError
                0x080037dc       0x14 build/stm32l4xx_hal_uart.o
 .text.HAL_UART_IRQHandler
                0x080037f0      0x28c build/stm32l4xx_hal_uart.o
                0x080037f0                HAL_UART_IRQHandler
 .text.UART_RxISR_8BIT
                0x08003a7c       0xa0 build/stm32l4xx_hal_uart.o
 .text.UART_RxISR_16BIT
                0x08003b1c       0x9a build/stm32l4xx_hal_uart.o
 *fill*         0x08003bb6        0x2 
 .text.UART_SetConfig
                0x08003bb8      0x224 build/stm32l4xx_hal_uart.o
                0x08003bb8                UART_SetConfig
 .text.UART_AdvFeatureConfig
                0x08003ddc       0xa8 build/stm32l4xx_hal_uart.o
                0x08003ddc                UART_AdvFeatureConfig
 .text.UART_WaitOnFlagUntilTimeout
                0x08003e84       0xbc build/stm32l4xx_hal_uart.o
                0x08003e84                UART_WaitOnFlagUntilTimeout
 .text.HAL_UART_Transmit
                0x08003f40       0xb4 build/stm32l4xx_hal_uart.o
                0x08003f40                HAL_UART_Transmit
 .text.UART_CheckIdleState
                0x08003ff4       0x66 build/stm32l4xx_hal_uart.o
                0x08003ff4                UART_CheckIdleState
 .text.HAL_UART_Init
                0x0800405a       0x5c build/stm32l4xx_hal_uart.o
                0x0800405a                HAL_UART_Init
 *fill*         0x080040b6        0x2 
 .text.UART_Start_Receive_IT
                0x080040b8       0xc0 build/stm32l4xx_hal_uart.o
                0x080040b8                UART_Start_Receive_IT
 .text.HAL_UART_Receive_IT
                0x08004178       0x50 build/stm32l4xx_hal_uart.o
                0x08004178                HAL_UART_Receive_IT
 .text.HAL_UARTEx_WakeupCallback
                0x080041c8        0x2 build/stm32l4xx_hal_uart_ex.o
                0x080041c8                HAL_UARTEx_WakeupCallback
 .text.HAL_UARTEx_ReceiveToIdle_IT
                0x080041ca       0x50 build/stm32l4xx_hal_uart_ex.o
                0x080041ca                HAL_UARTEx_ReceiveToIdle_IT
 *fill*         0x0800421a        0x2 
 .text.SystemInit
                0x0800421c       0x14 build/system_stm32l4xx.o
                0x0800421c                SystemInit
 .text.shellExtParseChar
                0x08004230       0x3c build/shell_ext.o
 .text.shellExtParsePara
                0x0800426c      0x198 build/shell_ext.o
                0x0800426c                shellExtParsePara
 .text.shellExtRun
                0x08004404       0xd6 build/shell_ext.o
                0x08004404                shellExtRun
 *fill*         0x080044da        0x2 
 .text.User_Shell_Write
                0x080044dc       0x14 build/shell_port.o
                0x080044dc                User_Shell_Write
 .text.User_Shell_Init
                0x080044f0       0x1c build/shell_port.o
                0x080044f0                User_Shell_Init
 .text.shellStringCopy
                0x0800450c       0x1a build/shell.o
 .text.shellWriteByte.isra.0
                0x08004526       0x16 build/shell.o
 .text.shellLeft
                0x0800453c       0x18 build/shell.o
                0x0800453c                shellLeft
 .text.shellRight
                0x08004554       0x18 build/shell.o
                0x08004554                shellRight
 .text.shellGetCurrent
                0x0800456c       0x24 build/shell.o
                0x0800456c                shellGetCurrent
 .text.shellWriteString
                0x08004590       0x22 build/shell.o
                0x08004590                shellWriteString
 *fill*         0x080045b2        0x2 
 .text.shellClear
                0x080045b4       0x18 build/shell.o
                0x080045b4                shellClear
 .text.shellWritePrompt.constprop.0
                0x080045cc       0x58 build/shell.o
 .text.shellPrint
                0x08004624       0x36 build/shell.o
                0x08004624                shellPrint
 .text.shellCheckPermission
                0x0800465a       0x36 build/shell.o
                0x0800465a                shellCheckPermission
 .text.shellToHex
                0x08004690       0x26 build/shell.o
                0x08004690                shellToHex
 *fill*         0x080046b6        0x2 
 .text.shellGetCommandName
                0x080046b8       0x30 build/shell.o
 .text.shellToDec
                0x080046e8       0x46 build/shell.o
                0x080046e8                shellToDec
 *fill*         0x0800472e        0x2 
 .text.shellWriteReturnValue
                0x08004730       0x70 build/shell.o
 .text.shellListItem
                0x080047a0       0xe8 build/shell.o
                0x080047a0                shellListItem
 .text.shellListCommand
                0x08004888       0x40 build/shell.o
                0x08004888                shellListCommand
 .text.shellCmds
                0x080048c8       0x12 build/shell.o
                0x080048c8                shellCmds
 *fill*         0x080048da        0x2 
 .text.shellListVar
                0x080048dc       0x40 build/shell.o
                0x080048dc                shellListVar
 .text.shellVars
                0x0800491c       0x12 build/shell.o
                0x0800491c                shellVars
 *fill*         0x0800492e        0x2 
 .text.shellListUser
                0x08004930       0x40 build/shell.o
                0x08004930                shellListUser
 .text.shellUsers
                0x08004970       0x12 build/shell.o
                0x08004970                shellUsers
 *fill*         0x08004982        0x2 
 .text.shellListKey
                0x08004984       0x40 build/shell.o
                0x08004984                shellListKey
 .text.shellKeys
                0x080049c4       0x12 build/shell.o
                0x080049c4                shellKeys
 *fill*         0x080049d6        0x2 
 .text.shellDeleteCommandLine
                0x080049d8       0x20 build/shell.o
                0x080049d8                shellDeleteCommandLine
 .text.shellClearCommandLine
                0x080049f8       0x28 build/shell.o
                0x080049f8                shellClearCommandLine
 .text.shellUp  0x08004a20       0x66 build/shell.o
                0x08004a20                shellUp
 *fill*         0x08004a86        0x2 
 .text.shellTab
                0x08004a88      0x130 build/shell.o
                0x08004a88                shellTab
 .text.shellDown
                0x08004bb8       0x5e build/shell.o
                0x08004bb8                shellDown
 *fill*         0x08004c16        0x2 
 .text.shellInsertByte
                0x08004c18       0xc0 build/shell.o
                0x08004c18                shellInsertByte
 .text.shellDeleteByte
                0x08004cd8       0xaa build/shell.o
                0x08004cd8                shellDeleteByte
 .text.shellBackspace
                0x08004d82        0x6 build/shell.o
                0x08004d82                shellBackspace
 .text.shellDelete
                0x08004d88        0x8 build/shell.o
                0x08004d88                shellDelete
 .text.shellSeekCommand
                0x08004d90       0x6c build/shell.o
                0x08004d90                shellSeekCommand
 .text.shellHelp
                0x08004dfc       0x70 build/shell.o
                0x08004dfc                shellHelp
 .text.shellGetVarValue
                0x08004e6c       0x3c build/shell.o
                0x08004e6c                shellGetVarValue
 .text.shellShowVar
                0x08004ea8       0xa4 build/shell.o
 .text.shellSetVarValue
                0x08004f4c       0x70 build/shell.o
                0x08004f4c                shellSetVarValue
 .text.shellSetVar
                0x08004fbc       0x54 build/shell.o
                0x08004fbc                shellSetVar
 .text.shellSetUser
                0x08005010       0x5c build/shell.o
                0x08005010                shellSetUser
 .text.shellInit
                0x0800506c       0x90 build/shell.o
                0x0800506c                shellInit
 .text.shellRunCommand
                0x080050fc       0xae build/shell.o
                0x080050fc                shellRunCommand
 .text.shellNormalInput
                0x080051aa       0x10 build/shell.o
                0x080051aa                shellNormalInput
 *fill*         0x080051ba        0x2 
 .text.shellExec
                0x080051bc      0x158 build/shell.o
                0x080051bc                shellExec
 .text.shellEnter
                0x08005314       0x12 build/shell.o
                0x08005314                shellEnter
 *fill*         0x08005326        0x2 
 .text.shellHandler
                0x08005328       0xdc build/shell.o
                0x08005328                shellHandler
 .text.MX_GPIO_Init
                0x08005404      0x124 build/gpio.o
                0x08005404                MX_GPIO_Init
 .text.MX_ADC1_Init
                0x08005528       0x80 build/adc.o
                0x08005528                MX_ADC1_Init
 .text.HAL_ADC_MspInit
                0x080055a8       0xa0 build/adc.o
                0x080055a8                HAL_ADC_MspInit
 .text.ADC_Average_Get
                0x08005648       0x80 build/adc.o
                0x08005648                ADC_Average_Get
 .text.LDR_Value_Get
                0x080056c8       0x44 build/adc.o
                0x080056c8                LDR_Value_Get
 *fill*         0x0800570c        0x4 
 .text.Battery_Test
                0x08005710       0xbc build/adc.o
                0x08005710                Battery_Test
 .text.MX_SPI2_Init
                0x080057cc       0x50 build/spi.o
                0x080057cc                MX_SPI2_Init
 .text.MX_SPI3_Init
                0x0800581c       0x4c build/spi.o
                0x0800581c                MX_SPI3_Init
 .text.HAL_SPI_MspInit
                0x08005868       0xac build/spi.o
                0x08005868                HAL_SPI_MspInit
 .text.MX_USART1_UART_Init
                0x08005914       0x48 build/usart.o
                0x08005914                MX_USART1_UART_Init
 .text.MX_USART2_UART_Init
                0x0800595c       0x48 build/usart.o
                0x0800595c                MX_USART2_UART_Init
 .text.MX_USART3_UART_Init
                0x080059a4       0x48 build/usart.o
                0x080059a4                MX_USART3_UART_Init
 .text.HAL_UART_MspInit
                0x080059ec      0x170 build/usart.o
                0x080059ec                HAL_UART_MspInit
 .text.HAL_UART_RxCpltCallback
                0x08005b5c       0x34 build/usart.o
                0x08005b5c                HAL_UART_RxCpltCallback
 .text.HAL_UART_TxCpltCallback
                0x08005b90        0x2 build/usart.o
                0x08005b90                HAL_UART_TxCpltCallback
 *fill*         0x08005b92        0x2 
 .text.HAL_UARTEx_RxEventCallback
                0x08005b94       0x6c build/usart.o
                0x08005b94                HAL_UARTEx_RxEventCallback
 .text.HAL_UART_ErrorCallback
                0x08005c00       0x3c build/usart.o
                0x08005c00                HAL_UART_ErrorCallback
 .text.timer_init
                0x08005c3c       0x18 build/timer.o
                0x08005c3c                timer_init
 .text.timer_update
                0x08005c54       0x64 build/timer.o
                0x08005c54                timer_update
 .text.SX1278_hw_SetNSS
                0x08005cb8        0xe build/SX1278_hw.o
                0x08005cb8                SX1278_hw_SetNSS
 .text.SX1278_hw_SPICommand
                0x08005cc6       0x2c build/SX1278_hw.o
                0x08005cc6                SX1278_hw_SPICommand
 .text.SX1278_hw_SPIReadByte
                0x08005cf2       0x3a build/SX1278_hw.o
                0x08005cf2                SX1278_hw_SPIReadByte
 .text.SX1278_hw_DelayMs
                0x08005d2c        0x4 build/SX1278_hw.o
                0x08005d2c                SX1278_hw_DelayMs
 .text.SX1278_hw_Reset
                0x08005d30       0x2c build/SX1278_hw.o
                0x08005d30                SX1278_hw_Reset
 .text.SX1278_hw_init
                0x08005d5c       0x12 build/SX1278_hw.o
                0x08005d5c                SX1278_hw_init
 .text.SX1278_hw_GetDIO0
                0x08005d6e       0x12 build/SX1278_hw.o
                0x08005d6e                SX1278_hw_GetDIO0
 .text.BSP_W25Qx_GetStatus
                0x08005d80       0x54 build/W25QXX.o
 .text.BSP_W25Qx_Init
                0x08005dd4       0x40 build/W25QXX.o
                0x08005dd4                BSP_W25Qx_Init
 .text.BSP_W25Qx_WriteEnable
                0x08005e14       0x54 build/W25QXX.o
                0x08005e14                BSP_W25Qx_WriteEnable
 .text.BSP_W25Qx_Read_ID
                0x08005e68       0x48 build/W25QXX.o
                0x08005e68                BSP_W25Qx_Read_ID
 .text.BSP_W25Qx_Read_JEDEC_ID
                0x08005eb0       0x48 build/W25QXX.o
                0x08005eb0                BSP_W25Qx_Read_JEDEC_ID
 .text.BSP_W25Qx_Read
                0x08005ef8       0x64 build/W25QXX.o
                0x08005ef8                BSP_W25Qx_Read
 .text.BSP_W25Qx_Write
                0x08005f5c       0xc0 build/W25QXX.o
                0x08005f5c                BSP_W25Qx_Write
 *fill*         0x0800601c        0x4 
 .text.Flash_Test
                0x08006020      0x130 build/W25QXX.o
                0x08006020                Flash_Test
 .text.LED_Init
                0x08006150       0x58 build/led.o
                0x08006150                LED_Init
 .text.LED_On   0x080061a8        0xa build/led.o
                0x080061a8                LED_On
 .text.LED_Off  0x080061b2        0xa build/led.o
                0x080061b2                LED_Off
 .text.LED_Toggle
                0x080061bc        0x8 build/led.o
                0x080061bc                LED_Toggle
 .text.LED_Blink
                0x080061c4       0x26 build/led.o
                0x080061c4                LED_Blink
 *fill*         0x080061ea        0x2 
 .text.LED_Test
                0x080061ec       0xb4 build/led.o
                0x080061ec                LED_Test
 .text.RS485_SendData
                0x080062a0       0x2e build/rs485.o
                0x080062a0                RS485_SendData
 *fill*         0x080062ce        0x2 
 .text.RS485_Test
                0x080062d0       0x28 build/rs485.o
                0x080062d0                RS485_Test
 .text.atgm_io_init
                0x080062f8       0x44 build/ATGM332D.o
                0x080062f8                atgm_io_init
 .text.atgm_open
                0x0800633c       0x20 build/ATGM332D.o
                0x0800633c                atgm_open
 .text.atgm_read
                0x0800635c       0x2c build/ATGM332D.o
                0x0800635c                atgm_read
 .text.BDS_Test
                0x08006388       0x7c build/ATGM332D.o
                0x08006388                BDS_Test
 .text.atgm_handler
                0x08006404       0x20 build/ATGM332D.o
                0x08006404                atgm_handler
 .text.ec2x_io_init
                0x08006424       0x90 build/EC2x.o
                0x08006424                ec2x_io_init
 .text.ec2x_write
                0x080064b4       0x28 build/EC2x.o
                0x080064b4                ec2x_write
 .text.ec2x_read
                0x080064dc       0x6c build/EC2x.o
                0x080064dc                ec2x_read
 .text.ec2x_handler
                0x08006548       0x80 build/EC2x.o
                0x08006548                ec2x_handler
 .text.ec2x_replymatch
                0x080065c8       0x38 build/EC2x.o
                0x080065c8                ec2x_replymatch
 .text.ec2x_cmd_send
                0x08006600       0x70 build/EC2x.o
 .text.ec2x_reset.constprop.0
                0x08006670       0x4c build/EC2x.o
 .text.ec2x_tcp_connect
                0x080066bc       0xd4 build/EC2x.o
                0x080066bc                ec2x_tcp_connect
 .text.EC2x_Test
                0x08006790       0xbc build/EC2x.o
                0x08006790                EC2x_Test
 .text.ec2x_open
                0x0800684c       0x48 build/EC2x.o
                0x0800684c                ec2x_open
 .text.SX1278_SPIBurstWrite.part.0
                0x08006894       0x38 build/SX1278.o
 .text.SX1278_SPIRead
                0x080068cc       0x1e build/SX1278.o
                0x080068cc                SX1278_SPIRead
 .text.SX1278_SPIWrite
                0x080068ea       0x2e build/SX1278.o
                0x080068ea                SX1278_SPIWrite
 .text.SX1278_SPIBurstRead
                0x08006918       0x42 build/SX1278.o
                0x08006918                SX1278_SPIBurstRead
 .text.SX1278_SPIBurstWrite
                0x0800695a        0xa build/SX1278.o
                0x0800695a                SX1278_SPIBurstWrite
 .text.SX1278_standby
                0x08006964       0x12 build/SX1278.o
                0x08006964                SX1278_standby
 .text.SX1278_sleep
                0x08006976       0x12 build/SX1278.o
                0x08006976                SX1278_sleep
 .text.SX1278_entryLoRa
                0x08006988        0x8 build/SX1278.o
                0x08006988                SX1278_entryLoRa
 .text.SX1278_config
                0x08006990      0x154 build/SX1278.o
                0x08006990                SX1278_config
 .text.SX1278_clearLoRaIrq
                0x08006ae4        0x8 build/SX1278.o
                0x08006ae4                SX1278_clearLoRaIrq
 .text.SX1278_LoRaEntryRx
                0x08006aec       0x98 build/SX1278.o
                0x08006aec                SX1278_LoRaEntryRx
 .text.SX1278_LoRaRxPacket
                0x08006b84       0x94 build/SX1278.o
                0x08006b84                SX1278_LoRaRxPacket
 .text.SX1278_DIO0IRQ_Handler
                0x08006c18        0xc build/SX1278.o
                0x08006c18                SX1278_DIO0IRQ_Handler
 .text.SX1278_LoRaEntryTx
                0x08006c24       0x80 build/SX1278.o
                0x08006c24                SX1278_LoRaEntryTx
 .text.SX1278_LoRaTxPacket
                0x08006ca4       0x5c build/SX1278.o
                0x08006ca4                SX1278_LoRaTxPacket
 .text.SX1278_init
                0x08006d00       0x50 build/SX1278.o
                0x08006d00                SX1278_init
 .text.SX1278_transmit
                0x08006d50       0x2a build/SX1278.o
                0x08006d50                SX1278_transmit
 .text.SX1278_receive
                0x08006d7a        0x4 build/SX1278.o
                0x08006d7a                SX1278_receive
 *fill*         0x08006d7e        0x2 
 .text.LORA_Send
                0x08006d80       0x88 build/SX1278.o
                0x08006d80                LORA_Send
 .text.Reset_Handler
                0x08006e08       0x50 build/startup_stm32l431xx.o
                0x08006e08                Reset_Handler
 .text.Default_Handler
                0x08006e58        0x2 build/startup_stm32l431xx.o
                0x08006e58                RTC_Alarm_IRQHandler
                0x08006e58                EXTI2_IRQHandler
                0x08006e58                TIM1_CC_IRQHandler
                0x08006e58                TSC_IRQHandler
                0x08006e58                TAMP_STAMP_IRQHandler
                0x08006e58                EXTI3_IRQHandler
                0x08006e58                LPTIM2_IRQHandler
                0x08006e58                I2C3_ER_IRQHandler
                0x08006e58                EXTI0_IRQHandler
                0x08006e58                I2C2_EV_IRQHandler
                0x08006e58                CAN1_RX0_IRQHandler
                0x08006e58                FPU_IRQHandler
                0x08006e58                TIM1_UP_TIM16_IRQHandler
                0x08006e58                SPI1_IRQHandler
                0x08006e58                TIM6_DAC_IRQHandler
                0x08006e58                DMA2_Channel2_IRQHandler
                0x08006e58                DMA1_Channel4_IRQHandler
                0x08006e58                ADC1_IRQHandler
                0x08006e58                DMA1_Channel7_IRQHandler
                0x08006e58                CAN1_RX1_IRQHandler
                0x08006e58                DMA2_Channel1_IRQHandler
                0x08006e58                QUADSPI_IRQHandler
                0x08006e58                I2C1_EV_IRQHandler
                0x08006e58                DMA1_Channel6_IRQHandler
                0x08006e58                DMA2_Channel4_IRQHandler
                0x08006e58                RCC_IRQHandler
                0x08006e58                TIM1_TRG_COM_IRQHandler
                0x08006e58                DMA1_Channel1_IRQHandler
                0x08006e58                Default_Handler
                0x08006e58                DMA2_Channel7_IRQHandler
                0x08006e58                EXTI15_10_IRQHandler
                0x08006e58                TIM7_IRQHandler
                0x08006e58                SDMMC1_IRQHandler
                0x08006e58                I2C3_EV_IRQHandler
                0x08006e58                RTC_WKUP_IRQHandler
                0x08006e58                PVD_PVM_IRQHandler
                0x08006e58                CAN1_TX_IRQHandler
                0x08006e58                DMA2_Channel5_IRQHandler
                0x08006e58                CRS_IRQHandler
                0x08006e58                DMA1_Channel5_IRQHandler
                0x08006e58                EXTI4_IRQHandler
                0x08006e58                RNG_IRQHandler
                0x08006e58                DMA1_Channel3_IRQHandler
                0x08006e58                COMP_IRQHandler
                0x08006e58                WWDG_IRQHandler
                0x08006e58                LPUART1_IRQHandler
                0x08006e58                DMA2_Channel6_IRQHandler
                0x08006e58                TIM2_IRQHandler
                0x08006e58                EXTI1_IRQHandler
                0x08006e58                I2C2_ER_IRQHandler
                0x08006e58                DMA1_Channel2_IRQHandler
                0x08006e58                CAN1_SCE_IRQHandler
                0x08006e58                FLASH_IRQHandler
                0x08006e58                I2C1_ER_IRQHandler
                0x08006e58                SWPMI1_IRQHandler
                0x08006e58                LPTIM1_IRQHandler
                0x08006e58                SAI1_IRQHandler
                0x08006e58                DMA2_Channel3_IRQHandler
                0x08006e58                TIM1_BRK_TIM15_IRQHandler
 *fill*         0x08006e5a        0x2 
 .text.__libc_init_array
                0x08006e5c       0x48 e:/gcc-arm-none-eabi-10.3-2021.10-win32/gcc-arm-none-eabi-10.3-2021.10/bin/../lib/gcc/arm-none-eabi/10.3.1/../../../../arm-none-eabi/lib/thumb/v7e-m+fp/hard\libc_nano.a(lib_a-init.o)
                0x08006e5c                __libc_init_array
 .text.malloc   0x08006ea4       0x10 e:/gcc-arm-none-eabi-10.3-2021.10-win32/gcc-arm-none-eabi-10.3-2021.10/bin/../lib/gcc/arm-none-eabi/10.3.1/../../../../arm-none-eabi/lib/thumb/v7e-m+fp/hard\libc_nano.a(lib_a-malloc.o)
                0x08006ea4                malloc
 .text.free     0x08006eb4       0x10 e:/gcc-arm-none-eabi-10.3-2021.10-win32/gcc-arm-none-eabi-10.3-2021.10/bin/../lib/gcc/arm-none-eabi/10.3.1/../../../../arm-none-eabi/lib/thumb/v7e-m+fp/hard\libc_nano.a(lib_a-malloc.o)
                0x08006eb4                free
 .text.memcpy   0x08006ec4       0x1c e:/gcc-arm-none-eabi-10.3-2021.10-win32/gcc-arm-none-eabi-10.3-2021.10/bin/../lib/gcc/arm-none-eabi/10.3.1/../../../../arm-none-eabi/lib/thumb/v7e-m+fp/hard\libc_nano.a(lib_a-memcpy-stub.o)
                0x08006ec4                memcpy
 .text.memset   0x08006ee0       0x10 e:/gcc-arm-none-eabi-10.3-2021.10-win32/gcc-arm-none-eabi-10.3-2021.10/bin/../lib/gcc/arm-none-eabi/10.3.1/../../../../arm-none-eabi/lib/thumb/v7e-m+fp/hard\libc_nano.a(lib_a-memset.o)
                0x08006ee0                memset
 .text._free_r  0x08006ef0       0x98 e:/gcc-arm-none-eabi-10.3-2021.10-win32/gcc-arm-none-eabi-10.3-2021.10/bin/../lib/gcc/arm-none-eabi/10.3.1/../../../../arm-none-eabi/lib/thumb/v7e-m+fp/hard\libc_nano.a(lib_a-nano-freer.o)
                0x08006ef0                _free_r
 .text.sbrk_aligned
                0x08006f88       0x40 e:/gcc-arm-none-eabi-10.3-2021.10-win32/gcc-arm-none-eabi-10.3-2021.10/bin/../lib/gcc/arm-none-eabi/10.3.1/../../../../arm-none-eabi/lib/thumb/v7e-m+fp/hard\libc_nano.a(lib_a-nano-mallocr.o)
 .text._malloc_r
                0x08006fc8       0xe8 e:/gcc-arm-none-eabi-10.3-2021.10-win32/gcc-arm-none-eabi-10.3-2021.10/bin/../lib/gcc/arm-none-eabi/10.3.1/../../../../arm-none-eabi/lib/thumb/v7e-m+fp/hard\libc_nano.a(lib_a-nano-mallocr.o)
                0x08006fc8                _malloc_r
 .text._sbrk_r  0x080070b0       0x20 e:/gcc-arm-none-eabi-10.3-2021.10-win32/gcc-arm-none-eabi-10.3-2021.10/bin/../lib/gcc/arm-none-eabi/10.3.1/../../../../arm-none-eabi/lib/thumb/v7e-m+fp/hard\libc_nano.a(lib_a-sbrkr.o)
                0x080070b0                _sbrk_r
 .text.strncmp  0x080070d0       0x28 e:/gcc-arm-none-eabi-10.3-2021.10-win32/gcc-arm-none-eabi-10.3-2021.10/bin/../lib/gcc/arm-none-eabi/10.3.1/../../../../arm-none-eabi/lib/thumb/v7e-m+fp/hard\libc_nano.a(lib_a-strncmp.o)
                0x080070d0                strncmp
 .text.strstr   0x080070f8       0x2c e:/gcc-arm-none-eabi-10.3-2021.10-win32/gcc-arm-none-eabi-10.3-2021.10/bin/../lib/gcc/arm-none-eabi/10.3.1/../../../../arm-none-eabi/lib/thumb/v7e-m+fp/hard\libc_nano.a(lib_a-strstr.o)
                0x080070f8                strstr
 .text._vsnprintf_r
                0x08007124       0x56 e:/gcc-arm-none-eabi-10.3-2021.10-win32/gcc-arm-none-eabi-10.3-2021.10/bin/../lib/gcc/arm-none-eabi/10.3.1/../../../../arm-none-eabi/lib/thumb/v7e-m+fp/hard\libc_nano.a(lib_a-vsnprintf.o)
                0x08007124                _vsniprintf_r
                0x08007124                _vsnprintf_r
 *fill*         0x0800717a        0x2 
 .text.vsnprintf
                0x0800717c       0x1c e:/gcc-arm-none-eabi-10.3-2021.10-win32/gcc-arm-none-eabi-10.3-2021.10/bin/../lib/gcc/arm-none-eabi/10.3.1/../../../../arm-none-eabi/lib/thumb/v7e-m+fp/hard\libc_nano.a(lib_a-vsnprintf.o)
                0x0800717c                vsniprintf
                0x0800717c                vsnprintf
 .text.__malloc_lock
                0x08007198        0xc e:/gcc-arm-none-eabi-10.3-2021.10-win32/gcc-arm-none-eabi-10.3-2021.10/bin/../lib/gcc/arm-none-eabi/10.3.1/../../../../arm-none-eabi/lib/thumb/v7e-m+fp/hard\libc_nano.a(lib_a-mlock.o)
                0x08007198                __malloc_lock
 .text.__malloc_unlock
                0x080071a4        0xc e:/gcc-arm-none-eabi-10.3-2021.10-win32/gcc-arm-none-eabi-10.3-2021.10/bin/../lib/gcc/arm-none-eabi/10.3.1/../../../../arm-none-eabi/lib/thumb/v7e-m+fp/hard\libc_nano.a(lib_a-mlock.o)
                0x080071a4                __malloc_unlock
 .text.__ssputs_r
                0x080071b0       0xb6 e:/gcc-arm-none-eabi-10.3-2021.10-win32/gcc-arm-none-eabi-10.3-2021.10/bin/../lib/gcc/arm-none-eabi/10.3.1/../../../../arm-none-eabi/lib/thumb/v7e-m+fp/hard\libc_nano.a(lib_a-nano-svfprintf.o)
                0x080071b0                __ssputs_r
 *fill*         0x08007266        0x2 
 .text._svfprintf_r
                0x08007268      0x200 e:/gcc-arm-none-eabi-10.3-2021.10-win32/gcc-arm-none-eabi-10.3-2021.10/bin/../lib/gcc/arm-none-eabi/10.3.1/../../../../arm-none-eabi/lib/thumb/v7e-m+fp/hard\libc_nano.a(lib_a-nano-svfprintf.o)
                0x08007268                _svfiprintf_r
                0x08007268                _svfprintf_r
 .text._printf_common
                0x08007468       0xda e:/gcc-arm-none-eabi-10.3-2021.10-win32/gcc-arm-none-eabi-10.3-2021.10/bin/../lib/gcc/arm-none-eabi/10.3.1/../../../../arm-none-eabi/lib/thumb/v7e-m+fp/hard\libc_nano.a(lib_a-nano-vfprintf_i.o)
                0x08007468                _printf_common
 *fill*         0x08007542        0x2 
 .text._printf_i
                0x08007544      0x24c e:/gcc-arm-none-eabi-10.3-2021.10-win32/gcc-arm-none-eabi-10.3-2021.10/bin/../lib/gcc/arm-none-eabi/10.3.1/../../../../arm-none-eabi/lib/thumb/v7e-m+fp/hard\libc_nano.a(lib_a-nano-vfprintf_i.o)
                0x08007544                _printf_i
 .text.__retarget_lock_acquire_recursive
                0x08007790        0x2 e:/gcc-arm-none-eabi-10.3-2021.10-win32/gcc-arm-none-eabi-10.3-2021.10/bin/../lib/gcc/arm-none-eabi/10.3.1/../../../../arm-none-eabi/lib/thumb/v7e-m+fp/hard\libc_nano.a(lib_a-lock.o)
                0x08007790                __retarget_lock_acquire_recursive
 .text.__retarget_lock_release_recursive
                0x08007792        0x2 e:/gcc-arm-none-eabi-10.3-2021.10-win32/gcc-arm-none-eabi-10.3-2021.10/bin/../lib/gcc/arm-none-eabi/10.3.1/../../../../arm-none-eabi/lib/thumb/v7e-m+fp/hard\libc_nano.a(lib_a-lock.o)
                0x08007792                __retarget_lock_release_recursive
 .text.memmove  0x08007794       0x34 e:/gcc-arm-none-eabi-10.3-2021.10-win32/gcc-arm-none-eabi-10.3-2021.10/bin/../lib/gcc/arm-none-eabi/10.3.1/../../../../arm-none-eabi/lib/thumb/v7e-m+fp/hard\libc_nano.a(lib_a-memmove.o)
                0x08007794                memmove
 .text._realloc_r
                0x080077c8       0x5e e:/gcc-arm-none-eabi-10.3-2021.10-win32/gcc-arm-none-eabi-10.3-2021.10/bin/../lib/gcc/arm-none-eabi/10.3.1/../../../../arm-none-eabi/lib/thumb/v7e-m+fp/hard\libc_nano.a(lib_a-nano-reallocr.o)
                0x080077c8                _realloc_r
 .text._malloc_usable_size_r
                0x08007826       0x10 e:/gcc-arm-none-eabi-10.3-2021.10-win32/gcc-arm-none-eabi-10.3-2021.10/bin/../lib/gcc/arm-none-eabi/10.3.1/../../../../arm-none-eabi/lib/thumb/v7e-m+fp/hard\libc_nano.a(lib_a-nano-msizer.o)
                0x08007826                _malloc_usable_size_r
 *fill*         0x08007836        0x2 
 .text.pow      0x08007838       0xf0 e:/gcc-arm-none-eabi-10.3-2021.10-win32/gcc-arm-none-eabi-10.3-2021.10/bin/../lib/gcc/arm-none-eabi/10.3.1/../../../../arm-none-eabi/lib/thumb/v7e-m+fp/hard\libm.a(lib_a-w_pow.o)
                0x08007838                pow
 .text.__ieee754_pow
                0x08007928      0xb74 e:/gcc-arm-none-eabi-10.3-2021.10-win32/gcc-arm-none-eabi-10.3-2021.10/bin/../lib/gcc/arm-none-eabi/10.3.1/../../../../arm-none-eabi/lib/thumb/v7e-m+fp/hard\libm.a(lib_a-e_pow.o)
                0x08007928                __ieee754_pow
 .text.__ieee754_sqrt
                0x0800849c      0x198 e:/gcc-arm-none-eabi-10.3-2021.10-win32/gcc-arm-none-eabi-10.3-2021.10/bin/../lib/gcc/arm-none-eabi/10.3.1/../../../../arm-none-eabi/lib/thumb/v7e-m+fp/hard\libm.a(lib_a-e_sqrt.o)
                0x0800849c                __ieee754_sqrt
 .text.with_errno
                0x08008634       0x18 e:/gcc-arm-none-eabi-10.3-2021.10-win32/gcc-arm-none-eabi-10.3-2021.10/bin/../lib/gcc/arm-none-eabi/10.3.1/../../../../arm-none-eabi/lib/thumb/v7e-m+fp/hard\libm.a(lib_a-math_err.o)
 .text.xflow    0x0800864c       0x2c e:/gcc-arm-none-eabi-10.3-2021.10-win32/gcc-arm-none-eabi-10.3-2021.10/bin/../lib/gcc/arm-none-eabi/10.3.1/../../../../arm-none-eabi/lib/thumb/v7e-m+fp/hard\libm.a(lib_a-math_err.o)
 .text.__math_uflow
                0x08008678       0x14 e:/gcc-arm-none-eabi-10.3-2021.10-win32/gcc-arm-none-eabi-10.3-2021.10/bin/../lib/gcc/arm-none-eabi/10.3.1/../../../../arm-none-eabi/lib/thumb/v7e-m+fp/hard\libm.a(lib_a-math_err.o)
                0x08008678                __math_uflow
 .text.__math_oflow
                0x0800868c       0x14 e:/gcc-arm-none-eabi-10.3-2021.10-win32/gcc-arm-none-eabi-10.3-2021.10/bin/../lib/gcc/arm-none-eabi/10.3.1/../../../../arm-none-eabi/lib/thumb/v7e-m+fp/hard\libm.a(lib_a-math_err.o)
                0x0800868c                __math_oflow
 .text.fabs     0x080086a0       0x14 e:/gcc-arm-none-eabi-10.3-2021.10-win32/gcc-arm-none-eabi-10.3-2021.10/bin/../lib/gcc/arm-none-eabi/10.3.1/../../../../arm-none-eabi/lib/thumb/v7e-m+fp/hard\libm.a(lib_a-s_fabs.o)
                0x080086a0                fabs
 .text.finite   0x080086b4       0x18 e:/gcc-arm-none-eabi-10.3-2021.10-win32/gcc-arm-none-eabi-10.3-2021.10/bin/../lib/gcc/arm-none-eabi/10.3.1/../../../../arm-none-eabi/lib/thumb/v7e-m+fp/hard\libm.a(lib_a-s_finite.o)
                0x080086b4                finite
 *fill*         0x080086cc        0x4 
 .text.scalbn   0x080086d0      0x124 e:/gcc-arm-none-eabi-10.3-2021.10-win32/gcc-arm-none-eabi-10.3-2021.10/bin/../lib/gcc/arm-none-eabi/10.3.1/../../../../arm-none-eabi/lib/thumb/v7e-m+fp/hard\libm.a(lib_a-s_scalbn.o)
                0x080086d0                scalbn
 .text._sbrk    0x080087f4       0x1c e:/gcc-arm-none-eabi-10.3-2021.10-win32/gcc-arm-none-eabi-10.3-2021.10/bin/../lib/gcc/arm-none-eabi/10.3.1/../../../../arm-none-eabi/lib/thumb/v7e-m+fp/hard\libnosys.a(sbrk.o)
                0x080087f4                _sbrk
 .text.__errno  0x08008810        0xc e:/gcc-arm-none-eabi-10.3-2021.10-win32/gcc-arm-none-eabi-10.3-2021.10/bin/../lib/gcc/arm-none-eabi/10.3.1/../../../../arm-none-eabi/lib/thumb/v7e-m+fp/hard\libc_nano.a(lib_a-errno.o)
                0x08008810                __errno
 *(.glue_7)
 .glue_7        0x0800881c        0x0 linker stubs
 *(.glue_7t)
 .glue_7t       0x0800881c        0x0 linker stubs
 *(.eh_frame)
 .eh_frame      0x0800881c        0x0 e:/gcc-arm-none-eabi-10.3-2021.10-win32/gcc-arm-none-eabi-10.3-2021.10/bin/../lib/gcc/arm-none-eabi/10.3.1/thumb/v7e-m+fp/hard/crtbegin.o
 *(.init)
 .init          0x0800881c        0x4 e:/gcc-arm-none-eabi-10.3-2021.10-win32/gcc-arm-none-eabi-10.3-2021.10/bin/../lib/gcc/arm-none-eabi/10.3.1/thumb/v7e-m+fp/hard/crti.o
                0x0800881c                _init
 .init          0x08008820        0x8 e:/gcc-arm-none-eabi-10.3-2021.10-win32/gcc-arm-none-eabi-10.3-2021.10/bin/../lib/gcc/arm-none-eabi/10.3.1/thumb/v7e-m+fp/hard/crtn.o
 *(.fini)
 .fini          0x08008828        0x4 e:/gcc-arm-none-eabi-10.3-2021.10-win32/gcc-arm-none-eabi-10.3-2021.10/bin/../lib/gcc/arm-none-eabi/10.3.1/thumb/v7e-m+fp/hard/crti.o
                0x08008828                _fini
 .fini          0x0800882c        0x8 e:/gcc-arm-none-eabi-10.3-2021.10-win32/gcc-arm-none-eabi-10.3-2021.10/bin/../lib/gcc/arm-none-eabi/10.3.1/thumb/v7e-m+fp/hard/crtn.o
                0x08008838                . = ALIGN (0x8)
 *fill*         0x08008834        0x4 
                0x08008838                _etext = .

.vfp11_veneer   0x08008838        0x0
 .vfp11_veneer  0x08008838        0x0 linker stubs

.v4_bx          0x08008838        0x0
 .v4_bx         0x08008838        0x0 linker stubs

.iplt           0x08008838        0x0
 .iplt          0x08008838        0x0 e:/gcc-arm-none-eabi-10.3-2021.10-win32/gcc-arm-none-eabi-10.3-2021.10/bin/../lib/gcc/arm-none-eabi/10.3.1/thumb/v7e-m+fp/hard/crtbegin.o

.rodata         0x08008838      0xb40
                0x08008838                . = ALIGN (0x8)
 *(.rodata)
 .rodata        0x08008838        0x3 build/W25QXX.o
 *(.rodata*)
 .rodata.DeviceID_Print.str1.1
                0x0800883b        0xa build/main.o
                                  0xd (size before relaxing)
 .rodata.Test_All.str1.1
                0x08008845       0xa8 build/main.o
 .rodata.main.str1.1
                0x080088ed       0x44 build/main.o
 .rodata.shellCmdmac_print
                0x08008931        0xa build/main.o
                0x08008931                shellCmdmac_print
 .rodata.shellCmdtest_all
                0x0800893b        0x9 build/main.o
                0x0800893b                shellCmdtest_all
 .rodata.shellDescmac_print
                0x08008944        0xe build/main.o
                0x08008944                shellDescmac_print
 .rodata.shellDesctest_all
                0x08008952       0x10 build/main.o
                0x08008952                shellDesctest_all
 .rodata.CSWTCH.53
                0x08008962        0x3 build/stm32l4xx_hal_uart.o
 .rodata.CSWTCH.54
                0x08008965        0xd build/stm32l4xx_hal_uart.o
 .rodata.AHBPrescTable
                0x08008972       0x10 build/system_stm32l4xx.o
                0x08008972                AHBPrescTable
 .rodata.APBPrescTable
                0x08008982        0x8 build/system_stm32l4xx.o
                0x08008982                APBPrescTable
 *fill*         0x0800898a        0x2 
 .rodata.MSIRangeTable
                0x0800898c       0x30 build/system_stm32l4xx.o
                0x0800898c                MSIRangeTable
 .rodata.CSWTCH.13
                0x080089bc        0x3 build/shell_ext.o
 .rodata.CSWTCH.14
                0x080089bf        0x3 build/shell_ext.o
 .rodata.shellClear.str1.1
                0x080089c2        0x9 build/shell.o
 .rodata.shellWritePrompt.constprop.0.str1.1
                0x080089cb       0x1c build/shell.o
                                 0x21 (size before relaxing)
 .rodata.shellWriteReturnValue.str1.1
                0x080089e7       0x1a build/shell.o
 .rodata.shellListItem.str1.1
                0x08008a01       0x20 build/shell.o
 .rodata.shellListCommand.str1.1
                0x08008a21       0x12 build/shell.o
 .rodata.shellListVar.str1.1
                0x08008a33        0xe build/shell.o
 .rodata.shellListUser.str1.1
                0x08008a41        0xf build/shell.o
 .rodata.shellListKey.str1.1
                0x08008a50        0xe build/shell.o
 .rodata.shellDeleteCommandLine.str1.1
                0x08008a5e        0x4 build/shell.o
 .rodata.shellInsertByte.str1.1
                0x08008a62       0x21 build/shell.o
 .rodata.shellHelp.str1.1
                0x08008a83       0x25 build/shell.o
 .rodata.shellShowVar.str1.1
                0x08008aa8        0x6 build/shell.o
 .rodata.shellSetVarValue.str1.1
                0x08008aae       0x2e build/shell.o
 .rodata.shellSetVar.str1.1
                0x08008adc       0x20 build/shell.o
 .rodata.shellSetUser.str1.1
                0x08008afc      0x158 build/shell.o
 .rodata.shellInit.str1.1
                0x08008c54        0x7 build/shell.o
 .rodata.shellExec.str1.1
                0x08008c5b       0x13 build/shell.o
 .rodata.shellCmdDefaultUser
                0x08008c6e        0x7 build/shell.o
                0x08008c6e                shellCmdDefaultUser
 .rodata.shellCmdclear
                0x08008c75        0x6 build/shell.o
                0x08008c75                shellCmdclear
 .rodata.shellCmdcmds
                0x08008c7b        0x5 build/shell.o
                0x08008c7b                shellCmdcmds
 .rodata.shellCmdhelp
                0x08008c80        0x5 build/shell.o
                0x08008c80                shellCmdhelp
 .rodata.shellCmdkeys
                0x08008c85        0x5 build/shell.o
                0x08008c85                shellCmdkeys
 .rodata.shellCmdsetVar
                0x08008c8a        0x7 build/shell.o
                0x08008c8a                shellCmdsetVar
 .rodata.shellCmdusers
                0x08008c91        0x6 build/shell.o
                0x08008c91                shellCmdusers
 .rodata.shellCmdvars
                0x08008c97        0x5 build/shell.o
                0x08008c97                shellCmdvars
 .rodata.shellDesDefaultUser
                0x08008c9c        0xd build/shell.o
                0x08008c9c                shellDesDefaultUser
 .rodata.shellDesc0x08000000
                0x08008ca9        0xa build/shell.o
                0x08008ca9                shellDesc0x08000000
 .rodata.shellDesc0x09000000
                0x08008cb3        0x4 build/shell.o
                0x08008cb3                shellDesc0x09000000
 .rodata.shellDesc0x0A000000
                0x08008cb7        0x6 build/shell.o
                0x08008cb7                shellDesc0x0A000000
 .rodata.shellDesc0x0D000000
                0x08008cbd        0x6 build/shell.o
                0x08008cbd                shellDesc0x0D000000
 .rodata.shellDesc0x1B5B337E
                0x08008cc3        0x7 build/shell.o
                0x08008cc3                shellDesc0x1B5B337E
 .rodata.shellDesc0x1B5B4100
                0x08008cca        0x3 build/shell.o
                0x08008cca                shellDesc0x1B5B4100
 .rodata.shellDesc0x1B5B4200
                0x08008ccd        0x5 build/shell.o
                0x08008ccd                shellDesc0x1B5B4200
 .rodata.shellDesc0x1B5B4300
                0x08008cd2        0x6 build/shell.o
                0x08008cd2                shellDesc0x1B5B4300
 .rodata.shellDesc0x1B5B4400
                0x08008cd8        0x5 build/shell.o
                0x08008cd8                shellDesc0x1B5B4400
 .rodata.shellDesc0x7F000000
                0x08008cdd        0xa build/shell.o
                0x08008cdd                shellDesc0x7F000000
 .rodata.shellDescclear
                0x08008ce7        0xe build/shell.o
                0x08008ce7                shellDescclear
 .rodata.shellDesccmds
                0x08008cf5        0xd build/shell.o
                0x08008cf5                shellDesccmds
 .rodata.shellDeschelp
                0x08008d02       0x1e build/shell.o
                0x08008d02                shellDeschelp
 .rodata.shellDesckeys
                0x08008d20        0xd build/shell.o
                0x08008d20                shellDesckeys
 .rodata.shellDescsetVar
                0x08008d2d        0x8 build/shell.o
                0x08008d2d                shellDescsetVar
 .rodata.shellDescusers
                0x08008d35        0xe build/shell.o
                0x08008d35                shellDescusers
 .rodata.shellDescvars
                0x08008d43        0xd build/shell.o
                0x08008d43                shellDescvars
 .rodata.shellPasswordDefaultUser
                0x08008d50        0x1 build/shell.o
                0x08008d50                shellPasswordDefaultUser
 .rodata.LDR_Value_Get.str1.1
                0x08008d51       0x2e build/adc.o
 .rodata.Battery_Test.str1.1
                0x08008d7f       0x49 build/adc.o
 .rodata.shellCmdbattery_test
                0x08008dc8        0xd build/adc.o
                0x08008dc8                shellCmdbattery_test
 .rodata.shellCmdldr_test
                0x08008dd5        0x9 build/adc.o
                0x08008dd5                shellCmdldr_test
 .rodata.shellDescbattery_test
                0x08008dde       0x1a build/adc.o
                0x08008dde                shellDescbattery_test
 .rodata.shellDescldr_test
                0x08008df8        0xe build/adc.o
                0x08008df8                shellDescldr_test
 .rodata.Flash_Test.str1.1
                0x08008e06       0x9f build/W25QXX.o
 .rodata.shellCmdflash_test
                0x08008ea5        0xb build/W25QXX.o
                0x08008ea5                shellCmdflash_test
 .rodata.shellDescflash_test
                0x08008eb0       0x1d build/W25QXX.o
                0x08008eb0                shellDescflash_test
 .rodata.LED_Test.str1.1
                0x08008ecd       0x3c build/led.o
 .rodata.shellCmdled_test
                0x08008f09        0x9 build/led.o
                0x08008f09                shellCmdled_test
 .rodata.shellDescled_test
                0x08008f12        0xe build/led.o
                0x08008f12                shellDescled_test
 .rodata.shellCmdrs485_test
                0x08008f20        0xb build/rs485.o
                0x08008f20                shellCmdrs485_test
 .rodata.shellDescrs485_test
                0x08008f2b       0x10 build/rs485.o
                0x08008f2b                shellDescrs485_test
 .rodata.BDS_Test.str1.1
                0x08008f3b       0x2a build/ATGM332D.o
                                 0x2f (size before relaxing)
 .rodata.shellCmdbds_test
                0x08008f65        0x9 build/ATGM332D.o
                0x08008f65                shellCmdbds_test
 .rodata.shellDescbds_test
                0x08008f6e        0xd build/ATGM332D.o
                0x08008f6e                shellDescbds_test
 .rodata.ec2x_handler.str1.1
                0x08008f7b        0x3 build/EC2x.o
 .rodata.ec2x_reset.constprop.0.str1.1
                0x08008f7e        0x6 build/EC2x.o
 .rodata.ec2x_tcp_connect.str1.1
                0x08008f84       0x50 build/EC2x.o
 .rodata.EC2x_Test.str1.1
                0x08008fd4       0x36 build/EC2x.o
 .rodata.ec2x_open.str1.1
                0x0800900a       0x2c build/EC2x.o
 .rodata.str1.1
                0x08009036       0x87 build/EC2x.o
                                 0x8a (size before relaxing)
 .rodata.shellCmdec2x_connect
                0x080090bd        0xd build/EC2x.o
                0x080090bd                shellCmdec2x_connect
 .rodata.shellCmdec2x_test
                0x080090ca        0xa build/EC2x.o
                0x080090ca                shellCmdec2x_test
 .rodata.shellDescec2x_connect
                0x080090d4       0x11 build/EC2x.o
                0x080090d4                shellDescec2x_connect
 .rodata.shellDescec2x_test
                0x080090e5       0x20 build/EC2x.o
                0x080090e5                shellDescec2x_test
 .rodata.LORA_Send.str1.1
                0x08009105       0x2e build/SX1278.o
 .rodata.SX1278_CRC_Sum
                0x08009133        0x2 build/SX1278.o
 .rodata.SX1278_CodingRate
                0x08009135        0x4 build/SX1278.o
 .rodata.SX1278_LoRaBandwidth
                0x08009139        0xa build/SX1278.o
 .rodata.SX1278_Power
                0x08009143        0x4 build/SX1278.o
 .rodata.SX1278_SpreadFactor
                0x08009147        0x7 build/SX1278.o
 .rodata.shellCmdlora_test
                0x0800914e        0xa build/SX1278.o
                0x0800914e                shellCmdlora_test
 .rodata.shellDesclora_test
                0x08009158       0x16 build/SX1278.o
                0x08009158                shellDesclora_test
 .rodata._svfprintf_r.str1.1
                0x0800916e       0x11 e:/gcc-arm-none-eabi-10.3-2021.10-win32/gcc-arm-none-eabi-10.3-2021.10/bin/../lib/gcc/arm-none-eabi/10.3.1/../../../../arm-none-eabi/lib/thumb/v7e-m+fp/hard\libc_nano.a(lib_a-nano-svfprintf.o)
 .rodata._printf_i.str1.1
                0x0800917f       0x22 e:/gcc-arm-none-eabi-10.3-2021.10-win32/gcc-arm-none-eabi-10.3-2021.10/bin/../lib/gcc/arm-none-eabi/10.3.1/../../../../arm-none-eabi/lib/thumb/v7e-m+fp/hard\libc_nano.a(lib_a-nano-vfprintf_i.o)
                0x080091a8                . = ALIGN (0x8)
 *fill*         0x080091a1        0x7 
                0x080091a8                _shell_command_start = .
 *(shellCommand)
 shellCommand   0x080091a8       0x20 build/main.o
                0x080091a8                shellCommandmac_print
                0x080091b8                shellCommandtest_all
 shellCommand   0x080091c8      0x120 build/shell.o
                0x080091c8                shellCommandclear
                0x080091d8                shellCommandkeys
                0x080091e8                shellCommandvars
                0x080091f8                shellCommandcmds
                0x08009208                shellCommandusers
                0x08009218                shellCommandhelp
                0x08009228                shellKey0x0D000000
                0x08009238                shellKey0x0A000000
                0x08009248                shellKey0x1B5B337E
                0x08009258                shellKey0x7F000000
                0x08009268                shellKey0x08000000
                0x08009278                shellKey0x09000000
                0x08009288                shellKey0x1B5B4400
                0x08009298                shellKey0x1B5B4300
                0x080092a8                shellKey0x1B5B4200
                0x080092b8                shellKey0x1B5B4100
                0x080092c8                shellCommandsetVar
                0x080092d8                shellUserDefault
 shellCommand   0x080092e8       0x20 build/adc.o
                0x080092e8                shellCommandbattery_test
                0x080092f8                shellCommandldr_test
 shellCommand   0x08009308       0x10 build/W25QXX.o
                0x08009308                shellCommandflash_test
 shellCommand   0x08009318       0x10 build/led.o
                0x08009318                shellCommandled_test
 shellCommand   0x08009328       0x10 build/rs485.o
                0x08009328                shellCommandrs485_test
 shellCommand   0x08009338       0x10 build/ATGM332D.o
                0x08009338                shellCommandbds_test
 shellCommand   0x08009348       0x20 build/EC2x.o
                0x08009348                shellCommandec2x_connect
                0x08009358                shellCommandec2x_test
 shellCommand   0x08009368       0x10 build/SX1278.o
                0x08009368                shellCommandlora_test
                0x08009378                _shell_command_end = .

.ARM.extab      0x08009378        0x0
                0x08009378                . = ALIGN (0x8)
 *(.ARM.extab* .gnu.linkonce.armextab.*)
                0x08009378                . = ALIGN (0x8)

.ARM            0x08009378        0x8
                0x08009378                . = ALIGN (0x8)
                0x08009378                __exidx_start = .
 *(.ARM.exidx*)
 .ARM.exidx     0x08009378        0x8 e:/gcc-arm-none-eabi-10.3-2021.10-win32/gcc-arm-none-eabi-10.3-2021.10/bin/../lib/gcc/arm-none-eabi/10.3.1/thumb/v7e-m+fp/hard\libgcc.a(_udivmoddi4.o)
                0x08009380                __exidx_end = .
                0x08009380                . = ALIGN (0x8)

.rel.dyn        0x08009380        0x0
 .rel.iplt      0x08009380        0x0 e:/gcc-arm-none-eabi-10.3-2021.10-win32/gcc-arm-none-eabi-10.3-2021.10/bin/../lib/gcc/arm-none-eabi/10.3.1/thumb/v7e-m+fp/hard/crtbegin.o

.preinit_array  0x08009380        0x0
                0x08009380                . = ALIGN (0x8)
                0x08009380                PROVIDE (__preinit_array_start = .)
 *(.preinit_array*)
                0x08009380                PROVIDE (__preinit_array_end = .)
                0x08009380                . = ALIGN (0x8)

.init_array     0x08009380        0x8
                0x08009380                . = ALIGN (0x8)
                0x08009380                PROVIDE (__init_array_start = .)
 *(SORT_BY_NAME(.init_array.*))
 *(.init_array*)
 .init_array    0x08009380        0x4 e:/gcc-arm-none-eabi-10.3-2021.10-win32/gcc-arm-none-eabi-10.3-2021.10/bin/../lib/gcc/arm-none-eabi/10.3.1/thumb/v7e-m+fp/hard/crtbegin.o
                0x08009384                PROVIDE (__init_array_end = .)
                0x08009388                . = ALIGN (0x8)
 *fill*         0x08009384        0x4 

.fini_array     0x08009388        0x8
                0x08009388                . = ALIGN (0x8)
                [!provide]                PROVIDE (__fini_array_start = .)
 *(SORT_BY_NAME(.fini_array.*))
 *(.fini_array*)
 .fini_array    0x08009388        0x4 e:/gcc-arm-none-eabi-10.3-2021.10-win32/gcc-arm-none-eabi-10.3-2021.10/bin/../lib/gcc/arm-none-eabi/10.3.1/thumb/v7e-m+fp/hard/crtbegin.o
                [!provide]                PROVIDE (__fini_array_end = .)
                0x08009390                . = ALIGN (0x8)
 *fill*         0x0800938c        0x4 
                0x08009390                _sidata = LOADADDR (.data)

.data           0x20000000      0x5d0 load address 0x08009390
                0x20000000                . = ALIGN (0x8)
                0x20000000                _sdata = .
 *(.data)
 *(.data*)
 .data.uwTickFreq
                0x20000000        0x1 build/stm32l4xx_hal.o
                0x20000000                uwTickFreq
 *fill*         0x20000001        0x3 
 .data.uwTickPrio
                0x20000004        0x4 build/stm32l4xx_hal.o
                0x20000004                uwTickPrio
 .data.SystemCoreClock
                0x20000008        0x4 build/system_stm32l4xx.o
                0x20000008                SystemCoreClock
 .data.lora_dev_hw
                0x2000000c       0x48 build/SX1278_hw.o
                0x2000000c                lora_dev_hw
 .data.dev_led  0x20000054       0x10 build/led.o
                0x20000054                dev_led
 .data.dev_rs485
                0x20000064        0xc build/rs485.o
                0x20000064                dev_rs485
 .data.atgm_dev
                0x20000070       0x24 build/ATGM332D.o
                0x20000070                atgm_dev
 .data.bds_dev  0x20000094        0x4 build/ATGM332D.o
                0x20000094                bds_dev
 .data.dev0_buff
                0x20000098       0xc8 build/ATGM332D.o
                0x20000098                dev0_buff
 .data.connectmsg_queue
                0x20000160       0x6c build/EC2x.o
                0x20000160                connectmsg_queue
 .data.ec2x_buff
                0x200001cc       0xc8 build/EC2x.o
                0x200001cc                ec2x_buff
 .data.ec2x_dev
                0x20000294       0x3c build/EC2x.o
                0x20000294                ec2x_dev
 .data.tcp_connect
                0x200002d0       0x30 build/EC2x.o
                0x200002d0                tcp_connect
 .data.Lora_dev
                0x20000300      0x230 build/SX1278.o
                0x20000300                Lora_dev
 .data.lora_cache
                0x20000530       0x3c build/SX1278.o
                0x20000530                lora_cache
 .data._impure_ptr
                0x2000056c        0x4 e:/gcc-arm-none-eabi-10.3-2021.10-win32/gcc-arm-none-eabi-10.3-2021.10/bin/../lib/gcc/arm-none-eabi/10.3.1/../../../../arm-none-eabi/lib/thumb/v7e-m+fp/hard\libc_nano.a(lib_a-impure.o)
                0x2000056c                _impure_ptr
 .data.impure_data
                0x20000570       0x60 e:/gcc-arm-none-eabi-10.3-2021.10-win32/gcc-arm-none-eabi-10.3-2021.10/bin/../lib/gcc/arm-none-eabi/10.3.1/../../../../arm-none-eabi/lib/thumb/v7e-m+fp/hard\libc_nano.a(lib_a-impure.o)
                0x200005d0                . = ALIGN (0x8)
                0x200005d0                _edata = .

.igot.plt       0x200005d0        0x0 load address 0x08009960
 .igot.plt      0x200005d0        0x0 e:/gcc-arm-none-eabi-10.3-2021.10-win32/gcc-arm-none-eabi-10.3-2021.10/bin/../lib/gcc/arm-none-eabi/10.3.1/thumb/v7e-m+fp/hard/crtbegin.o
                0x200005d0                . = ALIGN (0x4)

.bss            0x200005d0      0x5e4 load address 0x08009960
                0x200005d0                _sbss = .
                0x200005d0                __bss_start__ = _sbss
 *(.bss)
 .bss           0x200005d0       0x1c e:/gcc-arm-none-eabi-10.3-2021.10-win32/gcc-arm-none-eabi-10.3-2021.10/bin/../lib/gcc/arm-none-eabi/10.3.1/thumb/v7e-m+fp/hard/crtbegin.o
 *(.bss*)
 .bss.uwTick    0x200005ec        0x4 build/stm32l4xx_hal.o
                0x200005ec                uwTick
 .bss.shell     0x200005f0       0x6c build/shell_port.o
                0x200005f0                shell
 .bss.shell_buffer
                0x2000065c       0xc8 build/shell_port.o
                0x2000065c                shell_buffer
 .bss.test_error_cnt
                0x20000724        0x1 build/shell_port.o
                0x20000724                test_error_cnt
 .bss.test_ok_cnt
                0x20000725        0x1 build/shell_port.o
                0x20000725                test_ok_cnt
 .bss.buffer.0  0x20000726        0x9 build/shell.o
 *fill*         0x2000072f        0x1 
 .bss.shellList
                0x20000730       0x14 build/shell.o
 .bss.shellidle_cnt
                0x20000744        0x2 build/shell.o
                0x20000744                shellidle_cnt
 *fill*         0x20000746        0x2 
 .bss.hadc1     0x20000748       0x64 build/adc.o
                0x20000748                hadc1
 .bss.hspi2     0x200007ac       0x64 build/spi.o
                0x200007ac                hspi2
 .bss.hspi3     0x20000810       0x64 build/spi.o
                0x20000810                hspi3
 .bss.huart1    0x20000874       0x84 build/usart.o
                0x20000874                huart1
 .bss.huart2    0x200008f8       0x84 build/usart.o
                0x200008f8                huart2
 .bss.huart3    0x2000097c       0x84 build/usart.o
                0x2000097c                huart3
 .bss.u1_cache  0x20000a00       0xc8 build/usart.o
                0x20000a00                u1_cache
 .bss.u2_cache  0x20000ac8       0xc8 build/usart.o
                0x20000ac8                u2_cache
 .bss.u3_cache  0x20000b90        0x1 build/usart.o
                0x20000b90                u3_cache
 *fill*         0x20000b91        0x3 
 .bss.base_tick
                0x20000b94        0x4 build/timer.o
                0x20000b94                base_tick
 .bss.timer_list
                0x20000b98        0x4 build/timer.o
                0x20000b98                timer_list
 .bss.reset_times
                0x20000b9c        0x1 build/EC2x.o
 .bss.retry.0   0x20000b9d        0x1 build/EC2x.o
 .bss.step.1    0x20000b9e        0x1 build/EC2x.o
 *fill*         0x20000b9f        0x1 
 .bss.__malloc_free_list
                0x20000ba0        0x4 e:/gcc-arm-none-eabi-10.3-2021.10-win32/gcc-arm-none-eabi-10.3-2021.10/bin/../lib/gcc/arm-none-eabi/10.3.1/../../../../arm-none-eabi/lib/thumb/v7e-m+fp/hard\libc_nano.a(lib_a-nano-mallocr.o)
                0x20000ba0                __malloc_free_list
 .bss.__malloc_sbrk_start
                0x20000ba4        0x4 e:/gcc-arm-none-eabi-10.3-2021.10-win32/gcc-arm-none-eabi-10.3-2021.10/bin/../lib/gcc/arm-none-eabi/10.3.1/../../../../arm-none-eabi/lib/thumb/v7e-m+fp/hard\libc_nano.a(lib_a-nano-mallocr.o)
                0x20000ba4                __malloc_sbrk_start
 .bss.errno     0x20000ba8        0x4 e:/gcc-arm-none-eabi-10.3-2021.10-win32/gcc-arm-none-eabi-10.3-2021.10/bin/../lib/gcc/arm-none-eabi/10.3.1/../../../../arm-none-eabi/lib/thumb/v7e-m+fp/hard\libc_nano.a(lib_a-reent.o)
                0x20000ba8                errno
 .bss.__lock___malloc_recursive_mutex
                0x20000bac        0x1 e:/gcc-arm-none-eabi-10.3-2021.10-win32/gcc-arm-none-eabi-10.3-2021.10/bin/../lib/gcc/arm-none-eabi/10.3.1/../../../../arm-none-eabi/lib/thumb/v7e-m+fp/hard\libc_nano.a(lib_a-lock.o)
                0x20000bac                __lock___malloc_recursive_mutex
 *fill*         0x20000bad        0x3 
 .bss.heap_end.0
                0x20000bb0        0x4 e:/gcc-arm-none-eabi-10.3-2021.10-win32/gcc-arm-none-eabi-10.3-2021.10/bin/../lib/gcc/arm-none-eabi/10.3.1/../../../../arm-none-eabi/lib/thumb/v7e-m+fp/hard\libnosys.a(sbrk.o)
 *(COMMON)
                0x20000bb4                . = ALIGN (0x4)
                0x20000bb4                _ebss = .
                0x20000bb4                __bss_end__ = _ebss

._user_heap_stack
                0x20000bb4      0xa04 load address 0x08009960
                0x20000bb8                . = ALIGN (0x8)
 *fill*         0x20000bb4        0x4 
                0x20000bb8                PROVIDE (end = .)
                [!provide]                PROVIDE (_end = .)
                0x200011b8                . = (. + _Min_Heap_Size)
 *fill*         0x20000bb8      0x600 
                0x200015b8                . = (. + _Min_Stack_Size)
 *fill*         0x200011b8      0x400 
                0x200015b8                . = ALIGN (0x8)

/DISCARD/
 libc.a(*)
 libm.a(*)
 libgcc.a(*)

.ARM.attributes
                0x00000000       0x30
 *(.ARM.attributes)
 .ARM.attributes
                0x00000000       0x1e e:/gcc-arm-none-eabi-10.3-2021.10-win32/gcc-arm-none-eabi-10.3-2021.10/bin/../lib/gcc/arm-none-eabi/10.3.1/thumb/v7e-m+fp/hard/crti.o
 .ARM.attributes
                0x0000001e       0x34 e:/gcc-arm-none-eabi-10.3-2021.10-win32/gcc-arm-none-eabi-10.3-2021.10/bin/../lib/gcc/arm-none-eabi/10.3.1/thumb/v7e-m+fp/hard/crtbegin.o
 .ARM.attributes
                0x00000052       0x34 build/main.o
 .ARM.attributes
                0x00000086       0x34 build/stm32l4xx_it.o
 .ARM.attributes
                0x000000ba       0x34 build/stm32l4xx_hal_msp.o
 .ARM.attributes
                0x000000ee       0x34 build/stm32l4xx_hal_adc.o
 .ARM.attributes
                0x00000122       0x34 build/stm32l4xx_hal_adc_ex.o
 .ARM.attributes
                0x00000156       0x34 build/stm32l4xx_hal.o
 .ARM.attributes
                0x0000018a       0x34 build/stm32l4xx_hal_rcc.o
 .ARM.attributes
                0x000001be       0x34 build/stm32l4xx_hal_rcc_ex.o
 .ARM.attributes
                0x000001f2       0x34 build/stm32l4xx_hal_gpio.o
 .ARM.attributes
                0x00000226       0x34 build/stm32l4xx_hal_dma.o
 .ARM.attributes
                0x0000025a       0x34 build/stm32l4xx_hal_pwr_ex.o
 .ARM.attributes
                0x0000028e       0x34 build/stm32l4xx_hal_cortex.o
 .ARM.attributes
                0x000002c2       0x34 build/stm32l4xx_hal_spi.o
 .ARM.attributes
                0x000002f6       0x34 build/stm32l4xx_hal_uart.o
 .ARM.attributes
                0x0000032a       0x34 build/stm32l4xx_hal_uart_ex.o
 .ARM.attributes
                0x0000035e       0x34 build/system_stm32l4xx.o
 .ARM.attributes
                0x00000392       0x34 build/shell_ext.o
 .ARM.attributes
                0x000003c6       0x34 build/shell_port.o
 .ARM.attributes
                0x000003fa       0x34 build/shell.o
 .ARM.attributes
                0x0000042e       0x34 build/gpio.o
 .ARM.attributes
                0x00000462       0x34 build/adc.o
 .ARM.attributes
                0x00000496       0x34 build/spi.o
 .ARM.attributes
                0x000004ca       0x34 build/usart.o
 .ARM.attributes
                0x000004fe       0x34 build/timer.o
 .ARM.attributes
                0x00000532       0x34 build/SX1278_hw.o
 .ARM.attributes
                0x00000566       0x34 build/W25QXX.o
 .ARM.attributes
                0x0000059a       0x34 build/led.o
 .ARM.attributes
                0x000005ce       0x34 build/rs485.o
 .ARM.attributes
                0x00000602       0x34 build/ATGM332D.o
 .ARM.attributes
                0x00000636       0x34 build/EC2x.o
 .ARM.attributes
                0x0000066a       0x34 build/SX1278.o
 .ARM.attributes
                0x0000069e       0x21 build/startup_stm32l431xx.o
 .ARM.attributes
                0x000006bf       0x34 e:/gcc-arm-none-eabi-10.3-2021.10-win32/gcc-arm-none-eabi-10.3-2021.10/bin/../lib/gcc/arm-none-eabi/10.3.1/../../../../arm-none-eabi/lib/thumb/v7e-m+fp/hard\libc_nano.a(lib_a-impure.o)
 .ARM.attributes
                0x000006f3       0x34 e:/gcc-arm-none-eabi-10.3-2021.10-win32/gcc-arm-none-eabi-10.3-2021.10/bin/../lib/gcc/arm-none-eabi/10.3.1/../../../../arm-none-eabi/lib/thumb/v7e-m+fp/hard\libc_nano.a(lib_a-init.o)
 .ARM.attributes
                0x00000727       0x34 e:/gcc-arm-none-eabi-10.3-2021.10-win32/gcc-arm-none-eabi-10.3-2021.10/bin/../lib/gcc/arm-none-eabi/10.3.1/../../../../arm-none-eabi/lib/thumb/v7e-m+fp/hard\libc_nano.a(lib_a-malloc.o)
 .ARM.attributes
                0x0000075b       0x34 e:/gcc-arm-none-eabi-10.3-2021.10-win32/gcc-arm-none-eabi-10.3-2021.10/bin/../lib/gcc/arm-none-eabi/10.3.1/../../../../arm-none-eabi/lib/thumb/v7e-m+fp/hard\libc_nano.a(lib_a-memcpy-stub.o)
 .ARM.attributes
                0x0000078f       0x34 e:/gcc-arm-none-eabi-10.3-2021.10-win32/gcc-arm-none-eabi-10.3-2021.10/bin/../lib/gcc/arm-none-eabi/10.3.1/../../../../arm-none-eabi/lib/thumb/v7e-m+fp/hard\libc_nano.a(lib_a-memset.o)
 .ARM.attributes
                0x000007c3       0x34 e:/gcc-arm-none-eabi-10.3-2021.10-win32/gcc-arm-none-eabi-10.3-2021.10/bin/../lib/gcc/arm-none-eabi/10.3.1/../../../../arm-none-eabi/lib/thumb/v7e-m+fp/hard\libc_nano.a(lib_a-nano-freer.o)
 .ARM.attributes
                0x000007f7       0x34 e:/gcc-arm-none-eabi-10.3-2021.10-win32/gcc-arm-none-eabi-10.3-2021.10/bin/../lib/gcc/arm-none-eabi/10.3.1/../../../../arm-none-eabi/lib/thumb/v7e-m+fp/hard\libc_nano.a(lib_a-nano-mallocr.o)
 .ARM.attributes
                0x0000082b       0x34 e:/gcc-arm-none-eabi-10.3-2021.10-win32/gcc-arm-none-eabi-10.3-2021.10/bin/../lib/gcc/arm-none-eabi/10.3.1/../../../../arm-none-eabi/lib/thumb/v7e-m+fp/hard\libc_nano.a(lib_a-sbrkr.o)
 .ARM.attributes
                0x0000085f       0x1c e:/gcc-arm-none-eabi-10.3-2021.10-win32/gcc-arm-none-eabi-10.3-2021.10/bin/../lib/gcc/arm-none-eabi/10.3.1/../../../../arm-none-eabi/lib/thumb/v7e-m+fp/hard\libc_nano.a(lib_a-strcmp.o)
 .ARM.attributes
                0x0000087b       0x17 e:/gcc-arm-none-eabi-10.3-2021.10-win32/gcc-arm-none-eabi-10.3-2021.10/bin/../lib/gcc/arm-none-eabi/10.3.1/../../../../arm-none-eabi/lib/thumb/v7e-m+fp/hard\libc_nano.a(lib_a-strlen.o)
 .ARM.attributes
                0x00000892       0x34 e:/gcc-arm-none-eabi-10.3-2021.10-win32/gcc-arm-none-eabi-10.3-2021.10/bin/../lib/gcc/arm-none-eabi/10.3.1/../../../../arm-none-eabi/lib/thumb/v7e-m+fp/hard\libc_nano.a(lib_a-strncmp.o)
 .ARM.attributes
                0x000008c6       0x34 e:/gcc-arm-none-eabi-10.3-2021.10-win32/gcc-arm-none-eabi-10.3-2021.10/bin/../lib/gcc/arm-none-eabi/10.3.1/../../../../arm-none-eabi/lib/thumb/v7e-m+fp/hard\libc_nano.a(lib_a-strstr.o)
 .ARM.attributes
                0x000008fa       0x34 e:/gcc-arm-none-eabi-10.3-2021.10-win32/gcc-arm-none-eabi-10.3-2021.10/bin/../lib/gcc/arm-none-eabi/10.3.1/../../../../arm-none-eabi/lib/thumb/v7e-m+fp/hard\libc_nano.a(lib_a-vsnprintf.o)
 .ARM.attributes
                0x0000092e       0x34 e:/gcc-arm-none-eabi-10.3-2021.10-win32/gcc-arm-none-eabi-10.3-2021.10/bin/../lib/gcc/arm-none-eabi/10.3.1/../../../../arm-none-eabi/lib/thumb/v7e-m+fp/hard\libc_nano.a(lib_a-mlock.o)
 .ARM.attributes
                0x00000962       0x34 e:/gcc-arm-none-eabi-10.3-2021.10-win32/gcc-arm-none-eabi-10.3-2021.10/bin/../lib/gcc/arm-none-eabi/10.3.1/../../../../arm-none-eabi/lib/thumb/v7e-m+fp/hard\libc_nano.a(lib_a-nano-svfprintf.o)
 .ARM.attributes
                0x00000996       0x34 e:/gcc-arm-none-eabi-10.3-2021.10-win32/gcc-arm-none-eabi-10.3-2021.10/bin/../lib/gcc/arm-none-eabi/10.3.1/../../../../arm-none-eabi/lib/thumb/v7e-m+fp/hard\libc_nano.a(lib_a-nano-vfprintf_i.o)
 .ARM.attributes
                0x000009ca       0x34 e:/gcc-arm-none-eabi-10.3-2021.10-win32/gcc-arm-none-eabi-10.3-2021.10/bin/../lib/gcc/arm-none-eabi/10.3.1/../../../../arm-none-eabi/lib/thumb/v7e-m+fp/hard\libc_nano.a(lib_a-reent.o)
 .ARM.attributes
                0x000009fe       0x34 e:/gcc-arm-none-eabi-10.3-2021.10-win32/gcc-arm-none-eabi-10.3-2021.10/bin/../lib/gcc/arm-none-eabi/10.3.1/../../../../arm-none-eabi/lib/thumb/v7e-m+fp/hard\libc_nano.a(lib_a-lock.o)
 .ARM.attributes
                0x00000a32       0x1c e:/gcc-arm-none-eabi-10.3-2021.10-win32/gcc-arm-none-eabi-10.3-2021.10/bin/../lib/gcc/arm-none-eabi/10.3.1/../../../../arm-none-eabi/lib/thumb/v7e-m+fp/hard\libc_nano.a(lib_a-memchr.o)
 .ARM.attributes
                0x00000a4e       0x34 e:/gcc-arm-none-eabi-10.3-2021.10-win32/gcc-arm-none-eabi-10.3-2021.10/bin/../lib/gcc/arm-none-eabi/10.3.1/../../../../arm-none-eabi/lib/thumb/v7e-m+fp/hard\libc_nano.a(lib_a-memmove.o)
 .ARM.attributes
                0x00000a82       0x34 e:/gcc-arm-none-eabi-10.3-2021.10-win32/gcc-arm-none-eabi-10.3-2021.10/bin/../lib/gcc/arm-none-eabi/10.3.1/../../../../arm-none-eabi/lib/thumb/v7e-m+fp/hard\libc_nano.a(lib_a-nano-reallocr.o)
 .ARM.attributes
                0x00000ab6       0x34 e:/gcc-arm-none-eabi-10.3-2021.10-win32/gcc-arm-none-eabi-10.3-2021.10/bin/../lib/gcc/arm-none-eabi/10.3.1/../../../../arm-none-eabi/lib/thumb/v7e-m+fp/hard\libc_nano.a(lib_a-nano-msizer.o)
 .ARM.attributes
                0x00000aea       0x34 e:/gcc-arm-none-eabi-10.3-2021.10-win32/gcc-arm-none-eabi-10.3-2021.10/bin/../lib/gcc/arm-none-eabi/10.3.1/../../../../arm-none-eabi/lib/thumb/v7e-m+fp/hard\libm.a(lib_a-w_pow.o)
 .ARM.attributes
                0x00000b1e       0x34 e:/gcc-arm-none-eabi-10.3-2021.10-win32/gcc-arm-none-eabi-10.3-2021.10/bin/../lib/gcc/arm-none-eabi/10.3.1/../../../../arm-none-eabi/lib/thumb/v7e-m+fp/hard\libm.a(lib_a-e_pow.o)
 .ARM.attributes
                0x00000b52       0x34 e:/gcc-arm-none-eabi-10.3-2021.10-win32/gcc-arm-none-eabi-10.3-2021.10/bin/../lib/gcc/arm-none-eabi/10.3.1/../../../../arm-none-eabi/lib/thumb/v7e-m+fp/hard\libm.a(lib_a-e_sqrt.o)
 .ARM.attributes
                0x00000b86       0x34 e:/gcc-arm-none-eabi-10.3-2021.10-win32/gcc-arm-none-eabi-10.3-2021.10/bin/../lib/gcc/arm-none-eabi/10.3.1/../../../../arm-none-eabi/lib/thumb/v7e-m+fp/hard\libm.a(lib_a-math_err.o)
 .ARM.attributes
                0x00000bba       0x34 e:/gcc-arm-none-eabi-10.3-2021.10-win32/gcc-arm-none-eabi-10.3-2021.10/bin/../lib/gcc/arm-none-eabi/10.3.1/../../../../arm-none-eabi/lib/thumb/v7e-m+fp/hard\libm.a(lib_a-s_fabs.o)
 .ARM.attributes
                0x00000bee       0x34 e:/gcc-arm-none-eabi-10.3-2021.10-win32/gcc-arm-none-eabi-10.3-2021.10/bin/../lib/gcc/arm-none-eabi/10.3.1/../../../../arm-none-eabi/lib/thumb/v7e-m+fp/hard\libm.a(lib_a-s_finite.o)
 .ARM.attributes
                0x00000c22       0x34 e:/gcc-arm-none-eabi-10.3-2021.10-win32/gcc-arm-none-eabi-10.3-2021.10/bin/../lib/gcc/arm-none-eabi/10.3.1/../../../../arm-none-eabi/lib/thumb/v7e-m+fp/hard\libm.a(lib_a-s_scalbn.o)
 .ARM.attributes
                0x00000c56       0x34 e:/gcc-arm-none-eabi-10.3-2021.10-win32/gcc-arm-none-eabi-10.3-2021.10/bin/../lib/gcc/arm-none-eabi/10.3.1/../../../../arm-none-eabi/lib/thumb/v7e-m+fp/hard\libnosys.a(sbrk.o)
 .ARM.attributes
                0x00000c8a       0x1e e:/gcc-arm-none-eabi-10.3-2021.10-win32/gcc-arm-none-eabi-10.3-2021.10/bin/../lib/gcc/arm-none-eabi/10.3.1/thumb/v7e-m+fp/hard\libgcc.a(_arm_addsubdf3.o)
 .ARM.attributes
                0x00000ca8       0x1e e:/gcc-arm-none-eabi-10.3-2021.10-win32/gcc-arm-none-eabi-10.3-2021.10/bin/../lib/gcc/arm-none-eabi/10.3.1/thumb/v7e-m+fp/hard\libgcc.a(_arm_muldivdf3.o)
 .ARM.attributes
                0x00000cc6       0x1e e:/gcc-arm-none-eabi-10.3-2021.10-win32/gcc-arm-none-eabi-10.3-2021.10/bin/../lib/gcc/arm-none-eabi/10.3.1/thumb/v7e-m+fp/hard\libgcc.a(_arm_cmpdf2.o)
 .ARM.attributes
                0x00000ce4       0x1e e:/gcc-arm-none-eabi-10.3-2021.10-win32/gcc-arm-none-eabi-10.3-2021.10/bin/../lib/gcc/arm-none-eabi/10.3.1/thumb/v7e-m+fp/hard\libgcc.a(_arm_unorddf2.o)
 .ARM.attributes
                0x00000d02       0x1e e:/gcc-arm-none-eabi-10.3-2021.10-win32/gcc-arm-none-eabi-10.3-2021.10/bin/../lib/gcc/arm-none-eabi/10.3.1/thumb/v7e-m+fp/hard\libgcc.a(_arm_fixunsdfsi.o)
 .ARM.attributes
                0x00000d20       0x1e e:/gcc-arm-none-eabi-10.3-2021.10-win32/gcc-arm-none-eabi-10.3-2021.10/bin/../lib/gcc/arm-none-eabi/10.3.1/thumb/v7e-m+fp/hard\libgcc.a(_arm_truncdfsf2.o)
 .ARM.attributes
                0x00000d3e       0x1e e:/gcc-arm-none-eabi-10.3-2021.10-win32/gcc-arm-none-eabi-10.3-2021.10/bin/../lib/gcc/arm-none-eabi/10.3.1/thumb/v7e-m+fp/hard\libgcc.a(_aeabi_uldivmod.o)
 .ARM.attributes
                0x00000d5c       0x34 e:/gcc-arm-none-eabi-10.3-2021.10-win32/gcc-arm-none-eabi-10.3-2021.10/bin/../lib/gcc/arm-none-eabi/10.3.1/thumb/v7e-m+fp/hard\libgcc.a(_udivmoddi4.o)
 .ARM.attributes
                0x00000d90       0x1e e:/gcc-arm-none-eabi-10.3-2021.10-win32/gcc-arm-none-eabi-10.3-2021.10/bin/../lib/gcc/arm-none-eabi/10.3.1/thumb/v7e-m+fp/hard\libgcc.a(_dvmd_tls.o)
 .ARM.attributes
                0x00000dae       0x34 e:/gcc-arm-none-eabi-10.3-2021.10-win32/gcc-arm-none-eabi-10.3-2021.10/bin/../lib/gcc/arm-none-eabi/10.3.1/../../../../arm-none-eabi/lib/thumb/v7e-m+fp/hard\libc_nano.a(lib_a-errno.o)
 .ARM.attributes
                0x00000de2       0x1e e:/gcc-arm-none-eabi-10.3-2021.10-win32/gcc-arm-none-eabi-10.3-2021.10/bin/../lib/gcc/arm-none-eabi/10.3.1/thumb/v7e-m+fp/hard/crtn.o
OUTPUT(build/DD_Gateway_FactoryTest.elf elf32-littlearm)
LOAD linker stubs
LOAD e:/gcc-arm-none-eabi-10.3-2021.10-win32/gcc-arm-none-eabi-10.3-2021.10/bin/../lib/gcc/arm-none-eabi/10.3.1/../../../../arm-none-eabi/lib/thumb/v7e-m+fp/hard\libc.a
LOAD e:/gcc-arm-none-eabi-10.3-2021.10-win32/gcc-arm-none-eabi-10.3-2021.10/bin/../lib/gcc/arm-none-eabi/10.3.1/../../../../arm-none-eabi/lib/thumb/v7e-m+fp/hard\libm.a
LOAD e:/gcc-arm-none-eabi-10.3-2021.10-win32/gcc-arm-none-eabi-10.3-2021.10/bin/../lib/gcc/arm-none-eabi/10.3.1/thumb/v7e-m+fp/hard\libgcc.a

.debug_info     0x00000000    0x29934
 .debug_info    0x00000000     0x15a6 build/main.o
 .debug_info    0x000015a6     0x10e3 build/stm32l4xx_it.o
 .debug_info    0x00002689      0x393 build/stm32l4xx_hal_msp.o
 .debug_info    0x00002a1c     0x2e89 build/stm32l4xx_hal_adc.o
 .debug_info    0x000058a5     0x23c8 build/stm32l4xx_hal_adc_ex.o
 .debug_info    0x00007c6d      0xd53 build/stm32l4xx_hal.o
 .debug_info    0x000089c0     0x1076 build/stm32l4xx_hal_rcc.o
 .debug_info    0x00009a36     0x1358 build/stm32l4xx_hal_rcc_ex.o
 .debug_info    0x0000ad8e      0x918 build/stm32l4xx_hal_gpio.o
 .debug_info    0x0000b6a6      0x8fc build/stm32l4xx_hal_dma.o
 .debug_info    0x0000bfa2      0xb0c build/stm32l4xx_hal_pwr_ex.o
 .debug_info    0x0000caae     0x1105 build/stm32l4xx_hal_cortex.o
 .debug_info    0x0000dbb3     0x2389 build/stm32l4xx_hal_spi.o
 .debug_info    0x0000ff3c     0x5334 build/stm32l4xx_hal_uart.o
 .debug_info    0x00015270     0x112d build/stm32l4xx_hal_uart_ex.o
 .debug_info    0x0001639d      0x683 build/system_stm32l4xx.o
 .debug_info    0x00016a20      0xce6 build/shell_ext.o
 .debug_info    0x00017706      0xe65 build/shell_port.o
 .debug_info    0x0001856b     0x3111 build/shell.o
 .debug_info    0x0001b67c      0x885 build/gpio.o
 .debug_info    0x0001bf01     0x18fa build/adc.o
 .debug_info    0x0001d7fb      0xe67 build/spi.o
 .debug_info    0x0001e662     0x1ada build/usart.o
 .debug_info    0x0002013c      0x328 build/timer.o
 .debug_info    0x00020464      0xb33 build/SX1278_hw.o
 .debug_info    0x00020f97     0x1824 build/W25QXX.o
 .debug_info    0x000227bb      0xed9 build/led.o
 .debug_info    0x00023694     0x134c build/rs485.o
 .debug_info    0x000249e0     0x1504 build/ATGM332D.o
 .debug_info    0x00025ee4     0x1d47 build/EC2x.o
 .debug_info    0x00027c2b     0x1ce7 build/SX1278.o
 .debug_info    0x00029912       0x22 build/startup_stm32l431xx.o

.debug_abbrev   0x00000000     0x5e8f
 .debug_abbrev  0x00000000      0x3e3 build/main.o
 .debug_abbrev  0x000003e3      0x2b2 build/stm32l4xx_it.o
 .debug_abbrev  0x00000695       0xf1 build/stm32l4xx_hal_msp.o
 .debug_abbrev  0x00000786      0x34b build/stm32l4xx_hal_adc.o
 .debug_abbrev  0x00000ad1      0x3d7 build/stm32l4xx_hal_adc_ex.o
 .debug_abbrev  0x00000ea8      0x2ff build/stm32l4xx_hal.o
 .debug_abbrev  0x000011a7      0x2bd build/stm32l4xx_hal_rcc.o
 .debug_abbrev  0x00001464      0x36d build/stm32l4xx_hal_rcc_ex.o
 .debug_abbrev  0x000017d1      0x220 build/stm32l4xx_hal_gpio.o
 .debug_abbrev  0x000019f1      0x260 build/stm32l4xx_hal_dma.o
 .debug_abbrev  0x00001c51      0x2d9 build/stm32l4xx_hal_pwr_ex.o
 .debug_abbrev  0x00001f2a      0x387 build/stm32l4xx_hal_cortex.o
 .debug_abbrev  0x000022b1      0x354 build/stm32l4xx_hal_spi.o
 .debug_abbrev  0x00002605      0x3fa build/stm32l4xx_hal_uart.o
 .debug_abbrev  0x000029ff      0x2e2 build/stm32l4xx_hal_uart_ex.o
 .debug_abbrev  0x00002ce1      0x11b build/system_stm32l4xx.o
 .debug_abbrev  0x00002dfc      0x3a7 build/shell_ext.o
 .debug_abbrev  0x000031a3      0x26f build/shell_port.o
 .debug_abbrev  0x00003412      0x68c build/shell.o
 .debug_abbrev  0x00003a9e      0x175 build/gpio.o
 .debug_abbrev  0x00003c13      0x355 build/adc.o
 .debug_abbrev  0x00003f68      0x1f5 build/spi.o
 .debug_abbrev  0x0000415d      0x34f build/usart.o
 .debug_abbrev  0x000044ac      0x192 build/timer.o
 .debug_abbrev  0x0000463e      0x21b build/SX1278_hw.o
 .debug_abbrev  0x00004859      0x3f0 build/W25QXX.o
 .debug_abbrev  0x00004c49      0x340 build/led.o
 .debug_abbrev  0x00004f89      0x2b7 build/rs485.o
 .debug_abbrev  0x00005240      0x303 build/ATGM332D.o
 .debug_abbrev  0x00005543      0x480 build/EC2x.o
 .debug_abbrev  0x000059c3      0x4ba build/SX1278.o
 .debug_abbrev  0x00005e7d       0x12 build/startup_stm32l431xx.o

.debug_loc      0x00000000    0x157ff
 .debug_loc     0x00000000       0xf8 build/main.o
 .debug_loc     0x000000f8       0x4c build/stm32l4xx_it.o
 .debug_loc     0x00000144       0x2c build/stm32l4xx_hal_msp.o
 .debug_loc     0x00000170     0x1f90 build/stm32l4xx_hal_adc.o
 .debug_loc     0x00002100     0x1811 build/stm32l4xx_hal_adc_ex.o
 .debug_loc     0x00003911      0x33d build/stm32l4xx_hal.o
 .debug_loc     0x00003c4e      0x993 build/stm32l4xx_hal_rcc.o
 .debug_loc     0x000045e1      0xebd build/stm32l4xx_hal_rcc_ex.o
 .debug_loc     0x0000549e      0x39f build/stm32l4xx_hal_gpio.o
 .debug_loc     0x0000583d      0x7f3 build/stm32l4xx_hal_dma.o
 .debug_loc     0x00006030      0x692 build/stm32l4xx_hal_pwr_ex.o
 .debug_loc     0x000066c2      0x653 build/stm32l4xx_hal_cortex.o
 .debug_loc     0x00006d15     0x2357 build/stm32l4xx_hal_spi.o
 .debug_loc     0x0000906c     0x4fc0 build/stm32l4xx_hal_uart.o
 .debug_loc     0x0000e02c      0xc3a build/stm32l4xx_hal_uart_ex.o
 .debug_loc     0x0000ec66      0x12b build/system_stm32l4xx.o
 .debug_loc     0x0000ed91      0xa61 build/shell_ext.o
 .debug_loc     0x0000f7f2       0x77 build/shell_port.o
 .debug_loc     0x0000f869     0x2bbc build/shell.o
 .debug_loc     0x00012425       0x39 build/gpio.o
 .debug_loc     0x0001245e      0x2e8 build/adc.o
 .debug_loc     0x00012746      0x15d build/spi.o
 .debug_loc     0x000128a3      0x357 build/usart.o
 .debug_loc     0x00012bfa      0x2b9 build/timer.o
 .debug_loc     0x00012eb3      0x206 build/SX1278_hw.o
 .debug_loc     0x000130b9      0x58a build/W25QXX.o
 .debug_loc     0x00013643      0x308 build/led.o
 .debug_loc     0x0001394b      0x23e build/rs485.o
 .debug_loc     0x00013b89      0x334 build/ATGM332D.o
 .debug_loc     0x00013ebd      0x8a5 build/EC2x.o
 .debug_loc     0x00014762     0x109d build/SX1278.o

.debug_aranges  0x00000000     0x1198
 .debug_aranges
                0x00000000       0x40 build/main.o
 .debug_aranges
                0x00000040       0x80 build/stm32l4xx_it.o
 .debug_aranges
                0x000000c0       0x20 build/stm32l4xx_hal_msp.o
 .debug_aranges
                0x000000e0       0xe8 build/stm32l4xx_hal_adc.o
 .debug_aranges
                0x000001c8       0xb8 build/stm32l4xx_hal_adc_ex.o
 .debug_aranges
                0x00000280      0x138 build/stm32l4xx_hal.o
 .debug_aranges
                0x000003b8       0x90 build/stm32l4xx_hal_rcc.o
 .debug_aranges
                0x00000448       0xd0 build/stm32l4xx_hal_rcc_ex.o
 .debug_aranges
                0x00000518       0x58 build/stm32l4xx_hal_gpio.o
 .debug_aranges
                0x00000570       0x78 build/stm32l4xx_hal_dma.o
 .debug_aranges
                0x000005e8       0xf8 build/stm32l4xx_hal_pwr_ex.o
 .debug_aranges
                0x000006e0       0xa8 build/stm32l4xx_hal_cortex.o
 .debug_aranges
                0x00000788      0x190 build/stm32l4xx_hal_spi.o
 .debug_aranges
                0x00000918      0x1d8 build/stm32l4xx_hal_uart.o
 .debug_aranges
                0x00000af0       0x70 build/stm32l4xx_hal_uart_ex.o
 .debug_aranges
                0x00000b60       0x28 build/system_stm32l4xx.o
 .debug_aranges
                0x00000b88       0x30 build/shell_ext.o
 .debug_aranges
                0x00000bb8       0x28 build/shell_port.o
 .debug_aranges
                0x00000be0      0x1a0 build/shell.o
 .debug_aranges
                0x00000d80       0x20 build/gpio.o
 .debug_aranges
                0x00000da0       0x48 build/adc.o
 .debug_aranges
                0x00000de8       0x38 build/spi.o
 .debug_aranges
                0x00000e20       0x60 build/usart.o
 .debug_aranges
                0x00000e80       0x30 build/timer.o
 .debug_aranges
                0x00000eb0       0x50 build/SX1278_hw.o
 .debug_aranges
                0x00000f00       0x70 build/W25QXX.o
 .debug_aranges
                0x00000f70       0x50 build/led.o
 .debug_aranges
                0x00000fc0       0x38 build/rs485.o
 .debug_aranges
                0x00000ff8       0x40 build/ATGM332D.o
 .debug_aranges
                0x00001038       0x68 build/EC2x.o
 .debug_aranges
                0x000010a0       0xd0 build/SX1278.o
 .debug_aranges
                0x00001170       0x28 build/startup_stm32l431xx.o

.debug_ranges   0x00000000     0x1bc0
 .debug_ranges  0x00000000       0x90 build/main.o
 .debug_ranges  0x00000090       0x70 build/stm32l4xx_it.o
 .debug_ranges  0x00000100       0x28 build/stm32l4xx_hal_msp.o
 .debug_ranges  0x00000128      0x2a0 build/stm32l4xx_hal_adc.o
 .debug_ranges  0x000003c8      0x1d8 build/stm32l4xx_hal_adc_ex.o
 .debug_ranges  0x000005a0      0x128 build/stm32l4xx_hal.o
 .debug_ranges  0x000006c8       0xa0 build/stm32l4xx_hal_rcc.o
 .debug_ranges  0x00000768      0x128 build/stm32l4xx_hal_rcc_ex.o
 .debug_ranges  0x00000890       0x68 build/stm32l4xx_hal_gpio.o
 .debug_ranges  0x000008f8       0x80 build/stm32l4xx_hal_dma.o
 .debug_ranges  0x00000978      0x100 build/stm32l4xx_hal_pwr_ex.o
 .debug_ranges  0x00000a78      0x150 build/stm32l4xx_hal_cortex.o
 .debug_ranges  0x00000bc8      0x228 build/stm32l4xx_hal_spi.o
 .debug_ranges  0x00000df0      0x1e0 build/stm32l4xx_hal_uart.o
 .debug_ranges  0x00000fd0       0x60 build/stm32l4xx_hal_uart_ex.o
 .debug_ranges  0x00001030       0x18 build/system_stm32l4xx.o
 .debug_ranges  0x00001048       0xa8 build/shell_ext.o
 .debug_ranges  0x000010f0       0x18 build/shell_port.o
 .debug_ranges  0x00001108      0x548 build/shell.o
 .debug_ranges  0x00001650       0x40 build/gpio.o
 .debug_ranges  0x00001690       0x38 build/adc.o
 .debug_ranges  0x000016c8       0x28 build/spi.o
 .debug_ranges  0x000016f0       0x98 build/usart.o
 .debug_ranges  0x00001788       0x38 build/timer.o
 .debug_ranges  0x000017c0       0x40 build/SX1278_hw.o
 .debug_ranges  0x00001800       0x78 build/W25QXX.o
 .debug_ranges  0x00001878       0xb8 build/led.o
 .debug_ranges  0x00001930       0x48 build/rs485.o
 .debug_ranges  0x00001978       0x68 build/ATGM332D.o
 .debug_ranges  0x000019e0       0xc8 build/EC2x.o
 .debug_ranges  0x00001aa8       0xf8 build/SX1278.o
 .debug_ranges  0x00001ba0       0x20 build/startup_stm32l431xx.o

.debug_line     0x00000000    0x167ba
 .debug_line    0x00000000      0x5ea build/main.o
 .debug_line    0x000005ea      0x3e6 build/stm32l4xx_it.o
 .debug_line    0x000009d0      0x1cb build/stm32l4xx_hal_msp.o
 .debug_line    0x00000b9b     0x1f1c build/stm32l4xx_hal_adc.o
 .debug_line    0x00002ab7     0x162d build/stm32l4xx_hal_adc_ex.o
 .debug_line    0x000040e4      0x74d build/stm32l4xx_hal.o
 .debug_line    0x00004831      0xebe build/stm32l4xx_hal_rcc.o
 .debug_line    0x000056ef     0x1011 build/stm32l4xx_hal_rcc_ex.o
 .debug_line    0x00006700      0x706 build/stm32l4xx_hal_gpio.o
 .debug_line    0x00006e06      0xa2e build/stm32l4xx_hal_dma.o
 .debug_line    0x00007834      0x7bf build/stm32l4xx_hal_pwr_ex.o
 .debug_line    0x00007ff3      0x7cc build/stm32l4xx_hal_cortex.o
 .debug_line    0x000087bf     0x26ff build/stm32l4xx_hal_spi.o
 .debug_line    0x0000aebe     0x4e20 build/stm32l4xx_hal_uart.o
 .debug_line    0x0000fcde      0xb6a build/stm32l4xx_hal_uart_ex.o
 .debug_line    0x00010848      0x2b5 build/system_stm32l4xx.o
 .debug_line    0x00010afd      0x45e build/shell_ext.o
 .debug_line    0x00010f5b      0x263 build/shell_port.o
 .debug_line    0x000111be     0x1a24 build/shell.o
 .debug_line    0x00012be2      0x291 build/gpio.o
 .debug_line    0x00012e73      0x56e build/adc.o
 .debug_line    0x000133e1      0x3f5 build/spi.o
 .debug_line    0x000137d6      0x62d build/usart.o
 .debug_line    0x00013e03      0x291 build/timer.o
 .debug_line    0x00014094      0x32e build/SX1278_hw.o
 .debug_line    0x000143c2      0x733 build/W25QXX.o
 .debug_line    0x00014af5      0x413 build/led.o
 .debug_line    0x00014f08      0x310 build/rs485.o
 .debug_line    0x00015218      0x49d build/ATGM332D.o
 .debug_line    0x000156b5      0x832 build/EC2x.o
 .debug_line    0x00015ee7      0x85d build/SX1278.o
 .debug_line    0x00016744       0x76 build/startup_stm32l431xx.o

.debug_str      0x00000000     0x6423
 .debug_str     0x00000000      0x8e4 build/main.o
                                0x988 (size before relaxing)
 .debug_str     0x000008e4      0x707 build/stm32l4xx_it.o
                                0xa83 (size before relaxing)
 .debug_str     0x00000feb      0x162 build/stm32l4xx_hal_msp.o
                                0x308 (size before relaxing)
 .debug_str     0x0000114d      0xbf1 build/stm32l4xx_hal_adc.o
                               0x10aa (size before relaxing)
 .debug_str     0x00001d3e      0x4b5 build/stm32l4xx_hal_adc_ex.o
                                0xf1b (size before relaxing)
 .debug_str     0x000021f3      0x865 build/stm32l4xx_hal.o
                                0xc00 (size before relaxing)
 .debug_str     0x00002a58      0x314 build/stm32l4xx_hal_rcc.o
                                0x839 (size before relaxing)
 .debug_str     0x00002d6c      0x64e build/stm32l4xx_hal_rcc_ex.o
                                0xb6a (size before relaxing)
 .debug_str     0x000033ba      0x102 build/stm32l4xx_hal_gpio.o
                                0x51e (size before relaxing)
 .debug_str     0x000034bc      0x245 build/stm32l4xx_hal_dma.o
                                0x623 (size before relaxing)
 .debug_str     0x00003701      0x40a build/stm32l4xx_hal_pwr_ex.o
                                0x70e (size before relaxing)
 .debug_str     0x00003b0b      0x44b build/stm32l4xx_hal_cortex.o
                                0xb1d (size before relaxing)
 .debug_str     0x00003f56      0x581 build/stm32l4xx_hal_spi.o
                                0xbc1 (size before relaxing)
 .debug_str     0x000044d7      0x7a1 build/stm32l4xx_hal_uart.o
                                0xfcf (size before relaxing)
 .debug_str     0x00004c78      0x1da build/stm32l4xx_hal_uart_ex.o
                                0x8f0 (size before relaxing)
 .debug_str     0x00004e52       0x3d build/system_stm32l4xx.o
                                0x3bc (size before relaxing)
 .debug_str     0x00004e8f      0x164 build/shell_ext.o
                                0x53b (size before relaxing)
 .debug_str     0x00004ff3       0xa4 build/shell_port.o
                                0x8cc (size before relaxing)
 .debug_str     0x00005097      0x970 build/shell.o
                                0xd96 (size before relaxing)
 .debug_str     0x00005a07        0xf build/gpio.o
                                0x7d9 (size before relaxing)
 .debug_str     0x00005a16       0xfc build/adc.o
                                0xe9d (size before relaxing)
 .debug_str     0x00005b12       0x1e build/spi.o
                                0xc07 (size before relaxing)
 .debug_str     0x00005b30       0x5b build/usart.o
                               0x1190 (size before relaxing)
 .debug_str     0x00005b8b       0x8d build/timer.o
                                0x247 (size before relaxing)
 .debug_str     0x00005c18       0xb2 build/SX1278_hw.o
                                0x70c (size before relaxing)
 .debug_str     0x00005cca      0x19f build/W25QXX.o
                                0xa80 (size before relaxing)
 .debug_str     0x00005e69       0x8e build/led.o
                                0x6e6 (size before relaxing)
 .debug_str     0x00005ef7       0x6b build/rs485.o
                                0xaaa (size before relaxing)
 .debug_str     0x00005f62       0xdc build/ATGM332D.o
                                0xb3f (size before relaxing)
 .debug_str     0x0000603e      0x20b build/EC2x.o
                                0xcc2 (size before relaxing)
 .debug_str     0x00006249      0x1b6 build/SX1278.o
                                0x804 (size before relaxing)
 .debug_str     0x000063ff       0x24 build/startup_stm32l431xx.o
                                 0x4a (size before relaxing)

.comment        0x00000000       0x49
 .comment       0x00000000       0x49 build/main.o
                                 0x4a (size before relaxing)
 .comment       0x00000049       0x4a build/stm32l4xx_it.o
 .comment       0x00000049       0x4a build/stm32l4xx_hal_msp.o
 .comment       0x00000049       0x4a build/stm32l4xx_hal_adc.o
 .comment       0x00000049       0x4a build/stm32l4xx_hal_adc_ex.o
 .comment       0x00000049       0x4a build/stm32l4xx_hal.o
 .comment       0x00000049       0x4a build/stm32l4xx_hal_rcc.o
 .comment       0x00000049       0x4a build/stm32l4xx_hal_rcc_ex.o
 .comment       0x00000049       0x4a build/stm32l4xx_hal_gpio.o
 .comment       0x00000049       0x4a build/stm32l4xx_hal_dma.o
 .comment       0x00000049       0x4a build/stm32l4xx_hal_pwr_ex.o
 .comment       0x00000049       0x4a build/stm32l4xx_hal_cortex.o
 .comment       0x00000049       0x4a build/stm32l4xx_hal_spi.o
 .comment       0x00000049       0x4a build/stm32l4xx_hal_uart.o
 .comment       0x00000049       0x4a build/stm32l4xx_hal_uart_ex.o
 .comment       0x00000049       0x4a build/system_stm32l4xx.o
 .comment       0x00000049       0x4a build/shell_ext.o
 .comment       0x00000049       0x4a build/shell_port.o
 .comment       0x00000049       0x4a build/shell.o
 .comment       0x00000049       0x4a build/gpio.o
 .comment       0x00000049       0x4a build/adc.o
 .comment       0x00000049       0x4a build/spi.o
 .comment       0x00000049       0x4a build/usart.o
 .comment       0x00000049       0x4a build/timer.o
 .comment       0x00000049       0x4a build/SX1278_hw.o
 .comment       0x00000049       0x4a build/W25QXX.o
 .comment       0x00000049       0x4a build/led.o
 .comment       0x00000049       0x4a build/rs485.o
 .comment       0x00000049       0x4a build/ATGM332D.o
 .comment       0x00000049       0x4a build/EC2x.o
 .comment       0x00000049       0x4a build/SX1278.o

.debug_frame    0x00000000     0x3c6c
 .debug_frame   0x00000000       0xa0 build/main.o
 .debug_frame   0x000000a0      0x114 build/stm32l4xx_it.o
 .debug_frame   0x000001b4       0x28 build/stm32l4xx_hal_msp.o
 .debug_frame   0x000001dc      0x31c build/stm32l4xx_hal_adc.o
 .debug_frame   0x000004f8      0x234 build/stm32l4xx_hal_adc_ex.o
 .debug_frame   0x0000072c      0x29c build/stm32l4xx_hal.o
 .debug_frame   0x000009c8      0x170 build/stm32l4xx_hal_rcc.o
 .debug_frame   0x00000b38      0x238 build/stm32l4xx_hal_rcc_ex.o
 .debug_frame   0x00000d70       0xd4 build/stm32l4xx_hal_gpio.o
 .debug_frame   0x00000e44      0x148 build/stm32l4xx_hal_dma.o
 .debug_frame   0x00000f8c      0x1e8 build/stm32l4xx_hal_pwr_ex.o
 .debug_frame   0x00001174      0x158 build/stm32l4xx_hal_cortex.o
 .debug_frame   0x000012cc      0x5bc build/stm32l4xx_hal_spi.o
 .debug_frame   0x00001888      0x610 build/stm32l4xx_hal_uart.o
 .debug_frame   0x00001e98      0x11c build/stm32l4xx_hal_uart_ex.o
 .debug_frame   0x00001fb4       0x38 build/system_stm32l4xx.o
 .debug_frame   0x00001fec       0x6c build/shell_ext.o
 .debug_frame   0x00002058       0x38 build/shell_port.o
 .debug_frame   0x00002090      0x620 build/shell.o
 .debug_frame   0x000026b0       0x38 build/gpio.o
 .debug_frame   0x000026e8       0xb0 build/adc.o
 .debug_frame   0x00002798       0x90 build/spi.o
 .debug_frame   0x00002828      0x10c build/usart.o
 .debug_frame   0x00002934       0x64 build/timer.o
 .debug_frame   0x00002998       0xb0 build/SX1278_hw.o
 .debug_frame   0x00002a48      0x15c build/W25QXX.o
 .debug_frame   0x00002ba4       0xc4 build/led.o
 .debug_frame   0x00002c68       0x90 build/rs485.o
 .debug_frame   0x00002cf8       0xb4 build/ATGM332D.o
 .debug_frame   0x00002dac      0x15c build/EC2x.o
 .debug_frame   0x00002f08      0x2a0 build/SX1278.o
 .debug_frame   0x000031a8       0x2c e:/gcc-arm-none-eabi-10.3-2021.10-win32/gcc-arm-none-eabi-10.3-2021.10/bin/../lib/gcc/arm-none-eabi/10.3.1/../../../../arm-none-eabi/lib/thumb/v7e-m+fp/hard\libc_nano.a(lib_a-init.o)
 .debug_frame   0x000031d4       0x30 e:/gcc-arm-none-eabi-10.3-2021.10-win32/gcc-arm-none-eabi-10.3-2021.10/bin/../lib/gcc/arm-none-eabi/10.3.1/../../../../arm-none-eabi/lib/thumb/v7e-m+fp/hard\libc_nano.a(lib_a-malloc.o)
 .debug_frame   0x00003204       0x28 e:/gcc-arm-none-eabi-10.3-2021.10-win32/gcc-arm-none-eabi-10.3-2021.10/bin/../lib/gcc/arm-none-eabi/10.3.1/../../../../arm-none-eabi/lib/thumb/v7e-m+fp/hard\libc_nano.a(lib_a-memcpy-stub.o)
 .debug_frame   0x0000322c       0x20 e:/gcc-arm-none-eabi-10.3-2021.10-win32/gcc-arm-none-eabi-10.3-2021.10/bin/../lib/gcc/arm-none-eabi/10.3.1/../../../../arm-none-eabi/lib/thumb/v7e-m+fp/hard\libc_nano.a(lib_a-memset.o)
 .debug_frame   0x0000324c       0x38 e:/gcc-arm-none-eabi-10.3-2021.10-win32/gcc-arm-none-eabi-10.3-2021.10/bin/../lib/gcc/arm-none-eabi/10.3.1/../../../../arm-none-eabi/lib/thumb/v7e-m+fp/hard\libc_nano.a(lib_a-nano-freer.o)
 .debug_frame   0x00003284       0x4c e:/gcc-arm-none-eabi-10.3-2021.10-win32/gcc-arm-none-eabi-10.3-2021.10/bin/../lib/gcc/arm-none-eabi/10.3.1/../../../../arm-none-eabi/lib/thumb/v7e-m+fp/hard\libc_nano.a(lib_a-nano-mallocr.o)
 .debug_frame   0x000032d0       0x2c e:/gcc-arm-none-eabi-10.3-2021.10-win32/gcc-arm-none-eabi-10.3-2021.10/bin/../lib/gcc/arm-none-eabi/10.3.1/../../../../arm-none-eabi/lib/thumb/v7e-m+fp/hard\libc_nano.a(lib_a-sbrkr.o)
 .debug_frame   0x000032fc       0x20 e:/gcc-arm-none-eabi-10.3-2021.10-win32/gcc-arm-none-eabi-10.3-2021.10/bin/../lib/gcc/arm-none-eabi/10.3.1/../../../../arm-none-eabi/lib/thumb/v7e-m+fp/hard\libc_nano.a(lib_a-strcmp.o)
 .debug_frame   0x0000331c       0x28 e:/gcc-arm-none-eabi-10.3-2021.10-win32/gcc-arm-none-eabi-10.3-2021.10/bin/../lib/gcc/arm-none-eabi/10.3.1/../../../../arm-none-eabi/lib/thumb/v7e-m+fp/hard\libc_nano.a(lib_a-strncmp.o)
 .debug_frame   0x00003344       0x2c e:/gcc-arm-none-eabi-10.3-2021.10-win32/gcc-arm-none-eabi-10.3-2021.10/bin/../lib/gcc/arm-none-eabi/10.3.1/../../../../arm-none-eabi/lib/thumb/v7e-m+fp/hard\libc_nano.a(lib_a-strstr.o)
 .debug_frame   0x00003370       0x4c e:/gcc-arm-none-eabi-10.3-2021.10-win32/gcc-arm-none-eabi-10.3-2021.10/bin/../lib/gcc/arm-none-eabi/10.3.1/../../../../arm-none-eabi/lib/thumb/v7e-m+fp/hard\libc_nano.a(lib_a-vsnprintf.o)
 .debug_frame   0x000033bc       0x30 e:/gcc-arm-none-eabi-10.3-2021.10-win32/gcc-arm-none-eabi-10.3-2021.10/bin/../lib/gcc/arm-none-eabi/10.3.1/../../../../arm-none-eabi/lib/thumb/v7e-m+fp/hard\libc_nano.a(lib_a-mlock.o)
 .debug_frame   0x000033ec       0x90 e:/gcc-arm-none-eabi-10.3-2021.10-win32/gcc-arm-none-eabi-10.3-2021.10/bin/../lib/gcc/arm-none-eabi/10.3.1/../../../../arm-none-eabi/lib/thumb/v7e-m+fp/hard\libc_nano.a(lib_a-nano-svfprintf.o)
 .debug_frame   0x0000347c       0x60 e:/gcc-arm-none-eabi-10.3-2021.10-win32/gcc-arm-none-eabi-10.3-2021.10/bin/../lib/gcc/arm-none-eabi/10.3.1/../../../../arm-none-eabi/lib/thumb/v7e-m+fp/hard\libc_nano.a(lib_a-nano-vfprintf_i.o)
 .debug_frame   0x000034dc       0x5c e:/gcc-arm-none-eabi-10.3-2021.10-win32/gcc-arm-none-eabi-10.3-2021.10/bin/../lib/gcc/arm-none-eabi/10.3.1/../../../../arm-none-eabi/lib/thumb/v7e-m+fp/hard\libc_nano.a(lib_a-reent.o)
 .debug_frame   0x00003538       0xb0 e:/gcc-arm-none-eabi-10.3-2021.10-win32/gcc-arm-none-eabi-10.3-2021.10/bin/../lib/gcc/arm-none-eabi/10.3.1/../../../../arm-none-eabi/lib/thumb/v7e-m+fp/hard\libc_nano.a(lib_a-lock.o)
 .debug_frame   0x000035e8       0x28 e:/gcc-arm-none-eabi-10.3-2021.10-win32/gcc-arm-none-eabi-10.3-2021.10/bin/../lib/gcc/arm-none-eabi/10.3.1/../../../../arm-none-eabi/lib/thumb/v7e-m+fp/hard\libc_nano.a(lib_a-memmove.o)
 .debug_frame   0x00003610       0x3c e:/gcc-arm-none-eabi-10.3-2021.10-win32/gcc-arm-none-eabi-10.3-2021.10/bin/../lib/gcc/arm-none-eabi/10.3.1/../../../../arm-none-eabi/lib/thumb/v7e-m+fp/hard\libc_nano.a(lib_a-nano-reallocr.o)
 .debug_frame   0x0000364c       0x20 e:/gcc-arm-none-eabi-10.3-2021.10-win32/gcc-arm-none-eabi-10.3-2021.10/bin/../lib/gcc/arm-none-eabi/10.3.1/../../../../arm-none-eabi/lib/thumb/v7e-m+fp/hard\libc_nano.a(lib_a-nano-msizer.o)
 .debug_frame   0x0000366c       0x44 e:/gcc-arm-none-eabi-10.3-2021.10-win32/gcc-arm-none-eabi-10.3-2021.10/bin/../lib/gcc/arm-none-eabi/10.3.1/../../../../arm-none-eabi/lib/thumb/v7e-m+fp/hard\libm.a(lib_a-w_pow.o)
 .debug_frame   0x000036b0      0x12c e:/gcc-arm-none-eabi-10.3-2021.10-win32/gcc-arm-none-eabi-10.3-2021.10/bin/../lib/gcc/arm-none-eabi/10.3.1/../../../../arm-none-eabi/lib/thumb/v7e-m+fp/hard\libm.a(lib_a-e_pow.o)
 .debug_frame   0x000037dc       0x30 e:/gcc-arm-none-eabi-10.3-2021.10-win32/gcc-arm-none-eabi-10.3-2021.10/bin/../lib/gcc/arm-none-eabi/10.3.1/../../../../arm-none-eabi/lib/thumb/v7e-m+fp/hard\libm.a(lib_a-e_sqrt.o)
 .debug_frame   0x0000380c      0x124 e:/gcc-arm-none-eabi-10.3-2021.10-win32/gcc-arm-none-eabi-10.3-2021.10/bin/../lib/gcc/arm-none-eabi/10.3.1/../../../../arm-none-eabi/lib/thumb/v7e-m+fp/hard\libm.a(lib_a-math_err.o)
 .debug_frame   0x00003930       0x20 e:/gcc-arm-none-eabi-10.3-2021.10-win32/gcc-arm-none-eabi-10.3-2021.10/bin/../lib/gcc/arm-none-eabi/10.3.1/../../../../arm-none-eabi/lib/thumb/v7e-m+fp/hard\libm.a(lib_a-s_fabs.o)
 .debug_frame   0x00003950       0x28 e:/gcc-arm-none-eabi-10.3-2021.10-win32/gcc-arm-none-eabi-10.3-2021.10/bin/../lib/gcc/arm-none-eabi/10.3.1/../../../../arm-none-eabi/lib/thumb/v7e-m+fp/hard\libm.a(lib_a-s_finite.o)
 .debug_frame   0x00003978       0x2c e:/gcc-arm-none-eabi-10.3-2021.10-win32/gcc-arm-none-eabi-10.3-2021.10/bin/../lib/gcc/arm-none-eabi/10.3.1/../../../../arm-none-eabi/lib/thumb/v7e-m+fp/hard\libm.a(lib_a-s_scalbn.o)
 .debug_frame   0x000039a4       0x20 e:/gcc-arm-none-eabi-10.3-2021.10-win32/gcc-arm-none-eabi-10.3-2021.10/bin/../lib/gcc/arm-none-eabi/10.3.1/../../../../arm-none-eabi/lib/thumb/v7e-m+fp/hard\libnosys.a(sbrk.o)
 .debug_frame   0x000039c4       0xac e:/gcc-arm-none-eabi-10.3-2021.10-win32/gcc-arm-none-eabi-10.3-2021.10/bin/../lib/gcc/arm-none-eabi/10.3.1/thumb/v7e-m+fp/hard\libgcc.a(_arm_addsubdf3.o)
 .debug_frame   0x00003a70       0x50 e:/gcc-arm-none-eabi-10.3-2021.10-win32/gcc-arm-none-eabi-10.3-2021.10/bin/../lib/gcc/arm-none-eabi/10.3.1/thumb/v7e-m+fp/hard\libgcc.a(_arm_muldivdf3.o)
 .debug_frame   0x00003ac0       0xc4 e:/gcc-arm-none-eabi-10.3-2021.10-win32/gcc-arm-none-eabi-10.3-2021.10/bin/../lib/gcc/arm-none-eabi/10.3.1/thumb/v7e-m+fp/hard\libgcc.a(_arm_cmpdf2.o)
 .debug_frame   0x00003b84       0x20 e:/gcc-arm-none-eabi-10.3-2021.10-win32/gcc-arm-none-eabi-10.3-2021.10/bin/../lib/gcc/arm-none-eabi/10.3.1/thumb/v7e-m+fp/hard\libgcc.a(_arm_unorddf2.o)
 .debug_frame   0x00003ba4       0x24 e:/gcc-arm-none-eabi-10.3-2021.10-win32/gcc-arm-none-eabi-10.3-2021.10/bin/../lib/gcc/arm-none-eabi/10.3.1/thumb/v7e-m+fp/hard\libgcc.a(_arm_fixunsdfsi.o)
 .debug_frame   0x00003bc8       0x24 e:/gcc-arm-none-eabi-10.3-2021.10-win32/gcc-arm-none-eabi-10.3-2021.10/bin/../lib/gcc/arm-none-eabi/10.3.1/thumb/v7e-m+fp/hard\libgcc.a(_arm_truncdfsf2.o)
 .debug_frame   0x00003bec       0x2c e:/gcc-arm-none-eabi-10.3-2021.10-win32/gcc-arm-none-eabi-10.3-2021.10/bin/../lib/gcc/arm-none-eabi/10.3.1/thumb/v7e-m+fp/hard\libgcc.a(_aeabi_uldivmod.o)
 .debug_frame   0x00003c18       0x34 e:/gcc-arm-none-eabi-10.3-2021.10-win32/gcc-arm-none-eabi-10.3-2021.10/bin/../lib/gcc/arm-none-eabi/10.3.1/thumb/v7e-m+fp/hard\libgcc.a(_udivmoddi4.o)
 .debug_frame   0x00003c4c       0x20 e:/gcc-arm-none-eabi-10.3-2021.10-win32/gcc-arm-none-eabi-10.3-2021.10/bin/../lib/gcc/arm-none-eabi/10.3.1/../../../../arm-none-eabi/lib/thumb/v7e-m+fp/hard\libc_nano.a(lib_a-errno.o)

Cross Reference Table

Symbol                                            File
ADC1_IRQHandler                                   build/startup_stm32l431xx.o
ADC_Average_Get                                   build/adc.o
ADC_ConversionStop                                build/stm32l4xx_hal_adc.o
                                                  build/stm32l4xx_hal_adc_ex.o
ADC_DMAConvCplt                                   build/stm32l4xx_hal_adc.o
ADC_DMAError                                      build/stm32l4xx_hal_adc.o
ADC_DMAHalfConvCplt                               build/stm32l4xx_hal_adc.o
ADC_Disable                                       build/stm32l4xx_hal_adc.o
                                                  build/stm32l4xx_hal_adc_ex.o
ADC_Enable                                        build/stm32l4xx_hal_adc.o
                                                  build/stm32l4xx_hal_adc_ex.o
AHBPrescTable                                     build/system_stm32l4xx.o
                                                  build/stm32l4xx_hal_rcc.o
APBPrescTable                                     build/system_stm32l4xx.o
                                                  build/stm32l4xx_hal_rcc.o
BDS_Test                                          build/ATGM332D.o
                                                  build/main.o
BSP_W25Qx_Erase_Block                             build/W25QXX.o
BSP_W25Qx_Erase_Chip                              build/W25QXX.o
BSP_W25Qx_Erase_Page                              build/W25QXX.o
BSP_W25Qx_Init                                    build/W25QXX.o
                                                  build/main.o
BSP_W25Qx_Read                                    build/W25QXX.o
BSP_W25Qx_Read_ID                                 build/W25QXX.o
BSP_W25Qx_Read_JEDEC_ID                           build/W25QXX.o
BSP_W25Qx_Write                                   build/W25QXX.o
BSP_W25Qx_WriteEnable                             build/W25QXX.o
Battery_Test                                      build/adc.o
                                                  build/main.o
BusFault_Handler                                  build/stm32l4xx_it.o
CAN1_RX0_IRQHandler                               build/startup_stm32l431xx.o
CAN1_RX1_IRQHandler                               build/startup_stm32l431xx.o
CAN1_SCE_IRQHandler                               build/startup_stm32l431xx.o
CAN1_TX_IRQHandler                                build/startup_stm32l431xx.o
COMP_IRQHandler                                   build/startup_stm32l431xx.o
CRS_IRQHandler                                    build/startup_stm32l431xx.o
DMA1_Channel1_IRQHandler                          build/startup_stm32l431xx.o
DMA1_Channel2_IRQHandler                          build/startup_stm32l431xx.o
DMA1_Channel3_IRQHandler                          build/startup_stm32l431xx.o
DMA1_Channel4_IRQHandler                          build/startup_stm32l431xx.o
DMA1_Channel5_IRQHandler                          build/startup_stm32l431xx.o
DMA1_Channel6_IRQHandler                          build/startup_stm32l431xx.o
DMA1_Channel7_IRQHandler                          build/startup_stm32l431xx.o
DMA2_Channel1_IRQHandler                          build/startup_stm32l431xx.o
DMA2_Channel2_IRQHandler                          build/startup_stm32l431xx.o
DMA2_Channel3_IRQHandler                          build/startup_stm32l431xx.o
DMA2_Channel4_IRQHandler                          build/startup_stm32l431xx.o
DMA2_Channel5_IRQHandler                          build/startup_stm32l431xx.o
DMA2_Channel6_IRQHandler                          build/startup_stm32l431xx.o
DMA2_Channel7_IRQHandler                          build/startup_stm32l431xx.o
DebugMon_Handler                                  build/stm32l4xx_it.o
Default_Handler                                   build/startup_stm32l431xx.o
Delay_ms                                          build/stm32l4xx_hal.o
                                                  build/EC2x.o
                                                  build/ATGM332D.o
                                                  build/led.o
                                                  build/W25QXX.o
                                                  build/SX1278_hw.o
                                                  build/main.o
Delay_us                                          build/stm32l4xx_hal.o
DeviceID_Print                                    build/main.o
EC2x_Test                                         build/EC2x.o
                                                  build/main.o
EXTI0_IRQHandler                                  build/startup_stm32l431xx.o
EXTI15_10_IRQHandler                              build/startup_stm32l431xx.o
EXTI1_IRQHandler                                  build/startup_stm32l431xx.o
EXTI2_IRQHandler                                  build/startup_stm32l431xx.o
EXTI3_IRQHandler                                  build/startup_stm32l431xx.o
EXTI4_IRQHandler                                  build/startup_stm32l431xx.o
EXTI9_5_IRQHandler                                build/stm32l4xx_it.o
Error_Handler                                     build/main.o
                                                  build/usart.o
                                                  build/spi.o
                                                  build/adc.o
FLASH_FlushCaches                                 build/stm32l4xx_hal_flash_ex.o
                                                  build/stm32l4xx_hal_flash.o
FLASH_IRQHandler                                  build/startup_stm32l431xx.o
FLASH_PageErase                                   build/stm32l4xx_hal_flash_ex.o
                                                  build/stm32l4xx_hal_flash.o
FLASH_WaitForLastOperation                        build/stm32l4xx_hal_flash.o
                                                  build/stm32l4xx_hal_flash_ex.o
FPU_IRQHandler                                    build/startup_stm32l431xx.o
FSM_EventHandle                                   build/fsm.o
FSM_Regist                                        build/fsm.o
FSM_StateTransfer                                 build/fsm.o
FindTrans                                         build/fsm.o
Flash_Test                                        build/W25QXX.o
                                                  build/main.o
HAL_ADCEx_Calibration_GetValue                    build/stm32l4xx_hal_adc_ex.o
HAL_ADCEx_Calibration_SetValue                    build/stm32l4xx_hal_adc_ex.o
HAL_ADCEx_Calibration_Start                       build/stm32l4xx_hal_adc_ex.o
                                                  build/adc.o
HAL_ADCEx_DisableInjectedQueue                    build/stm32l4xx_hal_adc_ex.o
HAL_ADCEx_DisableVoltageRegulator                 build/stm32l4xx_hal_adc_ex.o
HAL_ADCEx_EnableInjectedQueue                     build/stm32l4xx_hal_adc_ex.o
HAL_ADCEx_EndOfSamplingCallback                   build/stm32l4xx_hal_adc_ex.o
                                                  build/stm32l4xx_hal_adc.o
HAL_ADCEx_EnterADCDeepPowerDownMode               build/stm32l4xx_hal_adc_ex.o
HAL_ADCEx_InjectedConfigChannel                   build/stm32l4xx_hal_adc_ex.o
HAL_ADCEx_InjectedConvCpltCallback                build/stm32l4xx_hal_adc_ex.o
                                                  build/stm32l4xx_hal_adc.o
HAL_ADCEx_InjectedGetValue                        build/stm32l4xx_hal_adc_ex.o
HAL_ADCEx_InjectedPollForConversion               build/stm32l4xx_hal_adc_ex.o
HAL_ADCEx_InjectedQueueOverflowCallback           build/stm32l4xx_hal_adc_ex.o
                                                  build/stm32l4xx_hal_adc.o
HAL_ADCEx_InjectedStart                           build/stm32l4xx_hal_adc_ex.o
HAL_ADCEx_InjectedStart_IT                        build/stm32l4xx_hal_adc_ex.o
HAL_ADCEx_InjectedStop                            build/stm32l4xx_hal_adc_ex.o
HAL_ADCEx_InjectedStop_IT                         build/stm32l4xx_hal_adc_ex.o
HAL_ADCEx_LevelOutOfWindow2Callback               build/stm32l4xx_hal_adc_ex.o
                                                  build/stm32l4xx_hal_adc.o
HAL_ADCEx_LevelOutOfWindow3Callback               build/stm32l4xx_hal_adc_ex.o
                                                  build/stm32l4xx_hal_adc.o
HAL_ADCEx_RegularStop                             build/stm32l4xx_hal_adc_ex.o
HAL_ADCEx_RegularStop_DMA                         build/stm32l4xx_hal_adc_ex.o
HAL_ADCEx_RegularStop_IT                          build/stm32l4xx_hal_adc_ex.o
HAL_ADC_AnalogWDGConfig                           build/stm32l4xx_hal_adc.o
HAL_ADC_ConfigChannel                             build/stm32l4xx_hal_adc.o
                                                  build/adc.o
HAL_ADC_ConvCpltCallback                          build/stm32l4xx_hal_adc.o
HAL_ADC_ConvHalfCpltCallback                      build/stm32l4xx_hal_adc.o
HAL_ADC_DeInit                                    build/stm32l4xx_hal_adc.o
HAL_ADC_ErrorCallback                             build/stm32l4xx_hal_adc.o
HAL_ADC_GetError                                  build/stm32l4xx_hal_adc.o
HAL_ADC_GetState                                  build/stm32l4xx_hal_adc.o
                                                  build/adc.o
HAL_ADC_GetValue                                  build/stm32l4xx_hal_adc.o
                                                  build/adc.o
HAL_ADC_IRQHandler                                build/stm32l4xx_hal_adc.o
HAL_ADC_Init                                      build/stm32l4xx_hal_adc.o
                                                  build/adc.o
HAL_ADC_LevelOutOfWindowCallback                  build/stm32l4xx_hal_adc.o
HAL_ADC_MspDeInit                                 build/adc.o
                                                  build/stm32l4xx_hal_adc.o
HAL_ADC_MspInit                                   build/adc.o
                                                  build/stm32l4xx_hal_adc.o
HAL_ADC_PollForConversion                         build/stm32l4xx_hal_adc.o
                                                  build/adc.o
HAL_ADC_PollForEvent                              build/stm32l4xx_hal_adc.o
HAL_ADC_Start                                     build/stm32l4xx_hal_adc.o
                                                  build/adc.o
HAL_ADC_Start_DMA                                 build/stm32l4xx_hal_adc.o
HAL_ADC_Start_IT                                  build/stm32l4xx_hal_adc.o
HAL_ADC_Stop                                      build/stm32l4xx_hal_adc.o
                                                  build/adc.o
HAL_ADC_Stop_DMA                                  build/stm32l4xx_hal_adc.o
HAL_ADC_Stop_IT                                   build/stm32l4xx_hal_adc.o
HAL_DBGMCU_DisableDBGSleepMode                    build/stm32l4xx_hal.o
HAL_DBGMCU_DisableDBGStandbyMode                  build/stm32l4xx_hal.o
HAL_DBGMCU_DisableDBGStopMode                     build/stm32l4xx_hal.o
HAL_DBGMCU_EnableDBGSleepMode                     build/stm32l4xx_hal.o
HAL_DBGMCU_EnableDBGStandbyMode                   build/stm32l4xx_hal.o
HAL_DBGMCU_EnableDBGStopMode                      build/stm32l4xx_hal.o
HAL_DMA_Abort                                     build/stm32l4xx_hal_dma.o
                                                  build/stm32l4xx_hal_uart.o
                                                  build/stm32l4xx_hal_spi.o
                                                  build/stm32l4xx_hal_adc_ex.o
                                                  build/stm32l4xx_hal_adc.o
HAL_DMA_Abort_IT                                  build/stm32l4xx_hal_dma.o
                                                  build/stm32l4xx_hal_uart.o
                                                  build/stm32l4xx_hal_spi.o
                                                  build/stm32l4xx_hal_i2c.o
HAL_DMA_DeInit                                    build/stm32l4xx_hal_dma.o
HAL_DMA_GetError                                  build/stm32l4xx_hal_dma.o
                                                  build/stm32l4xx_hal_uart.o
HAL_DMA_GetState                                  build/stm32l4xx_hal_dma.o
                                                  build/stm32l4xx_hal_i2c.o
HAL_DMA_IRQHandler                                build/stm32l4xx_hal_dma.o
HAL_DMA_Init                                      build/stm32l4xx_hal_dma.o
HAL_DMA_PollForTransfer                           build/stm32l4xx_hal_dma.o
HAL_DMA_RegisterCallback                          build/stm32l4xx_hal_dma.o
HAL_DMA_Start                                     build/stm32l4xx_hal_dma.o
HAL_DMA_Start_IT                                  build/stm32l4xx_hal_dma.o
                                                  build/stm32l4xx_hal_uart.o
                                                  build/stm32l4xx_hal_spi.o
                                                  build/stm32l4xx_hal_i2c.o
                                                  build/stm32l4xx_hal_adc.o
HAL_DMA_UnRegisterCallback                        build/stm32l4xx_hal_dma.o
HAL_DeInit                                        build/stm32l4xx_hal.o
HAL_Delay                                         build/stm32l4xx_hal.o
                                                  build/queue.o
HAL_EXTI_ClearConfigLine                          build/stm32l4xx_hal_exti.o
HAL_EXTI_ClearPending                             build/stm32l4xx_hal_exti.o
HAL_EXTI_GenerateSWI                              build/stm32l4xx_hal_exti.o
HAL_EXTI_GetConfigLine                            build/stm32l4xx_hal_exti.o
HAL_EXTI_GetHandle                                build/stm32l4xx_hal_exti.o
HAL_EXTI_GetPending                               build/stm32l4xx_hal_exti.o
HAL_EXTI_IRQHandler                               build/stm32l4xx_hal_exti.o
HAL_EXTI_RegisterCallback                         build/stm32l4xx_hal_exti.o
HAL_EXTI_SetConfigLine                            build/stm32l4xx_hal_exti.o
HAL_FLASHEx_DisableRunPowerDown                   build/stm32l4xx_hal_flash_ramfunc.o
HAL_FLASHEx_EnableRunPowerDown                    build/stm32l4xx_hal_flash_ramfunc.o
HAL_FLASHEx_Erase                                 build/stm32l4xx_hal_flash_ex.o
HAL_FLASHEx_Erase_IT                              build/stm32l4xx_hal_flash_ex.o
HAL_FLASHEx_OBGetConfig                           build/stm32l4xx_hal_flash_ex.o
HAL_FLASHEx_OBProgram                             build/stm32l4xx_hal_flash_ex.o
HAL_FLASH_EndOfOperationCallback                  build/stm32l4xx_hal_flash.o
HAL_FLASH_GetError                                build/stm32l4xx_hal_flash.o
HAL_FLASH_IRQHandler                              build/stm32l4xx_hal_flash.o
HAL_FLASH_Lock                                    build/stm32l4xx_hal_flash.o
HAL_FLASH_OB_Launch                               build/stm32l4xx_hal_flash.o
HAL_FLASH_OB_Lock                                 build/stm32l4xx_hal_flash.o
HAL_FLASH_OB_Unlock                               build/stm32l4xx_hal_flash.o
HAL_FLASH_OperationErrorCallback                  build/stm32l4xx_hal_flash.o
HAL_FLASH_Program                                 build/stm32l4xx_hal_flash.o
HAL_FLASH_Program_IT                              build/stm32l4xx_hal_flash.o
HAL_FLASH_Unlock                                  build/stm32l4xx_hal_flash.o
HAL_GPIO_DeInit                                   build/stm32l4xx_hal_gpio.o
                                                  build/usart.o
                                                  build/spi.o
                                                  build/adc.o
HAL_GPIO_EXTI_Callback                            build/stm32l4xx_hal_gpio.o
HAL_GPIO_EXTI_IRQHandler                          build/stm32l4xx_hal_gpio.o
HAL_GPIO_Init                                     build/stm32l4xx_hal_gpio.o
                                                  build/EC2x.o
                                                  build/ATGM332D.o
                                                  build/rs485.o
                                                  build/led.o
                                                  build/usart.o
                                                  build/spi.o
                                                  build/adc.o
                                                  build/gpio.o
                                                  build/stm32l4xx_hal_rcc_ex.o
                                                  build/stm32l4xx_hal_rcc.o
HAL_GPIO_LockPin                                  build/stm32l4xx_hal_gpio.o
HAL_GPIO_ReadPin                                  build/stm32l4xx_hal_gpio.o
                                                  build/SX1278_hw.o
                                                  build/stm32l4xx_it.o
HAL_GPIO_TogglePin                                build/stm32l4xx_hal_gpio.o
                                                  build/led.o
HAL_GPIO_WritePin                                 build/stm32l4xx_hal_gpio.o
                                                  build/EC2x.o
                                                  build/ATGM332D.o
                                                  build/rs485.o
                                                  build/led.o
                                                  build/W25QXX.o
                                                  build/SX1278_hw.o
                                                  build/gpio.o
HAL_GetDEVID                                      build/stm32l4xx_hal.o
HAL_GetHalVersion                                 build/stm32l4xx_hal.o
HAL_GetREVID                                      build/stm32l4xx_hal.o
HAL_GetTick                                       build/stm32l4xx_hal.o
                                                  build/W25QXX.o
                                                  build/stm32l4xx_hal_uart_ex.o
                                                  build/stm32l4xx_hal_uart.o
                                                  build/stm32l4xx_hal_spi.o
                                                  build/stm32l4xx_hal_dma.o
                                                  build/stm32l4xx_hal_flash.o
                                                  build/stm32l4xx_hal_rcc_ex.o
                                                  build/stm32l4xx_hal_rcc.o
                                                  build/stm32l4xx_hal_i2c.o
                                                  build/stm32l4xx_hal_adc_ex.o
                                                  build/stm32l4xx_hal_adc.o
HAL_GetTickFreq                                   build/stm32l4xx_hal.o
HAL_GetTickPrio                                   build/stm32l4xx_hal.o
HAL_GetUIDw0                                      build/stm32l4xx_hal.o
HAL_GetUIDw1                                      build/stm32l4xx_hal.o
HAL_GetUIDw2                                      build/stm32l4xx_hal.o
HAL_HalfDuplex_EnableReceiver                     build/stm32l4xx_hal_uart.o
HAL_HalfDuplex_EnableTransmitter                  build/stm32l4xx_hal_uart.o
HAL_HalfDuplex_Init                               build/stm32l4xx_hal_uart.o
HAL_I2CEx_ConfigAnalogFilter                      build/stm32l4xx_hal_i2c_ex.o
HAL_I2CEx_ConfigDigitalFilter                     build/stm32l4xx_hal_i2c_ex.o
HAL_I2CEx_DisableFastModePlus                     build/stm32l4xx_hal_i2c_ex.o
HAL_I2CEx_DisableWakeUp                           build/stm32l4xx_hal_i2c_ex.o
HAL_I2CEx_EnableFastModePlus                      build/stm32l4xx_hal_i2c_ex.o
HAL_I2CEx_EnableWakeUp                            build/stm32l4xx_hal_i2c_ex.o
HAL_I2C_AbortCpltCallback                         build/stm32l4xx_hal_i2c.o
HAL_I2C_AddrCallback                              build/stm32l4xx_hal_i2c.o
HAL_I2C_DeInit                                    build/stm32l4xx_hal_i2c.o
HAL_I2C_DisableListen_IT                          build/stm32l4xx_hal_i2c.o
HAL_I2C_ER_IRQHandler                             build/stm32l4xx_hal_i2c.o
HAL_I2C_EV_IRQHandler                             build/stm32l4xx_hal_i2c.o
HAL_I2C_EnableListen_IT                           build/stm32l4xx_hal_i2c.o
HAL_I2C_ErrorCallback                             build/stm32l4xx_hal_i2c.o
HAL_I2C_GetError                                  build/stm32l4xx_hal_i2c.o
HAL_I2C_GetMode                                   build/stm32l4xx_hal_i2c.o
HAL_I2C_GetState                                  build/stm32l4xx_hal_i2c.o
HAL_I2C_Init                                      build/stm32l4xx_hal_i2c.o
HAL_I2C_IsDeviceReady                             build/stm32l4xx_hal_i2c.o
HAL_I2C_ListenCpltCallback                        build/stm32l4xx_hal_i2c.o
HAL_I2C_MasterRxCpltCallback                      build/stm32l4xx_hal_i2c.o
HAL_I2C_MasterTxCpltCallback                      build/stm32l4xx_hal_i2c.o
HAL_I2C_Master_Abort_IT                           build/stm32l4xx_hal_i2c.o
HAL_I2C_Master_Receive                            build/stm32l4xx_hal_i2c.o
HAL_I2C_Master_Receive_DMA                        build/stm32l4xx_hal_i2c.o
HAL_I2C_Master_Receive_IT                         build/stm32l4xx_hal_i2c.o
HAL_I2C_Master_Seq_Receive_DMA                    build/stm32l4xx_hal_i2c.o
HAL_I2C_Master_Seq_Receive_IT                     build/stm32l4xx_hal_i2c.o
HAL_I2C_Master_Seq_Transmit_DMA                   build/stm32l4xx_hal_i2c.o
HAL_I2C_Master_Seq_Transmit_IT                    build/stm32l4xx_hal_i2c.o
HAL_I2C_Master_Transmit                           build/stm32l4xx_hal_i2c.o
HAL_I2C_Master_Transmit_DMA                       build/stm32l4xx_hal_i2c.o
HAL_I2C_Master_Transmit_IT                        build/stm32l4xx_hal_i2c.o
HAL_I2C_MemRxCpltCallback                         build/stm32l4xx_hal_i2c.o
HAL_I2C_MemTxCpltCallback                         build/stm32l4xx_hal_i2c.o
HAL_I2C_Mem_Read                                  build/stm32l4xx_hal_i2c.o
HAL_I2C_Mem_Read_DMA                              build/stm32l4xx_hal_i2c.o
HAL_I2C_Mem_Read_IT                               build/stm32l4xx_hal_i2c.o
HAL_I2C_Mem_Write                                 build/stm32l4xx_hal_i2c.o
HAL_I2C_Mem_Write_DMA                             build/stm32l4xx_hal_i2c.o
HAL_I2C_Mem_Write_IT                              build/stm32l4xx_hal_i2c.o
HAL_I2C_MspDeInit                                 build/stm32l4xx_hal_i2c.o
HAL_I2C_MspInit                                   build/stm32l4xx_hal_i2c.o
HAL_I2C_SlaveRxCpltCallback                       build/stm32l4xx_hal_i2c.o
HAL_I2C_SlaveTxCpltCallback                       build/stm32l4xx_hal_i2c.o
HAL_I2C_Slave_Receive                             build/stm32l4xx_hal_i2c.o
HAL_I2C_Slave_Receive_DMA                         build/stm32l4xx_hal_i2c.o
HAL_I2C_Slave_Receive_IT                          build/stm32l4xx_hal_i2c.o
HAL_I2C_Slave_Seq_Receive_DMA                     build/stm32l4xx_hal_i2c.o
HAL_I2C_Slave_Seq_Receive_IT                      build/stm32l4xx_hal_i2c.o
HAL_I2C_Slave_Seq_Transmit_DMA                    build/stm32l4xx_hal_i2c.o
HAL_I2C_Slave_Seq_Transmit_IT                     build/stm32l4xx_hal_i2c.o
HAL_I2C_Slave_Transmit                            build/stm32l4xx_hal_i2c.o
HAL_I2C_Slave_Transmit_DMA                        build/stm32l4xx_hal_i2c.o
HAL_I2C_Slave_Transmit_IT                         build/stm32l4xx_hal_i2c.o
HAL_IncTick                                       build/stm32l4xx_hal.o
                                                  build/stm32l4xx_it.o
HAL_Init                                          build/stm32l4xx_hal.o
                                                  build/main.o
HAL_InitTick                                      build/stm32l4xx_hal.o
                                                  build/stm32l4xx_hal_rcc.o
HAL_LIN_Init                                      build/stm32l4xx_hal_uart.o
HAL_LIN_SendBreak                                 build/stm32l4xx_hal_uart.o
HAL_MPU_ConfigRegion                              build/stm32l4xx_hal_cortex.o
HAL_MPU_Disable                                   build/stm32l4xx_hal_cortex.o
HAL_MPU_Enable                                    build/stm32l4xx_hal_cortex.o
HAL_MspDeInit                                     build/stm32l4xx_hal.o
HAL_MspInit                                       build/stm32l4xx_hal_msp.o
HAL_MultiProcessorEx_AddressLength_Set            build/stm32l4xx_hal_uart_ex.o
HAL_MultiProcessor_DisableMuteMode                build/stm32l4xx_hal_uart.o
HAL_MultiProcessor_EnableMuteMode                 build/stm32l4xx_hal_uart.o
HAL_MultiProcessor_EnterMuteMode                  build/stm32l4xx_hal_uart.o
HAL_MultiProcessor_Init                           build/stm32l4xx_hal_uart.o
HAL_NVIC_ClearPendingIRQ                          build/stm32l4xx_hal_cortex.o
HAL_NVIC_DisableIRQ                               build/stm32l4xx_hal_cortex.o
                                                  build/usart.o
                                                  build/spi.o
HAL_NVIC_EnableIRQ                                build/stm32l4xx_hal_cortex.o
                                                  build/usart.o
                                                  build/gpio.o
HAL_NVIC_GetActive                                build/stm32l4xx_hal_cortex.o
HAL_NVIC_GetPendingIRQ                            build/stm32l4xx_hal_cortex.o
HAL_NVIC_GetPriority                              build/stm32l4xx_hal_cortex.o
HAL_NVIC_GetPriorityGrouping                      build/stm32l4xx_hal_cortex.o
HAL_NVIC_SetPendingIRQ                            build/stm32l4xx_hal_cortex.o
HAL_NVIC_SetPriority                              build/stm32l4xx_hal_cortex.o
                                                  build/usart.o
                                                  build/gpio.o
                                                  build/stm32l4xx_hal.o
HAL_NVIC_SetPriorityGrouping                      build/stm32l4xx_hal_cortex.o
                                                  build/stm32l4xx_hal.o
                                                  build/stm32l4xx_hal_msp.o
HAL_NVIC_SystemReset                              build/stm32l4xx_hal_cortex.o
HAL_PWREx_ConfigPVM                               build/stm32l4xx_hal_pwr_ex.o
HAL_PWREx_ControlVoltageScaling                   build/stm32l4xx_hal_pwr_ex.o
                                                  build/main.o
HAL_PWREx_DisableBatteryCharging                  build/stm32l4xx_hal_pwr_ex.o
HAL_PWREx_DisableGPIOPullDown                     build/stm32l4xx_hal_pwr_ex.o
HAL_PWREx_DisableGPIOPullUp                       build/stm32l4xx_hal_pwr_ex.o
HAL_PWREx_DisableInternalWakeUpLine               build/stm32l4xx_hal_pwr_ex.o
HAL_PWREx_DisableLowPowerRunMode                  build/stm32l4xx_hal_pwr_ex.o
                                                  build/stm32l4xx_hal_pwr.o
HAL_PWREx_DisablePVM3                             build/stm32l4xx_hal_pwr_ex.o
HAL_PWREx_DisablePVM4                             build/stm32l4xx_hal_pwr_ex.o
HAL_PWREx_DisablePullUpPullDownConfig             build/stm32l4xx_hal_pwr_ex.o
HAL_PWREx_DisableSRAM2ContentRetention            build/stm32l4xx_hal_pwr_ex.o
HAL_PWREx_EnableBatteryCharging                   build/stm32l4xx_hal_pwr_ex.o
HAL_PWREx_EnableGPIOPullDown                      build/stm32l4xx_hal_pwr_ex.o
HAL_PWREx_EnableGPIOPullUp                        build/stm32l4xx_hal_pwr_ex.o
HAL_PWREx_EnableInternalWakeUpLine                build/stm32l4xx_hal_pwr_ex.o
HAL_PWREx_EnableLowPowerRunMode                   build/stm32l4xx_hal_pwr_ex.o
                                                  build/stm32l4xx_hal_pwr.o
HAL_PWREx_EnablePVM3                              build/stm32l4xx_hal_pwr_ex.o
HAL_PWREx_EnablePVM4                              build/stm32l4xx_hal_pwr_ex.o
HAL_PWREx_EnablePullUpPullDownConfig              build/stm32l4xx_hal_pwr_ex.o
HAL_PWREx_EnableSRAM2ContentRetention             build/stm32l4xx_hal_pwr_ex.o
HAL_PWREx_EnterSHUTDOWNMode                       build/stm32l4xx_hal_pwr_ex.o
HAL_PWREx_EnterSTOP0Mode                          build/stm32l4xx_hal_pwr_ex.o
                                                  build/stm32l4xx_hal_pwr.o
HAL_PWREx_EnterSTOP1Mode                          build/stm32l4xx_hal_pwr_ex.o
                                                  build/stm32l4xx_hal_pwr.o
HAL_PWREx_EnterSTOP2Mode                          build/stm32l4xx_hal_pwr_ex.o
HAL_PWREx_GetVoltageRange                         build/stm32l4xx_hal_pwr_ex.o
                                                  build/stm32l4xx_hal_rcc.o
HAL_PWREx_PVD_PVM_IRQHandler                      build/stm32l4xx_hal_pwr_ex.o
HAL_PWREx_PVM3Callback                            build/stm32l4xx_hal_pwr_ex.o
HAL_PWREx_PVM4Callback                            build/stm32l4xx_hal_pwr_ex.o
HAL_PWREx_SetSRAM2ContentRetention                build/stm32l4xx_hal_pwr_ex.o
HAL_PWR_ConfigPVD                                 build/stm32l4xx_hal_pwr.o
HAL_PWR_DeInit                                    build/stm32l4xx_hal_pwr.o
HAL_PWR_DisableBkUpAccess                         build/stm32l4xx_hal_pwr.o
                                                  build/stm32l4xx_hal_rcc_ex.o
HAL_PWR_DisablePVD                                build/stm32l4xx_hal_pwr.o
HAL_PWR_DisableSEVOnPend                          build/stm32l4xx_hal_pwr.o
HAL_PWR_DisableSleepOnExit                        build/stm32l4xx_hal_pwr.o
HAL_PWR_DisableWakeUpPin                          build/stm32l4xx_hal_pwr.o
HAL_PWR_EnableBkUpAccess                          build/stm32l4xx_hal_pwr.o
                                                  build/stm32l4xx_hal_rcc_ex.o
HAL_PWR_EnablePVD                                 build/stm32l4xx_hal_pwr.o
HAL_PWR_EnableSEVOnPend                           build/stm32l4xx_hal_pwr.o
HAL_PWR_EnableSleepOnExit                         build/stm32l4xx_hal_pwr.o
HAL_PWR_EnableWakeUpPin                           build/stm32l4xx_hal_pwr.o
HAL_PWR_EnterSLEEPMode                            build/stm32l4xx_hal_pwr.o
HAL_PWR_EnterSTANDBYMode                          build/stm32l4xx_hal_pwr.o
HAL_PWR_EnterSTOPMode                             build/stm32l4xx_hal_pwr.o
HAL_PWR_PVDCallback                               build/stm32l4xx_hal_pwr.o
                                                  build/stm32l4xx_hal_pwr_ex.o
HAL_RCCEx_CRSConfig                               build/stm32l4xx_hal_rcc_ex.o
HAL_RCCEx_CRSGetSynchronizationInfo               build/stm32l4xx_hal_rcc_ex.o
HAL_RCCEx_CRSSoftwareSynchronizationGenerate      build/stm32l4xx_hal_rcc_ex.o
HAL_RCCEx_CRSWaitSynchronization                  build/stm32l4xx_hal_rcc_ex.o
HAL_RCCEx_CRS_ErrorCallback                       build/stm32l4xx_hal_rcc_ex.o
HAL_RCCEx_CRS_ExpectedSyncCallback                build/stm32l4xx_hal_rcc_ex.o
HAL_RCCEx_CRS_IRQHandler                          build/stm32l4xx_hal_rcc_ex.o
HAL_RCCEx_CRS_SyncOkCallback                      build/stm32l4xx_hal_rcc_ex.o
HAL_RCCEx_CRS_SyncWarnCallback                    build/stm32l4xx_hal_rcc_ex.o
HAL_RCCEx_DisableLSCO                             build/stm32l4xx_hal_rcc_ex.o
HAL_RCCEx_DisableLSECSS                           build/stm32l4xx_hal_rcc_ex.o
HAL_RCCEx_DisableMSIPLLMode                       build/stm32l4xx_hal_rcc_ex.o
HAL_RCCEx_DisablePLLSAI1                          build/stm32l4xx_hal_rcc_ex.o
HAL_RCCEx_EnableLSCO                              build/stm32l4xx_hal_rcc_ex.o
HAL_RCCEx_EnableLSECSS                            build/stm32l4xx_hal_rcc_ex.o
HAL_RCCEx_EnableLSECSS_IT                         build/stm32l4xx_hal_rcc_ex.o
HAL_RCCEx_EnableMSIPLLMode                        build/stm32l4xx_hal_rcc_ex.o
HAL_RCCEx_EnablePLLSAI1                           build/stm32l4xx_hal_rcc_ex.o
HAL_RCCEx_GetPeriphCLKConfig                      build/stm32l4xx_hal_rcc_ex.o
HAL_RCCEx_GetPeriphCLKFreq                        build/stm32l4xx_hal_rcc_ex.o
HAL_RCCEx_LSECSS_Callback                         build/stm32l4xx_hal_rcc_ex.o
HAL_RCCEx_LSECSS_IRQHandler                       build/stm32l4xx_hal_rcc_ex.o
HAL_RCCEx_PeriphCLKConfig                         build/stm32l4xx_hal_rcc_ex.o
                                                  build/usart.o
                                                  build/adc.o
HAL_RCCEx_StandbyMSIRangeConfig                   build/stm32l4xx_hal_rcc_ex.o
HAL_RCCEx_WakeUpStopCLKConfig                     build/stm32l4xx_hal_rcc_ex.o
HAL_RCC_CSSCallback                               build/stm32l4xx_hal_rcc.o
HAL_RCC_ClockConfig                               build/stm32l4xx_hal_rcc.o
                                                  build/main.o
HAL_RCC_DeInit                                    build/stm32l4xx_hal_rcc.o
HAL_RCC_EnableCSS                                 build/stm32l4xx_hal_rcc.o
HAL_RCC_GetClockConfig                            build/stm32l4xx_hal_rcc.o
HAL_RCC_GetHCLKFreq                               build/stm32l4xx_hal_rcc.o
HAL_RCC_GetOscConfig                              build/stm32l4xx_hal_rcc.o
HAL_RCC_GetPCLK1Freq                              build/stm32l4xx_hal_rcc.o
                                                  build/stm32l4xx_hal_uart.o
                                                  build/stm32l4xx_hal_rcc_ex.o
HAL_RCC_GetPCLK2Freq                              build/stm32l4xx_hal_rcc.o
                                                  build/stm32l4xx_hal_uart.o
                                                  build/stm32l4xx_hal_rcc_ex.o
HAL_RCC_GetResetSource                            build/stm32l4xx_hal_rcc.o
HAL_RCC_GetSysClockFreq                           build/stm32l4xx_hal_rcc.o
                                                  build/stm32l4xx_hal_uart.o
                                                  build/stm32l4xx_hal_rcc_ex.o
HAL_RCC_MCOConfig                                 build/stm32l4xx_hal_rcc.o
HAL_RCC_NMI_IRQHandler                            build/stm32l4xx_hal_rcc.o
HAL_RCC_OscConfig                                 build/stm32l4xx_hal_rcc.o
                                                  build/main.o
HAL_RS485Ex_Init                                  build/stm32l4xx_hal_uart_ex.o
HAL_ResumeTick                                    build/stm32l4xx_hal.o
HAL_SPIEx_FlushRxFifo                             build/stm32l4xx_hal_spi_ex.o
HAL_SPI_Abort                                     build/stm32l4xx_hal_spi.o
HAL_SPI_AbortCpltCallback                         build/stm32l4xx_hal_spi.o
HAL_SPI_Abort_IT                                  build/stm32l4xx_hal_spi.o
HAL_SPI_DMAPause                                  build/stm32l4xx_hal_spi.o
HAL_SPI_DMAResume                                 build/stm32l4xx_hal_spi.o
HAL_SPI_DMAStop                                   build/stm32l4xx_hal_spi.o
HAL_SPI_DeInit                                    build/stm32l4xx_hal_spi.o
HAL_SPI_ErrorCallback                             build/stm32l4xx_hal_spi.o
HAL_SPI_GetError                                  build/stm32l4xx_hal_spi.o
HAL_SPI_GetState                                  build/stm32l4xx_hal_spi.o
                                                  build/SX1278_hw.o
HAL_SPI_IRQHandler                                build/stm32l4xx_hal_spi.o
                                                  build/stm32l4xx_it.o
HAL_SPI_Init                                      build/stm32l4xx_hal_spi.o
                                                  build/spi.o
HAL_SPI_MspDeInit                                 build/spi.o
                                                  build/stm32l4xx_hal_spi.o
HAL_SPI_MspInit                                   build/spi.o
                                                  build/stm32l4xx_hal_spi.o
HAL_SPI_Receive                                   build/stm32l4xx_hal_spi.o
                                                  build/W25QXX.o
HAL_SPI_Receive_DMA                               build/stm32l4xx_hal_spi.o
HAL_SPI_Receive_IT                                build/stm32l4xx_hal_spi.o
HAL_SPI_RxCpltCallback                            build/stm32l4xx_hal_spi.o
HAL_SPI_RxHalfCpltCallback                        build/stm32l4xx_hal_spi.o
HAL_SPI_Transmit                                  build/stm32l4xx_hal_spi.o
                                                  build/W25QXX.o
                                                  build/SX1278_hw.o
HAL_SPI_TransmitReceive                           build/stm32l4xx_hal_spi.o
                                                  build/SX1278_hw.o
HAL_SPI_TransmitReceive_DMA                       build/stm32l4xx_hal_spi.o
HAL_SPI_TransmitReceive_IT                        build/stm32l4xx_hal_spi.o
HAL_SPI_Transmit_DMA                              build/stm32l4xx_hal_spi.o
HAL_SPI_Transmit_IT                               build/stm32l4xx_hal_spi.o
HAL_SPI_TxCpltCallback                            build/stm32l4xx_hal_spi.o
HAL_SPI_TxHalfCpltCallback                        build/stm32l4xx_hal_spi.o
HAL_SPI_TxRxCpltCallback                          build/stm32l4xx_hal_spi.o
HAL_SPI_TxRxHalfCpltCallback                      build/stm32l4xx_hal_spi.o
HAL_SYSCFG_DisableIOAnalogSwitchBooster           build/stm32l4xx_hal.o
HAL_SYSCFG_DisableMemorySwappingBank              build/stm32l4xx_hal.o
HAL_SYSCFG_DisableVREFBUF                         build/stm32l4xx_hal.o
HAL_SYSCFG_EnableIOAnalogSwitchBooster            build/stm32l4xx_hal.o
HAL_SYSCFG_EnableMemorySwappingBank               build/stm32l4xx_hal.o
HAL_SYSCFG_EnableVREFBUF                          build/stm32l4xx_hal.o
HAL_SYSCFG_SRAM2Erase                             build/stm32l4xx_hal.o
HAL_SYSCFG_VREFBUF_HighImpedanceConfig            build/stm32l4xx_hal.o
HAL_SYSCFG_VREFBUF_TrimmingConfig                 build/stm32l4xx_hal.o
HAL_SYSCFG_VREFBUF_VoltageScalingConfig           build/stm32l4xx_hal.o
HAL_SYSTICK_CLKSourceConfig                       build/stm32l4xx_hal_cortex.o
HAL_SYSTICK_Callback                              build/stm32l4xx_hal_cortex.o
HAL_SYSTICK_Config                                build/stm32l4xx_hal_cortex.o
                                                  build/stm32l4xx_hal.o
HAL_SYSTICK_IRQHandler                            build/stm32l4xx_hal_cortex.o
HAL_SetTickFreq                                   build/stm32l4xx_hal.o
HAL_SuspendTick                                   build/stm32l4xx_hal.o
HAL_UARTEx_DisableClockStopMode                   build/stm32l4xx_hal_uart_ex.o
HAL_UARTEx_DisableStopMode                        build/stm32l4xx_hal_uart_ex.o
HAL_UARTEx_EnableClockStopMode                    build/stm32l4xx_hal_uart_ex.o
HAL_UARTEx_EnableStopMode                         build/stm32l4xx_hal_uart_ex.o
HAL_UARTEx_ReceiveToIdle                          build/stm32l4xx_hal_uart_ex.o
HAL_UARTEx_ReceiveToIdle_DMA                      build/stm32l4xx_hal_uart_ex.o
HAL_UARTEx_ReceiveToIdle_IT                       build/stm32l4xx_hal_uart_ex.o
                                                  build/usart.o
HAL_UARTEx_RxEventCallback                        build/usart.o
                                                  build/stm32l4xx_hal_uart.o
HAL_UARTEx_StopModeWakeUpSourceConfig             build/stm32l4xx_hal_uart_ex.o
HAL_UARTEx_WakeupCallback                         build/stm32l4xx_hal_uart_ex.o
                                                  build/stm32l4xx_hal_uart.o
HAL_UART_Abort                                    build/stm32l4xx_hal_uart.o
HAL_UART_AbortCpltCallback                        build/stm32l4xx_hal_uart.o
HAL_UART_AbortReceive                             build/stm32l4xx_hal_uart.o
HAL_UART_AbortReceiveCpltCallback                 build/stm32l4xx_hal_uart.o
HAL_UART_AbortReceive_IT                          build/stm32l4xx_hal_uart.o
HAL_UART_AbortTransmit                            build/stm32l4xx_hal_uart.o
HAL_UART_AbortTransmitCpltCallback                build/stm32l4xx_hal_uart.o
HAL_UART_AbortTransmit_IT                         build/stm32l4xx_hal_uart.o
HAL_UART_Abort_IT                                 build/stm32l4xx_hal_uart.o
HAL_UART_DMAPause                                 build/stm32l4xx_hal_uart.o
HAL_UART_DMAResume                                build/stm32l4xx_hal_uart.o
HAL_UART_DMAStop                                  build/stm32l4xx_hal_uart.o
HAL_UART_DeInit                                   build/stm32l4xx_hal_uart.o
HAL_UART_DisableReceiverTimeout                   build/stm32l4xx_hal_uart.o
HAL_UART_EnableReceiverTimeout                    build/stm32l4xx_hal_uart.o
HAL_UART_ErrorCallback                            build/usart.o
                                                  build/stm32l4xx_hal_uart.o
HAL_UART_GetError                                 build/stm32l4xx_hal_uart.o
HAL_UART_GetState                                 build/stm32l4xx_hal_uart.o
HAL_UART_IRQHandler                               build/stm32l4xx_hal_uart.o
                                                  build/stm32l4xx_it.o
HAL_UART_Init                                     build/stm32l4xx_hal_uart.o
                                                  build/usart.o
HAL_UART_MspDeInit                                build/usart.o
                                                  build/stm32l4xx_hal_uart.o
HAL_UART_MspInit                                  build/usart.o
                                                  build/stm32l4xx_hal_uart.o
                                                  build/stm32l4xx_hal_uart_ex.o
HAL_UART_Receive                                  build/stm32l4xx_hal_uart.o
                                                  build/rs485.o
HAL_UART_Receive_DMA                              build/stm32l4xx_hal_uart.o
HAL_UART_Receive_IT                               build/stm32l4xx_hal_uart.o
                                                  build/usart.o
HAL_UART_ReceiverTimeout_Config                   build/stm32l4xx_hal_uart.o
HAL_UART_RxCpltCallback                           build/usart.o
                                                  build/stm32l4xx_hal_uart.o
HAL_UART_RxHalfCpltCallback                       build/stm32l4xx_hal_uart.o
HAL_UART_Transmit                                 build/stm32l4xx_hal_uart.o
                                                  build/rs485.o
HAL_UART_Transmit_DMA                             build/stm32l4xx_hal_uart.o
HAL_UART_Transmit_IT                              build/stm32l4xx_hal_uart.o
                                                  build/EC2x.o
HAL_UART_TxCpltCallback                           build/usart.o
                                                  build/stm32l4xx_hal_uart.o
HAL_UART_TxHalfCpltCallback                       build/stm32l4xx_hal_uart.o
HardFault_Handler                                 build/stm32l4xx_it.o
I2C1_ER_IRQHandler                                build/startup_stm32l431xx.o
I2C1_EV_IRQHandler                                build/startup_stm32l431xx.o
I2C2_ER_IRQHandler                                build/startup_stm32l431xx.o
I2C2_EV_IRQHandler                                build/startup_stm32l431xx.o
I2C3_ER_IRQHandler                                build/startup_stm32l431xx.o
I2C3_EV_IRQHandler                                build/startup_stm32l431xx.o
LDR_Value_Get                                     build/adc.o
                                                  build/main.o
LED1_Toggle                                       build/led.o
LED_Blink                                         build/led.o
LED_Init                                          build/led.o
                                                  build/main.o
LED_Off                                           build/led.o
LED_On                                            build/led.o
                                                  build/main.o
LED_Test                                          build/led.o
LED_Toggle                                        build/led.o
LORA_Send                                         build/SX1278.o
                                                  build/main.o
LPTIM1_IRQHandler                                 build/startup_stm32l431xx.o
LPTIM2_IRQHandler                                 build/startup_stm32l431xx.o
LPUART1_IRQHandler                                build/startup_stm32l431xx.o
Lora_dev                                          build/SX1278.o
                                                  build/stm32l4xx_it.o
                                                  build/main.o
MSIRangeTable                                     build/system_stm32l4xx.o
                                                  build/stm32l4xx_hal_rcc_ex.o
                                                  build/stm32l4xx_hal_rcc.o
MX_ADC1_Init                                      build/adc.o
                                                  build/main.o
MX_GPIO_Init                                      build/gpio.o
                                                  build/main.o
MX_SPI2_Init                                      build/spi.o
                                                  build/main.o
MX_SPI3_Init                                      build/spi.o
                                                  build/main.o
MX_USART1_UART_Init                               build/usart.o
                                                  build/main.o
MX_USART2_UART_Init                               build/usart.o
                                                  build/main.o
MX_USART3_UART_Init                               build/usart.o
                                                  build/main.o
MemManage_Handler                                 build/stm32l4xx_it.o
NMI_Handler                                       build/stm32l4xx_it.o
PVD_PVM_IRQHandler                                build/startup_stm32l431xx.o
PendSV_Handler                                    build/stm32l4xx_it.o
QUADSPI_IRQHandler                                build/startup_stm32l431xx.o
RCC_IRQHandler                                    build/startup_stm32l431xx.o
RNG_IRQHandler                                    build/startup_stm32l431xx.o
RS485_Init                                        build/rs485.o
RS485_ReceiveData                                 build/rs485.o
RS485_SendData                                    build/rs485.o
                                                  build/shell_port.o
RS485_Test                                        build/rs485.o
                                                  build/main.o
RTC_Alarm_IRQHandler                              build/startup_stm32l431xx.o
RTC_WKUP_IRQHandler                               build/startup_stm32l431xx.o
Reset_Handler                                     build/startup_stm32l431xx.o
SAI1_IRQHandler                                   build/startup_stm32l431xx.o
SDMMC1_IRQHandler                                 build/startup_stm32l431xx.o
SPI1_IRQHandler                                   build/startup_stm32l431xx.o
SPI2_IRQHandler                                   build/stm32l4xx_it.o
SPI3_IRQHandler                                   build/stm32l4xx_it.o
SVC_Handler                                       build/stm32l4xx_it.o
SWPMI1_IRQHandler                                 build/startup_stm32l431xx.o
SX1278_DIO0IRQ_Handler                            build/SX1278.o
                                                  build/stm32l4xx_it.o
SX1278_LoRaEntryRx                                build/SX1278.o
SX1278_LoRaEntryTx                                build/SX1278.o
SX1278_LoRaRxPacket                               build/SX1278.o
SX1278_LoRaTxPacket                               build/SX1278.o
SX1278_RSSI                                       build/SX1278.o
SX1278_RSSI_LoRa                                  build/SX1278.o
SX1278_SPIBurstRead                               build/SX1278.o
SX1278_SPIBurstWrite                              build/SX1278.o
SX1278_SPIRead                                    build/SX1278.o
SX1278_SPIWrite                                   build/SX1278.o
SX1278_available                                  build/SX1278.o
SX1278_clearLoRaIrq                               build/SX1278.o
SX1278_config                                     build/SX1278.o
SX1278_entryLoRa                                  build/SX1278.o
SX1278_hw_DelayMs                                 build/SX1278_hw.o
                                                  build/SX1278.o
SX1278_hw_GetDIO0                                 build/SX1278_hw.o
                                                  build/SX1278.o
SX1278_hw_Reset                                   build/SX1278_hw.o
                                                  build/SX1278.o
SX1278_hw_SPICommand                              build/SX1278_hw.o
                                                  build/SX1278.o
SX1278_hw_SPIReadByte                             build/SX1278_hw.o
                                                  build/SX1278.o
SX1278_hw_SetNSS                                  build/SX1278_hw.o
                                                  build/SX1278.o
SX1278_hw_init                                    build/SX1278_hw.o
                                                  build/SX1278.o
SX1278_init                                       build/SX1278.o
                                                  build/main.o
SX1278_read                                       build/SX1278.o
SX1278_receive                                    build/SX1278.o
                                                  build/main.o
SX1278_sleep                                      build/SX1278.o
SX1278_standby                                    build/SX1278.o
SX1278_transmit                                   build/SX1278.o
SysTick_Handler                                   build/stm32l4xx_it.o
SystemClock_Config                                build/main.o
SystemCoreClock                                   build/system_stm32l4xx.o
                                                  build/stm32l4xx_hal_spi.o
                                                  build/stm32l4xx_hal_pwr_ex.o
                                                  build/stm32l4xx_hal_rcc.o
                                                  build/stm32l4xx_hal.o
                                                  build/stm32l4xx_hal_adc_ex.o
                                                  build/stm32l4xx_hal_adc.o
SystemCoreClockUpdate                             build/system_stm32l4xx.o
SystemInit                                        build/system_stm32l4xx.o
                                                  build/startup_stm32l431xx.o
TAMP_STAMP_IRQHandler                             build/startup_stm32l431xx.o
TIM1_BRK_TIM15_IRQHandler                         build/startup_stm32l431xx.o
TIM1_CC_IRQHandler                                build/startup_stm32l431xx.o
TIM1_TRG_COM_IRQHandler                           build/startup_stm32l431xx.o
TIM1_UP_TIM16_IRQHandler                          build/startup_stm32l431xx.o
TIM2_IRQHandler                                   build/startup_stm32l431xx.o
TIM6_DAC_IRQHandler                               build/startup_stm32l431xx.o
TIM7_IRQHandler                                   build/startup_stm32l431xx.o
TSC_IRQHandler                                    build/startup_stm32l431xx.o
Test_All                                          build/main.o
UART_AdvFeatureConfig                             build/stm32l4xx_hal_uart.o
                                                  build/stm32l4xx_hal_uart_ex.o
UART_CheckIdleState                               build/stm32l4xx_hal_uart.o
                                                  build/stm32l4xx_hal_uart_ex.o
UART_SetConfig                                    build/stm32l4xx_hal_uart.o
                                                  build/stm32l4xx_hal_uart_ex.o
UART_Start_Receive_DMA                            build/stm32l4xx_hal_uart.o
                                                  build/stm32l4xx_hal_uart_ex.o
UART_Start_Receive_IT                             build/stm32l4xx_hal_uart.o
                                                  build/stm32l4xx_hal_uart_ex.o
UART_WaitOnFlagUntilTimeout                       build/stm32l4xx_hal_uart.o
                                                  build/stm32l4xx_hal_uart_ex.o
USART1_IRQHandler                                 build/stm32l4xx_it.o
USART2_IRQHandler                                 build/stm32l4xx_it.o
USART3_IRQHandler                                 build/stm32l4xx_it.o
UsageFault_Handler                                build/stm32l4xx_it.o
User_Shell_Init                                   build/shell_port.o
                                                  build/main.o
User_Shell_Write                                  build/shell_port.o
WWDG_IRQHandler                                   build/startup_stm32l431xx.o
__adddf3                                          e:/gcc-arm-none-eabi-10.3-2021.10-win32/gcc-arm-none-eabi-10.3-2021.10/bin/../lib/gcc/arm-none-eabi/10.3.1/thumb/v7e-m+fp/hard\libgcc.a(_arm_addsubdf3.o)
__aeabi_cdcmpeq                                   e:/gcc-arm-none-eabi-10.3-2021.10-win32/gcc-arm-none-eabi-10.3-2021.10/bin/../lib/gcc/arm-none-eabi/10.3.1/thumb/v7e-m+fp/hard\libgcc.a(_arm_cmpdf2.o)
__aeabi_cdcmple                                   e:/gcc-arm-none-eabi-10.3-2021.10-win32/gcc-arm-none-eabi-10.3-2021.10/bin/../lib/gcc/arm-none-eabi/10.3.1/thumb/v7e-m+fp/hard\libgcc.a(_arm_cmpdf2.o)
__aeabi_cdrcmple                                  e:/gcc-arm-none-eabi-10.3-2021.10-win32/gcc-arm-none-eabi-10.3-2021.10/bin/../lib/gcc/arm-none-eabi/10.3.1/thumb/v7e-m+fp/hard\libgcc.a(_arm_cmpdf2.o)
__aeabi_d2f                                       e:/gcc-arm-none-eabi-10.3-2021.10-win32/gcc-arm-none-eabi-10.3-2021.10/bin/../lib/gcc/arm-none-eabi/10.3.1/thumb/v7e-m+fp/hard\libgcc.a(_arm_truncdfsf2.o)
                                                  build/adc.o
__aeabi_d2uiz                                     e:/gcc-arm-none-eabi-10.3-2021.10-win32/gcc-arm-none-eabi-10.3-2021.10/bin/../lib/gcc/arm-none-eabi/10.3.1/thumb/v7e-m+fp/hard\libgcc.a(_arm_fixunsdfsi.o)
                                                  build/W25QXX.o
__aeabi_dadd                                      e:/gcc-arm-none-eabi-10.3-2021.10-win32/gcc-arm-none-eabi-10.3-2021.10/bin/../lib/gcc/arm-none-eabi/10.3.1/thumb/v7e-m+fp/hard\libgcc.a(_arm_addsubdf3.o)
                                                  e:/gcc-arm-none-eabi-10.3-2021.10-win32/gcc-arm-none-eabi-10.3-2021.10/bin/../lib/gcc/arm-none-eabi/10.3.1/../../../../arm-none-eabi/lib/thumb/v7e-m+fp/hard\libm.a(lib_a-s_scalbn.o)
                                                  e:/gcc-arm-none-eabi-10.3-2021.10-win32/gcc-arm-none-eabi-10.3-2021.10/bin/../lib/gcc/arm-none-eabi/10.3.1/../../../../arm-none-eabi/lib/thumb/v7e-m+fp/hard\libm.a(lib_a-e_sqrt.o)
                                                  e:/gcc-arm-none-eabi-10.3-2021.10-win32/gcc-arm-none-eabi-10.3-2021.10/bin/../lib/gcc/arm-none-eabi/10.3.1/../../../../arm-none-eabi/lib/thumb/v7e-m+fp/hard\libm.a(lib_a-e_pow.o)
                                                  build/adc.o
__aeabi_dcmpeq                                    e:/gcc-arm-none-eabi-10.3-2021.10-win32/gcc-arm-none-eabi-10.3-2021.10/bin/../lib/gcc/arm-none-eabi/10.3.1/thumb/v7e-m+fp/hard\libgcc.a(_arm_cmpdf2.o)
                                                  e:/gcc-arm-none-eabi-10.3-2021.10-win32/gcc-arm-none-eabi-10.3-2021.10/bin/../lib/gcc/arm-none-eabi/10.3.1/../../../../arm-none-eabi/lib/thumb/v7e-m+fp/hard\libm.a(lib_a-math_err.o)
                                                  e:/gcc-arm-none-eabi-10.3-2021.10-win32/gcc-arm-none-eabi-10.3-2021.10/bin/../lib/gcc/arm-none-eabi/10.3.1/../../../../arm-none-eabi/lib/thumb/v7e-m+fp/hard\libm.a(lib_a-w_pow.o)
__aeabi_dcmpge                                    e:/gcc-arm-none-eabi-10.3-2021.10-win32/gcc-arm-none-eabi-10.3-2021.10/bin/../lib/gcc/arm-none-eabi/10.3.1/thumb/v7e-m+fp/hard\libgcc.a(_arm_cmpdf2.o)
                                                  e:/gcc-arm-none-eabi-10.3-2021.10-win32/gcc-arm-none-eabi-10.3-2021.10/bin/../lib/gcc/arm-none-eabi/10.3.1/../../../../arm-none-eabi/lib/thumb/v7e-m+fp/hard\libm.a(lib_a-e_pow.o)
__aeabi_dcmpgt                                    e:/gcc-arm-none-eabi-10.3-2021.10-win32/gcc-arm-none-eabi-10.3-2021.10/bin/../lib/gcc/arm-none-eabi/10.3.1/thumb/v7e-m+fp/hard\libgcc.a(_arm_cmpdf2.o)
                                                  e:/gcc-arm-none-eabi-10.3-2021.10-win32/gcc-arm-none-eabi-10.3-2021.10/bin/../lib/gcc/arm-none-eabi/10.3.1/../../../../arm-none-eabi/lib/thumb/v7e-m+fp/hard\libm.a(lib_a-e_pow.o)
__aeabi_dcmple                                    e:/gcc-arm-none-eabi-10.3-2021.10-win32/gcc-arm-none-eabi-10.3-2021.10/bin/../lib/gcc/arm-none-eabi/10.3.1/thumb/v7e-m+fp/hard\libgcc.a(_arm_cmpdf2.o)
                                                  e:/gcc-arm-none-eabi-10.3-2021.10-win32/gcc-arm-none-eabi-10.3-2021.10/bin/../lib/gcc/arm-none-eabi/10.3.1/../../../../arm-none-eabi/lib/thumb/v7e-m+fp/hard\libm.a(lib_a-math_err.o)
__aeabi_dcmplt                                    e:/gcc-arm-none-eabi-10.3-2021.10-win32/gcc-arm-none-eabi-10.3-2021.10/bin/../lib/gcc/arm-none-eabi/10.3.1/thumb/v7e-m+fp/hard\libgcc.a(_arm_cmpdf2.o)
                                                  e:/gcc-arm-none-eabi-10.3-2021.10-win32/gcc-arm-none-eabi-10.3-2021.10/bin/../lib/gcc/arm-none-eabi/10.3.1/../../../../arm-none-eabi/lib/thumb/v7e-m+fp/hard\libm.a(lib_a-e_pow.o)
                                                  e:/gcc-arm-none-eabi-10.3-2021.10-win32/gcc-arm-none-eabi-10.3-2021.10/bin/../lib/gcc/arm-none-eabi/10.3.1/../../../../arm-none-eabi/lib/thumb/v7e-m+fp/hard\libm.a(lib_a-w_pow.o)
__aeabi_dcmpun                                    e:/gcc-arm-none-eabi-10.3-2021.10-win32/gcc-arm-none-eabi-10.3-2021.10/bin/../lib/gcc/arm-none-eabi/10.3.1/thumb/v7e-m+fp/hard\libgcc.a(_arm_unorddf2.o)
                                                  e:/gcc-arm-none-eabi-10.3-2021.10-win32/gcc-arm-none-eabi-10.3-2021.10/bin/../lib/gcc/arm-none-eabi/10.3.1/../../../../arm-none-eabi/lib/thumb/v7e-m+fp/hard\libm.a(lib_a-math_err.o)
                                                  e:/gcc-arm-none-eabi-10.3-2021.10-win32/gcc-arm-none-eabi-10.3-2021.10/bin/../lib/gcc/arm-none-eabi/10.3.1/../../../../arm-none-eabi/lib/thumb/v7e-m+fp/hard\libm.a(lib_a-w_pow.o)
__aeabi_ddiv                                      e:/gcc-arm-none-eabi-10.3-2021.10-win32/gcc-arm-none-eabi-10.3-2021.10/bin/../lib/gcc/arm-none-eabi/10.3.1/thumb/v7e-m+fp/hard\libgcc.a(_arm_muldivdf3.o)
                                                  e:/gcc-arm-none-eabi-10.3-2021.10-win32/gcc-arm-none-eabi-10.3-2021.10/bin/../lib/gcc/arm-none-eabi/10.3.1/../../../../arm-none-eabi/lib/thumb/v7e-m+fp/hard\libm.a(lib_a-math_err.o)
                                                  e:/gcc-arm-none-eabi-10.3-2021.10-win32/gcc-arm-none-eabi-10.3-2021.10/bin/../lib/gcc/arm-none-eabi/10.3.1/../../../../arm-none-eabi/lib/thumb/v7e-m+fp/hard\libm.a(lib_a-e_sqrt.o)
                                                  e:/gcc-arm-none-eabi-10.3-2021.10-win32/gcc-arm-none-eabi-10.3-2021.10/bin/../lib/gcc/arm-none-eabi/10.3.1/../../../../arm-none-eabi/lib/thumb/v7e-m+fp/hard\libm.a(lib_a-e_pow.o)
__aeabi_dmul                                      e:/gcc-arm-none-eabi-10.3-2021.10-win32/gcc-arm-none-eabi-10.3-2021.10/bin/../lib/gcc/arm-none-eabi/10.3.1/thumb/v7e-m+fp/hard\libgcc.a(_arm_muldivdf3.o)
                                                  e:/gcc-arm-none-eabi-10.3-2021.10-win32/gcc-arm-none-eabi-10.3-2021.10/bin/../lib/gcc/arm-none-eabi/10.3.1/thumb/v7e-m+fp/hard\libgcc.a(_arm_muldf3.o)
                                                  e:/gcc-arm-none-eabi-10.3-2021.10-win32/gcc-arm-none-eabi-10.3-2021.10/bin/../lib/gcc/arm-none-eabi/10.3.1/../../../../arm-none-eabi/lib/thumb/v7e-m+fp/hard\libm.a(lib_a-s_scalbn.o)
                                                  e:/gcc-arm-none-eabi-10.3-2021.10-win32/gcc-arm-none-eabi-10.3-2021.10/bin/../lib/gcc/arm-none-eabi/10.3.1/../../../../arm-none-eabi/lib/thumb/v7e-m+fp/hard\libm.a(lib_a-math_err.o)
                                                  e:/gcc-arm-none-eabi-10.3-2021.10-win32/gcc-arm-none-eabi-10.3-2021.10/bin/../lib/gcc/arm-none-eabi/10.3.1/../../../../arm-none-eabi/lib/thumb/v7e-m+fp/hard\libm.a(lib_a-e_sqrt.o)
                                                  e:/gcc-arm-none-eabi-10.3-2021.10-win32/gcc-arm-none-eabi-10.3-2021.10/bin/../lib/gcc/arm-none-eabi/10.3.1/../../../../arm-none-eabi/lib/thumb/v7e-m+fp/hard\libm.a(lib_a-e_pow.o)
                                                  build/W25QXX.o
                                                  build/adc.o
__aeabi_drsub                                     e:/gcc-arm-none-eabi-10.3-2021.10-win32/gcc-arm-none-eabi-10.3-2021.10/bin/../lib/gcc/arm-none-eabi/10.3.1/thumb/v7e-m+fp/hard\libgcc.a(_arm_addsubdf3.o)
__aeabi_dsub                                      e:/gcc-arm-none-eabi-10.3-2021.10-win32/gcc-arm-none-eabi-10.3-2021.10/bin/../lib/gcc/arm-none-eabi/10.3.1/thumb/v7e-m+fp/hard\libgcc.a(_arm_addsubdf3.o)
                                                  e:/gcc-arm-none-eabi-10.3-2021.10-win32/gcc-arm-none-eabi-10.3-2021.10/bin/../lib/gcc/arm-none-eabi/10.3.1/../../../../arm-none-eabi/lib/thumb/v7e-m+fp/hard\libm.a(lib_a-math_err.o)
                                                  e:/gcc-arm-none-eabi-10.3-2021.10-win32/gcc-arm-none-eabi-10.3-2021.10/bin/../lib/gcc/arm-none-eabi/10.3.1/../../../../arm-none-eabi/lib/thumb/v7e-m+fp/hard\libm.a(lib_a-e_sqrt.o)
                                                  e:/gcc-arm-none-eabi-10.3-2021.10-win32/gcc-arm-none-eabi-10.3-2021.10/bin/../lib/gcc/arm-none-eabi/10.3.1/../../../../arm-none-eabi/lib/thumb/v7e-m+fp/hard\libm.a(lib_a-e_pow.o)
__aeabi_f2d                                       e:/gcc-arm-none-eabi-10.3-2021.10-win32/gcc-arm-none-eabi-10.3-2021.10/bin/../lib/gcc/arm-none-eabi/10.3.1/thumb/v7e-m+fp/hard\libgcc.a(_arm_addsubdf3.o)
                                                  build/adc.o
__aeabi_i2d                                       e:/gcc-arm-none-eabi-10.3-2021.10-win32/gcc-arm-none-eabi-10.3-2021.10/bin/../lib/gcc/arm-none-eabi/10.3.1/thumb/v7e-m+fp/hard\libgcc.a(_arm_addsubdf3.o)
                                                  e:/gcc-arm-none-eabi-10.3-2021.10-win32/gcc-arm-none-eabi-10.3-2021.10/bin/../lib/gcc/arm-none-eabi/10.3.1/../../../../arm-none-eabi/lib/thumb/v7e-m+fp/hard\libm.a(lib_a-e_pow.o)
                                                  build/W25QXX.o
__aeabi_idiv0                                     e:/gcc-arm-none-eabi-10.3-2021.10-win32/gcc-arm-none-eabi-10.3-2021.10/bin/../lib/gcc/arm-none-eabi/10.3.1/thumb/v7e-m+fp/hard\libgcc.a(_dvmd_tls.o)
__aeabi_l2d                                       e:/gcc-arm-none-eabi-10.3-2021.10-win32/gcc-arm-none-eabi-10.3-2021.10/bin/../lib/gcc/arm-none-eabi/10.3.1/thumb/v7e-m+fp/hard\libgcc.a(_arm_addsubdf3.o)
__aeabi_ldiv0                                     e:/gcc-arm-none-eabi-10.3-2021.10-win32/gcc-arm-none-eabi-10.3-2021.10/bin/../lib/gcc/arm-none-eabi/10.3.1/thumb/v7e-m+fp/hard\libgcc.a(_dvmd_tls.o)
                                                  e:/gcc-arm-none-eabi-10.3-2021.10-win32/gcc-arm-none-eabi-10.3-2021.10/bin/../lib/gcc/arm-none-eabi/10.3.1/thumb/v7e-m+fp/hard\libgcc.a(_aeabi_uldivmod.o)
                                                  e:/gcc-arm-none-eabi-10.3-2021.10-win32/gcc-arm-none-eabi-10.3-2021.10/bin/../lib/gcc/arm-none-eabi/10.3.1/thumb/v7e-m+fp/hard\libgcc.a(_aeabi_ldivmod.o)
__aeabi_ldivmod                                   e:/gcc-arm-none-eabi-10.3-2021.10-win32/gcc-arm-none-eabi-10.3-2021.10/bin/../lib/gcc/arm-none-eabi/10.3.1/thumb/v7e-m+fp/hard\libgcc.a(_aeabi_ldivmod.o)
                                                  build/stm32l4xx_hal_uart.o
__aeabi_ui2d                                      e:/gcc-arm-none-eabi-10.3-2021.10-win32/gcc-arm-none-eabi-10.3-2021.10/bin/../lib/gcc/arm-none-eabi/10.3.1/thumb/v7e-m+fp/hard\libgcc.a(_arm_addsubdf3.o)
__aeabi_ul2d                                      e:/gcc-arm-none-eabi-10.3-2021.10-win32/gcc-arm-none-eabi-10.3-2021.10/bin/../lib/gcc/arm-none-eabi/10.3.1/thumb/v7e-m+fp/hard\libgcc.a(_arm_addsubdf3.o)
__aeabi_uldivmod                                  e:/gcc-arm-none-eabi-10.3-2021.10-win32/gcc-arm-none-eabi-10.3-2021.10/bin/../lib/gcc/arm-none-eabi/10.3.1/thumb/v7e-m+fp/hard\libgcc.a(_aeabi_uldivmod.o)
                                                  build/SX1278.o
                                                  build/stm32l4xx_hal_uart.o
__bss_end__                                       e:/gcc-arm-none-eabi-10.3-2021.10-win32/gcc-arm-none-eabi-10.3-2021.10/bin/../lib/gcc/arm-none-eabi/10.3.1/../../../../arm-none-eabi/lib/thumb/v7e-m+fp/hard/crt0.o
__bss_start__                                     e:/gcc-arm-none-eabi-10.3-2021.10-win32/gcc-arm-none-eabi-10.3-2021.10/bin/../lib/gcc/arm-none-eabi/10.3.1/../../../../arm-none-eabi/lib/thumb/v7e-m+fp/hard/crt0.o
__call_exitprocs                                  e:/gcc-arm-none-eabi-10.3-2021.10-win32/gcc-arm-none-eabi-10.3-2021.10/bin/../lib/gcc/arm-none-eabi/10.3.1/../../../../arm-none-eabi/lib/thumb/v7e-m+fp/hard\libc_nano.a(lib_a-exit.o)
__cmpdf2                                          e:/gcc-arm-none-eabi-10.3-2021.10-win32/gcc-arm-none-eabi-10.3-2021.10/bin/../lib/gcc/arm-none-eabi/10.3.1/thumb/v7e-m+fp/hard\libgcc.a(_arm_cmpdf2.o)
__deregister_frame_info                           e:/gcc-arm-none-eabi-10.3-2021.10-win32/gcc-arm-none-eabi-10.3-2021.10/bin/../lib/gcc/arm-none-eabi/10.3.1/thumb/v7e-m+fp/hard/crtbegin.o
__divdf3                                          e:/gcc-arm-none-eabi-10.3-2021.10-win32/gcc-arm-none-eabi-10.3-2021.10/bin/../lib/gcc/arm-none-eabi/10.3.1/thumb/v7e-m+fp/hard\libgcc.a(_arm_muldivdf3.o)
__dso_handle                                      e:/gcc-arm-none-eabi-10.3-2021.10-win32/gcc-arm-none-eabi-10.3-2021.10/bin/../lib/gcc/arm-none-eabi/10.3.1/thumb/v7e-m+fp/hard/crtbegin.o
__eqdf2                                           e:/gcc-arm-none-eabi-10.3-2021.10-win32/gcc-arm-none-eabi-10.3-2021.10/bin/../lib/gcc/arm-none-eabi/10.3.1/thumb/v7e-m+fp/hard\libgcc.a(_arm_cmpdf2.o)
__errno                                           e:/gcc-arm-none-eabi-10.3-2021.10-win32/gcc-arm-none-eabi-10.3-2021.10/bin/../lib/gcc/arm-none-eabi/10.3.1/../../../../arm-none-eabi/lib/thumb/v7e-m+fp/hard\libc_nano.a(lib_a-errno.o)
                                                  e:/gcc-arm-none-eabi-10.3-2021.10-win32/gcc-arm-none-eabi-10.3-2021.10/bin/../lib/gcc/arm-none-eabi/10.3.1/../../../../arm-none-eabi/lib/thumb/v7e-m+fp/hard\libm.a(lib_a-math_err.o)
                                                  e:/gcc-arm-none-eabi-10.3-2021.10-win32/gcc-arm-none-eabi-10.3-2021.10/bin/../lib/gcc/arm-none-eabi/10.3.1/../../../../arm-none-eabi/lib/thumb/v7e-m+fp/hard\libm.a(lib_a-w_pow.o)
__extendsfdf2                                     e:/gcc-arm-none-eabi-10.3-2021.10-win32/gcc-arm-none-eabi-10.3-2021.10/bin/../lib/gcc/arm-none-eabi/10.3.1/thumb/v7e-m+fp/hard\libgcc.a(_arm_addsubdf3.o)
__fixunsdfsi                                      e:/gcc-arm-none-eabi-10.3-2021.10-win32/gcc-arm-none-eabi-10.3-2021.10/bin/../lib/gcc/arm-none-eabi/10.3.1/thumb/v7e-m+fp/hard\libgcc.a(_arm_fixunsdfsi.o)
__floatdidf                                       e:/gcc-arm-none-eabi-10.3-2021.10-win32/gcc-arm-none-eabi-10.3-2021.10/bin/../lib/gcc/arm-none-eabi/10.3.1/thumb/v7e-m+fp/hard\libgcc.a(_arm_addsubdf3.o)
__floatsidf                                       e:/gcc-arm-none-eabi-10.3-2021.10-win32/gcc-arm-none-eabi-10.3-2021.10/bin/../lib/gcc/arm-none-eabi/10.3.1/thumb/v7e-m+fp/hard\libgcc.a(_arm_addsubdf3.o)
__floatundidf                                     e:/gcc-arm-none-eabi-10.3-2021.10-win32/gcc-arm-none-eabi-10.3-2021.10/bin/../lib/gcc/arm-none-eabi/10.3.1/thumb/v7e-m+fp/hard\libgcc.a(_arm_addsubdf3.o)
__floatunsidf                                     e:/gcc-arm-none-eabi-10.3-2021.10-win32/gcc-arm-none-eabi-10.3-2021.10/bin/../lib/gcc/arm-none-eabi/10.3.1/thumb/v7e-m+fp/hard\libgcc.a(_arm_addsubdf3.o)
__gedf2                                           e:/gcc-arm-none-eabi-10.3-2021.10-win32/gcc-arm-none-eabi-10.3-2021.10/bin/../lib/gcc/arm-none-eabi/10.3.1/thumb/v7e-m+fp/hard\libgcc.a(_arm_cmpdf2.o)
__gtdf2                                           e:/gcc-arm-none-eabi-10.3-2021.10-win32/gcc-arm-none-eabi-10.3-2021.10/bin/../lib/gcc/arm-none-eabi/10.3.1/thumb/v7e-m+fp/hard\libgcc.a(_arm_cmpdf2.o)
__ieee754_pow                                     e:/gcc-arm-none-eabi-10.3-2021.10-win32/gcc-arm-none-eabi-10.3-2021.10/bin/../lib/gcc/arm-none-eabi/10.3.1/../../../../arm-none-eabi/lib/thumb/v7e-m+fp/hard\libm.a(lib_a-e_pow.o)
                                                  e:/gcc-arm-none-eabi-10.3-2021.10-win32/gcc-arm-none-eabi-10.3-2021.10/bin/../lib/gcc/arm-none-eabi/10.3.1/../../../../arm-none-eabi/lib/thumb/v7e-m+fp/hard\libm.a(lib_a-w_pow.o)
__ieee754_sqrt                                    e:/gcc-arm-none-eabi-10.3-2021.10-win32/gcc-arm-none-eabi-10.3-2021.10/bin/../lib/gcc/arm-none-eabi/10.3.1/../../../../arm-none-eabi/lib/thumb/v7e-m+fp/hard\libm.a(lib_a-e_sqrt.o)
                                                  e:/gcc-arm-none-eabi-10.3-2021.10-win32/gcc-arm-none-eabi-10.3-2021.10/bin/../lib/gcc/arm-none-eabi/10.3.1/../../../../arm-none-eabi/lib/thumb/v7e-m+fp/hard\libm.a(lib_a-e_pow.o)
__init_array_end                                  e:/gcc-arm-none-eabi-10.3-2021.10-win32/gcc-arm-none-eabi-10.3-2021.10/bin/../lib/gcc/arm-none-eabi/10.3.1/../../../../arm-none-eabi/lib/thumb/v7e-m+fp/hard\libc_nano.a(lib_a-init.o)
__init_array_start                                e:/gcc-arm-none-eabi-10.3-2021.10-win32/gcc-arm-none-eabi-10.3-2021.10/bin/../lib/gcc/arm-none-eabi/10.3.1/../../../../arm-none-eabi/lib/thumb/v7e-m+fp/hard\libc_nano.a(lib_a-init.o)
__ledf2                                           e:/gcc-arm-none-eabi-10.3-2021.10-win32/gcc-arm-none-eabi-10.3-2021.10/bin/../lib/gcc/arm-none-eabi/10.3.1/thumb/v7e-m+fp/hard\libgcc.a(_arm_cmpdf2.o)
__libc_fini_array                                 e:/gcc-arm-none-eabi-10.3-2021.10-win32/gcc-arm-none-eabi-10.3-2021.10/bin/../lib/gcc/arm-none-eabi/10.3.1/../../../../arm-none-eabi/lib/thumb/v7e-m+fp/hard/crt0.o
__libc_init_array                                 e:/gcc-arm-none-eabi-10.3-2021.10-win32/gcc-arm-none-eabi-10.3-2021.10/bin/../lib/gcc/arm-none-eabi/10.3.1/../../../../arm-none-eabi/lib/thumb/v7e-m+fp/hard\libc_nano.a(lib_a-init.o)
                                                  build/startup_stm32l431xx.o
                                                  e:/gcc-arm-none-eabi-10.3-2021.10-win32/gcc-arm-none-eabi-10.3-2021.10/bin/../lib/gcc/arm-none-eabi/10.3.1/../../../../arm-none-eabi/lib/thumb/v7e-m+fp/hard/crt0.o
__lock___arc4random_mutex                         e:/gcc-arm-none-eabi-10.3-2021.10-win32/gcc-arm-none-eabi-10.3-2021.10/bin/../lib/gcc/arm-none-eabi/10.3.1/../../../../arm-none-eabi/lib/thumb/v7e-m+fp/hard\libc_nano.a(lib_a-lock.o)
__lock___at_quick_exit_mutex                      e:/gcc-arm-none-eabi-10.3-2021.10-win32/gcc-arm-none-eabi-10.3-2021.10/bin/../lib/gcc/arm-none-eabi/10.3.1/../../../../arm-none-eabi/lib/thumb/v7e-m+fp/hard\libc_nano.a(lib_a-lock.o)
__lock___atexit_recursive_mutex                   e:/gcc-arm-none-eabi-10.3-2021.10-win32/gcc-arm-none-eabi-10.3-2021.10/bin/../lib/gcc/arm-none-eabi/10.3.1/../../../../arm-none-eabi/lib/thumb/v7e-m+fp/hard\libc_nano.a(lib_a-lock.o)
__lock___dd_hash_mutex                            e:/gcc-arm-none-eabi-10.3-2021.10-win32/gcc-arm-none-eabi-10.3-2021.10/bin/../lib/gcc/arm-none-eabi/10.3.1/../../../../arm-none-eabi/lib/thumb/v7e-m+fp/hard\libc_nano.a(lib_a-lock.o)
__lock___env_recursive_mutex                      e:/gcc-arm-none-eabi-10.3-2021.10-win32/gcc-arm-none-eabi-10.3-2021.10/bin/../lib/gcc/arm-none-eabi/10.3.1/../../../../arm-none-eabi/lib/thumb/v7e-m+fp/hard\libc_nano.a(lib_a-lock.o)
__lock___malloc_recursive_mutex                   e:/gcc-arm-none-eabi-10.3-2021.10-win32/gcc-arm-none-eabi-10.3-2021.10/bin/../lib/gcc/arm-none-eabi/10.3.1/../../../../arm-none-eabi/lib/thumb/v7e-m+fp/hard\libc_nano.a(lib_a-lock.o)
                                                  e:/gcc-arm-none-eabi-10.3-2021.10-win32/gcc-arm-none-eabi-10.3-2021.10/bin/../lib/gcc/arm-none-eabi/10.3.1/../../../../arm-none-eabi/lib/thumb/v7e-m+fp/hard\libc_nano.a(lib_a-mlock.o)
__lock___sfp_recursive_mutex                      e:/gcc-arm-none-eabi-10.3-2021.10-win32/gcc-arm-none-eabi-10.3-2021.10/bin/../lib/gcc/arm-none-eabi/10.3.1/../../../../arm-none-eabi/lib/thumb/v7e-m+fp/hard\libc_nano.a(lib_a-lock.o)
__lock___sinit_recursive_mutex                    e:/gcc-arm-none-eabi-10.3-2021.10-win32/gcc-arm-none-eabi-10.3-2021.10/bin/../lib/gcc/arm-none-eabi/10.3.1/../../../../arm-none-eabi/lib/thumb/v7e-m+fp/hard\libc_nano.a(lib_a-lock.o)
__lock___tz_mutex                                 e:/gcc-arm-none-eabi-10.3-2021.10-win32/gcc-arm-none-eabi-10.3-2021.10/bin/../lib/gcc/arm-none-eabi/10.3.1/../../../../arm-none-eabi/lib/thumb/v7e-m+fp/hard\libc_nano.a(lib_a-lock.o)
__ltdf2                                           e:/gcc-arm-none-eabi-10.3-2021.10-win32/gcc-arm-none-eabi-10.3-2021.10/bin/../lib/gcc/arm-none-eabi/10.3.1/thumb/v7e-m+fp/hard\libgcc.a(_arm_cmpdf2.o)
__malloc_free_list                                e:/gcc-arm-none-eabi-10.3-2021.10-win32/gcc-arm-none-eabi-10.3-2021.10/bin/../lib/gcc/arm-none-eabi/10.3.1/../../../../arm-none-eabi/lib/thumb/v7e-m+fp/hard\libc_nano.a(lib_a-nano-mallocr.o)
                                                  e:/gcc-arm-none-eabi-10.3-2021.10-win32/gcc-arm-none-eabi-10.3-2021.10/bin/../lib/gcc/arm-none-eabi/10.3.1/../../../../arm-none-eabi/lib/thumb/v7e-m+fp/hard\libc_nano.a(lib_a-nano-freer.o)
__malloc_lock                                     e:/gcc-arm-none-eabi-10.3-2021.10-win32/gcc-arm-none-eabi-10.3-2021.10/bin/../lib/gcc/arm-none-eabi/10.3.1/../../../../arm-none-eabi/lib/thumb/v7e-m+fp/hard\libc_nano.a(lib_a-mlock.o)
                                                  e:/gcc-arm-none-eabi-10.3-2021.10-win32/gcc-arm-none-eabi-10.3-2021.10/bin/../lib/gcc/arm-none-eabi/10.3.1/../../../../arm-none-eabi/lib/thumb/v7e-m+fp/hard\libc_nano.a(lib_a-nano-mallocr.o)
                                                  e:/gcc-arm-none-eabi-10.3-2021.10-win32/gcc-arm-none-eabi-10.3-2021.10/bin/../lib/gcc/arm-none-eabi/10.3.1/../../../../arm-none-eabi/lib/thumb/v7e-m+fp/hard\libc_nano.a(lib_a-nano-freer.o)
__malloc_sbrk_start                               e:/gcc-arm-none-eabi-10.3-2021.10-win32/gcc-arm-none-eabi-10.3-2021.10/bin/../lib/gcc/arm-none-eabi/10.3.1/../../../../arm-none-eabi/lib/thumb/v7e-m+fp/hard\libc_nano.a(lib_a-nano-mallocr.o)
__malloc_unlock                                   e:/gcc-arm-none-eabi-10.3-2021.10-win32/gcc-arm-none-eabi-10.3-2021.10/bin/../lib/gcc/arm-none-eabi/10.3.1/../../../../arm-none-eabi/lib/thumb/v7e-m+fp/hard\libc_nano.a(lib_a-mlock.o)
                                                  e:/gcc-arm-none-eabi-10.3-2021.10-win32/gcc-arm-none-eabi-10.3-2021.10/bin/../lib/gcc/arm-none-eabi/10.3.1/../../../../arm-none-eabi/lib/thumb/v7e-m+fp/hard\libc_nano.a(lib_a-nano-mallocr.o)
                                                  e:/gcc-arm-none-eabi-10.3-2021.10-win32/gcc-arm-none-eabi-10.3-2021.10/bin/../lib/gcc/arm-none-eabi/10.3.1/../../../../arm-none-eabi/lib/thumb/v7e-m+fp/hard\libc_nano.a(lib_a-nano-freer.o)
__math_check_oflow                                e:/gcc-arm-none-eabi-10.3-2021.10-win32/gcc-arm-none-eabi-10.3-2021.10/bin/../lib/gcc/arm-none-eabi/10.3.1/../../../../arm-none-eabi/lib/thumb/v7e-m+fp/hard\libm.a(lib_a-math_err.o)
__math_check_uflow                                e:/gcc-arm-none-eabi-10.3-2021.10-win32/gcc-arm-none-eabi-10.3-2021.10/bin/../lib/gcc/arm-none-eabi/10.3.1/../../../../arm-none-eabi/lib/thumb/v7e-m+fp/hard\libm.a(lib_a-math_err.o)
__math_divzero                                    e:/gcc-arm-none-eabi-10.3-2021.10-win32/gcc-arm-none-eabi-10.3-2021.10/bin/../lib/gcc/arm-none-eabi/10.3.1/../../../../arm-none-eabi/lib/thumb/v7e-m+fp/hard\libm.a(lib_a-math_err.o)
__math_invalid                                    e:/gcc-arm-none-eabi-10.3-2021.10-win32/gcc-arm-none-eabi-10.3-2021.10/bin/../lib/gcc/arm-none-eabi/10.3.1/../../../../arm-none-eabi/lib/thumb/v7e-m+fp/hard\libm.a(lib_a-math_err.o)
__math_may_uflow                                  e:/gcc-arm-none-eabi-10.3-2021.10-win32/gcc-arm-none-eabi-10.3-2021.10/bin/../lib/gcc/arm-none-eabi/10.3.1/../../../../arm-none-eabi/lib/thumb/v7e-m+fp/hard\libm.a(lib_a-math_err.o)
__math_oflow                                      e:/gcc-arm-none-eabi-10.3-2021.10-win32/gcc-arm-none-eabi-10.3-2021.10/bin/../lib/gcc/arm-none-eabi/10.3.1/../../../../arm-none-eabi/lib/thumb/v7e-m+fp/hard\libm.a(lib_a-math_err.o)
                                                  e:/gcc-arm-none-eabi-10.3-2021.10-win32/gcc-arm-none-eabi-10.3-2021.10/bin/../lib/gcc/arm-none-eabi/10.3.1/../../../../arm-none-eabi/lib/thumb/v7e-m+fp/hard\libm.a(lib_a-e_pow.o)
__math_uflow                                      e:/gcc-arm-none-eabi-10.3-2021.10-win32/gcc-arm-none-eabi-10.3-2021.10/bin/../lib/gcc/arm-none-eabi/10.3.1/../../../../arm-none-eabi/lib/thumb/v7e-m+fp/hard\libm.a(lib_a-math_err.o)
                                                  e:/gcc-arm-none-eabi-10.3-2021.10-win32/gcc-arm-none-eabi-10.3-2021.10/bin/../lib/gcc/arm-none-eabi/10.3.1/../../../../arm-none-eabi/lib/thumb/v7e-m+fp/hard\libm.a(lib_a-e_pow.o)
__muldf3                                          e:/gcc-arm-none-eabi-10.3-2021.10-win32/gcc-arm-none-eabi-10.3-2021.10/bin/../lib/gcc/arm-none-eabi/10.3.1/thumb/v7e-m+fp/hard\libgcc.a(_arm_muldivdf3.o)
                                                  e:/gcc-arm-none-eabi-10.3-2021.10-win32/gcc-arm-none-eabi-10.3-2021.10/bin/../lib/gcc/arm-none-eabi/10.3.1/thumb/v7e-m+fp/hard\libgcc.a(_arm_muldf3.o)
__nedf2                                           e:/gcc-arm-none-eabi-10.3-2021.10-win32/gcc-arm-none-eabi-10.3-2021.10/bin/../lib/gcc/arm-none-eabi/10.3.1/thumb/v7e-m+fp/hard\libgcc.a(_arm_cmpdf2.o)
__preinit_array_end                               e:/gcc-arm-none-eabi-10.3-2021.10-win32/gcc-arm-none-eabi-10.3-2021.10/bin/../lib/gcc/arm-none-eabi/10.3.1/../../../../arm-none-eabi/lib/thumb/v7e-m+fp/hard\libc_nano.a(lib_a-init.o)
__preinit_array_start                             e:/gcc-arm-none-eabi-10.3-2021.10-win32/gcc-arm-none-eabi-10.3-2021.10/bin/../lib/gcc/arm-none-eabi/10.3.1/../../../../arm-none-eabi/lib/thumb/v7e-m+fp/hard\libc_nano.a(lib_a-init.o)
__register_frame_info                             e:/gcc-arm-none-eabi-10.3-2021.10-win32/gcc-arm-none-eabi-10.3-2021.10/bin/../lib/gcc/arm-none-eabi/10.3.1/thumb/v7e-m+fp/hard/crtbegin.o
__retarget_lock_acquire                           e:/gcc-arm-none-eabi-10.3-2021.10-win32/gcc-arm-none-eabi-10.3-2021.10/bin/../lib/gcc/arm-none-eabi/10.3.1/../../../../arm-none-eabi/lib/thumb/v7e-m+fp/hard\libc_nano.a(lib_a-lock.o)
__retarget_lock_acquire_recursive                 e:/gcc-arm-none-eabi-10.3-2021.10-win32/gcc-arm-none-eabi-10.3-2021.10/bin/../lib/gcc/arm-none-eabi/10.3.1/../../../../arm-none-eabi/lib/thumb/v7e-m+fp/hard\libc_nano.a(lib_a-lock.o)
                                                  e:/gcc-arm-none-eabi-10.3-2021.10-win32/gcc-arm-none-eabi-10.3-2021.10/bin/../lib/gcc/arm-none-eabi/10.3.1/../../../../arm-none-eabi/lib/thumb/v7e-m+fp/hard\libc_nano.a(lib_a-mlock.o)
__retarget_lock_close                             e:/gcc-arm-none-eabi-10.3-2021.10-win32/gcc-arm-none-eabi-10.3-2021.10/bin/../lib/gcc/arm-none-eabi/10.3.1/../../../../arm-none-eabi/lib/thumb/v7e-m+fp/hard\libc_nano.a(lib_a-lock.o)
__retarget_lock_close_recursive                   e:/gcc-arm-none-eabi-10.3-2021.10-win32/gcc-arm-none-eabi-10.3-2021.10/bin/../lib/gcc/arm-none-eabi/10.3.1/../../../../arm-none-eabi/lib/thumb/v7e-m+fp/hard\libc_nano.a(lib_a-lock.o)
__retarget_lock_init                              e:/gcc-arm-none-eabi-10.3-2021.10-win32/gcc-arm-none-eabi-10.3-2021.10/bin/../lib/gcc/arm-none-eabi/10.3.1/../../../../arm-none-eabi/lib/thumb/v7e-m+fp/hard\libc_nano.a(lib_a-lock.o)
__retarget_lock_init_recursive                    e:/gcc-arm-none-eabi-10.3-2021.10-win32/gcc-arm-none-eabi-10.3-2021.10/bin/../lib/gcc/arm-none-eabi/10.3.1/../../../../arm-none-eabi/lib/thumb/v7e-m+fp/hard\libc_nano.a(lib_a-lock.o)
__retarget_lock_release                           e:/gcc-arm-none-eabi-10.3-2021.10-win32/gcc-arm-none-eabi-10.3-2021.10/bin/../lib/gcc/arm-none-eabi/10.3.1/../../../../arm-none-eabi/lib/thumb/v7e-m+fp/hard\libc_nano.a(lib_a-lock.o)
__retarget_lock_release_recursive                 e:/gcc-arm-none-eabi-10.3-2021.10-win32/gcc-arm-none-eabi-10.3-2021.10/bin/../lib/gcc/arm-none-eabi/10.3.1/../../../../arm-none-eabi/lib/thumb/v7e-m+fp/hard\libc_nano.a(lib_a-lock.o)
                                                  e:/gcc-arm-none-eabi-10.3-2021.10-win32/gcc-arm-none-eabi-10.3-2021.10/bin/../lib/gcc/arm-none-eabi/10.3.1/../../../../arm-none-eabi/lib/thumb/v7e-m+fp/hard\libc_nano.a(lib_a-mlock.o)
__retarget_lock_try_acquire                       e:/gcc-arm-none-eabi-10.3-2021.10-win32/gcc-arm-none-eabi-10.3-2021.10/bin/../lib/gcc/arm-none-eabi/10.3.1/../../../../arm-none-eabi/lib/thumb/v7e-m+fp/hard\libc_nano.a(lib_a-lock.o)
__retarget_lock_try_acquire_recursive             e:/gcc-arm-none-eabi-10.3-2021.10-win32/gcc-arm-none-eabi-10.3-2021.10/bin/../lib/gcc/arm-none-eabi/10.3.1/../../../../arm-none-eabi/lib/thumb/v7e-m+fp/hard\libc_nano.a(lib_a-lock.o)
__sf_fake_stderr                                  e:/gcc-arm-none-eabi-10.3-2021.10-win32/gcc-arm-none-eabi-10.3-2021.10/bin/../lib/gcc/arm-none-eabi/10.3.1/../../../../arm-none-eabi/lib/thumb/v7e-m+fp/hard\libc_nano.a(lib_a-impure.o)
__sf_fake_stdin                                   e:/gcc-arm-none-eabi-10.3-2021.10-win32/gcc-arm-none-eabi-10.3-2021.10/bin/../lib/gcc/arm-none-eabi/10.3.1/../../../../arm-none-eabi/lib/thumb/v7e-m+fp/hard\libc_nano.a(lib_a-impure.o)
__sf_fake_stdout                                  e:/gcc-arm-none-eabi-10.3-2021.10-win32/gcc-arm-none-eabi-10.3-2021.10/bin/../lib/gcc/arm-none-eabi/10.3.1/../../../../arm-none-eabi/lib/thumb/v7e-m+fp/hard\libc_nano.a(lib_a-impure.o)
__ssprint_r                                       e:/gcc-arm-none-eabi-10.3-2021.10-win32/gcc-arm-none-eabi-10.3-2021.10/bin/../lib/gcc/arm-none-eabi/10.3.1/../../../../arm-none-eabi/lib/thumb/v7e-m+fp/hard\libc_nano.a(lib_a-nano-svfprintf.o)
__ssputs_r                                        e:/gcc-arm-none-eabi-10.3-2021.10-win32/gcc-arm-none-eabi-10.3-2021.10/bin/../lib/gcc/arm-none-eabi/10.3.1/../../../../arm-none-eabi/lib/thumb/v7e-m+fp/hard\libc_nano.a(lib_a-nano-svfprintf.o)
__stack                                           e:/gcc-arm-none-eabi-10.3-2021.10-win32/gcc-arm-none-eabi-10.3-2021.10/bin/../lib/gcc/arm-none-eabi/10.3.1/../../../../arm-none-eabi/lib/thumb/v7e-m+fp/hard/crt0.o
__subdf3                                          e:/gcc-arm-none-eabi-10.3-2021.10-win32/gcc-arm-none-eabi-10.3-2021.10/bin/../lib/gcc/arm-none-eabi/10.3.1/thumb/v7e-m+fp/hard\libgcc.a(_arm_addsubdf3.o)
__truncdfsf2                                      e:/gcc-arm-none-eabi-10.3-2021.10-win32/gcc-arm-none-eabi-10.3-2021.10/bin/../lib/gcc/arm-none-eabi/10.3.1/thumb/v7e-m+fp/hard\libgcc.a(_arm_truncdfsf2.o)
__udivmoddi4                                      e:/gcc-arm-none-eabi-10.3-2021.10-win32/gcc-arm-none-eabi-10.3-2021.10/bin/../lib/gcc/arm-none-eabi/10.3.1/thumb/v7e-m+fp/hard\libgcc.a(_udivmoddi4.o)
                                                  e:/gcc-arm-none-eabi-10.3-2021.10-win32/gcc-arm-none-eabi-10.3-2021.10/bin/../lib/gcc/arm-none-eabi/10.3.1/thumb/v7e-m+fp/hard\libgcc.a(_aeabi_uldivmod.o)
                                                  e:/gcc-arm-none-eabi-10.3-2021.10-win32/gcc-arm-none-eabi-10.3-2021.10/bin/../lib/gcc/arm-none-eabi/10.3.1/thumb/v7e-m+fp/hard\libgcc.a(_aeabi_ldivmod.o)
__unorddf2                                        e:/gcc-arm-none-eabi-10.3-2021.10-win32/gcc-arm-none-eabi-10.3-2021.10/bin/../lib/gcc/arm-none-eabi/10.3.1/thumb/v7e-m+fp/hard\libgcc.a(_arm_unorddf2.o)
_ebss                                             build/startup_stm32l431xx.o
_edata                                            build/startup_stm32l431xx.o
_estack                                           build/startup_stm32l431xx.o
_exit                                             e:/gcc-arm-none-eabi-10.3-2021.10-win32/gcc-arm-none-eabi-10.3-2021.10/bin/../lib/gcc/arm-none-eabi/10.3.1/../../../../arm-none-eabi/lib/thumb/v7e-m+fp/hard\libnosys.a(_exit.o)
                                                  e:/gcc-arm-none-eabi-10.3-2021.10-win32/gcc-arm-none-eabi-10.3-2021.10/bin/../lib/gcc/arm-none-eabi/10.3.1/../../../../arm-none-eabi/lib/thumb/v7e-m+fp/hard\libc_nano.a(lib_a-exit.o)
_fini                                             e:/gcc-arm-none-eabi-10.3-2021.10-win32/gcc-arm-none-eabi-10.3-2021.10/bin/../lib/gcc/arm-none-eabi/10.3.1/thumb/v7e-m+fp/hard/crti.o
_free_r                                           e:/gcc-arm-none-eabi-10.3-2021.10-win32/gcc-arm-none-eabi-10.3-2021.10/bin/../lib/gcc/arm-none-eabi/10.3.1/../../../../arm-none-eabi/lib/thumb/v7e-m+fp/hard\libc_nano.a(lib_a-nano-freer.o)
                                                  e:/gcc-arm-none-eabi-10.3-2021.10-win32/gcc-arm-none-eabi-10.3-2021.10/bin/../lib/gcc/arm-none-eabi/10.3.1/../../../../arm-none-eabi/lib/thumb/v7e-m+fp/hard\libc_nano.a(lib_a-nano-reallocr.o)
                                                  e:/gcc-arm-none-eabi-10.3-2021.10-win32/gcc-arm-none-eabi-10.3-2021.10/bin/../lib/gcc/arm-none-eabi/10.3.1/../../../../arm-none-eabi/lib/thumb/v7e-m+fp/hard\libc_nano.a(lib_a-reent.o)
                                                  e:/gcc-arm-none-eabi-10.3-2021.10-win32/gcc-arm-none-eabi-10.3-2021.10/bin/../lib/gcc/arm-none-eabi/10.3.1/../../../../arm-none-eabi/lib/thumb/v7e-m+fp/hard\libc_nano.a(lib_a-nano-svfprintf.o)
                                                  e:/gcc-arm-none-eabi-10.3-2021.10-win32/gcc-arm-none-eabi-10.3-2021.10/bin/../lib/gcc/arm-none-eabi/10.3.1/../../../../arm-none-eabi/lib/thumb/v7e-m+fp/hard\libc_nano.a(lib_a-malloc.o)
_global_impure_ptr                                e:/gcc-arm-none-eabi-10.3-2021.10-win32/gcc-arm-none-eabi-10.3-2021.10/bin/../lib/gcc/arm-none-eabi/10.3.1/../../../../arm-none-eabi/lib/thumb/v7e-m+fp/hard\libc_nano.a(lib_a-impure.o)
                                                  e:/gcc-arm-none-eabi-10.3-2021.10-win32/gcc-arm-none-eabi-10.3-2021.10/bin/../lib/gcc/arm-none-eabi/10.3.1/../../../../arm-none-eabi/lib/thumb/v7e-m+fp/hard\libc_nano.a(lib_a-exit.o)
_impure_ptr                                       e:/gcc-arm-none-eabi-10.3-2021.10-win32/gcc-arm-none-eabi-10.3-2021.10/bin/../lib/gcc/arm-none-eabi/10.3.1/../../../../arm-none-eabi/lib/thumb/v7e-m+fp/hard\libc_nano.a(lib_a-impure.o)
                                                  e:/gcc-arm-none-eabi-10.3-2021.10-win32/gcc-arm-none-eabi-10.3-2021.10/bin/../lib/gcc/arm-none-eabi/10.3.1/../../../../arm-none-eabi/lib/thumb/v7e-m+fp/hard\libc_nano.a(lib_a-errno.o)
                                                  e:/gcc-arm-none-eabi-10.3-2021.10-win32/gcc-arm-none-eabi-10.3-2021.10/bin/../lib/gcc/arm-none-eabi/10.3.1/../../../../arm-none-eabi/lib/thumb/v7e-m+fp/hard\libc_nano.a(lib_a-reent.o)
                                                  e:/gcc-arm-none-eabi-10.3-2021.10-win32/gcc-arm-none-eabi-10.3-2021.10/bin/../lib/gcc/arm-none-eabi/10.3.1/../../../../arm-none-eabi/lib/thumb/v7e-m+fp/hard\libc_nano.a(lib_a-vsnprintf.o)
                                                  e:/gcc-arm-none-eabi-10.3-2021.10-win32/gcc-arm-none-eabi-10.3-2021.10/bin/../lib/gcc/arm-none-eabi/10.3.1/../../../../arm-none-eabi/lib/thumb/v7e-m+fp/hard\libc_nano.a(lib_a-malloc.o)
_init                                             e:/gcc-arm-none-eabi-10.3-2021.10-win32/gcc-arm-none-eabi-10.3-2021.10/bin/../lib/gcc/arm-none-eabi/10.3.1/thumb/v7e-m+fp/hard/crti.o
                                                  e:/gcc-arm-none-eabi-10.3-2021.10-win32/gcc-arm-none-eabi-10.3-2021.10/bin/../lib/gcc/arm-none-eabi/10.3.1/../../../../arm-none-eabi/lib/thumb/v7e-m+fp/hard\libc_nano.a(lib_a-init.o)
_mainCRTStartup                                   e:/gcc-arm-none-eabi-10.3-2021.10-win32/gcc-arm-none-eabi-10.3-2021.10/bin/../lib/gcc/arm-none-eabi/10.3.1/../../../../arm-none-eabi/lib/thumb/v7e-m+fp/hard/crt0.o
_malloc_r                                         e:/gcc-arm-none-eabi-10.3-2021.10-win32/gcc-arm-none-eabi-10.3-2021.10/bin/../lib/gcc/arm-none-eabi/10.3.1/../../../../arm-none-eabi/lib/thumb/v7e-m+fp/hard\libc_nano.a(lib_a-nano-mallocr.o)
                                                  e:/gcc-arm-none-eabi-10.3-2021.10-win32/gcc-arm-none-eabi-10.3-2021.10/bin/../lib/gcc/arm-none-eabi/10.3.1/../../../../arm-none-eabi/lib/thumb/v7e-m+fp/hard\libc_nano.a(lib_a-nano-reallocr.o)
                                                  e:/gcc-arm-none-eabi-10.3-2021.10-win32/gcc-arm-none-eabi-10.3-2021.10/bin/../lib/gcc/arm-none-eabi/10.3.1/../../../../arm-none-eabi/lib/thumb/v7e-m+fp/hard\libc_nano.a(lib_a-nano-svfprintf.o)
                                                  e:/gcc-arm-none-eabi-10.3-2021.10-win32/gcc-arm-none-eabi-10.3-2021.10/bin/../lib/gcc/arm-none-eabi/10.3.1/../../../../arm-none-eabi/lib/thumb/v7e-m+fp/hard\libc_nano.a(lib_a-malloc.o)
_malloc_usable_size_r                             e:/gcc-arm-none-eabi-10.3-2021.10-win32/gcc-arm-none-eabi-10.3-2021.10/bin/../lib/gcc/arm-none-eabi/10.3.1/../../../../arm-none-eabi/lib/thumb/v7e-m+fp/hard\libc_nano.a(lib_a-nano-msizer.o)
                                                  e:/gcc-arm-none-eabi-10.3-2021.10-win32/gcc-arm-none-eabi-10.3-2021.10/bin/../lib/gcc/arm-none-eabi/10.3.1/../../../../arm-none-eabi/lib/thumb/v7e-m+fp/hard\libc_nano.a(lib_a-nano-reallocr.o)
_printf_common                                    e:/gcc-arm-none-eabi-10.3-2021.10-win32/gcc-arm-none-eabi-10.3-2021.10/bin/../lib/gcc/arm-none-eabi/10.3.1/../../../../arm-none-eabi/lib/thumb/v7e-m+fp/hard\libc_nano.a(lib_a-nano-vfprintf_i.o)
_printf_float                                     e:/gcc-arm-none-eabi-10.3-2021.10-win32/gcc-arm-none-eabi-10.3-2021.10/bin/../lib/gcc/arm-none-eabi/10.3.1/../../../../arm-none-eabi/lib/thumb/v7e-m+fp/hard\libc_nano.a(lib_a-nano-svfprintf.o)
_printf_i                                         e:/gcc-arm-none-eabi-10.3-2021.10-win32/gcc-arm-none-eabi-10.3-2021.10/bin/../lib/gcc/arm-none-eabi/10.3.1/../../../../arm-none-eabi/lib/thumb/v7e-m+fp/hard\libc_nano.a(lib_a-nano-vfprintf_i.o)
                                                  e:/gcc-arm-none-eabi-10.3-2021.10-win32/gcc-arm-none-eabi-10.3-2021.10/bin/../lib/gcc/arm-none-eabi/10.3.1/../../../../arm-none-eabi/lib/thumb/v7e-m+fp/hard\libc_nano.a(lib_a-nano-svfprintf.o)
_realloc_r                                        e:/gcc-arm-none-eabi-10.3-2021.10-win32/gcc-arm-none-eabi-10.3-2021.10/bin/../lib/gcc/arm-none-eabi/10.3.1/../../../../arm-none-eabi/lib/thumb/v7e-m+fp/hard\libc_nano.a(lib_a-nano-reallocr.o)
                                                  e:/gcc-arm-none-eabi-10.3-2021.10-win32/gcc-arm-none-eabi-10.3-2021.10/bin/../lib/gcc/arm-none-eabi/10.3.1/../../../../arm-none-eabi/lib/thumb/v7e-m+fp/hard\libc_nano.a(lib_a-nano-svfprintf.o)
_reclaim_reent                                    e:/gcc-arm-none-eabi-10.3-2021.10-win32/gcc-arm-none-eabi-10.3-2021.10/bin/../lib/gcc/arm-none-eabi/10.3.1/../../../../arm-none-eabi/lib/thumb/v7e-m+fp/hard\libc_nano.a(lib_a-reent.o)
_sbrk                                             e:/gcc-arm-none-eabi-10.3-2021.10-win32/gcc-arm-none-eabi-10.3-2021.10/bin/../lib/gcc/arm-none-eabi/10.3.1/../../../../arm-none-eabi/lib/thumb/v7e-m+fp/hard\libnosys.a(sbrk.o)
                                                  e:/gcc-arm-none-eabi-10.3-2021.10-win32/gcc-arm-none-eabi-10.3-2021.10/bin/../lib/gcc/arm-none-eabi/10.3.1/../../../../arm-none-eabi/lib/thumb/v7e-m+fp/hard\libc_nano.a(lib_a-sbrkr.o)
_sbrk_r                                           e:/gcc-arm-none-eabi-10.3-2021.10-win32/gcc-arm-none-eabi-10.3-2021.10/bin/../lib/gcc/arm-none-eabi/10.3.1/../../../../arm-none-eabi/lib/thumb/v7e-m+fp/hard\libc_nano.a(lib_a-sbrkr.o)
                                                  e:/gcc-arm-none-eabi-10.3-2021.10-win32/gcc-arm-none-eabi-10.3-2021.10/bin/../lib/gcc/arm-none-eabi/10.3.1/../../../../arm-none-eabi/lib/thumb/v7e-m+fp/hard\libc_nano.a(lib_a-nano-mallocr.o)
_sbss                                             build/startup_stm32l431xx.o
_sdata                                            build/startup_stm32l431xx.o
_shell_command_end                                build/shell.o
_shell_command_start                              build/shell.o
_sidata                                           build/startup_stm32l431xx.o
_stack_init                                       e:/gcc-arm-none-eabi-10.3-2021.10-win32/gcc-arm-none-eabi-10.3-2021.10/bin/../lib/gcc/arm-none-eabi/10.3.1/../../../../arm-none-eabi/lib/thumb/v7e-m+fp/hard/crt0.o
_start                                            e:/gcc-arm-none-eabi-10.3-2021.10-win32/gcc-arm-none-eabi-10.3-2021.10/bin/../lib/gcc/arm-none-eabi/10.3.1/../../../../arm-none-eabi/lib/thumb/v7e-m+fp/hard/crt0.o
_svfiprintf_r                                     e:/gcc-arm-none-eabi-10.3-2021.10-win32/gcc-arm-none-eabi-10.3-2021.10/bin/../lib/gcc/arm-none-eabi/10.3.1/../../../../arm-none-eabi/lib/thumb/v7e-m+fp/hard\libc_nano.a(lib_a-nano-svfprintf.o)
_svfprintf_r                                      e:/gcc-arm-none-eabi-10.3-2021.10-win32/gcc-arm-none-eabi-10.3-2021.10/bin/../lib/gcc/arm-none-eabi/10.3.1/../../../../arm-none-eabi/lib/thumb/v7e-m+fp/hard\libc_nano.a(lib_a-nano-svfprintf.o)
                                                  e:/gcc-arm-none-eabi-10.3-2021.10-win32/gcc-arm-none-eabi-10.3-2021.10/bin/../lib/gcc/arm-none-eabi/10.3.1/../../../../arm-none-eabi/lib/thumb/v7e-m+fp/hard\libc_nano.a(lib_a-vsnprintf.o)
_vsniprintf_r                                     e:/gcc-arm-none-eabi-10.3-2021.10-win32/gcc-arm-none-eabi-10.3-2021.10/bin/../lib/gcc/arm-none-eabi/10.3.1/../../../../arm-none-eabi/lib/thumb/v7e-m+fp/hard\libc_nano.a(lib_a-vsnprintf.o)
_vsnprintf_r                                      e:/gcc-arm-none-eabi-10.3-2021.10-win32/gcc-arm-none-eabi-10.3-2021.10/bin/../lib/gcc/arm-none-eabi/10.3.1/../../../../arm-none-eabi/lib/thumb/v7e-m+fp/hard\libc_nano.a(lib_a-vsnprintf.o)
atexit                                            e:/gcc-arm-none-eabi-10.3-2021.10-win32/gcc-arm-none-eabi-10.3-2021.10/bin/../lib/gcc/arm-none-eabi/10.3.1/../../../../arm-none-eabi/lib/thumb/v7e-m+fp/hard/crt0.o
atgm_dev                                          build/ATGM332D.o
atgm_handler                                      build/ATGM332D.o
                                                  build/usart.o
atgm_io_init                                      build/ATGM332D.o
atgm_open                                         build/ATGM332D.o
                                                  build/main.o
atgm_read                                         build/ATGM332D.o
base_tick                                         build/timer.o
bds_dev                                           build/ATGM332D.o
                                                  build/main.o
cleanup_glue                                      e:/gcc-arm-none-eabi-10.3-2021.10-win32/gcc-arm-none-eabi-10.3-2021.10/bin/../lib/gcc/arm-none-eabi/10.3.1/../../../../arm-none-eabi/lib/thumb/v7e-m+fp/hard\libc_nano.a(lib_a-reent.o)
connectmsg_queue                                  build/EC2x.o
dev0_buff                                         build/ATGM332D.o
dev_led                                           build/led.o
                                                  build/main.o
dev_rs485                                         build/rs485.o
                                                  build/shell_port.o
ec2x_buff                                         build/EC2x.o
ec2x_dev                                          build/EC2x.o
ec2x_handler                                      build/EC2x.o
                                                  build/usart.o
ec2x_io_init                                      build/EC2x.o
ec2x_open                                         build/EC2x.o
                                                  build/main.o
ec2x_read                                         build/EC2x.o
ec2x_replymatch                                   build/EC2x.o
ec2x_tcp_connect                                  build/EC2x.o
                                                  build/main.o
ec2x_write                                        build/EC2x.o
end                                               e:/gcc-arm-none-eabi-10.3-2021.10-win32/gcc-arm-none-eabi-10.3-2021.10/bin/../lib/gcc/arm-none-eabi/10.3.1/../../../../arm-none-eabi/lib/thumb/v7e-m+fp/hard\libnosys.a(sbrk.o)
errno                                             e:/gcc-arm-none-eabi-10.3-2021.10-win32/gcc-arm-none-eabi-10.3-2021.10/bin/../lib/gcc/arm-none-eabi/10.3.1/../../../../arm-none-eabi/lib/thumb/v7e-m+fp/hard\libc_nano.a(lib_a-reent.o)
                                                  e:/gcc-arm-none-eabi-10.3-2021.10-win32/gcc-arm-none-eabi-10.3-2021.10/bin/../lib/gcc/arm-none-eabi/10.3.1/../../../../arm-none-eabi/lib/thumb/v7e-m+fp/hard\libc_nano.a(lib_a-sbrkr.o)
exit                                              e:/gcc-arm-none-eabi-10.3-2021.10-win32/gcc-arm-none-eabi-10.3-2021.10/bin/../lib/gcc/arm-none-eabi/10.3.1/../../../../arm-none-eabi/lib/thumb/v7e-m+fp/hard\libc_nano.a(lib_a-exit.o)
                                                  e:/gcc-arm-none-eabi-10.3-2021.10-win32/gcc-arm-none-eabi-10.3-2021.10/bin/../lib/gcc/arm-none-eabi/10.3.1/../../../../arm-none-eabi/lib/thumb/v7e-m+fp/hard/crt0.o
fabs                                              e:/gcc-arm-none-eabi-10.3-2021.10-win32/gcc-arm-none-eabi-10.3-2021.10/bin/../lib/gcc/arm-none-eabi/10.3.1/../../../../arm-none-eabi/lib/thumb/v7e-m+fp/hard\libm.a(lib_a-s_fabs.o)
                                                  e:/gcc-arm-none-eabi-10.3-2021.10-win32/gcc-arm-none-eabi-10.3-2021.10/bin/../lib/gcc/arm-none-eabi/10.3.1/../../../../arm-none-eabi/lib/thumb/v7e-m+fp/hard\libm.a(lib_a-e_pow.o)
finite                                            e:/gcc-arm-none-eabi-10.3-2021.10-win32/gcc-arm-none-eabi-10.3-2021.10/bin/../lib/gcc/arm-none-eabi/10.3.1/../../../../arm-none-eabi/lib/thumb/v7e-m+fp/hard\libm.a(lib_a-s_finite.o)
                                                  e:/gcc-arm-none-eabi-10.3-2021.10-win32/gcc-arm-none-eabi-10.3-2021.10/bin/../lib/gcc/arm-none-eabi/10.3.1/../../../../arm-none-eabi/lib/thumb/v7e-m+fp/hard\libm.a(lib_a-w_pow.o)
free                                              e:/gcc-arm-none-eabi-10.3-2021.10-win32/gcc-arm-none-eabi-10.3-2021.10/bin/../lib/gcc/arm-none-eabi/10.3.1/../../../../arm-none-eabi/lib/thumb/v7e-m+fp/hard\libc_nano.a(lib_a-malloc.o)
                                                  build/SX1278.o
                                                  build/timer.o
g_pfnVectors                                      build/startup_stm32l431xx.o
hadc1                                             build/adc.o
hardware_init_hook                                e:/gcc-arm-none-eabi-10.3-2021.10-win32/gcc-arm-none-eabi-10.3-2021.10/bin/../lib/gcc/arm-none-eabi/10.3.1/../../../../arm-none-eabi/lib/thumb/v7e-m+fp/hard/crt0.o
hspi1                                             build/spi.o
hspi2                                             build/spi.o
                                                  build/SX1278_hw.o
                                                  build/stm32l4xx_it.o
hspi3                                             build/spi.o
                                                  build/W25QXX.o
                                                  build/SX1278_hw.o
                                                  build/stm32l4xx_it.o
huart1                                            build/usart.o
                                                  build/EC2x.o
                                                  build/stm32l4xx_it.o
huart2                                            build/usart.o
                                                  build/ATGM332D.o
                                                  build/stm32l4xx_it.o
huart3                                            build/usart.o
                                                  build/rs485.o
                                                  build/stm32l4xx_it.o
lora_cache                                        build/SX1278.o
                                                  build/main.o
lora_dev_hw                                       build/SX1278_hw.o
                                                  build/SX1278.o
main                                              build/main.o
                                                  build/startup_stm32l431xx.o
                                                  e:/gcc-arm-none-eabi-10.3-2021.10-win32/gcc-arm-none-eabi-10.3-2021.10/bin/../lib/gcc/arm-none-eabi/10.3.1/../../../../arm-none-eabi/lib/thumb/v7e-m+fp/hard/crt0.o
malloc                                            e:/gcc-arm-none-eabi-10.3-2021.10-win32/gcc-arm-none-eabi-10.3-2021.10/bin/../lib/gcc/arm-none-eabi/10.3.1/../../../../arm-none-eabi/lib/thumb/v7e-m+fp/hard\libc_nano.a(lib_a-malloc.o)
                                                  build/SX1278.o
                                                  build/timer.o
memchr                                            e:/gcc-arm-none-eabi-10.3-2021.10-win32/gcc-arm-none-eabi-10.3-2021.10/bin/../lib/gcc/arm-none-eabi/10.3.1/../../../../arm-none-eabi/lib/thumb/v7e-m+fp/hard\libc_nano.a(lib_a-memchr.o)
                                                  e:/gcc-arm-none-eabi-10.3-2021.10-win32/gcc-arm-none-eabi-10.3-2021.10/bin/../lib/gcc/arm-none-eabi/10.3.1/../../../../arm-none-eabi/lib/thumb/v7e-m+fp/hard\libc_nano.a(lib_a-nano-vfprintf_i.o)
                                                  e:/gcc-arm-none-eabi-10.3-2021.10-win32/gcc-arm-none-eabi-10.3-2021.10/bin/../lib/gcc/arm-none-eabi/10.3.1/../../../../arm-none-eabi/lib/thumb/v7e-m+fp/hard\libc_nano.a(lib_a-nano-svfprintf.o)
memcpy                                            e:/gcc-arm-none-eabi-10.3-2021.10-win32/gcc-arm-none-eabi-10.3-2021.10/bin/../lib/gcc/arm-none-eabi/10.3.1/../../../../arm-none-eabi/lib/thumb/v7e-m+fp/hard\libc_nano.a(lib_a-memcpy-stub.o)
                                                  e:/gcc-arm-none-eabi-10.3-2021.10-win32/gcc-arm-none-eabi-10.3-2021.10/bin/../lib/gcc/arm-none-eabi/10.3.1/../../../../arm-none-eabi/lib/thumb/v7e-m+fp/hard\libc_nano.a(lib_a-nano-reallocr.o)
                                                  e:/gcc-arm-none-eabi-10.3-2021.10-win32/gcc-arm-none-eabi-10.3-2021.10/bin/../lib/gcc/arm-none-eabi/10.3.1/../../../../arm-none-eabi/lib/thumb/v7e-m+fp/hard\libc_nano.a(lib_a-nano-svfprintf.o)
                                                  build/SX1278.o
                                                  build/EC2x.o
                                                  build/ATGM332D.o
memmove                                           e:/gcc-arm-none-eabi-10.3-2021.10-win32/gcc-arm-none-eabi-10.3-2021.10/bin/../lib/gcc/arm-none-eabi/10.3.1/../../../../arm-none-eabi/lib/thumb/v7e-m+fp/hard\libc_nano.a(lib_a-memmove.o)
                                                  e:/gcc-arm-none-eabi-10.3-2021.10-win32/gcc-arm-none-eabi-10.3-2021.10/bin/../lib/gcc/arm-none-eabi/10.3.1/../../../../arm-none-eabi/lib/thumb/v7e-m+fp/hard\libc_nano.a(lib_a-nano-svfprintf.o)
memset                                            e:/gcc-arm-none-eabi-10.3-2021.10-win32/gcc-arm-none-eabi-10.3-2021.10/bin/../lib/gcc/arm-none-eabi/10.3.1/../../../../arm-none-eabi/lib/thumb/v7e-m+fp/hard\libc_nano.a(lib_a-memset.o)
                                                  build/SX1278.o
                                                  build/EC2x.o
                                                  build/usart.o
                                                  build/spi.o
                                                  build/adc.o
                                                  build/gpio.o
                                                  build/shell.o
                                                  build/shell_ext.o
                                                  build/main.o
                                                  e:/gcc-arm-none-eabi-10.3-2021.10-win32/gcc-arm-none-eabi-10.3-2021.10/bin/../lib/gcc/arm-none-eabi/10.3.1/../../../../arm-none-eabi/lib/thumb/v7e-m+fp/hard/crt0.o
pFlash                                            build/stm32l4xx_hal_flash.o
                                                  build/stm32l4xx_hal_flash_ex.o
pow                                               e:/gcc-arm-none-eabi-10.3-2021.10-win32/gcc-arm-none-eabi-10.3-2021.10/bin/../lib/gcc/arm-none-eabi/10.3.1/../../../../arm-none-eabi/lib/thumb/v7e-m+fp/hard\libm.a(lib_a-w_pow.o)
                                                  build/W25QXX.o
queue_init                                        build/queue.o
queue_insert                                      build/queue.o
queue_is_empty                                    build/queue.o
queue_is_full                                     build/queue.o
queue_pop                                         build/queue.o
queue_pull                                        build/queue.o
scalbn                                            e:/gcc-arm-none-eabi-10.3-2021.10-win32/gcc-arm-none-eabi-10.3-2021.10/bin/../lib/gcc/arm-none-eabi/10.3.1/../../../../arm-none-eabi/lib/thumb/v7e-m+fp/hard\libm.a(lib_a-s_scalbn.o)
                                                  e:/gcc-arm-none-eabi-10.3-2021.10-win32/gcc-arm-none-eabi-10.3-2021.10/bin/../lib/gcc/arm-none-eabi/10.3.1/../../../../arm-none-eabi/lib/thumb/v7e-m+fp/hard\libm.a(lib_a-e_pow.o)
shell                                             build/shell_port.o
                                                  build/SX1278.o
                                                  build/EC2x.o
                                                  build/ATGM332D.o
                                                  build/led.o
                                                  build/W25QXX.o
                                                  build/usart.o
                                                  build/adc.o
                                                  build/main.o
shellBackspace                                    build/shell.o
shellCheckPermission                              build/shell.o
shellClear                                        build/shell.o
shellClearCommandLine                             build/shell.o
shellCmdDefaultUser                               build/shell.o
shellCmdbattery_test                              build/adc.o
shellCmdbds_test                                  build/ATGM332D.o
shellCmdclear                                     build/shell.o
shellCmdcmds                                      build/shell.o
shellCmdec2x_connect                              build/EC2x.o
shellCmdec2x_test                                 build/EC2x.o
shellCmdflash_test                                build/W25QXX.o
shellCmdhelp                                      build/shell.o
shellCmdkeys                                      build/shell.o
shellCmdldr_test                                  build/adc.o
shellCmdled_test                                  build/led.o
shellCmdlora_test                                 build/SX1278.o
shellCmdmac_print                                 build/main.o
shellCmdrs485_test                                build/rs485.o
shellCmds                                         build/shell.o
shellCmdsetVar                                    build/shell.o
shellCmdtest_all                                  build/main.o
shellCmdusers                                     build/shell.o
shellCmdvars                                      build/shell.o
shellCommandbattery_test                          build/adc.o
shellCommandbds_test                              build/ATGM332D.o
shellCommandclear                                 build/shell.o
shellCommandcmds                                  build/shell.o
shellCommandec2x_connect                          build/EC2x.o
shellCommandec2x_test                             build/EC2x.o
shellCommandflash_test                            build/W25QXX.o
shellCommandhelp                                  build/shell.o
shellCommandkeys                                  build/shell.o
shellCommandldr_test                              build/adc.o
shellCommandled_test                              build/led.o
shellCommandlora_test                             build/SX1278.o
shellCommandmac_print                             build/main.o
shellCommandrs485_test                            build/rs485.o
shellCommandsetVar                                build/shell.o
shellCommandtest_all                              build/main.o
shellCommandusers                                 build/shell.o
shellCommandvars                                  build/shell.o
shellDelete                                       build/shell.o
shellDeleteByte                                   build/shell.o
shellDeleteCommandLine                            build/shell.o
shellDesDefaultUser                               build/shell.o
shellDesc0x08000000                               build/shell.o
shellDesc0x09000000                               build/shell.o
shellDesc0x0A000000                               build/shell.o
shellDesc0x0D000000                               build/shell.o
shellDesc0x1B5B337E                               build/shell.o
shellDesc0x1B5B4100                               build/shell.o
shellDesc0x1B5B4200                               build/shell.o
shellDesc0x1B5B4300                               build/shell.o
shellDesc0x1B5B4400                               build/shell.o
shellDesc0x7F000000                               build/shell.o
shellDescbattery_test                             build/adc.o
shellDescbds_test                                 build/ATGM332D.o
shellDescclear                                    build/shell.o
shellDesccmds                                     build/shell.o
shellDescec2x_connect                             build/EC2x.o
shellDescec2x_test                                build/EC2x.o
shellDescflash_test                               build/W25QXX.o
shellDeschelp                                     build/shell.o
shellDesckeys                                     build/shell.o
shellDescldr_test                                 build/adc.o
shellDescled_test                                 build/led.o
shellDesclora_test                                build/SX1278.o
shellDescmac_print                                build/main.o
shellDescrs485_test                               build/rs485.o
shellDescsetVar                                   build/shell.o
shellDesctest_all                                 build/main.o
shellDescusers                                    build/shell.o
shellDescvars                                     build/shell.o
shellDown                                         build/shell.o
shellEnter                                        build/shell.o
shellExec                                         build/shell.o
shellExtParsePara                                 build/shell_ext.o
shellExtRun                                       build/shell_ext.o
                                                  build/shell.o
shellGetCurrent                                   build/shell.o
shellGetVarValue                                  build/shell.o
                                                  build/shell_ext.o
shellHandler                                      build/shell.o
                                                  build/usart.o
shellHelp                                         build/shell.o
shellInit                                         build/shell.o
                                                  build/shell_port.o
shellInsertByte                                   build/shell.o
shellKey0x08000000                                build/shell.o
shellKey0x09000000                                build/shell.o
shellKey0x0A000000                                build/shell.o
shellKey0x0D000000                                build/shell.o
shellKey0x1B5B337E                                build/shell.o
shellKey0x1B5B4100                                build/shell.o
shellKey0x1B5B4200                                build/shell.o
shellKey0x1B5B4300                                build/shell.o
shellKey0x1B5B4400                                build/shell.o
shellKey0x7F000000                                build/shell.o
shellKeys                                         build/shell.o
shellLeft                                         build/shell.o
shellListAll                                      build/shell.o
shellListCommand                                  build/shell.o
shellListItem                                     build/shell.o
shellListKey                                      build/shell.o
shellListUser                                     build/shell.o
shellListVar                                      build/shell.o
shellNormalInput                                  build/shell.o
shellPasswordDefaultUser                          build/shell.o
shellPrint                                        build/shell.o
                                                  build/SX1278.o
                                                  build/EC2x.o
                                                  build/ATGM332D.o
                                                  build/led.o
                                                  build/W25QXX.o
                                                  build/adc.o
                                                  build/main.o
shellRemove                                       build/shell.o
shellRight                                        build/shell.o
shellRun                                          build/shell.o
shellRunCommand                                   build/shell.o
shellSeekCommand                                  build/shell.o
                                                  build/shell_ext.o
shellSetUser                                      build/shell.o
shellSetVar                                       build/shell.o
shellSetVarValue                                  build/shell.o
shellTab                                          build/shell.o
shellTask                                         build/shell.o
shellToDec                                        build/shell.o
shellToHex                                        build/shell.o
shellUp                                           build/shell.o
shellUserDefault                                  build/shell.o
shellUsers                                        build/shell.o
shellVars                                         build/shell.o
shellWriteString                                  build/shell.o
shell_buffer                                      build/shell_port.o
shellidle_cnt                                     build/shell.o
software_init_hook                                e:/gcc-arm-none-eabi-10.3-2021.10-win32/gcc-arm-none-eabi-10.3-2021.10/bin/../lib/gcc/arm-none-eabi/10.3.1/../../../../arm-none-eabi/lib/thumb/v7e-m+fp/hard/crt0.o
strcmp                                            e:/gcc-arm-none-eabi-10.3-2021.10-win32/gcc-arm-none-eabi-10.3-2021.10/bin/../lib/gcc/arm-none-eabi/10.3.1/../../../../arm-none-eabi/lib/thumb/v7e-m+fp/hard\libc_nano.a(lib_a-strcmp.o)
                                                  build/EC2x.o
                                                  build/ATGM332D.o
                                                  build/led.o
                                                  build/W25QXX.o
                                                  build/shell.o
strlen                                            e:/gcc-arm-none-eabi-10.3-2021.10-win32/gcc-arm-none-eabi-10.3-2021.10/bin/../lib/gcc/arm-none-eabi/10.3.1/../../../../arm-none-eabi/lib/thumb/v7e-m+fp/hard\libc_nano.a(lib_a-strlen.o)
                                                  build/SX1278.o
                                                  build/EC2x.o
                                                  build/rs485.o
                                                  build/shell.o
strncmp                                           e:/gcc-arm-none-eabi-10.3-2021.10-win32/gcc-arm-none-eabi-10.3-2021.10/bin/../lib/gcc/arm-none-eabi/10.3.1/../../../../arm-none-eabi/lib/thumb/v7e-m+fp/hard\libc_nano.a(lib_a-strncmp.o)
                                                  build/shell.o
strstr                                            e:/gcc-arm-none-eabi-10.3-2021.10-win32/gcc-arm-none-eabi-10.3-2021.10/bin/../lib/gcc/arm-none-eabi/10.3.1/../../../../arm-none-eabi/lib/thumb/v7e-m+fp/hard\libc_nano.a(lib_a-strstr.o)
                                                  build/EC2x.o
                                                  build/main.o
tcp_connect                                       build/EC2x.o
tcpconnct_step                                    build/EC2x.o
test_error_cnt                                    build/shell_port.o
                                                  build/ATGM332D.o
                                                  build/W25QXX.o
                                                  build/adc.o
test_ok_cnt                                       build/shell_port.o
                                                  build/EC2x.o
                                                  build/ATGM332D.o
                                                  build/rs485.o
                                                  build/W25QXX.o
                                                  build/adc.o
                                                  build/main.o
timer_init                                        build/timer.o
                                                  build/main.o
timer_insert                                      build/timer.o
timer_list                                        build/timer.o
timer_update                                      build/timer.o
                                                  build/stm32l4xx_it.o
u1_cache                                          build/usart.o
u2_cache                                          build/usart.o
u3_cache                                          build/usart.o
uwTick                                            build/stm32l4xx_hal.o
uwTickFreq                                        build/stm32l4xx_hal.o
uwTickPrio                                        build/stm32l4xx_hal.o
                                                  build/stm32l4xx_hal_rcc.o
vsniprintf                                        e:/gcc-arm-none-eabi-10.3-2021.10-win32/gcc-arm-none-eabi-10.3-2021.10/bin/../lib/gcc/arm-none-eabi/10.3.1/../../../../arm-none-eabi/lib/thumb/v7e-m+fp/hard\libc_nano.a(lib_a-vsnprintf.o)
vsnprintf                                         e:/gcc-arm-none-eabi-10.3-2021.10-win32/gcc-arm-none-eabi-10.3-2021.10/bin/../lib/gcc/arm-none-eabi/10.3.1/../../../../arm-none-eabi/lib/thumb/v7e-m+fp/hard\libc_nano.a(lib_a-vsnprintf.o)
                                                  build/shell.o
