ARM GAS  C:\Users\CL\AppData\Local\Temp\ccarHezp.s 			page 1


   1              		.cpu cortex-m4
   2              		.arch armv7e-m
   3              		.fpu fpv4-sp-d16
   4              		.eabi_attribute 27, 1
   5              		.eabi_attribute 28, 1
   6              		.eabi_attribute 20, 1
   7              		.eabi_attribute 21, 1
   8              		.eabi_attribute 23, 3
   9              		.eabi_attribute 24, 1
  10              		.eabi_attribute 25, 1
  11              		.eabi_attribute 26, 1
  12              		.eabi_attribute 30, 4
  13              		.eabi_attribute 34, 1
  14              		.eabi_attribute 18, 4
  15              		.file	"EC2x.c"
  16              		.text
  17              		.section	.text.ec2x_io_init,"ax",%progbits
  18              		.align	1
  19              		.global	ec2x_io_init
  20              		.syntax unified
  21              		.thumb
  22              		.thumb_func
  24              	ec2x_io_init:
  25              		@ args = 0, pretend = 0, frame = 24
  26              		@ frame_needed = 0, uses_anonymous_args = 0
  27 0000 70B5     		push	{r4, r5, r6, lr}
  28 0002 0025     		movs	r5, #0
  29 0004 86B0     		sub	sp, sp, #24
  30 0006 CDE90355 		strd	r5, r5, [sp, #12]
  31 000a 204B     		ldr	r3, .L2
  32 000c 0595     		str	r5, [sp, #20]
  33 000e DA6C     		ldr	r2, [r3, #76]
  34 0010 42F00102 		orr	r2, r2, #1
  35 0014 DA64     		str	r2, [r3, #76]
  36 0016 DB6C     		ldr	r3, [r3, #76]
  37 0018 03F00103 		and	r3, r3, #1
  38 001c 0446     		mov	r4, r0
  39 001e 0093     		str	r3, [sp]
  40 0020 0126     		movs	r6, #1
  41 0022 009B     		ldr	r3, [sp]
  42 0024 038C     		ldrh	r3, [r0, #32]
  43 0026 C069     		ldr	r0, [r0, #28]
  44 0028 0193     		str	r3, [sp, #4]
  45 002a 01A9     		add	r1, sp, #4
  46 002c 0296     		str	r6, [sp, #8]
  47 002e FFF7FEFF 		bl	HAL_GPIO_Init
  48 0032 238D     		ldrh	r3, [r4, #40]
  49 0034 606A     		ldr	r0, [r4, #36]
  50 0036 01A9     		add	r1, sp, #4
  51 0038 CDE90136 		strd	r3, r6, [sp, #4]
  52 003c CDE90355 		strd	r5, r5, [sp, #12]
  53 0040 FFF7FEFF 		bl	HAL_GPIO_Init
  54 0044 238B     		ldrh	r3, [r4, #24]
  55 0046 6069     		ldr	r0, [r4, #20]
  56 0048 01A9     		add	r1, sp, #4
  57 004a CDE90136 		strd	r3, r6, [sp, #4]
  58 004e CDE90355 		strd	r5, r5, [sp, #12]
ARM GAS  C:\Users\CL\AppData\Local\Temp\ccarHezp.s 			page 2


  59 0052 FFF7FEFF 		bl	HAL_GPIO_Init
  60 0056 218C     		ldrh	r1, [r4, #32]
  61 0058 E069     		ldr	r0, [r4, #28]
  62 005a 3246     		mov	r2, r6
  63 005c FFF7FEFF 		bl	HAL_GPIO_WritePin
  64 0060 218D     		ldrh	r1, [r4, #40]
  65 0062 606A     		ldr	r0, [r4, #36]
  66 0064 3246     		mov	r2, r6
  67 0066 FFF7FEFF 		bl	HAL_GPIO_WritePin
  68 006a 218B     		ldrh	r1, [r4, #24]
  69 006c 6069     		ldr	r0, [r4, #20]
  70 006e 3246     		mov	r2, r6
  71 0070 FFF7FEFF 		bl	HAL_GPIO_WritePin
  72 0074 4FF47A70 		mov	r0, #1000
  73 0078 FFF7FEFF 		bl	Delay_ms
  74 007c 218B     		ldrh	r1, [r4, #24]
  75 007e 6069     		ldr	r0, [r4, #20]
  76 0080 2A46     		mov	r2, r5
  77 0082 FFF7FEFF 		bl	HAL_GPIO_WritePin
  78 0086 06B0     		add	sp, sp, #24
  79              		@ sp needed
  80 0088 70BD     		pop	{r4, r5, r6, pc}
  81              	.L3:
  82 008a 00BF     		.align	2
  83              	.L2:
  84 008c 00100240 		.word	1073876992
  86              		.section	.text.ec2x_write,"ax",%progbits
  87              		.align	1
  88              		.global	ec2x_write
  89              		.syntax unified
  90              		.thumb
  91              		.thumb_func
  93              	ec2x_write:
  94              		@ args = 0, pretend = 0, frame = 0
  95              		@ frame_needed = 0, uses_anonymous_args = 0
  96 0000 10B5     		push	{r4, lr}
  97 0002 60B9     		cbnz	r0, .L7
  98 0004 074C     		ldr	r4, .L10
  99 0006 2069     		ldr	r0, [r4, #16]
 100 0008 FFF7FEFF 		bl	HAL_UART_Transmit_IT
 101 000c 2369     		ldr	r3, [r4, #16]
 102 000e 1A68     		ldr	r2, [r3]
 103              	.L6:
 104 0010 D369     		ldr	r3, [r2, #28]
 105 0012 5B06     		lsls	r3, r3, #25
 106 0014 FCD5     		bpl	.L6
 107 0016 B0FA80F0 		clz	r0, r0
 108 001a 4009     		lsrs	r0, r0, #5
 109              	.L4:
 110 001c 10BD     		pop	{r4, pc}
 111              	.L7:
 112 001e 4FF0FF30 		mov	r0, #-1
 113 0022 FBE7     		b	.L4
 114              	.L11:
 115              		.align	2
 116              	.L10:
 117 0024 00000000 		.word	.LANCHOR0
ARM GAS  C:\Users\CL\AppData\Local\Temp\ccarHezp.s 			page 3


 119              		.section	.text.ec2x_read,"ax",%progbits
 120              		.align	1
 121              		.global	ec2x_read
 122              		.syntax unified
 123              		.thumb
 124              		.thumb_func
 126              	ec2x_read:
 127              		@ args = 0, pretend = 0, frame = 0
 128              		@ frame_needed = 0, uses_anonymous_args = 0
 129 0000 70B5     		push	{r4, r5, r6, lr}
 130 0002 1646     		mov	r6, r2
 131 0004 0546     		mov	r5, r0
 132 0006 58BB     		cbnz	r0, .L18
 133 0008 174C     		ldr	r4, .L19
 134 000a 94F82C30 		ldrb	r3, [r4, #44]	@ zero_extendqisi2
 135 000e 43B1     		cbz	r3, .L14
 136 0010 6420     		movs	r0, #100
 137 0012 FFF7FEFF 		bl	Delay_ms
 138 0016 94F82C30 		ldrb	r3, [r4, #44]	@ zero_extendqisi2
 139 001a 03B9     		cbnz	r3, .L13
 140              	.L15:
 141 001c 3546     		mov	r5, r6
 142              	.L13:
 143 001e 2846     		mov	r0, r5
 144 0020 70BD     		pop	{r4, r5, r6, pc}
 145              	.L14:
 146 0022 0123     		movs	r3, #1
 147 0024 84F82C30 		strb	r3, [r4, #44]
 148 0028 238F     		ldrh	r3, [r4, #56]
 149 002a 9A42     		cmp	r2, r3
 150 002c 28BF     		it	cs
 151 002e 1E46     		movcs	r6, r3
 152 0030 8819     		adds	r0, r1, r6
 153              	.L16:
 154 0032 8142     		cmp	r1, r0
 155 0034 03D1     		bne	.L17
 156 0036 0023     		movs	r3, #0
 157 0038 84F82C30 		strb	r3, [r4, #44]
 158 003c EEE7     		b	.L15
 159              	.L17:
 160 003e A38E     		ldrh	r3, [r4, #52]
 161 0040 226B     		ldr	r2, [r4, #48]
 162 0042 D35C     		ldrb	r3, [r2, r3]	@ zero_extendqisi2
 163 0044 01F8013B 		strb	r3, [r1], #1
 164 0048 A38E     		ldrh	r3, [r4, #52]
 165 004a 628F     		ldrh	r2, [r4, #58]
 166 004c 0133     		adds	r3, r3, #1
 167 004e B3FBF2F5 		udiv	r5, r3, r2
 168 0052 02FB1533 		mls	r3, r2, r5, r3
 169 0056 A386     		strh	r3, [r4, #52]	@ movhi
 170 0058 238F     		ldrh	r3, [r4, #56]
 171 005a 013B     		subs	r3, r3, #1
 172 005c 2387     		strh	r3, [r4, #56]	@ movhi
 173 005e E8E7     		b	.L16
 174              	.L18:
 175 0060 4FF0FF35 		mov	r5, #-1
 176 0064 DBE7     		b	.L13
ARM GAS  C:\Users\CL\AppData\Local\Temp\ccarHezp.s 			page 4


 177              	.L20:
 178 0066 00BF     		.align	2
 179              	.L19:
 180 0068 00000000 		.word	.LANCHOR0
 182              		.section	.rodata.ec2x_handler.str1.1,"aMS",%progbits,1
 183              	.LC0:
 184 0000 257300   		.ascii	"%s\000"
 185              		.section	.text.ec2x_handler,"ax",%progbits
 186              		.align	1
 187              		.global	ec2x_handler
 188              		.syntax unified
 189              		.thumb
 190              		.thumb_func
 192              	ec2x_handler:
 193              		@ args = 0, pretend = 0, frame = 0
 194              		@ frame_needed = 0, uses_anonymous_args = 0
 195 0000 70B5     		push	{r4, r5, r6, lr}
 196 0002 0646     		mov	r6, r0
 197 0004 0C46     		mov	r4, r1
 198 0006 1B48     		ldr	r0, .L26
 199 0008 1546     		mov	r5, r2
 200 000a 0A46     		mov	r2, r1
 201 000c 1A49     		ldr	r1, .L26+4
 202 000e FFF7FEFF 		bl	shellPrint
 203 0012 1A4B     		ldr	r3, .L26+8
 204 0014 1A69     		ldr	r2, [r3, #16]
 205 0016 B242     		cmp	r2, r6
 206 0018 16D1     		bne	.L21
 207 001a 93F82C00 		ldrb	r0, [r3, #44]	@ zero_extendqisi2
 208 001e 98B9     		cbnz	r0, .L21
 209 0020 0122     		movs	r2, #1
 210 0022 83F82C20 		strb	r2, [r3, #44]
 211              	.L23:
 212 0026 C6B2     		uxtb	r6, r0
 213 0028 AE42     		cmp	r6, r5
 214 002a DA8E     		ldrh	r2, [r3, #54]
 215 002c 00F10101 		add	r1, r0, #1
 216 0030 0BD3     		bcc	.L24
 217 0032 998E     		ldrh	r1, [r3, #52]
 218 0034 9142     		cmp	r1, r2
 219 0036 04D2     		bcs	.L25
 220 0038 188F     		ldrh	r0, [r3, #56]
 221 003a 598F     		ldrh	r1, [r3, #58]
 222 003c 8842     		cmp	r0, r1
 223 003e 08BF     		it	eq
 224 0040 9A86     		strheq	r2, [r3, #52]	@ movhi
 225              	.L25:
 226 0042 0022     		movs	r2, #0
 227 0044 83F82C20 		strb	r2, [r3, #44]
 228              	.L21:
 229 0048 70BD     		pop	{r4, r5, r6, pc}
 230              	.L24:
 231 004a 186B     		ldr	r0, [r3, #48]
 232 004c A65D     		ldrb	r6, [r4, r6]	@ zero_extendqisi2
 233 004e 8654     		strb	r6, [r0, r2]
 234 0050 DA8E     		ldrh	r2, [r3, #54]
 235 0052 5E8F     		ldrh	r6, [r3, #58]
ARM GAS  C:\Users\CL\AppData\Local\Temp\ccarHezp.s 			page 5


 236 0054 0132     		adds	r2, r2, #1
 237 0056 B2FBF6F0 		udiv	r0, r2, r6
 238 005a 06FB1022 		mls	r2, r6, r0, r2
 239 005e 188F     		ldrh	r0, [r3, #56]
 240 0060 DA86     		strh	r2, [r3, #54]	@ movhi
 241 0062 0130     		adds	r0, r0, #1
 242 0064 80B2     		uxth	r0, r0
 243 0066 B042     		cmp	r0, r6
 244 0068 28BF     		it	cs
 245 006a 3046     		movcs	r0, r6
 246 006c 1887     		strh	r0, [r3, #56]	@ movhi
 247 006e 0846     		mov	r0, r1
 248 0070 D9E7     		b	.L23
 249              	.L27:
 250 0072 00BF     		.align	2
 251              	.L26:
 252 0074 00000000 		.word	shell
 253 0078 00000000 		.word	.LC0
 254 007c 00000000 		.word	.LANCHOR0
 256              		.section	.text.ec2x_replymatch,"ax",%progbits
 257              		.align	1
 258              		.global	ec2x_replymatch
 259              		.syntax unified
 260              		.thumb
 261              		.thumb_func
 263              	ec2x_replymatch:
 264              		@ args = 0, pretend = 0, frame = 200
 265              		@ frame_needed = 0, uses_anonymous_args = 0
 266 0000 30B5     		push	{r4, r5, lr}
 267 0002 0024     		movs	r4, #0
 268 0004 B3B0     		sub	sp, sp, #204
 269 0006 C422     		movs	r2, #196
 270 0008 2146     		mov	r1, r4
 271 000a 0546     		mov	r5, r0
 272 000c 01A8     		add	r0, sp, #4
 273 000e 0094     		str	r4, [sp]
 274 0010 FFF7FEFF 		bl	memset
 275 0014 C822     		movs	r2, #200
 276 0016 6946     		mov	r1, sp
 277 0018 2046     		mov	r0, r4
 278 001a FFF7FEFF 		bl	ec2x_read
 279 001e A042     		cmp	r0, r4
 280 0020 08DD     		ble	.L30
 281 0022 2946     		mov	r1, r5
 282 0024 6846     		mov	r0, sp
 283 0026 FFF7FEFF 		bl	strstr
 284 002a 001B     		subs	r0, r0, r4
 285 002c 18BF     		it	ne
 286 002e 0120     		movne	r0, #1
 287              	.L28:
 288 0030 33B0     		add	sp, sp, #204
 289              		@ sp needed
 290 0032 30BD     		pop	{r4, r5, pc}
 291              	.L30:
 292 0034 2046     		mov	r0, r4
 293 0036 FBE7     		b	.L28
 295              		.section	.text.ec2x_cmd_send,"ax",%progbits
ARM GAS  C:\Users\CL\AppData\Local\Temp\ccarHezp.s 			page 6


 296              		.align	1
 297              		.syntax unified
 298              		.thumb
 299              		.thumb_func
 301              	ec2x_cmd_send:
 302              		@ args = 4, pretend = 0, frame = 0
 303              		@ frame_needed = 0, uses_anonymous_args = 0
 304 0000 2DE9F843 		push	{r3, r4, r5, r6, r7, r8, r9, lr}
 305 0004 0646     		mov	r6, r0
 306 0006 9046     		mov	r8, r2
 307 0008 1D46     		mov	r5, r3
 308 000a 0F46     		mov	r7, r1
 309 000c A9B1     		cbz	r1, .L32
 310 000e 174C     		ldr	r4, .L44
 311 0010 3C23     		movs	r3, #60
 312 0012 03FB0044 		mla	r4, r3, r0, r4
 313 0016 4FF00009 		mov	r9, #0
 314 001a 4FF44803 		mov	r3, #13107200
 315 001e C822     		movs	r2, #200
 316 0020 4946     		mov	r1, r9
 317 0022 C4E90D93 		strd	r9, r3, [r4, #52]
 318 0026 206B     		ldr	r0, [r4, #48]
 319 0028 FFF7FEFF 		bl	memset
 320 002c 84F82C90 		strb	r9, [r4, #44]
 321 0030 4246     		mov	r2, r8
 322 0032 3946     		mov	r1, r7
 323 0034 3046     		mov	r0, r6
 324 0036 FFF7FEFF 		bl	ec2x_write
 325              	.L32:
 326 003a 15B9     		cbnz	r5, .L33
 327              	.L37:
 328 003c 0020     		movs	r0, #0
 329              	.L31:
 330 003e BDE8F883 		pop	{r3, r4, r5, r6, r7, r8, r9, pc}
 331              	.L33:
 332 0042 4FF6FF76 		movw	r6, #65535
 333 0046 BDF82040 		ldrh	r4, [sp, #32]
 334 004a 6423     		movs	r3, #100
 335 004c B4FBF3F4 		udiv	r4, r4, r3
 336              	.L35:
 337 0050 013C     		subs	r4, r4, #1
 338 0052 A4B2     		uxth	r4, r4
 339 0054 B442     		cmp	r4, r6
 340 0056 F1D0     		beq	.L37
 341 0058 6420     		movs	r0, #100
 342 005a FFF7FEFF 		bl	Delay_ms
 343 005e 2846     		mov	r0, r5
 344 0060 FFF7FEFF 		bl	ec2x_replymatch
 345 0064 0128     		cmp	r0, #1
 346 0066 F3D1     		bne	.L35
 347 0068 E9E7     		b	.L31
 348              	.L45:
 349 006a 00BF     		.align	2
 350              	.L44:
 351 006c 00000000 		.word	.LANCHOR0
 353              		.section	.rodata.ec2x_reset.constprop.0.str1.1,"aMS",%progbits,1
 354              	.LC1:
ARM GAS  C:\Users\CL\AppData\Local\Temp\ccarHezp.s 			page 7


 355 0000 5244590D 		.ascii	"RDY\015\012\000"
 355      0A00
 356              		.section	.text.ec2x_reset.constprop.0,"ax",%progbits
 357              		.align	1
 358              		.syntax unified
 359              		.thumb
 360              		.thumb_func
 362              	ec2x_reset.constprop.0:
 363              		@ args = 0, pretend = 0, frame = 0
 364              		@ frame_needed = 0, uses_anonymous_args = 0
 365 0000 13B5     		push	{r0, r1, r4, lr}
 366 0002 0F4C     		ldr	r4, .L47
 367 0004 0122     		movs	r2, #1
 368 0006 218B     		ldrh	r1, [r4, #24]
 369 0008 6069     		ldr	r0, [r4, #20]
 370 000a FFF7FEFF 		bl	HAL_GPIO_WritePin
 371 000e 4FF4FA70 		mov	r0, #500
 372 0012 FFF7FEFF 		bl	Delay_ms
 373 0016 218B     		ldrh	r1, [r4, #24]
 374 0018 6069     		ldr	r0, [r4, #20]
 375 001a 0022     		movs	r2, #0
 376 001c FFF7FEFF 		bl	HAL_GPIO_WritePin
 377 0020 084A     		ldr	r2, .L47+4
 378 0022 1378     		ldrb	r3, [r2]	@ zero_extendqisi2
 379 0024 0133     		adds	r3, r3, #1
 380 0026 1370     		strb	r3, [r2]
 381 0028 0022     		movs	r2, #0
 382 002a 44F62063 		movw	r3, #20000
 383 002e 0093     		str	r3, [sp]
 384 0030 1146     		mov	r1, r2
 385 0032 054B     		ldr	r3, .L47+8
 386 0034 1046     		mov	r0, r2
 387 0036 FFF7FEFF 		bl	ec2x_cmd_send
 388 003a 02B0     		add	sp, sp, #8
 389              		@ sp needed
 390 003c 10BD     		pop	{r4, pc}
 391              	.L48:
 392 003e 00BF     		.align	2
 393              	.L47:
 394 0040 00000000 		.word	.LANCHOR0
 395 0044 00000000 		.word	.LANCHOR1
 396 0048 00000000 		.word	.LC1
 398              		.section	.rodata.ec2x_tcp_connect.str1.1,"aMS",%progbits,1
 399              	.LC2:
 400 0000 6E6F2069 		.ascii	"no invalid ec2x device sn\015\012\000"
 400      6E76616C 
 400      69642065 
 400      63327820 
 400      64657669 
 401              	.LC3:
 402 001c 54435020 		.ascii	"TCP Connect Failed\015\012\000"
 402      436F6E6E 
 402      65637420 
 402      4661696C 
 402      65640D0A 
 403              	.LC4:
 404 0031 25732065 		.ascii	"%s err\015\012\000"
ARM GAS  C:\Users\CL\AppData\Local\Temp\ccarHezp.s 			page 8


 404      72720D0A 
 404      00
 405              	.LC5:
 406 003a 74637020 		.ascii	"tcp is connected\015\012\000"
 406      69732063 
 406      6F6E6E65 
 406      63746564 
 406      0D0A00
 407              		.section	.text.ec2x_tcp_connect,"ax",%progbits
 408              		.align	1
 409              		.global	ec2x_tcp_connect
 410              		.syntax unified
 411              		.thumb
 412              		.thumb_func
 414              	ec2x_tcp_connect:
 415              		@ args = 0, pretend = 0, frame = 8
 416              		@ frame_needed = 0, uses_anonymous_args = 0
 417 0000 F0B5     		push	{r4, r5, r6, r7, lr}
 418 0002 514F     		ldr	r7, .L100
 419 0004 0023     		movs	r3, #0
 420 0006 85B0     		sub	sp, sp, #20
 421 0008 3B70     		strb	r3, [r7]
 422 000a 68B9     		cbnz	r0, .L82
 423 000c 4F4D     		ldr	r5, .L100+4
 424 000e 504C     		ldr	r4, .L100+8
 425              	.L50:
 426 0010 2B78     		ldrb	r3, [r5]	@ zero_extendqisi2
 427 0012 082B     		cmp	r3, #8
 428 0014 0DD8     		bhi	.L49
 429 0016 3A78     		ldrb	r2, [r7]	@ zero_extendqisi2
 430 0018 052A     		cmp	r2, #5
 431 001a 0CD9     		bls	.L52
 432 001c 4D48     		ldr	r0, .L100+12
 433 001e 4E49     		ldr	r1, .L100+16
 434 0020 FFF7FEFF 		bl	shellPrint
 435 0024 0020     		movs	r0, #0
 436 0026 04E0     		b	.L49
 437              	.L82:
 438 0028 4A48     		ldr	r0, .L100+12
 439 002a 4C49     		ldr	r1, .L100+20
 440 002c FFF7FEFF 		bl	shellPrint
 441 0030 FF20     		movs	r0, #255
 442              	.L49:
 443 0032 05B0     		add	sp, sp, #20
 444              		@ sp needed
 445 0034 F0BD     		pop	{r4, r5, r6, r7, pc}
 446              	.L52:
 447 0036 013B     		subs	r3, r3, #1
 448 0038 072B     		cmp	r3, #7
 449 003a 05D8     		bhi	.L53
 450 003c DFE803F0 		tbb	[pc, r3]
 451              	.L55:
 452 0040 21       		.byte	(.L62-.L55)/2
 453 0041 2A       		.byte	(.L61-.L55)/2
 454 0042 33       		.byte	(.L60-.L55)/2
 455 0043 49       		.byte	(.L59-.L55)/2
 456 0044 52       		.byte	(.L58-.L55)/2
ARM GAS  C:\Users\CL\AppData\Local\Temp\ccarHezp.s 			page 9


 457 0045 5B       		.byte	(.L57-.L55)/2
 458 0046 64       		.byte	(.L56-.L55)/2
 459 0047 7E       		.byte	(.L54-.L55)/2
 460              		.p2align 1
 461              	.L53:
 462 0048 2168     		ldr	r1, [r4]
 463 004a 0391     		str	r1, [sp, #12]
 464 004c 0846     		mov	r0, r1
 465 004e FFF7FEFF 		bl	strlen
 466 0052 2389     		ldrh	r3, [r4, #8]
 467 0054 0093     		str	r3, [sp]
 468 0056 6368     		ldr	r3, [r4, #4]
 469              	.L94:
 470 0058 0399     		ldr	r1, [sp, #12]
 471 005a 82B2     		uxth	r2, r0
 472 005c 0020     		movs	r0, #0
 473 005e FFF7FEFF 		bl	ec2x_cmd_send
 474 0062 3F49     		ldr	r1, .L100+24
 475 0064 0646     		mov	r6, r0
 476 0066 0028     		cmp	r0, #0
 477 0068 57D0     		beq	.L78
 478 006a 2B78     		ldrb	r3, [r5]	@ zero_extendqisi2
 479 006c 0133     		adds	r3, r3, #1
 480 006e 2CE0     		b	.L85
 481              	.L65:
 482 0070 0133     		adds	r3, r3, #1
 483 0072 C820     		movs	r0, #200
 484 0074 0B70     		strb	r3, [r1]
 485 0076 FFF7FEFF 		bl	Delay_ms
 486              	.L64:
 487 007a 6420     		movs	r0, #100
 488 007c FFF7FEFF 		bl	Delay_ms
 489 0080 C6E7     		b	.L50
 490              	.L62:
 491 0082 E168     		ldr	r1, [r4, #12]
 492 0084 0391     		str	r1, [sp, #12]
 493 0086 0846     		mov	r0, r1
 494 0088 FFF7FEFF 		bl	strlen
 495 008c 2389     		ldrh	r3, [r4, #8]
 496 008e 0093     		str	r3, [sp]
 497 0090 2369     		ldr	r3, [r4, #16]
 498 0092 E1E7     		b	.L94
 499              	.L61:
 500 0094 A169     		ldr	r1, [r4, #24]
 501 0096 0391     		str	r1, [sp, #12]
 502 0098 0846     		mov	r0, r1
 503 009a FFF7FEFF 		bl	strlen
 504 009e 2389     		ldrh	r3, [r4, #8]
 505 00a0 0093     		str	r3, [sp]
 506 00a2 E369     		ldr	r3, [r4, #28]
 507 00a4 D8E7     		b	.L94
 508              	.L60:
 509 00a6 616A     		ldr	r1, [r4, #36]
 510 00a8 0391     		str	r1, [sp, #12]
 511 00aa 0846     		mov	r0, r1
 512 00ac FFF7FEFF 		bl	strlen
 513 00b0 2389     		ldrh	r3, [r4, #8]
ARM GAS  C:\Users\CL\AppData\Local\Temp\ccarHezp.s 			page 10


 514 00b2 0399     		ldr	r1, [sp, #12]
 515 00b4 0093     		str	r3, [sp]
 516 00b6 82B2     		uxth	r2, r0
 517 00b8 A36A     		ldr	r3, [r4, #40]
 518 00ba 0020     		movs	r0, #0
 519 00bc FFF7FEFF 		bl	ec2x_cmd_send
 520 00c0 2749     		ldr	r1, .L100+24
 521 00c2 0646     		mov	r6, r0
 522 00c4 48B3     		cbz	r0, .L78
 523 00c6 2B78     		ldrb	r3, [r5]	@ zero_extendqisi2
 524 00c8 0233     		adds	r3, r3, #2
 525              	.L85:
 526 00ca 2B70     		strb	r3, [r5]
 527 00cc 0023     		movs	r3, #0
 528 00ce 0B70     		strb	r3, [r1]
 529 00d0 D3E7     		b	.L64
 530              	.L59:
 531 00d2 216B     		ldr	r1, [r4, #48]
 532 00d4 0391     		str	r1, [sp, #12]
 533 00d6 0846     		mov	r0, r1
 534 00d8 FFF7FEFF 		bl	strlen
 535 00dc 2389     		ldrh	r3, [r4, #8]
 536 00de 0093     		str	r3, [sp]
 537 00e0 636B     		ldr	r3, [r4, #52]
 538 00e2 B9E7     		b	.L94
 539              	.L58:
 540 00e4 E16B     		ldr	r1, [r4, #60]
 541 00e6 0391     		str	r1, [sp, #12]
 542 00e8 0846     		mov	r0, r1
 543 00ea FFF7FEFF 		bl	strlen
 544 00ee 2389     		ldrh	r3, [r4, #8]
 545 00f0 0093     		str	r3, [sp]
 546 00f2 236C     		ldr	r3, [r4, #64]
 547 00f4 B0E7     		b	.L94
 548              	.L57:
 549 00f6 A16C     		ldr	r1, [r4, #72]
 550 00f8 0391     		str	r1, [sp, #12]
 551 00fa 0846     		mov	r0, r1
 552 00fc FFF7FEFF 		bl	strlen
 553 0100 2389     		ldrh	r3, [r4, #8]
 554 0102 0093     		str	r3, [sp]
 555 0104 E36C     		ldr	r3, [r4, #76]
 556 0106 A7E7     		b	.L94
 557              	.L56:
 558 0108 616D     		ldr	r1, [r4, #84]
 559 010a 0391     		str	r1, [sp, #12]
 560 010c 0846     		mov	r0, r1
 561 010e FFF7FEFF 		bl	strlen
 562 0112 2389     		ldrh	r3, [r4, #8]
 563 0114 0093     		str	r3, [sp]
 564 0116 A36D     		ldr	r3, [r4, #88]
 565 0118 9EE7     		b	.L94
 566              	.L78:
 567 011a 2A78     		ldrb	r2, [r5]	@ zero_extendqisi2
 568 011c 0B78     		ldrb	r3, [r1]	@ zero_extendqisi2
 569 011e 0C20     		movs	r0, #12
 570 0120 4243     		muls	r2, r0, r2
ARM GAS  C:\Users\CL\AppData\Local\Temp\ccarHezp.s 			page 11


 571 0122 A018     		adds	r0, r4, r2
 572 0124 807A     		ldrb	r0, [r0, #10]	@ zero_extendqisi2
 573 0126 9842     		cmp	r0, r3
 574 0128 A2D2     		bcs	.L65
 575 012a A258     		ldr	r2, [r4, r2]
 576 012c 0D49     		ldr	r1, .L100+28
 577 012e 0948     		ldr	r0, .L100+12
 578 0130 FFF7FEFF 		bl	shellPrint
 579 0134 FFF7FEFF 		bl	ec2x_reset.constprop.0
 580 0138 2E70     		strb	r6, [r5]
 581 013a 9EE7     		b	.L64
 582              	.L54:
 583 013c 0548     		ldr	r0, .L100+12
 584 013e 0A49     		ldr	r1, .L100+32
 585 0140 FFF7FEFF 		bl	shellPrint
 586 0144 0120     		movs	r0, #1
 587 0146 74E7     		b	.L49
 588              	.L101:
 589              		.align	2
 590              	.L100:
 591 0148 00000000 		.word	.LANCHOR1
 592 014c 00000000 		.word	.LANCHOR3
 593 0150 00000000 		.word	.LANCHOR2
 594 0154 00000000 		.word	shell
 595 0158 1C000000 		.word	.LC3
 596 015c 00000000 		.word	.LC2
 597 0160 00000000 		.word	.LANCHOR4
 598 0164 31000000 		.word	.LC4
 599 0168 3A000000 		.word	.LC5
 601              		.section	.rodata.EC2x_Test.str1.1,"aMS",%progbits,1
 602              	.LC6:
 603 0000 7463705F 		.ascii	"tcp_connect\000"
 603      636F6E6E 
 603      65637400 
 604              	.LC7:
 605 000c 45433278 		.ascii	"EC2x CMD Test OK\015\012\000"
 605      20434D44 
 605      20546573 
 605      74204F4B 
 605      0D0A00
 606              	.LC8:
 607 001f 45433278 		.ascii	"EC2x CMD Test Failed\015\012\000"
 607      20434D44 
 607      20546573 
 607      74204661 
 607      696C6564 
 608              		.section	.text.EC2x_Test,"ax",%progbits
 609              		.align	1
 610              		.global	EC2x_Test
 611              		.syntax unified
 612              		.thumb
 613              		.thumb_func
 615              	EC2x_Test:
 616              		@ args = 0, pretend = 0, frame = 40
 617              		@ frame_needed = 0, uses_anonymous_args = 0
 618 0000 2DE9F043 		push	{r4, r5, r6, r7, r8, r9, lr}
 619 0004 8DB0     		sub	sp, sp, #52
ARM GAS  C:\Users\CL\AppData\Local\Temp\ccarHezp.s 			page 12


 620 0006 0D46     		mov	r5, r1
 621 0008 FF24     		movs	r4, #255
 622 000a 0021     		movs	r1, #0
 623 000c 0646     		mov	r6, r0
 624 000e 1746     		mov	r7, r2
 625 0010 03A8     		add	r0, sp, #12
 626 0012 1022     		movs	r2, #16
 627 0014 9846     		mov	r8, r3
 628 0016 0294     		str	r4, [sp, #8]
 629 0018 FFF7FEFF 		bl	memset
 630 001c 0021     		movs	r1, #0
 631 001e 1022     		movs	r2, #16
 632 0020 08A8     		add	r0, sp, #32
 633 0022 0794     		str	r4, [sp, #28]
 634 0024 FFF7FEFF 		bl	memset
 635 0028 1F49     		ldr	r1, .L106
 636 002a 2846     		mov	r0, r5
 637 002c FFF7FEFF 		bl	strcmp
 638 0030 28B9     		cbnz	r0, .L103
 639 0032 3046     		mov	r0, r6
 640 0034 FFF7FEFF 		bl	ec2x_tcp_connect
 641              	.L102:
 642 0038 0DB0     		add	sp, sp, #52
 643              		@ sp needed
 644 003a BDE8F083 		pop	{r4, r5, r6, r7, r8, r9, pc}
 645              	.L103:
 646 003e 2846     		mov	r0, r5
 647 0040 FFF7FEFF 		bl	strlen
 648 0044 0446     		mov	r4, r0
 649 0046 3846     		mov	r0, r7
 650 0048 FFF7FEFF 		bl	strlen
 651 004c E4B2     		uxtb	r4, r4
 652 004e 8146     		mov	r9, r0
 653 0050 2246     		mov	r2, r4
 654 0052 2946     		mov	r1, r5
 655 0054 02A8     		add	r0, sp, #8
 656 0056 FFF7FEFF 		bl	memcpy
 657 005a 04F13003 		add	r3, r4, #48
 658 005e 6B44     		add	r3, sp, r3
 659 0060 0D22     		movs	r2, #13
 660 0062 03F8282C 		strb	r2, [r3, #-40]
 661 0066 0A22     		movs	r2, #10
 662 0068 03F8272C 		strb	r2, [r3, #-39]
 663 006c 3946     		mov	r1, r7
 664 006e 5FFA89F2 		uxtb	r2, r9
 665 0072 07A8     		add	r0, sp, #28
 666 0074 FFF7FEFF 		bl	memcpy
 667 0078 A21C     		adds	r2, r4, #2
 668 007a CDF80080 		str	r8, [sp]
 669 007e 07AB     		add	r3, sp, #28
 670 0080 D2B2     		uxtb	r2, r2
 671 0082 02A9     		add	r1, sp, #8
 672 0084 3046     		mov	r0, r6
 673 0086 FFF7FEFF 		bl	ec2x_cmd_send
 674 008a 40B1     		cbz	r0, .L105
 675 008c 0749     		ldr	r1, .L106+4
 676 008e 0848     		ldr	r0, .L106+8
ARM GAS  C:\Users\CL\AppData\Local\Temp\ccarHezp.s 			page 13


 677 0090 FFF7FEFF 		bl	shellPrint
 678 0094 074A     		ldr	r2, .L106+12
 679 0096 1378     		ldrb	r3, [r2]	@ zero_extendqisi2
 680 0098 0133     		adds	r3, r3, #1
 681 009a 1370     		strb	r3, [r2]
 682 009c CCE7     		b	.L102
 683              	.L105:
 684 009e 0649     		ldr	r1, .L106+16
 685 00a0 0348     		ldr	r0, .L106+8
 686 00a2 FFF7FEFF 		bl	shellPrint
 687 00a6 C7E7     		b	.L102
 688              	.L107:
 689              		.align	2
 690              	.L106:
 691 00a8 00000000 		.word	.LC6
 692 00ac 0C000000 		.word	.LC7
 693 00b0 00000000 		.word	shell
 694 00b4 00000000 		.word	test_ok_cnt
 695 00b8 1F000000 		.word	.LC8
 697              		.section	.rodata.ec2x_open.str1.1,"aMS",%progbits,1
 698              	.LC9:
 699 0000 65633278 		.ascii	"ec2x initial ok\015\012\000"
 699      20696E69 
 699      7469616C 
 699      206F6B0D 
 699      0A00
 700              	.LC10:
 701 0012 65633278 		.ascii	"ec2x initial not ok\015\012\000"
 701      20696E69 
 701      7469616C 
 701      206E6F74 
 701      206F6B0D 
 702              		.section	.text.ec2x_open,"ax",%progbits
 703              		.align	1
 704              		.global	ec2x_open
 705              		.syntax unified
 706              		.thumb
 707              		.thumb_func
 709              	ec2x_open:
 710              		@ args = 0, pretend = 0, frame = 0
 711              		@ frame_needed = 0, uses_anonymous_args = 0
 712 0000 38B5     		push	{r3, r4, r5, lr}
 713 0002 0D49     		ldr	r1, .L112
 714 0004 FFF7FEFF 		bl	strcmp
 715 0008 0546     		mov	r5, r0
 716 000a 90B9     		cbnz	r0, .L111
 717 000c 0A48     		ldr	r0, .L112
 718 000e FFF7FEFF 		bl	ec2x_io_init
 719 0012 FFF7FEFF 		bl	ec2x_reset.constprop.0
 720 0016 0446     		mov	r4, r0
 721 0018 30B1     		cbz	r0, .L110
 722 001a 0849     		ldr	r1, .L112+4
 723 001c 0848     		ldr	r0, .L112+8
 724 001e FFF7FEFF 		bl	shellPrint
 725 0022 2C46     		mov	r4, r5
 726              	.L108:
 727 0024 2046     		mov	r0, r4
ARM GAS  C:\Users\CL\AppData\Local\Temp\ccarHezp.s 			page 14


 728 0026 38BD     		pop	{r3, r4, r5, pc}
 729              	.L110:
 730 0028 0649     		ldr	r1, .L112+12
 731 002a 0548     		ldr	r0, .L112+8
 732 002c FFF7FEFF 		bl	shellPrint
 733 0030 F8E7     		b	.L108
 734              	.L111:
 735 0032 4FF0FF34 		mov	r4, #-1
 736 0036 F5E7     		b	.L108
 737              	.L113:
 738              		.align	2
 739              	.L112:
 740 0038 00000000 		.word	.LANCHOR0
 741 003c 00000000 		.word	.LC9
 742 0040 00000000 		.word	shell
 743 0044 12000000 		.word	.LC10
 745              		.global	shellCommandec2x_connect
 746              		.global	shellDescec2x_connect
 747              		.global	shellCmdec2x_connect
 748              		.global	shellCommandec2x_test
 749              		.global	shellDescec2x_test
 750              		.global	shellCmdec2x_test
 751              		.global	ec2x_dev
 752              		.global	connectmsg_queue
 753              		.section	.rodata.str1.1,"aMS",%progbits,1
 754              	.LC11:
 755 0000 41540D0A 		.ascii	"AT\015\012\000"
 755      00
 756              	.LC12:
 757 0005 4F4B00   		.ascii	"OK\000"
 758              	.LC13:
 759 0008 41542B43 		.ascii	"AT+CPIN?\015\012\000"
 759      50494E3F 
 759      0D0A00
 760              	.LC14:
 761 0013 52454144 		.ascii	"READY\000"
 761      5900
 762              	.LC15:
 763 0019 41542B43 		.ascii	"AT+CREG?\015\012\000"
 763      5245473F 
 763      0D0A00
 764              	.LC16:
 765 0024 2B435245 		.ascii	"+CREG: 0,1\000"
 765      473A2030 
 765      2C3100
 766              	.LC17:
 767 002f 41542B43 		.ascii	"AT+CGREG?\015\012\000"
 767      47524547 
 767      3F0D0A00 
 768              	.LC18:
 769 003b 2B434752 		.ascii	"+CGREG: 0,1\000"
 769      45473A20 
 769      302C3100 
 770              	.LC19:
 771 0047 41542B51 		.ascii	"AT+QICSGP=1,1,\"CMNET\",\"\",\"\",1\015\012\000"
 771      49435347 
 771      503D312C 
ARM GAS  C:\Users\CL\AppData\Local\Temp\ccarHezp.s 			page 15


 771      312C2243 
 771      4D4E4554 
 772              	.LC20:
 773 0067 41542B51 		.ascii	"AT+QIDEACT=1\015\012\000"
 773      49444541 
 773      43543D31 
 773      0D0A00
 774              	.LC21:
 775 0076 41542B51 		.ascii	"AT+QIACT=1\015\012\000"
 775      49414354 
 775      3D310D0A 
 775      00
 776              	.LC22:
 777 0083 434F4E4E 		.ascii	"CONNECT\000"
 777      45435400 
 778              		.global	tcpconnct_step
 779              		.global	tcp_connect
 780              		.global	ec2x_buff
 781              		.section	.bss.reset_times,"aw",%nobits
 782              		.set	.LANCHOR1,. + 0
 785              	reset_times:
 786 0000 00       		.space	1
 787              		.section	.bss.retry.0,"aw",%nobits
 788              		.set	.LANCHOR4,. + 0
 791              	retry.0:
 792 0000 00       		.space	1
 793              		.section	.bss.step.1,"aw",%nobits
 794              		.set	.LANCHOR3,. + 0
 797              	step.1:
 798 0000 00       		.space	1
 799              		.section	.bss.tcpconnct_step,"aw",%nobits
 802              	tcpconnct_step:
 803 0000 00       		.space	1
 804              		.section	.data.connectmsg_queue,"aw"
 805              		.align	2
 806              		.set	.LANCHOR2,. + 0
 809              	connectmsg_queue:
 810 0000 00000000 		.word	.LC11
 811 0004 05000000 		.word	.LC12
 812 0008 C800     		.short	200
 813 000a 05       		.byte	5
 814 000b 00       		.space	1
 815 000c 08000000 		.word	.LC13
 816 0010 13000000 		.word	.LC14
 817 0014 C800     		.short	200
 818 0016 05       		.byte	5
 819 0017 00       		.space	1
 820 0018 19000000 		.word	.LC15
 821 001c 24000000 		.word	.LC16
 822 0020 C800     		.short	200
 823 0022 05       		.byte	5
 824 0023 00       		.space	1
 825 0024 2F000000 		.word	.LC17
 826 0028 3B000000 		.word	.LC18
 827 002c C800     		.short	200
 828 002e 05       		.byte	5
 829 002f 00       		.space	1
ARM GAS  C:\Users\CL\AppData\Local\Temp\ccarHezp.s 			page 16


 830 0030 47000000 		.word	.LC19
 831 0034 05000000 		.word	.LC12
 832 0038 C800     		.short	200
 833 003a 05       		.byte	5
 834 003b 00       		.space	1
 835 003c 67000000 		.word	.LC20
 836 0040 05000000 		.word	.LC12
 837 0044 C800     		.short	200
 838 0046 05       		.byte	5
 839 0047 00       		.space	1
 840 0048 76000000 		.word	.LC21
 841 004c 05000000 		.word	.LC12
 842 0050 C800     		.short	200
 843 0052 05       		.byte	5
 844 0053 00       		.space	1
 845 0054 00000000 		.word	tcp_connect
 846 0058 83000000 		.word	.LC22
 847 005c F401     		.short	500
 848 005e 05       		.byte	5
 849 005f 00       		.space	1
 850              		.section	.data.ec2x_buff,"aw"
 853              	ec2x_buff:
 854 0000 FF00     		.ascii	"\377\000"
 855 0002 00000000 		.space	198
 855      00000000 
 855      00000000 
 855      00000000 
 855      00000000 
 856              		.section	.data.ec2x_dev,"aw"
 857              		.align	2
 858              		.set	.LANCHOR0,. + 0
 861              	ec2x_dev:
 862 0000 75617274 		.ascii	"uart1/ec200s\000"
 862      312F6563 
 862      32303073 
 862      00
 863 000d 0000     		.space	2
 864 000f 00       		.space	1
 865 0010 00000000 		.word	huart1
 866 0014 00000048 		.word	1207959552
 867 0018 0010     		.short	4096
 868 001a 0000     		.space	2
 869 001c 00000048 		.word	1207959552
 870 0020 0001     		.short	256
 871 0022 0000     		.space	2
 872 0024 00000048 		.word	1207959552
 873 0028 0008     		.short	2048
 874 002a 0000     		.space	2
 875 002c 00       		.byte	0
 876 002d 000000   		.space	3
 877 0030 00000000 		.word	ec2x_buff
 878 0034 0000     		.short	0
 879 0036 0000     		.short	0
 880 0038 0000     		.short	0
 881 003a C800     		.short	200
 882              		.section	.data.tcp_connect,"aw"
 885              	tcp_connect:
ARM GAS  C:\Users\CL\AppData\Local\Temp\ccarHezp.s 			page 17


 886 0000 41542B51 		.ascii	"AT+QIOPEN=1,0,\"TCP\",\"115.236.153.170\",52894,0,2"
 886      494F5045 
 886      4E3D312C 
 886      302C2254 
 886      4350222C 
 887 002f 0D0A00   		.ascii	"\015\012\000"
 888              		.section	.rodata.shellCmdec2x_connect,"a"
 891              	shellCmdec2x_connect:
 892 0000 65633278 		.ascii	"ec2x_connect\000"
 892      5F636F6E 
 892      6E656374 
 892      00
 893              		.section	.rodata.shellCmdec2x_test,"a"
 896              	shellCmdec2x_test:
 897 0000 65633278 		.ascii	"ec2x_test\000"
 897      5F746573 
 897      7400
 898              		.section	.rodata.shellDescec2x_connect,"a"
 901              	shellDescec2x_connect:
 902 0000 65633278 		.ascii	"ec2x tcp connect\000"
 902      20746370 
 902      20636F6E 
 902      6E656374 
 902      00
 903              		.section	.rodata.shellDescec2x_test,"a"
 906              	shellDescec2x_test:
 907 0000 73656E64 		.ascii	"send command and wait for reply\000"
 907      20636F6D 
 907      6D616E64 
 907      20616E64 
 907      20776169 
 908              		.section	shellCommand,"a"
 911              	shellCommandec2x_connect:
 912 0000 00210000 		.4byte	8448
 913 0004 00000000 		.4byte	shellCmdec2x_connect
 914 0008 00000000 		.4byte	ec2x_tcp_connect
 915 000c 00000000 		.4byte	shellDescec2x_connect
 918              	shellCommandec2x_test:
 919 0010 00210000 		.4byte	8448
 920 0014 00000000 		.4byte	shellCmdec2x_test
 921 0018 00000000 		.4byte	EC2x_Test
 922 001c 00000000 		.4byte	shellDescec2x_test
 923              		.ident	"GCC: (GNU Arm Embedded Toolchain 10.3-2021.10) 10.3.1 20210824 (release)"
ARM GAS  C:\Users\CL\AppData\Local\Temp\ccarHezp.s 			page 18


DEFINED SYMBOLS
                            *ABS*:00000000 EC2x.c
C:\Users\CL\AppData\Local\Temp\ccarHezp.s:18     .text.ec2x_io_init:00000000 $t
C:\Users\CL\AppData\Local\Temp\ccarHezp.s:24     .text.ec2x_io_init:00000000 ec2x_io_init
C:\Users\CL\AppData\Local\Temp\ccarHezp.s:84     .text.ec2x_io_init:0000008c $d
C:\Users\CL\AppData\Local\Temp\ccarHezp.s:87     .text.ec2x_write:00000000 $t
C:\Users\CL\AppData\Local\Temp\ccarHezp.s:93     .text.ec2x_write:00000000 ec2x_write
C:\Users\CL\AppData\Local\Temp\ccarHezp.s:117    .text.ec2x_write:00000024 $d
C:\Users\CL\AppData\Local\Temp\ccarHezp.s:120    .text.ec2x_read:00000000 $t
C:\Users\CL\AppData\Local\Temp\ccarHezp.s:126    .text.ec2x_read:00000000 ec2x_read
C:\Users\CL\AppData\Local\Temp\ccarHezp.s:180    .text.ec2x_read:00000068 $d
C:\Users\CL\AppData\Local\Temp\ccarHezp.s:186    .text.ec2x_handler:00000000 $t
C:\Users\CL\AppData\Local\Temp\ccarHezp.s:192    .text.ec2x_handler:00000000 ec2x_handler
C:\Users\CL\AppData\Local\Temp\ccarHezp.s:252    .text.ec2x_handler:00000074 $d
C:\Users\CL\AppData\Local\Temp\ccarHezp.s:257    .text.ec2x_replymatch:00000000 $t
C:\Users\CL\AppData\Local\Temp\ccarHezp.s:263    .text.ec2x_replymatch:00000000 ec2x_replymatch
C:\Users\CL\AppData\Local\Temp\ccarHezp.s:296    .text.ec2x_cmd_send:00000000 $t
C:\Users\CL\AppData\Local\Temp\ccarHezp.s:301    .text.ec2x_cmd_send:00000000 ec2x_cmd_send
C:\Users\CL\AppData\Local\Temp\ccarHezp.s:351    .text.ec2x_cmd_send:0000006c $d
C:\Users\CL\AppData\Local\Temp\ccarHezp.s:357    .text.ec2x_reset.constprop.0:00000000 $t
C:\Users\CL\AppData\Local\Temp\ccarHezp.s:362    .text.ec2x_reset.constprop.0:00000000 ec2x_reset.constprop.0
C:\Users\CL\AppData\Local\Temp\ccarHezp.s:394    .text.ec2x_reset.constprop.0:00000040 $d
C:\Users\CL\AppData\Local\Temp\ccarHezp.s:408    .text.ec2x_tcp_connect:00000000 $t
C:\Users\CL\AppData\Local\Temp\ccarHezp.s:414    .text.ec2x_tcp_connect:00000000 ec2x_tcp_connect
C:\Users\CL\AppData\Local\Temp\ccarHezp.s:452    .text.ec2x_tcp_connect:00000040 $d
C:\Users\CL\AppData\Local\Temp\ccarHezp.s:460    .text.ec2x_tcp_connect:00000048 $t
C:\Users\CL\AppData\Local\Temp\ccarHezp.s:591    .text.ec2x_tcp_connect:00000148 $d
C:\Users\CL\AppData\Local\Temp\ccarHezp.s:609    .text.EC2x_Test:00000000 $t
C:\Users\CL\AppData\Local\Temp\ccarHezp.s:615    .text.EC2x_Test:00000000 EC2x_Test
C:\Users\CL\AppData\Local\Temp\ccarHezp.s:691    .text.EC2x_Test:000000a8 $d
C:\Users\CL\AppData\Local\Temp\ccarHezp.s:703    .text.ec2x_open:00000000 $t
C:\Users\CL\AppData\Local\Temp\ccarHezp.s:709    .text.ec2x_open:00000000 ec2x_open
C:\Users\CL\AppData\Local\Temp\ccarHezp.s:740    .text.ec2x_open:00000038 $d
C:\Users\CL\AppData\Local\Temp\ccarHezp.s:911    shellCommand:00000000 shellCommandec2x_connect
C:\Users\CL\AppData\Local\Temp\ccarHezp.s:901    .rodata.shellDescec2x_connect:00000000 shellDescec2x_connect
C:\Users\CL\AppData\Local\Temp\ccarHezp.s:891    .rodata.shellCmdec2x_connect:00000000 shellCmdec2x_connect
C:\Users\CL\AppData\Local\Temp\ccarHezp.s:918    shellCommand:00000010 shellCommandec2x_test
C:\Users\CL\AppData\Local\Temp\ccarHezp.s:906    .rodata.shellDescec2x_test:00000000 shellDescec2x_test
C:\Users\CL\AppData\Local\Temp\ccarHezp.s:896    .rodata.shellCmdec2x_test:00000000 shellCmdec2x_test
C:\Users\CL\AppData\Local\Temp\ccarHezp.s:861    .data.ec2x_dev:00000000 ec2x_dev
C:\Users\CL\AppData\Local\Temp\ccarHezp.s:809    .data.connectmsg_queue:00000000 connectmsg_queue
C:\Users\CL\AppData\Local\Temp\ccarHezp.s:802    .bss.tcpconnct_step:00000000 tcpconnct_step
C:\Users\CL\AppData\Local\Temp\ccarHezp.s:885    .data.tcp_connect:00000000 tcp_connect
C:\Users\CL\AppData\Local\Temp\ccarHezp.s:853    .data.ec2x_buff:00000000 ec2x_buff
C:\Users\CL\AppData\Local\Temp\ccarHezp.s:785    .bss.reset_times:00000000 reset_times
C:\Users\CL\AppData\Local\Temp\ccarHezp.s:786    .bss.reset_times:00000000 $d
C:\Users\CL\AppData\Local\Temp\ccarHezp.s:791    .bss.retry.0:00000000 retry.0
C:\Users\CL\AppData\Local\Temp\ccarHezp.s:792    .bss.retry.0:00000000 $d
C:\Users\CL\AppData\Local\Temp\ccarHezp.s:797    .bss.step.1:00000000 step.1
C:\Users\CL\AppData\Local\Temp\ccarHezp.s:798    .bss.step.1:00000000 $d
C:\Users\CL\AppData\Local\Temp\ccarHezp.s:803    .bss.tcpconnct_step:00000000 $d
C:\Users\CL\AppData\Local\Temp\ccarHezp.s:805    .data.connectmsg_queue:00000000 $d
C:\Users\CL\AppData\Local\Temp\ccarHezp.s:855    .data.ec2x_buff:00000002 $d
C:\Users\CL\AppData\Local\Temp\ccarHezp.s:857    .data.ec2x_dev:00000000 $d

UNDEFINED SYMBOLS
HAL_GPIO_Init
ARM GAS  C:\Users\CL\AppData\Local\Temp\ccarHezp.s 			page 19


HAL_GPIO_WritePin
Delay_ms
HAL_UART_Transmit_IT
shellPrint
shell
memset
strstr
strlen
strcmp
memcpy
test_ok_cnt
huart1
