ARM GAS  C:\Users\CL\AppData\Local\Temp\ccEiqd8j.s 			page 1


   1              		.cpu cortex-m4
   2              		.arch armv7e-m
   3              		.fpu fpv4-sp-d16
   4              		.eabi_attribute 27, 1
   5              		.eabi_attribute 28, 1
   6              		.eabi_attribute 20, 1
   7              		.eabi_attribute 21, 1
   8              		.eabi_attribute 23, 3
   9              		.eabi_attribute 24, 1
  10              		.eabi_attribute 25, 1
  11              		.eabi_attribute 26, 1
  12              		.eabi_attribute 30, 6
  13              		.eabi_attribute 34, 1
  14              		.eabi_attribute 18, 4
  15              		.file	"fsm.c"
  16              		.text
  17              	.Ltext0:
  18              		.cfi_sections	.debug_frame
  19              		.section	.text.FSM_Regist,"ax",%progbits
  20              		.align	1
  21              		.global	FSM_Regist
  22              		.syntax unified
  23              		.thumb
  24              		.thumb_func
  26              	FSM_Regist:
  27              	.LFB0:
  28              		.file 1 "ThirdParty/FSM/fsm.c"
   1:ThirdParty/FSM/fsm.c **** #include "fsm.h"
   2:ThirdParty/FSM/fsm.c **** #include "stdlib.h"
   3:ThirdParty/FSM/fsm.c **** 
   4:ThirdParty/FSM/fsm.c **** void FSM_Regist(FSM_T* pFSM,StateTransform_T* pTable,unsigned char trans_num,States_T init_state)
   5:ThirdParty/FSM/fsm.c **** {
  29              		.loc 1 5 1
  30              		.cfi_startproc
  31              		@ args = 0, pretend = 0, frame = 16
  32              		@ frame_needed = 1, uses_anonymous_args = 0
  33              		@ link register save eliminated.
  34 0000 80B4     		push	{r7}
  35              	.LCFI0:
  36              		.cfi_def_cfa_offset 4
  37              		.cfi_offset 7, -4
  38 0002 85B0     		sub	sp, sp, #20
  39              	.LCFI1:
  40              		.cfi_def_cfa_offset 24
  41 0004 00AF     		add	r7, sp, #0
  42              	.LCFI2:
  43              		.cfi_def_cfa_register 7
  44 0006 F860     		str	r0, [r7, #12]
  45 0008 B960     		str	r1, [r7, #8]
  46 000a 1146     		mov	r1, r2
  47 000c 1A46     		mov	r2, r3
  48 000e 0B46     		mov	r3, r1
  49 0010 FB71     		strb	r3, [r7, #7]
  50 0012 1346     		mov	r3, r2
  51 0014 BB71     		strb	r3, [r7, #6]
   6:ThirdParty/FSM/fsm.c **** 	pFSM->pTransTable = pTable;
  52              		.loc 1 6 20
ARM GAS  C:\Users\CL\AppData\Local\Temp\ccEiqd8j.s 			page 2


  53 0016 FB68     		ldr	r3, [r7, #12]
  54 0018 BA68     		ldr	r2, [r7, #8]
  55 001a 9A60     		str	r2, [r3, #8]
   7:ThirdParty/FSM/fsm.c **** 	pFSM->state = init_state;
  56              		.loc 1 7 14
  57 001c FB68     		ldr	r3, [r7, #12]
  58 001e BA79     		ldrb	r2, [r7, #6]
  59 0020 1A70     		strb	r2, [r3]
   8:ThirdParty/FSM/fsm.c **** 	pFSM->transform_num = trans_num;
  60              		.loc 1 8 22
  61 0022 FA79     		ldrb	r2, [r7, #7]	@ zero_extendqisi2
  62 0024 FB68     		ldr	r3, [r7, #12]
  63 0026 5A60     		str	r2, [r3, #4]
   9:ThirdParty/FSM/fsm.c **** 
  10:ThirdParty/FSM/fsm.c **** }
  64              		.loc 1 10 1
  65 0028 00BF     		nop
  66 002a 1437     		adds	r7, r7, #20
  67              	.LCFI3:
  68              		.cfi_def_cfa_offset 4
  69 002c BD46     		mov	sp, r7
  70              	.LCFI4:
  71              		.cfi_def_cfa_register 13
  72              		@ sp needed
  73 002e 5DF8047B 		ldr	r7, [sp], #4
  74              	.LCFI5:
  75              		.cfi_restore 7
  76              		.cfi_def_cfa_offset 0
  77 0032 7047     		bx	lr
  78              		.cfi_endproc
  79              	.LFE0:
  81              		.section	.text.FSM_StateTransfer,"ax",%progbits
  82              		.align	1
  83              		.global	FSM_StateTransfer
  84              		.syntax unified
  85              		.thumb
  86              		.thumb_func
  88              	FSM_StateTransfer:
  89              	.LFB1:
  11:ThirdParty/FSM/fsm.c **** void FSM_StateTransfer(FSM_T* pFSM,States_T next_state)
  12:ThirdParty/FSM/fsm.c **** {
  90              		.loc 1 12 1
  91              		.cfi_startproc
  92              		@ args = 0, pretend = 0, frame = 8
  93              		@ frame_needed = 1, uses_anonymous_args = 0
  94              		@ link register save eliminated.
  95 0000 80B4     		push	{r7}
  96              	.LCFI6:
  97              		.cfi_def_cfa_offset 4
  98              		.cfi_offset 7, -4
  99 0002 83B0     		sub	sp, sp, #12
 100              	.LCFI7:
 101              		.cfi_def_cfa_offset 16
 102 0004 00AF     		add	r7, sp, #0
 103              	.LCFI8:
 104              		.cfi_def_cfa_register 7
 105 0006 7860     		str	r0, [r7, #4]
ARM GAS  C:\Users\CL\AppData\Local\Temp\ccEiqd8j.s 			page 3


 106 0008 0B46     		mov	r3, r1
 107 000a FB70     		strb	r3, [r7, #3]
  13:ThirdParty/FSM/fsm.c **** 	pFSM->state = next_state;
 108              		.loc 1 13 14
 109 000c 7B68     		ldr	r3, [r7, #4]
 110 000e FA78     		ldrb	r2, [r7, #3]
 111 0010 1A70     		strb	r2, [r3]
  14:ThirdParty/FSM/fsm.c **** }
 112              		.loc 1 14 1
 113 0012 00BF     		nop
 114 0014 0C37     		adds	r7, r7, #12
 115              	.LCFI9:
 116              		.cfi_def_cfa_offset 4
 117 0016 BD46     		mov	sp, r7
 118              	.LCFI10:
 119              		.cfi_def_cfa_register 13
 120              		@ sp needed
 121 0018 5DF8047B 		ldr	r7, [sp], #4
 122              	.LCFI11:
 123              		.cfi_restore 7
 124              		.cfi_def_cfa_offset 0
 125 001c 7047     		bx	lr
 126              		.cfi_endproc
 127              	.LFE1:
 129              		.section	.text.FindTrans,"ax",%progbits
 130              		.align	1
 131              		.global	FindTrans
 132              		.syntax unified
 133              		.thumb
 134              		.thumb_func
 136              	FindTrans:
 137              	.LFB2:
  15:ThirdParty/FSM/fsm.c **** 
  16:ThirdParty/FSM/fsm.c **** 
  17:ThirdParty/FSM/fsm.c **** StateTransform_T* FindTrans(FSM_T* pFSM, const EventsID_T evt){
 138              		.loc 1 17 63
 139              		.cfi_startproc
 140              		@ args = 0, pretend = 0, frame = 16
 141              		@ frame_needed = 1, uses_anonymous_args = 0
 142              		@ link register save eliminated.
 143 0000 80B4     		push	{r7}
 144              	.LCFI12:
 145              		.cfi_def_cfa_offset 4
 146              		.cfi_offset 7, -4
 147 0002 85B0     		sub	sp, sp, #20
 148              	.LCFI13:
 149              		.cfi_def_cfa_offset 24
 150 0004 00AF     		add	r7, sp, #0
 151              	.LCFI14:
 152              		.cfi_def_cfa_register 7
 153 0006 7860     		str	r0, [r7, #4]
 154 0008 0B46     		mov	r3, r1
 155 000a FB70     		strb	r3, [r7, #3]
  18:ThirdParty/FSM/fsm.c **** 	unsigned char i=0;
 156              		.loc 1 18 16
 157 000c 0023     		movs	r3, #0
 158 000e FB73     		strb	r3, [r7, #15]
ARM GAS  C:\Users\CL\AppData\Local\Temp\ccEiqd8j.s 			page 4


  19:ThirdParty/FSM/fsm.c **** 	for(;i< pFSM->transform_num;++i){
 159              		.loc 1 19 2
 160 0010 1BE0     		b	.L4
 161              	.L7:
  20:ThirdParty/FSM/fsm.c **** 		if((pFSM->state == pFSM->pTransTable[i].CurState) && (evt == pFSM->pTransTable[i].EventID))
 162              		.loc 1 20 11
 163 0012 7B68     		ldr	r3, [r7, #4]
 164 0014 1A78     		ldrb	r2, [r3]	@ zero_extendqisi2
 165              		.loc 1 20 26
 166 0016 7B68     		ldr	r3, [r7, #4]
 167 0018 9968     		ldr	r1, [r3, #8]
 168              		.loc 1 20 39
 169 001a FB7B     		ldrb	r3, [r7, #15]	@ zero_extendqisi2
 170 001c DB00     		lsls	r3, r3, #3
 171 001e 0B44     		add	r3, r3, r1
 172              		.loc 1 20 42
 173 0020 1B78     		ldrb	r3, [r3]	@ zero_extendqisi2
 174              		.loc 1 20 5
 175 0022 9A42     		cmp	r2, r3
 176 0024 0ED1     		bne	.L5
 177              		.loc 1 20 68 discriminator 1
 178 0026 7B68     		ldr	r3, [r7, #4]
 179 0028 9A68     		ldr	r2, [r3, #8]
 180              		.loc 1 20 81 discriminator 1
 181 002a FB7B     		ldrb	r3, [r7, #15]	@ zero_extendqisi2
 182 002c DB00     		lsls	r3, r3, #3
 183 002e 1344     		add	r3, r3, r2
 184              		.loc 1 20 84 discriminator 1
 185 0030 5B78     		ldrb	r3, [r3, #1]	@ zero_extendqisi2
 186              		.loc 1 20 53 discriminator 1
 187 0032 FA78     		ldrb	r2, [r7, #3]	@ zero_extendqisi2
 188 0034 9A42     		cmp	r2, r3
 189 0036 05D1     		bne	.L5
  21:ThirdParty/FSM/fsm.c **** 			return &pFSM->pTransTable[i];
 190              		.loc 1 21 16
 191 0038 7B68     		ldr	r3, [r7, #4]
 192 003a 9A68     		ldr	r2, [r3, #8]
 193              		.loc 1 21 29
 194 003c FB7B     		ldrb	r3, [r7, #15]	@ zero_extendqisi2
 195 003e DB00     		lsls	r3, r3, #3
 196              		.loc 1 21 11
 197 0040 1344     		add	r3, r3, r2
 198 0042 08E0     		b	.L6
 199              	.L5:
  19:ThirdParty/FSM/fsm.c **** 	for(;i< pFSM->transform_num;++i){
 200              		.loc 1 19 30
 201 0044 FB7B     		ldrb	r3, [r7, #15]
 202 0046 0133     		adds	r3, r3, #1
 203 0048 FB73     		strb	r3, [r7, #15]
 204              	.L4:
  19:ThirdParty/FSM/fsm.c **** 	for(;i< pFSM->transform_num;++i){
 205              		.loc 1 19 8 discriminator 1
 206 004a FA7B     		ldrb	r2, [r7, #15]	@ zero_extendqisi2
  19:ThirdParty/FSM/fsm.c **** 	for(;i< pFSM->transform_num;++i){
 207              		.loc 1 19 14 discriminator 1
 208 004c 7B68     		ldr	r3, [r7, #4]
 209 004e 5B68     		ldr	r3, [r3, #4]
ARM GAS  C:\Users\CL\AppData\Local\Temp\ccEiqd8j.s 			page 5


  19:ThirdParty/FSM/fsm.c **** 	for(;i< pFSM->transform_num;++i){
 210              		.loc 1 19 2 discriminator 1
 211 0050 9A42     		cmp	r2, r3
 212 0052 DEDB     		blt	.L7
  22:ThirdParty/FSM/fsm.c **** 	}
  23:ThirdParty/FSM/fsm.c **** 	return NULL;
 213              		.loc 1 23 9
 214 0054 0023     		movs	r3, #0
 215              	.L6:
  24:ThirdParty/FSM/fsm.c **** }
 216              		.loc 1 24 1
 217 0056 1846     		mov	r0, r3
 218 0058 1437     		adds	r7, r7, #20
 219              	.LCFI15:
 220              		.cfi_def_cfa_offset 4
 221 005a BD46     		mov	sp, r7
 222              	.LCFI16:
 223              		.cfi_def_cfa_register 13
 224              		@ sp needed
 225 005c 5DF8047B 		ldr	r7, [sp], #4
 226              	.LCFI17:
 227              		.cfi_restore 7
 228              		.cfi_def_cfa_offset 0
 229 0060 7047     		bx	lr
 230              		.cfi_endproc
 231              	.LFE2:
 233              		.section	.text.FSM_EventHandle,"ax",%progbits
 234              		.align	1
 235              		.global	FSM_EventHandle
 236              		.syntax unified
 237              		.thumb
 238              		.thumb_func
 240              	FSM_EventHandle:
 241              	.LFB3:
  25:ThirdParty/FSM/fsm.c **** 
  26:ThirdParty/FSM/fsm.c **** void FSM_EventHandle(FSM_T* pFSM,EventsID_T evt){
 242              		.loc 1 26 49
 243              		.cfi_startproc
 244              		@ args = 0, pretend = 0, frame = 16
 245              		@ frame_needed = 1, uses_anonymous_args = 0
 246 0000 80B5     		push	{r7, lr}
 247              	.LCFI18:
 248              		.cfi_def_cfa_offset 8
 249              		.cfi_offset 7, -8
 250              		.cfi_offset 14, -4
 251 0002 84B0     		sub	sp, sp, #16
 252              	.LCFI19:
 253              		.cfi_def_cfa_offset 24
 254 0004 00AF     		add	r7, sp, #0
 255              	.LCFI20:
 256              		.cfi_def_cfa_register 7
 257 0006 7860     		str	r0, [r7, #4]
 258 0008 0B46     		mov	r3, r1
 259 000a FB70     		strb	r3, [r7, #3]
  27:ThirdParty/FSM/fsm.c **** 	StateTransform_T* pActTrans = NULL;
 260              		.loc 1 27 20
 261 000c 0023     		movs	r3, #0
ARM GAS  C:\Users\CL\AppData\Local\Temp\ccEiqd8j.s 			page 6


 262 000e FB60     		str	r3, [r7, #12]
  28:ThirdParty/FSM/fsm.c **** 	pActTrans = FindTrans(pFSM,evt);
 263              		.loc 1 28 14
 264 0010 FB78     		ldrb	r3, [r7, #3]	@ zero_extendqisi2
 265 0012 1946     		mov	r1, r3
 266 0014 7868     		ldr	r0, [r7, #4]
 267 0016 FFF7FEFF 		bl	FindTrans
 268 001a F860     		str	r0, [r7, #12]
  29:ThirdParty/FSM/fsm.c **** 	if(pActTrans !=NULL)
 269              		.loc 1 29 4
 270 001c FB68     		ldr	r3, [r7, #12]
 271 001e 002B     		cmp	r3, #0
 272 0020 0CD0     		beq	.L10
  30:ThirdParty/FSM/fsm.c **** 	{
  31:ThirdParty/FSM/fsm.c **** 		FSM_StateTransfer(pFSM,pActTrans->NextState);
 273              		.loc 1 31 3
 274 0022 FB68     		ldr	r3, [r7, #12]
 275 0024 9B78     		ldrb	r3, [r3, #2]	@ zero_extendqisi2
 276 0026 1946     		mov	r1, r3
 277 0028 7868     		ldr	r0, [r7, #4]
 278 002a FFF7FEFF 		bl	FSM_StateTransfer
  32:ThirdParty/FSM/fsm.c **** 		if(pActTrans->Actfunc != NULL)
 279              		.loc 1 32 15
 280 002e FB68     		ldr	r3, [r7, #12]
 281 0030 5B68     		ldr	r3, [r3, #4]
 282              		.loc 1 32 5
 283 0032 002B     		cmp	r3, #0
 284 0034 02D0     		beq	.L10
  33:ThirdParty/FSM/fsm.c **** 			pActTrans->Actfunc();
 285              		.loc 1 33 13
 286 0036 FB68     		ldr	r3, [r7, #12]
 287 0038 5B68     		ldr	r3, [r3, #4]
 288              		.loc 1 33 4
 289 003a 9847     		blx	r3
 290              	.LVL0:
 291              	.L10:
  34:ThirdParty/FSM/fsm.c **** 	}
  35:ThirdParty/FSM/fsm.c **** }
 292              		.loc 1 35 1
 293 003c 00BF     		nop
 294 003e 1037     		adds	r7, r7, #16
 295              	.LCFI21:
 296              		.cfi_def_cfa_offset 8
 297 0040 BD46     		mov	sp, r7
 298              	.LCFI22:
 299              		.cfi_def_cfa_register 13
 300              		@ sp needed
 301 0042 80BD     		pop	{r7, pc}
 302              		.cfi_endproc
 303              	.LFE3:
 305              		.text
 306              	.Letext0:
 307              		.file 2 "ThirdParty/FSM/fsm.h"
ARM GAS  C:\Users\CL\AppData\Local\Temp\ccEiqd8j.s 			page 7


DEFINED SYMBOLS
                            *ABS*:00000000 fsm.c
C:\Users\CL\AppData\Local\Temp\ccEiqd8j.s:20     .text.FSM_Regist:00000000 $t
C:\Users\CL\AppData\Local\Temp\ccEiqd8j.s:26     .text.FSM_Regist:00000000 FSM_Regist
C:\Users\CL\AppData\Local\Temp\ccEiqd8j.s:82     .text.FSM_StateTransfer:00000000 $t
C:\Users\CL\AppData\Local\Temp\ccEiqd8j.s:88     .text.FSM_StateTransfer:00000000 FSM_StateTransfer
C:\Users\CL\AppData\Local\Temp\ccEiqd8j.s:130    .text.FindTrans:00000000 $t
C:\Users\CL\AppData\Local\Temp\ccEiqd8j.s:136    .text.FindTrans:00000000 FindTrans
C:\Users\CL\AppData\Local\Temp\ccEiqd8j.s:234    .text.FSM_EventHandle:00000000 $t
C:\Users\CL\AppData\Local\Temp\ccEiqd8j.s:240    .text.FSM_EventHandle:00000000 FSM_EventHandle

NO UNDEFINED SYMBOLS
