ARM GAS  C:\Users\CL\AppData\Local\Temp\ccirGcye.s 			page 1


   1              		.cpu cortex-m4
   2              		.arch armv7e-m
   3              		.fpu fpv4-sp-d16
   4              		.eabi_attribute 27, 1
   5              		.eabi_attribute 28, 1
   6              		.eabi_attribute 20, 1
   7              		.eabi_attribute 21, 1
   8              		.eabi_attribute 23, 3
   9              		.eabi_attribute 24, 1
  10              		.eabi_attribute 25, 1
  11              		.eabi_attribute 26, 1
  12              		.eabi_attribute 30, 1
  13              		.eabi_attribute 34, 1
  14              		.eabi_attribute 18, 4
  15              		.file	"fsm.c"
  16              		.text
  17              	.Ltext0:
  18              		.cfi_sections	.debug_frame
  19              		.section	.text.FSM_Regist,"ax",%progbits
  20              		.align	1
  21              		.global	FSM_Regist
  22              		.syntax unified
  23              		.thumb
  24              		.thumb_func
  26              	FSM_Regist:
  27              	.LVL0:
  28              	.LFB0:
  29              		.file 1 "ThirdParty/FSM/fsm.c"
   1:ThirdParty/FSM/fsm.c **** #include "fsm.h"
   2:ThirdParty/FSM/fsm.c **** #include "stdlib.h"
   3:ThirdParty/FSM/fsm.c **** 
   4:ThirdParty/FSM/fsm.c **** void FSM_Regist(FSM_T* pFSM,StateTransform_T* pTable,unsigned char trans_num,States_T init_state)
   5:ThirdParty/FSM/fsm.c **** {
  30              		.loc 1 5 1 view -0
  31              		.cfi_startproc
  32              		@ args = 0, pretend = 0, frame = 0
  33              		@ frame_needed = 0, uses_anonymous_args = 0
  34              		@ link register save eliminated.
   6:ThirdParty/FSM/fsm.c **** 	pFSM->pTransTable = pTable;
  35              		.loc 1 6 2 view .LVU1
  36              		.loc 1 6 20 is_stmt 0 view .LVU2
  37 0000 8160     		str	r1, [r0, #8]
   7:ThirdParty/FSM/fsm.c **** 	pFSM->state = init_state;
  38              		.loc 1 7 2 is_stmt 1 view .LVU3
  39              		.loc 1 7 14 is_stmt 0 view .LVU4
  40 0002 0370     		strb	r3, [r0]
   8:ThirdParty/FSM/fsm.c **** 	pFSM->transform_num = trans_num;
  41              		.loc 1 8 2 is_stmt 1 view .LVU5
  42              		.loc 1 8 22 is_stmt 0 view .LVU6
  43 0004 4260     		str	r2, [r0, #4]
   9:ThirdParty/FSM/fsm.c **** 
  10:ThirdParty/FSM/fsm.c **** }
  44              		.loc 1 10 1 view .LVU7
  45 0006 7047     		bx	lr
  46              		.cfi_endproc
  47              	.LFE0:
  49              		.section	.text.FSM_StateTransfer,"ax",%progbits
ARM GAS  C:\Users\CL\AppData\Local\Temp\ccirGcye.s 			page 2


  50              		.align	1
  51              		.global	FSM_StateTransfer
  52              		.syntax unified
  53              		.thumb
  54              		.thumb_func
  56              	FSM_StateTransfer:
  57              	.LVL1:
  58              	.LFB1:
  11:ThirdParty/FSM/fsm.c **** void FSM_StateTransfer(FSM_T* pFSM,States_T next_state)
  12:ThirdParty/FSM/fsm.c **** {
  59              		.loc 1 12 1 is_stmt 1 view -0
  60              		.cfi_startproc
  61              		@ args = 0, pretend = 0, frame = 0
  62              		@ frame_needed = 0, uses_anonymous_args = 0
  63              		@ link register save eliminated.
  13:ThirdParty/FSM/fsm.c **** 	pFSM->state = next_state;
  64              		.loc 1 13 2 view .LVU9
  65              		.loc 1 13 14 is_stmt 0 view .LVU10
  66 0000 0170     		strb	r1, [r0]
  14:ThirdParty/FSM/fsm.c **** }
  67              		.loc 1 14 1 view .LVU11
  68 0002 7047     		bx	lr
  69              		.cfi_endproc
  70              	.LFE1:
  72              		.section	.text.FindTrans,"ax",%progbits
  73              		.align	1
  74              		.global	FindTrans
  75              		.syntax unified
  76              		.thumb
  77              		.thumb_func
  79              	FindTrans:
  80              	.LVL2:
  81              	.LFB2:
  15:ThirdParty/FSM/fsm.c **** 
  16:ThirdParty/FSM/fsm.c **** 
  17:ThirdParty/FSM/fsm.c **** StateTransform_T* FindTrans(FSM_T* pFSM, const EventsID_T evt){
  82              		.loc 1 17 63 is_stmt 1 view -0
  83              		.cfi_startproc
  84              		@ args = 0, pretend = 0, frame = 0
  85              		@ frame_needed = 0, uses_anonymous_args = 0
  86              		@ link register save eliminated.
  87              		.loc 1 17 63 is_stmt 0 view .LVU13
  88 0000 0246     		mov	r2, r0
  18:ThirdParty/FSM/fsm.c **** 	unsigned char i=0;
  89              		.loc 1 18 2 is_stmt 1 view .LVU14
  90              	.LVL3:
  19:ThirdParty/FSM/fsm.c **** 	for(;i< pFSM->transform_num;++i){
  91              		.loc 1 19 2 view .LVU15
  18:ThirdParty/FSM/fsm.c **** 	unsigned char i=0;
  92              		.loc 1 18 16 is_stmt 0 view .LVU16
  93 0002 0023     		movs	r3, #0
  94              	.LVL4:
  95              		.loc 1 19 7 is_stmt 1 view .LVU17
  96              		.loc 1 19 14 is_stmt 0 view .LVU18
  97 0004 4068     		ldr	r0, [r0, #4]
  98              	.LVL5:
  99              		.loc 1 19 2 view .LVU19
ARM GAS  C:\Users\CL\AppData\Local\Temp\ccirGcye.s 			page 3


 100 0006 8342     		cmp	r3, r0
 101 0008 17DA     		bge	.L13
  17:ThirdParty/FSM/fsm.c **** 	unsigned char i=0;
 102              		.loc 1 17 63 view .LVU20
 103 000a 10B4     		push	{r4}
 104              	.LCFI0:
 105              		.cfi_def_cfa_offset 4
 106              		.cfi_offset 4, -4
 107 000c 04E0     		b	.L7
 108              	.L5:
 109              		.loc 1 19 30 is_stmt 1 view .LVU21
 110 000e 0133     		adds	r3, r3, #1
 111              	.LVL6:
 112              		.loc 1 19 30 is_stmt 0 view .LVU22
 113 0010 DBB2     		uxtb	r3, r3
 114              	.LVL7:
 115              		.loc 1 19 7 is_stmt 1 view .LVU23
 116              		.loc 1 19 14 is_stmt 0 view .LVU24
 117 0012 5068     		ldr	r0, [r2, #4]
 118              		.loc 1 19 2 view .LVU25
 119 0014 8342     		cmp	r3, r0
 120 0016 0CDA     		bge	.L14
 121              	.L7:
  20:ThirdParty/FSM/fsm.c **** 		if((pFSM->state == pFSM->pTransTable[i].CurState) && (evt == pFSM->pTransTable[i].EventID))
 122              		.loc 1 20 3 is_stmt 1 view .LVU26
 123              		.loc 1 20 11 is_stmt 0 view .LVU27
 124 0018 92F800C0 		ldrb	ip, [r2]	@ zero_extendqisi2
 125              		.loc 1 20 26 view .LVU28
 126 001c 9468     		ldr	r4, [r2, #8]
 127              		.loc 1 20 39 view .LVU29
 128 001e 04EBC300 		add	r0, r4, r3, lsl #3
 129              		.loc 1 20 42 view .LVU30
 130 0022 14F83340 		ldrb	r4, [r4, r3, lsl #3]	@ zero_extendqisi2
 131              		.loc 1 20 5 view .LVU31
 132 0026 A445     		cmp	ip, r4
 133 0028 F1D1     		bne	.L5
 134              		.loc 1 20 84 discriminator 1 view .LVU32
 135 002a 4478     		ldrb	r4, [r0, #1]	@ zero_extendqisi2
 136              		.loc 1 20 53 discriminator 1 view .LVU33
 137 002c 8C42     		cmp	r4, r1
 138 002e EED1     		bne	.L5
 139 0030 00E0     		b	.L3
 140              	.L14:
  21:ThirdParty/FSM/fsm.c **** 			return &pFSM->pTransTable[i];
  22:ThirdParty/FSM/fsm.c **** 	}
  23:ThirdParty/FSM/fsm.c **** 	return NULL;
 141              		.loc 1 23 9 view .LVU34
 142 0032 0020     		movs	r0, #0
 143              	.L3:
  24:ThirdParty/FSM/fsm.c **** }
 144              		.loc 1 24 1 view .LVU35
 145 0034 5DF8044B 		ldr	r4, [sp], #4
 146              	.LCFI1:
 147              		.cfi_restore 4
 148              		.cfi_def_cfa_offset 0
 149 0038 7047     		bx	lr
 150              	.L13:
ARM GAS  C:\Users\CL\AppData\Local\Temp\ccirGcye.s 			page 4


  23:ThirdParty/FSM/fsm.c **** }
 151              		.loc 1 23 9 view .LVU36
 152 003a 0020     		movs	r0, #0
 153              		.loc 1 24 1 view .LVU37
 154 003c 7047     		bx	lr
 155              		.cfi_endproc
 156              	.LFE2:
 158              		.section	.text.FSM_EventHandle,"ax",%progbits
 159              		.align	1
 160              		.global	FSM_EventHandle
 161              		.syntax unified
 162              		.thumb
 163              		.thumb_func
 165              	FSM_EventHandle:
 166              	.LVL8:
 167              	.LFB3:
  25:ThirdParty/FSM/fsm.c **** 
  26:ThirdParty/FSM/fsm.c **** void FSM_EventHandle(FSM_T* pFSM,EventsID_T evt){
 168              		.loc 1 26 49 is_stmt 1 view -0
 169              		.cfi_startproc
 170              		@ args = 0, pretend = 0, frame = 0
 171              		@ frame_needed = 0, uses_anonymous_args = 0
 172              		.loc 1 26 49 is_stmt 0 view .LVU39
 173 0000 38B5     		push	{r3, r4, r5, lr}
 174              	.LCFI2:
 175              		.cfi_def_cfa_offset 16
 176              		.cfi_offset 3, -16
 177              		.cfi_offset 4, -12
 178              		.cfi_offset 5, -8
 179              		.cfi_offset 14, -4
 180 0002 0446     		mov	r4, r0
  27:ThirdParty/FSM/fsm.c **** 	StateTransform_T* pActTrans = NULL;
 181              		.loc 1 27 2 is_stmt 1 view .LVU40
 182              	.LVL9:
  28:ThirdParty/FSM/fsm.c **** 	pActTrans = FindTrans(pFSM,evt);
 183              		.loc 1 28 2 view .LVU41
 184              		.loc 1 28 14 is_stmt 0 view .LVU42
 185 0004 FFF7FEFF 		bl	FindTrans
 186              	.LVL10:
  29:ThirdParty/FSM/fsm.c **** 	if(pActTrans !=NULL)
 187              		.loc 1 29 2 is_stmt 1 view .LVU43
 188              		.loc 1 29 4 is_stmt 0 view .LVU44
 189 0008 38B1     		cbz	r0, .L15
 190 000a 0546     		mov	r5, r0
  30:ThirdParty/FSM/fsm.c **** 	{
  31:ThirdParty/FSM/fsm.c **** 		FSM_StateTransfer(pFSM,pActTrans->NextState);
 191              		.loc 1 31 3 is_stmt 1 view .LVU45
 192 000c 8178     		ldrb	r1, [r0, #2]	@ zero_extendqisi2
 193 000e 2046     		mov	r0, r4
 194              	.LVL11:
 195              		.loc 1 31 3 is_stmt 0 view .LVU46
 196 0010 FFF7FEFF 		bl	FSM_StateTransfer
 197              	.LVL12:
  32:ThirdParty/FSM/fsm.c **** 		if(pActTrans->Actfunc != NULL)
 198              		.loc 1 32 3 is_stmt 1 view .LVU47
 199              		.loc 1 32 15 is_stmt 0 view .LVU48
 200 0014 6B68     		ldr	r3, [r5, #4]
ARM GAS  C:\Users\CL\AppData\Local\Temp\ccirGcye.s 			page 5


 201              		.loc 1 32 5 view .LVU49
 202 0016 03B1     		cbz	r3, .L15
  33:ThirdParty/FSM/fsm.c **** 			pActTrans->Actfunc();
 203              		.loc 1 33 4 is_stmt 1 view .LVU50
 204 0018 9847     		blx	r3
 205              	.LVL13:
 206              	.L15:
  34:ThirdParty/FSM/fsm.c **** 	}
  35:ThirdParty/FSM/fsm.c **** }
 207              		.loc 1 35 1 is_stmt 0 view .LVU51
 208 001a 38BD     		pop	{r3, r4, r5, pc}
 209              		.loc 1 35 1 view .LVU52
 210              		.cfi_endproc
 211              	.LFE3:
 213              		.text
 214              	.Letext0:
 215              		.file 2 "ThirdParty/FSM/fsm.h"
ARM GAS  C:\Users\CL\AppData\Local\Temp\ccirGcye.s 			page 6


DEFINED SYMBOLS
                            *ABS*:00000000 fsm.c
C:\Users\CL\AppData\Local\Temp\ccirGcye.s:20     .text.FSM_Regist:00000000 $t
C:\Users\CL\AppData\Local\Temp\ccirGcye.s:26     .text.FSM_Regist:00000000 FSM_Regist
C:\Users\CL\AppData\Local\Temp\ccirGcye.s:50     .text.FSM_StateTransfer:00000000 $t
C:\Users\CL\AppData\Local\Temp\ccirGcye.s:56     .text.FSM_StateTransfer:00000000 FSM_StateTransfer
C:\Users\CL\AppData\Local\Temp\ccirGcye.s:73     .text.FindTrans:00000000 $t
C:\Users\CL\AppData\Local\Temp\ccirGcye.s:79     .text.FindTrans:00000000 FindTrans
C:\Users\CL\AppData\Local\Temp\ccirGcye.s:159    .text.FSM_EventHandle:00000000 $t
C:\Users\CL\AppData\Local\Temp\ccirGcye.s:165    .text.FSM_EventHandle:00000000 FSM_EventHandle

NO UNDEFINED SYMBOLS
