ARM GAS  /var/folders/h7/llxr0vxd5sd9z74__7r6nx9r0000gn/T//ccPz0c9W.s 			page 1


   1              		.cpu cortex-m4
   2              		.arch armv7e-m
   3              		.fpu fpv4-sp-d16
   4              		.eabi_attribute 27, 1
   5              		.eabi_attribute 28, 1
   6              		.eabi_attribute 20, 1
   7              		.eabi_attribute 21, 1
   8              		.eabi_attribute 23, 3
   9              		.eabi_attribute 24, 1
  10              		.eabi_attribute 25, 1
  11              		.eabi_attribute 26, 1
  12              		.eabi_attribute 30, 1
  13              		.eabi_attribute 34, 1
  14              		.eabi_attribute 18, 4
  15              		.file	"fsm.c"
  16              		.text
  17              	.Ltext0:
  18              		.cfi_sections	.debug_frame
  19              		.file 1 "ThirdParty/FSM/fsm.c"
  20              		.section	.text.FSM_Regist,"ax",%progbits
  21              		.align	1
  22              		.global	FSM_Regist
  23              		.syntax unified
  24              		.thumb
  25              		.thumb_func
  27              	FSM_Regist:
  28              	.LVL0:
  29              	.LFB0:
   1:ThirdParty/FSM/fsm.c **** #include "fsm.h"
   2:ThirdParty/FSM/fsm.c **** #include "stdlib.h"
   3:ThirdParty/FSM/fsm.c **** 
   4:ThirdParty/FSM/fsm.c **** void FSM_Regist(FSM_T* pFSM,StateTransform_T* pTable)
   5:ThirdParty/FSM/fsm.c **** {
  30              		.loc 1 5 1 view -0
  31              		.cfi_startproc
  32              		@ args = 0, pretend = 0, frame = 0
  33              		@ frame_needed = 0, uses_anonymous_args = 0
  34              		@ link register save eliminated.
   6:ThirdParty/FSM/fsm.c **** 	pFSM->pTransTable = pTable;
  35              		.loc 1 6 2 view .LVU1
  36              		.loc 1 6 20 is_stmt 0 view .LVU2
  37 0000 8160     		str	r1, [r0, #8]
   7:ThirdParty/FSM/fsm.c **** }
  38              		.loc 1 7 1 view .LVU3
  39 0002 7047     		bx	lr
  40              		.cfi_endproc
  41              	.LFE0:
  43              		.section	.text.FSM_StateTransfer,"ax",%progbits
  44              		.align	1
  45              		.global	FSM_StateTransfer
  46              		.syntax unified
  47              		.thumb
  48              		.thumb_func
  50              	FSM_StateTransfer:
  51              	.LVL1:
  52              	.LFB1:
   8:ThirdParty/FSM/fsm.c **** void FSM_StateTransfer(FSM_T* pFSM,States_T next_state)
ARM GAS  /var/folders/h7/llxr0vxd5sd9z74__7r6nx9r0000gn/T//ccPz0c9W.s 			page 2


   9:ThirdParty/FSM/fsm.c **** {
  53              		.loc 1 9 1 is_stmt 1 view -0
  54              		.cfi_startproc
  55              		@ args = 0, pretend = 0, frame = 0
  56              		@ frame_needed = 0, uses_anonymous_args = 0
  57              		@ link register save eliminated.
  10:ThirdParty/FSM/fsm.c **** 	pFSM->state = next_state;
  58              		.loc 1 10 2 view .LVU5
  59              		.loc 1 10 14 is_stmt 0 view .LVU6
  60 0000 0170     		strb	r1, [r0]
  11:ThirdParty/FSM/fsm.c **** }
  61              		.loc 1 11 1 view .LVU7
  62 0002 7047     		bx	lr
  63              		.cfi_endproc
  64              	.LFE1:
  66              		.section	.text.FindTrans,"ax",%progbits
  67              		.align	1
  68              		.global	FindTrans
  69              		.syntax unified
  70              		.thumb
  71              		.thumb_func
  73              	FindTrans:
  74              	.LVL2:
  75              	.LFB2:
  12:ThirdParty/FSM/fsm.c **** 
  13:ThirdParty/FSM/fsm.c **** 
  14:ThirdParty/FSM/fsm.c **** StateTransform_T* FindTrans(FSM_T* pFSM, const EventsID_T evt){
  76              		.loc 1 14 63 is_stmt 1 view -0
  77              		.cfi_startproc
  78              		@ args = 0, pretend = 0, frame = 0
  79              		@ frame_needed = 0, uses_anonymous_args = 0
  80              		@ link register save eliminated.
  81              		.loc 1 14 63 is_stmt 0 view .LVU9
  82 0000 0246     		mov	r2, r0
  15:ThirdParty/FSM/fsm.c **** 	unsigned char i=0;
  83              		.loc 1 15 2 is_stmt 1 view .LVU10
  84              	.LVL3:
  16:ThirdParty/FSM/fsm.c **** 	for(;i< pFSM->transform_num;++i){
  85              		.loc 1 16 2 view .LVU11
  15:ThirdParty/FSM/fsm.c **** 	unsigned char i=0;
  86              		.loc 1 15 16 is_stmt 0 view .LVU12
  87 0002 0023     		movs	r3, #0
  88              	.LVL4:
  89              		.loc 1 16 8 is_stmt 1 view .LVU13
  90              		.loc 1 16 14 is_stmt 0 view .LVU14
  91 0004 4068     		ldr	r0, [r0, #4]
  92              	.LVL5:
  93              		.loc 1 16 8 view .LVU15
  94 0006 8342     		cmp	r3, r0
  95 0008 17DA     		bge	.L13
  14:ThirdParty/FSM/fsm.c **** 	unsigned char i=0;
  96              		.loc 1 14 63 view .LVU16
  97 000a 10B4     		push	{r4}
  98              	.LCFI0:
  99              		.cfi_def_cfa_offset 4
 100              		.cfi_offset 4, -4
 101 000c 04E0     		b	.L7
ARM GAS  /var/folders/h7/llxr0vxd5sd9z74__7r6nx9r0000gn/T//ccPz0c9W.s 			page 3


 102              	.L5:
 103              		.loc 1 16 30 is_stmt 1 view .LVU17
 104 000e 0133     		adds	r3, r3, #1
 105              	.LVL6:
 106              		.loc 1 16 30 is_stmt 0 view .LVU18
 107 0010 DBB2     		uxtb	r3, r3
 108              	.LVL7:
 109              		.loc 1 16 8 is_stmt 1 view .LVU19
 110              		.loc 1 16 14 is_stmt 0 view .LVU20
 111 0012 5068     		ldr	r0, [r2, #4]
 112              		.loc 1 16 8 view .LVU21
 113 0014 8342     		cmp	r3, r0
 114 0016 0CDA     		bge	.L14
 115              	.L7:
  17:ThirdParty/FSM/fsm.c **** 		if((pFSM->state == pFSM->pTransTable[i].CurState) && (evt == pFSM->pTransTable[i].EventID))
 116              		.loc 1 17 3 is_stmt 1 view .LVU22
 117              		.loc 1 17 11 is_stmt 0 view .LVU23
 118 0018 92F800C0 		ldrb	ip, [r2]	@ zero_extendqisi2
 119              		.loc 1 17 26 view .LVU24
 120 001c 9468     		ldr	r4, [r2, #8]
 121              		.loc 1 17 39 view .LVU25
 122 001e 04EBC300 		add	r0, r4, r3, lsl #3
 123              		.loc 1 17 42 view .LVU26
 124 0022 14F83340 		ldrb	r4, [r4, r3, lsl #3]	@ zero_extendqisi2
 125              		.loc 1 17 5 view .LVU27
 126 0026 A445     		cmp	ip, r4
 127 0028 F1D1     		bne	.L5
 128              		.loc 1 17 84 discriminator 1 view .LVU28
 129 002a 4478     		ldrb	r4, [r0, #1]	@ zero_extendqisi2
 130              		.loc 1 17 53 discriminator 1 view .LVU29
 131 002c 8C42     		cmp	r4, r1
 132 002e EED1     		bne	.L5
 133 0030 00E0     		b	.L3
 134              	.L14:
  18:ThirdParty/FSM/fsm.c **** 			return &pFSM->pTransTable[i];
  19:ThirdParty/FSM/fsm.c **** 	}
  20:ThirdParty/FSM/fsm.c **** 	return NULL;
 135              		.loc 1 20 9 view .LVU30
 136 0032 0020     		movs	r0, #0
 137              	.L3:
  21:ThirdParty/FSM/fsm.c **** }
 138              		.loc 1 21 1 view .LVU31
 139 0034 5DF8044B 		ldr	r4, [sp], #4
 140              	.LCFI1:
 141              		.cfi_restore 4
 142              		.cfi_def_cfa_offset 0
 143 0038 7047     		bx	lr
 144              	.L13:
  20:ThirdParty/FSM/fsm.c **** }
 145              		.loc 1 20 9 view .LVU32
 146 003a 0020     		movs	r0, #0
 147              		.loc 1 21 1 view .LVU33
 148 003c 7047     		bx	lr
 149              		.cfi_endproc
 150              	.LFE2:
 152              		.section	.text.FSM_EventHandle,"ax",%progbits
 153              		.align	1
ARM GAS  /var/folders/h7/llxr0vxd5sd9z74__7r6nx9r0000gn/T//ccPz0c9W.s 			page 4


 154              		.global	FSM_EventHandle
 155              		.syntax unified
 156              		.thumb
 157              		.thumb_func
 159              	FSM_EventHandle:
 160              	.LVL8:
 161              	.LFB3:
  22:ThirdParty/FSM/fsm.c **** 
  23:ThirdParty/FSM/fsm.c **** void FSM_EventHandle(FSM_T* pFSM,EventsID_T evt){
 162              		.loc 1 23 49 is_stmt 1 view -0
 163              		.cfi_startproc
 164              		@ args = 0, pretend = 0, frame = 0
 165              		@ frame_needed = 0, uses_anonymous_args = 0
 166              		.loc 1 23 49 is_stmt 0 view .LVU35
 167 0000 38B5     		push	{r3, r4, r5, lr}
 168              	.LCFI2:
 169              		.cfi_def_cfa_offset 16
 170              		.cfi_offset 3, -16
 171              		.cfi_offset 4, -12
 172              		.cfi_offset 5, -8
 173              		.cfi_offset 14, -4
 174 0002 0446     		mov	r4, r0
  24:ThirdParty/FSM/fsm.c **** 	StateTransform_T* pActTrans = NULL;
 175              		.loc 1 24 2 is_stmt 1 view .LVU36
 176              	.LVL9:
  25:ThirdParty/FSM/fsm.c **** 	pActTrans = FindTrans(pFSM,evt);
 177              		.loc 1 25 2 view .LVU37
 178              		.loc 1 25 14 is_stmt 0 view .LVU38
 179 0004 FFF7FEFF 		bl	FindTrans
 180              	.LVL10:
  26:ThirdParty/FSM/fsm.c **** 	if(pActTrans !=NULL)
 181              		.loc 1 26 2 is_stmt 1 view .LVU39
 182              		.loc 1 26 4 is_stmt 0 view .LVU40
 183 0008 30B1     		cbz	r0, .L15
 184 000a 0546     		mov	r5, r0
  27:ThirdParty/FSM/fsm.c **** 	{
  28:ThirdParty/FSM/fsm.c **** 		FSM_StateTransfer(pFSM,pActTrans->NextState);
 185              		.loc 1 28 3 is_stmt 1 view .LVU41
 186 000c 8178     		ldrb	r1, [r0, #2]	@ zero_extendqisi2
 187 000e 2046     		mov	r0, r4
 188              	.LVL11:
 189              		.loc 1 28 3 is_stmt 0 view .LVU42
 190 0010 FFF7FEFF 		bl	FSM_StateTransfer
 191              	.LVL12:
  29:ThirdParty/FSM/fsm.c **** 		pActTrans->Actfunc();
 192              		.loc 1 29 3 is_stmt 1 view .LVU43
 193              		.loc 1 29 12 is_stmt 0 view .LVU44
 194 0014 6B68     		ldr	r3, [r5, #4]
 195              		.loc 1 29 3 view .LVU45
 196 0016 9847     		blx	r3
 197              	.LVL13:
 198              	.L15:
  30:ThirdParty/FSM/fsm.c **** 	}
  31:ThirdParty/FSM/fsm.c **** }
 199              		.loc 1 31 1 view .LVU46
 200 0018 38BD     		pop	{r3, r4, r5, pc}
 201              		.loc 1 31 1 view .LVU47
ARM GAS  /var/folders/h7/llxr0vxd5sd9z74__7r6nx9r0000gn/T//ccPz0c9W.s 			page 5


 202              		.cfi_endproc
 203              	.LFE3:
 205              		.text
 206              	.Letext0:
 207              		.file 2 "ThirdParty/FSM/fsm.h"
ARM GAS  /var/folders/h7/llxr0vxd5sd9z74__7r6nx9r0000gn/T//ccPz0c9W.s 			page 6

