ARM GAS  C:\Users\CL\AppData\Local\Temp\ccfub3VG.s 			page 1


   1              		.cpu cortex-m4
   2              		.arch armv7e-m
   3              		.fpu fpv4-sp-d16
   4              		.eabi_attribute 27, 1
   5              		.eabi_attribute 28, 1
   6              		.eabi_attribute 20, 1
   7              		.eabi_attribute 21, 1
   8              		.eabi_attribute 23, 3
   9              		.eabi_attribute 24, 1
  10              		.eabi_attribute 25, 1
  11              		.eabi_attribute 26, 1
  12              		.eabi_attribute 30, 4
  13              		.eabi_attribute 34, 1
  14              		.eabi_attribute 18, 4
  15              		.file	"fsm.c"
  16              		.text
  17              		.section	.text.FSM_Regist,"ax",%progbits
  18              		.align	1
  19              		.global	FSM_Regist
  20              		.syntax unified
  21              		.thumb
  22              		.thumb_func
  24              	FSM_Regist:
  25              		@ args = 0, pretend = 0, frame = 0
  26              		@ frame_needed = 0, uses_anonymous_args = 0
  27              		@ link register save eliminated.
  28 0000 8160     		str	r1, [r0, #8]
  29 0002 0370     		strb	r3, [r0]
  30 0004 4260     		str	r2, [r0, #4]
  31 0006 7047     		bx	lr
  33              		.section	.text.FSM_StateTransfer,"ax",%progbits
  34              		.align	1
  35              		.global	FSM_StateTransfer
  36              		.syntax unified
  37              		.thumb
  38              		.thumb_func
  40              	FSM_StateTransfer:
  41              		@ args = 0, pretend = 0, frame = 0
  42              		@ frame_needed = 0, uses_anonymous_args = 0
  43              		@ link register save eliminated.
  44 0000 0170     		strb	r1, [r0]
  45 0002 7047     		bx	lr
  47              		.section	.text.FindTrans,"ax",%progbits
  48              		.align	1
  49              		.global	FindTrans
  50              		.syntax unified
  51              		.thumb
  52              		.thumb_func
  54              	FindTrans:
  55              		@ args = 0, pretend = 0, frame = 0
  56              		@ frame_needed = 0, uses_anonymous_args = 0
  57 0000 F0B5     		push	{r4, r5, r6, r7, lr}
  58 0002 4668     		ldr	r6, [r0, #4]
  59 0004 0024     		movs	r4, #0
  60              	.L4:
  61 0006 E2B2     		uxtb	r2, r4
  62 0008 B242     		cmp	r2, r6
ARM GAS  C:\Users\CL\AppData\Local\Temp\ccfub3VG.s 			page 2


  63 000a 02DB     		blt	.L7
  64 000c 0023     		movs	r3, #0
  65              	.L3:
  66 000e 1846     		mov	r0, r3
  67 0010 F0BD     		pop	{r4, r5, r6, r7, pc}
  68              	.L7:
  69 0012 8568     		ldr	r5, [r0, #8]
  70 0014 0778     		ldrb	r7, [r0]	@ zero_extendqisi2
  71 0016 05EBC203 		add	r3, r5, r2, lsl #3
  72 001a 15F83220 		ldrb	r2, [r5, r2, lsl #3]	@ zero_extendqisi2
  73 001e 9742     		cmp	r7, r2
  74 0020 02D1     		bne	.L5
  75 0022 5A78     		ldrb	r2, [r3, #1]	@ zero_extendqisi2
  76 0024 8A42     		cmp	r2, r1
  77 0026 F2D0     		beq	.L3
  78              	.L5:
  79 0028 0134     		adds	r4, r4, #1
  80 002a ECE7     		b	.L4
  82              		.section	.text.FSM_EventHandle,"ax",%progbits
  83              		.align	1
  84              		.global	FSM_EventHandle
  85              		.syntax unified
  86              		.thumb
  87              		.thumb_func
  89              	FSM_EventHandle:
  90              		@ args = 0, pretend = 0, frame = 0
  91              		@ frame_needed = 0, uses_anonymous_args = 0
  92 0000 10B5     		push	{r4, lr}
  93 0002 0446     		mov	r4, r0
  94 0004 FFF7FEFF 		bl	FindTrans
  95 0008 30B1     		cbz	r0, .L8
  96 000a 8378     		ldrb	r3, [r0, #2]	@ zero_extendqisi2
  97 000c 2370     		strb	r3, [r4]
  98 000e 4368     		ldr	r3, [r0, #4]
  99 0010 13B1     		cbz	r3, .L8
 100 0012 BDE81040 		pop	{r4, lr}
 101 0016 1847     		bx	r3	@ indirect register sibling call
 102              	.L8:
 103 0018 10BD     		pop	{r4, pc}
 105              		.ident	"GCC: (GNU Arm Embedded Toolchain 10.3-2021.10) 10.3.1 20210824 (release)"
ARM GAS  C:\Users\CL\AppData\Local\Temp\ccfub3VG.s 			page 3


DEFINED SYMBOLS
                            *ABS*:00000000 fsm.c
C:\Users\CL\AppData\Local\Temp\ccfub3VG.s:18     .text.FSM_Regist:00000000 $t
C:\Users\CL\AppData\Local\Temp\ccfub3VG.s:24     .text.FSM_Regist:00000000 FSM_Regist
C:\Users\CL\AppData\Local\Temp\ccfub3VG.s:34     .text.FSM_StateTransfer:00000000 $t
C:\Users\CL\AppData\Local\Temp\ccfub3VG.s:40     .text.FSM_StateTransfer:00000000 FSM_StateTransfer
C:\Users\CL\AppData\Local\Temp\ccfub3VG.s:48     .text.FindTrans:00000000 $t
C:\Users\CL\AppData\Local\Temp\ccfub3VG.s:54     .text.FindTrans:00000000 FindTrans
C:\Users\CL\AppData\Local\Temp\ccfub3VG.s:83     .text.FSM_EventHandle:00000000 $t
C:\Users\CL\AppData\Local\Temp\ccfub3VG.s:89     .text.FSM_EventHandle:00000000 FSM_EventHandle

NO UNDEFINED SYMBOLS
