ARM GAS  C:\Users\CL\AppData\Local\Temp\cclYUztn.s 			page 1


   1              		.cpu cortex-m4
   2              		.arch armv7e-m
   3              		.fpu fpv4-sp-d16
   4              		.eabi_attribute 27, 1
   5              		.eabi_attribute 28, 1
   6              		.eabi_attribute 20, 1
   7              		.eabi_attribute 21, 1
   8              		.eabi_attribute 23, 3
   9              		.eabi_attribute 24, 1
  10              		.eabi_attribute 25, 1
  11              		.eabi_attribute 26, 1
  12              		.eabi_attribute 30, 6
  13              		.eabi_attribute 34, 1
  14              		.eabi_attribute 18, 4
  15              		.file	"gpio.c"
  16              		.text
  17              	.Ltext0:
  18              		.cfi_sections	.debug_frame
  19              		.section	.text.MX_GPIO_Init,"ax",%progbits
  20              		.align	1
  21              		.global	MX_GPIO_Init
  22              		.syntax unified
  23              		.thumb
  24              		.thumb_func
  26              	MX_GPIO_Init:
  27              	.LFB288:
  28              		.file 1 "HAL/Src/gpio.c"
   1:HAL/Src/gpio.c **** /* USER CODE BEGIN Header */
   2:HAL/Src/gpio.c **** /**
   3:HAL/Src/gpio.c ****   ******************************************************************************
   4:HAL/Src/gpio.c ****   * @file    gpio.c
   5:HAL/Src/gpio.c ****   * @brief   This file provides code for the configuration
   6:HAL/Src/gpio.c ****   *          of all used GPIO pins.
   7:HAL/Src/gpio.c ****   ******************************************************************************
   8:HAL/Src/gpio.c ****   * @attention
   9:HAL/Src/gpio.c ****   *
  10:HAL/Src/gpio.c ****   * Copyright (c) 2023 STMicroelectronics.
  11:HAL/Src/gpio.c ****   * All rights reserved.
  12:HAL/Src/gpio.c ****   *
  13:HAL/Src/gpio.c ****   * This software is licensed under terms that can be found in the LICENSE file
  14:HAL/Src/gpio.c ****   * in the root directory of this software component.
  15:HAL/Src/gpio.c ****   * If no LICENSE file comes with this software, it is provided AS-IS.
  16:HAL/Src/gpio.c ****   *
  17:HAL/Src/gpio.c ****   ******************************************************************************
  18:HAL/Src/gpio.c ****   */
  19:HAL/Src/gpio.c **** /* USER CODE END Header */
  20:HAL/Src/gpio.c **** 
  21:HAL/Src/gpio.c **** /* Includes ------------------------------------------------------------------*/
  22:HAL/Src/gpio.c **** #include "gpio.h"
  23:HAL/Src/gpio.c **** 
  24:HAL/Src/gpio.c **** /* USER CODE BEGIN 0 */
  25:HAL/Src/gpio.c **** 
  26:HAL/Src/gpio.c **** /* USER CODE END 0 */
  27:HAL/Src/gpio.c **** 
  28:HAL/Src/gpio.c **** /*----------------------------------------------------------------------------*/
  29:HAL/Src/gpio.c **** /* Configure GPIO                                                             */
  30:HAL/Src/gpio.c **** /*----------------------------------------------------------------------------*/
ARM GAS  C:\Users\CL\AppData\Local\Temp\cclYUztn.s 			page 2


  31:HAL/Src/gpio.c **** /* USER CODE BEGIN 1 */
  32:HAL/Src/gpio.c **** 
  33:HAL/Src/gpio.c **** /* USER CODE END 1 */
  34:HAL/Src/gpio.c **** 
  35:HAL/Src/gpio.c **** /** Configure pins as
  36:HAL/Src/gpio.c ****         * Analog
  37:HAL/Src/gpio.c ****         * Input
  38:HAL/Src/gpio.c ****         * Output
  39:HAL/Src/gpio.c ****         * EVENT_OUT
  40:HAL/Src/gpio.c ****         * EXTI
  41:HAL/Src/gpio.c **** */
  42:HAL/Src/gpio.c **** void MX_GPIO_Init(void)
  43:HAL/Src/gpio.c **** {
  29              		.loc 1 43 1
  30              		.cfi_startproc
  31              		@ args = 0, pretend = 0, frame = 40
  32              		@ frame_needed = 1, uses_anonymous_args = 0
  33 0000 80B5     		push	{r7, lr}
  34              	.LCFI0:
  35              		.cfi_def_cfa_offset 8
  36              		.cfi_offset 7, -8
  37              		.cfi_offset 14, -4
  38 0002 8AB0     		sub	sp, sp, #40
  39              	.LCFI1:
  40              		.cfi_def_cfa_offset 48
  41 0004 00AF     		add	r7, sp, #0
  42              	.LCFI2:
  43              		.cfi_def_cfa_register 7
  44:HAL/Src/gpio.c **** 
  45:HAL/Src/gpio.c ****   GPIO_InitTypeDef GPIO_InitStruct = {0};
  44              		.loc 1 45 20
  45 0006 07F11403 		add	r3, r7, #20
  46 000a 0022     		movs	r2, #0
  47 000c 1A60     		str	r2, [r3]
  48 000e 5A60     		str	r2, [r3, #4]
  49 0010 9A60     		str	r2, [r3, #8]
  50 0012 DA60     		str	r2, [r3, #12]
  51 0014 1A61     		str	r2, [r3, #16]
  52              	.LBB2:
  46:HAL/Src/gpio.c **** 
  47:HAL/Src/gpio.c ****   /* GPIO Ports Clock Enable */
  48:HAL/Src/gpio.c ****   __HAL_RCC_GPIOC_CLK_ENABLE();
  53              		.loc 1 48 3
  54 0016 524B     		ldr	r3, .L2
  55 0018 DB6C     		ldr	r3, [r3, #76]
  56 001a 514A     		ldr	r2, .L2
  57 001c 43F00403 		orr	r3, r3, #4
  58 0020 D364     		str	r3, [r2, #76]
  59 0022 4F4B     		ldr	r3, .L2
  60 0024 DB6C     		ldr	r3, [r3, #76]
  61 0026 03F00403 		and	r3, r3, #4
  62 002a 3B61     		str	r3, [r7, #16]
  63 002c 3B69     		ldr	r3, [r7, #16]
  64              	.LBE2:
  65              	.LBB3:
  49:HAL/Src/gpio.c ****   __HAL_RCC_GPIOH_CLK_ENABLE();
  66              		.loc 1 49 3
ARM GAS  C:\Users\CL\AppData\Local\Temp\cclYUztn.s 			page 3


  67 002e 4C4B     		ldr	r3, .L2
  68 0030 DB6C     		ldr	r3, [r3, #76]
  69 0032 4B4A     		ldr	r2, .L2
  70 0034 43F08003 		orr	r3, r3, #128
  71 0038 D364     		str	r3, [r2, #76]
  72 003a 494B     		ldr	r3, .L2
  73 003c DB6C     		ldr	r3, [r3, #76]
  74 003e 03F08003 		and	r3, r3, #128
  75 0042 FB60     		str	r3, [r7, #12]
  76 0044 FB68     		ldr	r3, [r7, #12]
  77              	.LBE3:
  78              	.LBB4:
  50:HAL/Src/gpio.c ****   __HAL_RCC_GPIOA_CLK_ENABLE();
  79              		.loc 1 50 3
  80 0046 464B     		ldr	r3, .L2
  81 0048 DB6C     		ldr	r3, [r3, #76]
  82 004a 454A     		ldr	r2, .L2
  83 004c 43F00103 		orr	r3, r3, #1
  84 0050 D364     		str	r3, [r2, #76]
  85 0052 434B     		ldr	r3, .L2
  86 0054 DB6C     		ldr	r3, [r3, #76]
  87 0056 03F00103 		and	r3, r3, #1
  88 005a BB60     		str	r3, [r7, #8]
  89 005c BB68     		ldr	r3, [r7, #8]
  90              	.LBE4:
  91              	.LBB5:
  51:HAL/Src/gpio.c ****   __HAL_RCC_GPIOB_CLK_ENABLE();
  92              		.loc 1 51 3
  93 005e 404B     		ldr	r3, .L2
  94 0060 DB6C     		ldr	r3, [r3, #76]
  95 0062 3F4A     		ldr	r2, .L2
  96 0064 43F00203 		orr	r3, r3, #2
  97 0068 D364     		str	r3, [r2, #76]
  98 006a 3D4B     		ldr	r3, .L2
  99 006c DB6C     		ldr	r3, [r3, #76]
 100 006e 03F00203 		and	r3, r3, #2
 101 0072 7B60     		str	r3, [r7, #4]
 102 0074 7B68     		ldr	r3, [r7, #4]
 103              	.LBE5:
  52:HAL/Src/gpio.c **** 
  53:HAL/Src/gpio.c ****   /*Configure GPIO pin Output Level */
  54:HAL/Src/gpio.c ****   HAL_GPIO_WritePin(GPIOA, GPIO_PIN_4, GPIO_PIN_RESET);
 104              		.loc 1 54 3
 105 0076 0022     		movs	r2, #0
 106 0078 1021     		movs	r1, #16
 107 007a 4FF09040 		mov	r0, #1207959552
 108 007e FFF7FEFF 		bl	HAL_GPIO_WritePin
  55:HAL/Src/gpio.c **** 
  56:HAL/Src/gpio.c ****   /*Configure GPIO pin Output Level */
  57:HAL/Src/gpio.c ****   HAL_GPIO_WritePin(GPIOB, GPIO_PIN_1|GPIO_PIN_2|GPIO_PIN_6, GPIO_PIN_RESET);
 109              		.loc 1 57 3
 110 0082 0022     		movs	r2, #0
 111 0084 4621     		movs	r1, #70
 112 0086 3748     		ldr	r0, .L2+4
 113 0088 FFF7FEFF 		bl	HAL_GPIO_WritePin
  58:HAL/Src/gpio.c **** 
  59:HAL/Src/gpio.c ****   /*Configure GPIO pin : PC13 */
ARM GAS  C:\Users\CL\AppData\Local\Temp\cclYUztn.s 			page 4


  60:HAL/Src/gpio.c ****   GPIO_InitStruct.Pin = GPIO_PIN_13;
 114              		.loc 1 60 23
 115 008c 4FF40053 		mov	r3, #8192
 116 0090 7B61     		str	r3, [r7, #20]
  61:HAL/Src/gpio.c ****   GPIO_InitStruct.Mode = GPIO_MODE_INPUT;
 117              		.loc 1 61 24
 118 0092 0023     		movs	r3, #0
 119 0094 BB61     		str	r3, [r7, #24]
  62:HAL/Src/gpio.c ****   GPIO_InitStruct.Pull = GPIO_NOPULL;
 120              		.loc 1 62 24
 121 0096 0023     		movs	r3, #0
 122 0098 FB61     		str	r3, [r7, #28]
  63:HAL/Src/gpio.c ****   HAL_GPIO_Init(GPIOC, &GPIO_InitStruct);
 123              		.loc 1 63 3
 124 009a 07F11403 		add	r3, r7, #20
 125 009e 1946     		mov	r1, r3
 126 00a0 3148     		ldr	r0, .L2+8
 127 00a2 FFF7FEFF 		bl	HAL_GPIO_Init
  64:HAL/Src/gpio.c **** 
  65:HAL/Src/gpio.c ****   /*Configure GPIO pins : PA4 PA8 PA11 PA12 */
  66:HAL/Src/gpio.c ****   GPIO_InitStruct.Pin = GPIO_PIN_4 | LORA1_SPI_NSS_Pin;
 128              		.loc 1 66 23
 129 00a6 48F21003 		movw	r3, #32784
 130 00aa 7B61     		str	r3, [r7, #20]
  67:HAL/Src/gpio.c ****   GPIO_InitStruct.Mode = GPIO_MODE_OUTPUT_PP;
 131              		.loc 1 67 24
 132 00ac 0123     		movs	r3, #1
 133 00ae BB61     		str	r3, [r7, #24]
  68:HAL/Src/gpio.c ****   GPIO_InitStruct.Pull = GPIO_NOPULL;
 134              		.loc 1 68 24
 135 00b0 0023     		movs	r3, #0
 136 00b2 FB61     		str	r3, [r7, #28]
  69:HAL/Src/gpio.c ****   GPIO_InitStruct.Speed = GPIO_SPEED_FREQ_LOW;
 137              		.loc 1 69 25
 138 00b4 0023     		movs	r3, #0
 139 00b6 3B62     		str	r3, [r7, #32]
  70:HAL/Src/gpio.c ****   HAL_GPIO_Init(GPIOA, &GPIO_InitStruct);
 140              		.loc 1 70 3
 141 00b8 07F11403 		add	r3, r7, #20
 142 00bc 1946     		mov	r1, r3
 143 00be 4FF09040 		mov	r0, #1207959552
 144 00c2 FFF7FEFF 		bl	HAL_GPIO_Init
  71:HAL/Src/gpio.c **** 
  72:HAL/Src/gpio.c ****    /*Configure GPIO pins : PA4 PA8 PA11 PA12 */
  73:HAL/Src/gpio.c ****   GPIO_InitStruct.Pin = LORA2_SPI_NSS_Pin | LORA2_RST_Pin | LORA1_RST_Pin;
 145              		.loc 1 73 23
 146 00c6 41F24203 		movw	r3, #4162
 147 00ca 7B61     		str	r3, [r7, #20]
  74:HAL/Src/gpio.c ****   GPIO_InitStruct.Mode = GPIO_MODE_OUTPUT_PP;
 148              		.loc 1 74 24
 149 00cc 0123     		movs	r3, #1
 150 00ce BB61     		str	r3, [r7, #24]
  75:HAL/Src/gpio.c ****   GPIO_InitStruct.Pull = GPIO_NOPULL;
 151              		.loc 1 75 24
 152 00d0 0023     		movs	r3, #0
 153 00d2 FB61     		str	r3, [r7, #28]
  76:HAL/Src/gpio.c ****   GPIO_InitStruct.Speed = GPIO_SPEED_FREQ_LOW;
ARM GAS  C:\Users\CL\AppData\Local\Temp\cclYUztn.s 			page 5


 154              		.loc 1 76 25
 155 00d4 0023     		movs	r3, #0
 156 00d6 3B62     		str	r3, [r7, #32]
  77:HAL/Src/gpio.c ****   HAL_GPIO_Init(LORA2_SPI_NSS_GPIO_Port, &GPIO_InitStruct);
 157              		.loc 1 77 3
 158 00d8 07F11403 		add	r3, r7, #20
 159 00dc 1946     		mov	r1, r3
 160 00de 2148     		ldr	r0, .L2+4
 161 00e0 FFF7FEFF 		bl	HAL_GPIO_Init
  78:HAL/Src/gpio.c **** 
  79:HAL/Src/gpio.c ****   /*Configure GPIO pins : PB1 PB2 PB6 */
  80:HAL/Src/gpio.c ****   GPIO_InitStruct.Pin = GPIO_PIN_1|GPIO_PIN_2|GPIO_PIN_6;
 162              		.loc 1 80 23
 163 00e4 4623     		movs	r3, #70
 164 00e6 7B61     		str	r3, [r7, #20]
  81:HAL/Src/gpio.c ****   GPIO_InitStruct.Mode = GPIO_MODE_OUTPUT_PP;
 165              		.loc 1 81 24
 166 00e8 0123     		movs	r3, #1
 167 00ea BB61     		str	r3, [r7, #24]
  82:HAL/Src/gpio.c ****   GPIO_InitStruct.Pull = GPIO_NOPULL;
 168              		.loc 1 82 24
 169 00ec 0023     		movs	r3, #0
 170 00ee FB61     		str	r3, [r7, #28]
  83:HAL/Src/gpio.c ****   GPIO_InitStruct.Speed = GPIO_SPEED_FREQ_LOW;
 171              		.loc 1 83 25
 172 00f0 0023     		movs	r3, #0
 173 00f2 3B62     		str	r3, [r7, #32]
  84:HAL/Src/gpio.c ****   HAL_GPIO_Init(GPIOB, &GPIO_InitStruct);
 174              		.loc 1 84 3
 175 00f4 07F11403 		add	r3, r7, #20
 176 00f8 1946     		mov	r1, r3
 177 00fa 1A48     		ldr	r0, .L2+4
 178 00fc FFF7FEFF 		bl	HAL_GPIO_Init
  85:HAL/Src/gpio.c **** 
  86:HAL/Src/gpio.c **** 
  87:HAL/Src/gpio.c ****   /*Configure GPIO pins : LORA2_DIO0_Pin PA6 */
  88:HAL/Src/gpio.c ****   GPIO_InitStruct.Pin = LORA2_DIO0_Pin;//GPIO_PIN
 179              		.loc 1 88 23
 180 0100 4023     		movs	r3, #64
 181 0102 7B61     		str	r3, [r7, #20]
  89:HAL/Src/gpio.c ****   GPIO_InitStruct.Mode = GPIO_MODE_IT_RISING;//推挽输出模式
 182              		.loc 1 89 24
 183 0104 4FF48813 		mov	r3, #1114112
 184 0108 BB61     		str	r3, [r7, #24]
  90:HAL/Src/gpio.c ****   GPIO_InitStruct.Pull = GPIO_PULLDOWN;//下拉
 185              		.loc 1 90 24
 186 010a 0223     		movs	r3, #2
 187 010c FB61     		str	r3, [r7, #28]
  91:HAL/Src/gpio.c ****   HAL_GPIO_Init(LORA2_DIO0_GPIO_Port, &GPIO_InitStruct);
 188              		.loc 1 91 3
 189 010e 07F11403 		add	r3, r7, #20
 190 0112 1946     		mov	r1, r3
 191 0114 4FF09040 		mov	r0, #1207959552
 192 0118 FFF7FEFF 		bl	HAL_GPIO_Init
  92:HAL/Src/gpio.c ****   HAL_NVIC_SetPriority(EXTI9_5_IRQn, 1, 0);
 193              		.loc 1 92 3
 194 011c 0022     		movs	r2, #0
ARM GAS  C:\Users\CL\AppData\Local\Temp\cclYUztn.s 			page 6


 195 011e 0121     		movs	r1, #1
 196 0120 1720     		movs	r0, #23
 197 0122 FFF7FEFF 		bl	HAL_NVIC_SetPriority
  93:HAL/Src/gpio.c ****   HAL_NVIC_EnableIRQ(EXTI9_5_IRQn);
 198              		.loc 1 93 3
 199 0126 1720     		movs	r0, #23
 200 0128 FFF7FEFF 		bl	HAL_NVIC_EnableIRQ
  94:HAL/Src/gpio.c **** 
  95:HAL/Src/gpio.c ****   /*Configure GPIO pins : PAPin PAPin */
  96:HAL/Src/gpio.c ****   GPIO_InitStruct.Pin = LORA1_DIO0_Pin;//GPIO_PIN
 201              		.loc 1 96 23
 202 012c 4FF40073 		mov	r3, #512
 203 0130 7B61     		str	r3, [r7, #20]
  97:HAL/Src/gpio.c ****   GPIO_InitStruct.Mode = GPIO_MODE_IT_RISING;//推挽输出模式
 204              		.loc 1 97 24
 205 0132 4FF48813 		mov	r3, #1114112
 206 0136 BB61     		str	r3, [r7, #24]
  98:HAL/Src/gpio.c ****   GPIO_InitStruct.Pull = GPIO_PULLDOWN;//下拉
 207              		.loc 1 98 24
 208 0138 0223     		movs	r3, #2
 209 013a FB61     		str	r3, [r7, #28]
  99:HAL/Src/gpio.c ****   HAL_GPIO_Init(LORA1_DIO0_GPIO_Port, &GPIO_InitStruct);
 210              		.loc 1 99 3
 211 013c 07F11403 		add	r3, r7, #20
 212 0140 1946     		mov	r1, r3
 213 0142 0848     		ldr	r0, .L2+4
 214 0144 FFF7FEFF 		bl	HAL_GPIO_Init
 100:HAL/Src/gpio.c ****   HAL_NVIC_SetPriority(EXTI9_5_IRQn, 1, 0);
 215              		.loc 1 100 3
 216 0148 0022     		movs	r2, #0
 217 014a 0121     		movs	r1, #1
 218 014c 1720     		movs	r0, #23
 219 014e FFF7FEFF 		bl	HAL_NVIC_SetPriority
 101:HAL/Src/gpio.c ****   HAL_NVIC_EnableIRQ(EXTI9_5_IRQn);
 220              		.loc 1 101 3
 221 0152 1720     		movs	r0, #23
 222 0154 FFF7FEFF 		bl	HAL_NVIC_EnableIRQ
 102:HAL/Src/gpio.c **** }
 223              		.loc 1 102 1
 224 0158 00BF     		nop
 225 015a 2837     		adds	r7, r7, #40
 226              	.LCFI3:
 227              		.cfi_def_cfa_offset 8
 228 015c BD46     		mov	sp, r7
 229              	.LCFI4:
 230              		.cfi_def_cfa_register 13
 231              		@ sp needed
 232 015e 80BD     		pop	{r7, pc}
 233              	.L3:
 234              		.align	2
 235              	.L2:
 236 0160 00100240 		.word	1073876992
 237 0164 00040048 		.word	1207960576
 238 0168 00080048 		.word	1207961600
 239              		.cfi_endproc
 240              	.LFE288:
 242              		.text
ARM GAS  C:\Users\CL\AppData\Local\Temp\cclYUztn.s 			page 7


 243              	.Letext0:
 244              		.file 2 "e:\\gcc-arm-none-eabi-10.3-2021.10-win32\\gcc-arm-none-eabi-10.3-2021.10\\arm-none-eabi\\
 245              		.file 3 "e:\\gcc-arm-none-eabi-10.3-2021.10-win32\\gcc-arm-none-eabi-10.3-2021.10\\arm-none-eabi\\
 246              		.file 4 "Drivers/CMSIS/Device/ST/STM32L4xx/Include/stm32l431xx.h"
 247              		.file 5 "Drivers/STM32L4xx_HAL_Driver/Inc/stm32l4xx_hal_gpio.h"
ARM GAS  C:\Users\CL\AppData\Local\Temp\cclYUztn.s 			page 8

