ARM GAS  C:\Users\CL\AppData\Local\Temp\ccP4HzC1.s 			page 1


   1              		.cpu cortex-m4
   2              		.arch armv7e-m
   3              		.fpu fpv4-sp-d16
   4              		.eabi_attribute 27, 1
   5              		.eabi_attribute 28, 1
   6              		.eabi_attribute 20, 1
   7              		.eabi_attribute 21, 1
   8              		.eabi_attribute 23, 3
   9              		.eabi_attribute 24, 1
  10              		.eabi_attribute 25, 1
  11              		.eabi_attribute 26, 1
  12              		.eabi_attribute 30, 4
  13              		.eabi_attribute 34, 1
  14              		.eabi_attribute 18, 4
  15              		.file	"main.c"
  16              		.text
  17              		.section	.rodata.Test_All.str1.1,"aMS",%progbits,1
  18              	.LC0:
  19 0000 52533438 		.ascii	"RS485 TRANSMIT OK\015\012\000"
  19      35205452 
  19      414E534D 
  19      4954204F 
  19      4B0D0A00 
  20              	.LC1:
  21 0014 72656164 		.ascii	"read\000"
  21      00
  22              	.LC2:
  23 0019 4C6F7261 		.ascii	"Lora0 tx test\015\012\000"
  23      30207478 
  23      20746573 
  23      740D0A00 
  24              	.LC3:
  25 0029 4C6F7261 		.ascii	"Lora1 tx test\015\012\000"
  25      31207478 
  25      20746573 
  25      740D0A00 
  26              	.LC4:
  27 0039 4F4B00   		.ascii	"OK\000"
  28              	.LC5:
  29 003c 415400   		.ascii	"AT\000"
  30              	.LC6:
  31 003f 54657374 		.ascii	"Test OK Count:%d/8\015\012\000"
  31      204F4B20 
  31      436F756E 
  31      743A2564 
  31      2F380D0A 
  32              		.section	.text.Test_All,"ax",%progbits
  33              		.align	1
  34              		.global	Test_All
  35              		.syntax unified
  36              		.thumb
  37              		.thumb_func
  39              	Test_All:
  40              		@ args = 0, pretend = 0, frame = 0
  41              		@ frame_needed = 0, uses_anonymous_args = 0
  42 0000 38B5     		push	{r3, r4, r5, lr}
  43 0002 134D     		ldr	r5, .L2
ARM GAS  C:\Users\CL\AppData\Local\Temp\ccP4HzC1.s 			page 2


  44 0004 0024     		movs	r4, #0
  45 0006 2C70     		strb	r4, [r5]
  46 0008 FFF7FEFF 		bl	Battery_Test
  47 000c FFF7FEFF 		bl	LDR_Value_Get
  48 0010 1048     		ldr	r0, .L2+4
  49 0012 FFF7FEFF 		bl	RS485_Test
  50 0016 FFF7FEFF 		bl	Flash_Test
  51 001a 0F48     		ldr	r0, .L2+8
  52 001c 6421     		movs	r1, #100
  53 001e FFF7FEFF 		bl	BDS_Test
  54 0022 2046     		mov	r0, r4
  55 0024 0D49     		ldr	r1, .L2+12
  56 0026 C822     		movs	r2, #200
  57 0028 FFF7FEFF 		bl	LORA_Send
  58 002c 0C49     		ldr	r1, .L2+16
  59 002e C822     		movs	r2, #200
  60 0030 0120     		movs	r0, #1
  61 0032 FFF7FEFF 		bl	LORA_Send
  62 0036 2046     		mov	r0, r4
  63 0038 0A4A     		ldr	r2, .L2+20
  64 003a 0B49     		ldr	r1, .L2+24
  65 003c 6423     		movs	r3, #100
  66 003e FFF7FEFF 		bl	EC2x_Test
  67 0042 2A78     		ldrb	r2, [r5]	@ zero_extendqisi2
  68 0044 0949     		ldr	r1, .L2+28
  69 0046 0A48     		ldr	r0, .L2+32
  70 0048 BDE83840 		pop	{r3, r4, r5, lr}
  71 004c FFF7FEBF 		b	shellPrint
  72              	.L3:
  73              		.align	2
  74              	.L2:
  75 0050 00000000 		.word	test_ok_cnt
  76 0054 00000000 		.word	.LC0
  77 0058 14000000 		.word	.LC1
  78 005c 19000000 		.word	.LC2
  79 0060 29000000 		.word	.LC3
  80 0064 39000000 		.word	.LC4
  81 0068 3C000000 		.word	.LC5
  82 006c 3F000000 		.word	.LC6
  83 0070 00000000 		.word	shell
  85              		.section	.text.SystemClock_Config,"ax",%progbits
  86              		.align	1
  87              		.global	SystemClock_Config
  88              		.syntax unified
  89              		.thumb
  90              		.thumb_func
  92              	SystemClock_Config:
  93              		@ args = 0, pretend = 0, frame = 88
  94              		@ frame_needed = 0, uses_anonymous_args = 0
  95 0000 30B5     		push	{r4, r5, lr}
  96 0002 97B0     		sub	sp, sp, #92
  97 0004 4422     		movs	r2, #68
  98 0006 0021     		movs	r1, #0
  99 0008 05A8     		add	r0, sp, #20
 100 000a 1425     		movs	r5, #20
 101 000c FFF7FEFF 		bl	memset
 102 0010 2A46     		mov	r2, r5
ARM GAS  C:\Users\CL\AppData\Local\Temp\ccP4HzC1.s 			page 3


 103 0012 0021     		movs	r1, #0
 104 0014 6846     		mov	r0, sp
 105 0016 FFF7FEFF 		bl	memset
 106 001a 4FF40070 		mov	r0, #512
 107 001e FFF7FEFF 		bl	HAL_PWREx_ControlVoltageScaling
 108 0022 08B1     		cbz	r0, .L5
 109              		.syntax unified
 110              	@ 209 "Drivers/CMSIS/Include/cmsis_gcc.h" 1
 111 0024 72B6     		cpsid i
 112              	@ 0 "" 2
 113              		.thumb
 114              		.syntax unified
 115              	.L6:
 116 0026 FEE7     		b	.L6
 117              	.L5:
 118 0028 0122     		movs	r2, #1
 119 002a 4FF48033 		mov	r3, #65536
 120 002e CDE90523 		strd	r2, r3, [sp, #20]
 121 0032 CDE91125 		strd	r2, r5, [sp, #68]
 122 0036 0223     		movs	r3, #2
 123 0038 0324     		movs	r4, #3
 124 003a 0722     		movs	r2, #7
 125 003c 05A8     		add	r0, sp, #20
 126 003e CDE90F34 		strd	r3, r4, [sp, #60]
 127 0042 CDE91323 		strd	r2, r3, [sp, #76]
 128 0046 1593     		str	r3, [sp, #84]
 129 0048 FFF7FEFF 		bl	HAL_RCC_OscConfig
 130 004c 08B1     		cbz	r0, .L7
 131              		.syntax unified
 132              	@ 209 "Drivers/CMSIS/Include/cmsis_gcc.h" 1
 133 004e 72B6     		cpsid i
 134              	@ 0 "" 2
 135              		.thumb
 136              		.syntax unified
 137              	.L8:
 138 0050 FEE7     		b	.L8
 139              	.L7:
 140 0052 CDE90200 		strd	r0, r0, [sp, #8]
 141 0056 0F23     		movs	r3, #15
 142 0058 0490     		str	r0, [sp, #16]
 143 005a 0421     		movs	r1, #4
 144 005c 6846     		mov	r0, sp
 145 005e CDE90034 		strd	r3, r4, [sp]
 146 0062 FFF7FEFF 		bl	HAL_RCC_ClockConfig
 147 0066 08B1     		cbz	r0, .L4
 148              		.syntax unified
 149              	@ 209 "Drivers/CMSIS/Include/cmsis_gcc.h" 1
 150 0068 72B6     		cpsid i
 151              	@ 0 "" 2
 152              		.thumb
 153              		.syntax unified
 154              	.L10:
 155 006a FEE7     		b	.L10
 156              	.L4:
 157 006c 17B0     		add	sp, sp, #92
 158              		@ sp needed
 159 006e 30BD     		pop	{r4, r5, pc}
ARM GAS  C:\Users\CL\AppData\Local\Temp\ccP4HzC1.s 			page 4


 161              		.section	.rodata.main.str1.1,"aMS",%progbits,1
 162              	.LC7:
 163 0000 75617274 		.ascii	"uart2/bds_0\000"
 163      322F6264 
 163      735F3000 
 164              	.LC8:
 165 000c 75617274 		.ascii	"uart1/ec200s\000"
 165      312F6563 
 165      32303073 
 165      00
 166              	.LC9:
 167 0019 54797065 		.ascii	"Type [help] for the list of instructions\015\012\000"
 167      205B6865 
 167      6C705D20 
 167      666F7220 
 167      74686520 
 168              		.section	.text.startup.main,"ax",%progbits
 169              		.align	1
 170              		.global	main
 171              		.syntax unified
 172              		.thumb
 173              		.thumb_func
 175              	main:
 176              		@ Volatile: function does not return.
 177              		@ args = 0, pretend = 0, frame = 0
 178              		@ frame_needed = 0, uses_anonymous_args = 0
 179 0000 7FB5     		push	{r0, r1, r2, r3, r4, r5, r6, lr}
 180 0002 FFF7FEFF 		bl	HAL_Init
 181 0006 FFF7FEFF 		bl	timer_init
 182 000a FFF7FEFF 		bl	SystemClock_Config
 183 000e FFF7FEFF 		bl	MX_GPIO_Init
 184 0012 3D48     		ldr	r0, .L13
 185 0014 3D4C     		ldr	r4, .L13+4
 186 0016 FFF7FEFF 		bl	LED_Init
 187 001a 3D48     		ldr	r0, .L13+8
 188 001c FFF7FEFF 		bl	LED_Init
 189 0020 FFF7FEFF 		bl	MX_ADC1_Init
 190 0024 FFF7FEFF 		bl	MX_SPI2_Init
 191 0028 FFF7FEFF 		bl	MX_SPI3_Init
 192 002c FFF7FEFF 		bl	MX_USART1_UART_Init
 193 0030 FFF7FEFF 		bl	MX_USART2_UART_Init
 194 0034 FFF7FEFF 		bl	MX_USART3_UART_Init
 195 0038 FFF7FEFF 		bl	User_Shell_Init
 196 003c FFF7FEFF 		bl	BSP_W25Qx_Init
 197 0040 3448     		ldr	r0, .L13+12
 198 0042 FFF7FEFF 		bl	atgm_open
 199 0046 344B     		ldr	r3, .L13+16
 200 0048 1860     		str	r0, [r3]
 201 004a 3448     		ldr	r0, .L13+20
 202 004c FFF7FEFF 		bl	ec2x_open
 203 0050 637D     		ldrb	r3, [r4, #21]	@ zero_extendqisi2
 204 0052 0593     		str	r3, [sp, #20]
 205 0054 237D     		ldrb	r3, [r4, #20]	@ zero_extendqisi2
 206 0056 0493     		str	r3, [sp, #16]
 207 0058 E37C     		ldrb	r3, [r4, #19]	@ zero_extendqisi2
 208 005a 0393     		str	r3, [sp, #12]
 209 005c A37C     		ldrb	r3, [r4, #18]	@ zero_extendqisi2
ARM GAS  C:\Users\CL\AppData\Local\Temp\ccP4HzC1.s 			page 5


 210 005e 0293     		str	r3, [sp, #8]
 211 0060 637C     		ldrb	r3, [r4, #17]	@ zero_extendqisi2
 212 0062 0193     		str	r3, [sp, #4]
 213 0064 237C     		ldrb	r3, [r4, #16]	@ zero_extendqisi2
 214 0066 0093     		str	r3, [sp]
 215 0068 2046     		mov	r0, r4
 216 006a D4E90223 		ldrd	r2, [r4, #8]
 217 006e FFF7FEFF 		bl	SX1278_init
 218 0072 6421     		movs	r1, #100
 219 0074 4FF4FA72 		mov	r2, #500
 220 0078 2046     		mov	r0, r4
 221 007a FFF7FEFF 		bl	SX1278_receive
 222 007e 637D     		ldrb	r3, [r4, #21]	@ zero_extendqisi2
 223 0080 0593     		str	r3, [sp, #20]
 224 0082 237D     		ldrb	r3, [r4, #20]	@ zero_extendqisi2
 225 0084 0493     		str	r3, [sp, #16]
 226 0086 E37C     		ldrb	r3, [r4, #19]	@ zero_extendqisi2
 227 0088 0393     		str	r3, [sp, #12]
 228 008a A37C     		ldrb	r3, [r4, #18]	@ zero_extendqisi2
 229 008c 0293     		str	r3, [sp, #8]
 230 008e 637C     		ldrb	r3, [r4, #17]	@ zero_extendqisi2
 231 0090 0193     		str	r3, [sp, #4]
 232 0092 237C     		ldrb	r3, [r4, #16]	@ zero_extendqisi2
 233 0094 0093     		str	r3, [sp]
 234 0096 04F58C70 		add	r0, r4, #280
 235 009a D4E94823 		ldrd	r2, [r4, #288]
 236 009e FFF7FEFF 		bl	SX1278_init
 237 00a2 4FF4FA72 		mov	r2, #500
 238 00a6 6421     		movs	r1, #100
 239 00a8 04F58C70 		add	r0, r4, #280
 240 00ac FFF7FEFF 		bl	SX1278_receive
 241 00b0 FFF7FEFF 		bl	Battery_Test
 242 00b4 FFF7FEFF 		bl	LDR_Value_Get
 243 00b8 1948     		ldr	r0, .L13+24
 244 00ba FFF7FEFF 		bl	RS485_Test
 245 00be FFF7FEFF 		bl	Flash_Test
 246 00c2 1848     		ldr	r0, .L13+28
 247 00c4 6421     		movs	r1, #100
 248 00c6 FFF7FEFF 		bl	BDS_Test
 249 00ca 1749     		ldr	r1, .L13+32
 250 00cc C822     		movs	r2, #200
 251 00ce 0020     		movs	r0, #0
 252 00d0 FFF7FEFF 		bl	LORA_Send
 253 00d4 1549     		ldr	r1, .L13+36
 254 00d6 C822     		movs	r2, #200
 255 00d8 0120     		movs	r0, #1
 256 00da FFF7FEFF 		bl	LORA_Send
 257 00de 144A     		ldr	r2, .L13+40
 258 00e0 1449     		ldr	r1, .L13+44
 259 00e2 6423     		movs	r3, #100
 260 00e4 0020     		movs	r0, #0
 261 00e6 FFF7FEFF 		bl	EC2x_Test
 262 00ea 134B     		ldr	r3, .L13+48
 263 00ec 1349     		ldr	r1, .L13+52
 264 00ee 1448     		ldr	r0, .L13+56
 265 00f0 1A78     		ldrb	r2, [r3]	@ zero_extendqisi2
 266 00f2 FFF7FEFF 		bl	shellPrint
ARM GAS  C:\Users\CL\AppData\Local\Temp\ccP4HzC1.s 			page 6


 267 00f6 1349     		ldr	r1, .L13+60
 268 00f8 1148     		ldr	r0, .L13+56
 269 00fa FFF7FEFF 		bl	shellPrint
 270              	.L12:
 271 00fe 6420     		movs	r0, #100
 272 0100 FFF7FEFF 		bl	Delay_ms
 273 0104 FBE7     		b	.L12
 274              	.L14:
 275 0106 00BF     		.align	2
 276              	.L13:
 277 0108 00000000 		.word	dev_led
 278 010c 00000000 		.word	Lora_dev
 279 0110 08000000 		.word	dev_led+8
 280 0114 00000000 		.word	.LC7
 281 0118 00000000 		.word	bds_dev
 282 011c 0C000000 		.word	.LC8
 283 0120 00000000 		.word	.LC0
 284 0124 14000000 		.word	.LC1
 285 0128 19000000 		.word	.LC2
 286 012c 29000000 		.word	.LC3
 287 0130 39000000 		.word	.LC4
 288 0134 3C000000 		.word	.LC5
 289 0138 00000000 		.word	test_ok_cnt
 290 013c 3F000000 		.word	.LC6
 291 0140 00000000 		.word	shell
 292 0144 19000000 		.word	.LC9
 294              		.section	.text.Error_Handler,"ax",%progbits
 295              		.align	1
 296              		.global	Error_Handler
 297              		.syntax unified
 298              		.thumb
 299              		.thumb_func
 301              	Error_Handler:
 302              		@ Volatile: function does not return.
 303              		@ args = 0, pretend = 0, frame = 0
 304              		@ frame_needed = 0, uses_anonymous_args = 0
 305              		@ link register save eliminated.
 306              		.syntax unified
 307              	@ 209 "Drivers/CMSIS/Include/cmsis_gcc.h" 1
 308 0000 72B6     		cpsid i
 309              	@ 0 "" 2
 310              		.thumb
 311              		.syntax unified
 312              	.L16:
 313 0002 FEE7     		b	.L16
 315              		.global	shellCommandtest_all
 316              		.global	shellDesctest_all
 317              		.global	shellCmdtest_all
 318              		.section	.rodata.shellCmdtest_all,"a"
 321              	shellCmdtest_all:
 322 0000 74657374 		.ascii	"test_all\000"
 322      5F616C6C 
 322      00
 323              		.section	.rodata.shellDesctest_all,"a"
 326              	shellDesctest_all:
 327 0000 74657374 		.ascii	"test all device\000"
 327      20616C6C 
ARM GAS  C:\Users\CL\AppData\Local\Temp\ccP4HzC1.s 			page 7


 327      20646576 
 327      69636500 
 328              		.section	shellCommand,"a"
 331              	shellCommandtest_all:
 332 0000 00210000 		.4byte	8448
 333 0004 00000000 		.4byte	shellCmdtest_all
 334 0008 00000000 		.4byte	Test_All
 335 000c 00000000 		.4byte	shellDesctest_all
 336              		.ident	"GCC: (GNU Arm Embedded Toolchain 10.3-2021.10) 10.3.1 20210824 (release)"
ARM GAS  C:\Users\CL\AppData\Local\Temp\ccP4HzC1.s 			page 8


DEFINED SYMBOLS
                            *ABS*:00000000 main.c
C:\Users\CL\AppData\Local\Temp\ccP4HzC1.s:33     .text.Test_All:00000000 $t
C:\Users\CL\AppData\Local\Temp\ccP4HzC1.s:39     .text.Test_All:00000000 Test_All
C:\Users\CL\AppData\Local\Temp\ccP4HzC1.s:75     .text.Test_All:00000050 $d
C:\Users\CL\AppData\Local\Temp\ccP4HzC1.s:86     .text.SystemClock_Config:00000000 $t
C:\Users\CL\AppData\Local\Temp\ccP4HzC1.s:92     .text.SystemClock_Config:00000000 SystemClock_Config
C:\Users\CL\AppData\Local\Temp\ccP4HzC1.s:169    .text.startup.main:00000000 $t
C:\Users\CL\AppData\Local\Temp\ccP4HzC1.s:175    .text.startup.main:00000000 main
C:\Users\CL\AppData\Local\Temp\ccP4HzC1.s:277    .text.startup.main:00000108 $d
C:\Users\CL\AppData\Local\Temp\ccP4HzC1.s:295    .text.Error_Handler:00000000 $t
C:\Users\CL\AppData\Local\Temp\ccP4HzC1.s:301    .text.Error_Handler:00000000 Error_Handler
C:\Users\CL\AppData\Local\Temp\ccP4HzC1.s:331    shellCommand:00000000 shellCommandtest_all
C:\Users\CL\AppData\Local\Temp\ccP4HzC1.s:326    .rodata.shellDesctest_all:00000000 shellDesctest_all
C:\Users\CL\AppData\Local\Temp\ccP4HzC1.s:321    .rodata.shellCmdtest_all:00000000 shellCmdtest_all

UNDEFINED SYMBOLS
Battery_Test
LDR_Value_Get
RS485_Test
Flash_Test
BDS_Test
LORA_Send
EC2x_Test
shellPrint
test_ok_cnt
shell
memset
HAL_PWREx_ControlVoltageScaling
HAL_RCC_OscConfig
HAL_RCC_ClockConfig
HAL_Init
timer_init
MX_GPIO_Init
LED_Init
MX_ADC1_Init
MX_SPI2_Init
MX_SPI3_Init
MX_USART1_UART_Init
MX_USART2_UART_Init
MX_USART3_UART_Init
User_Shell_Init
BSP_W25Qx_Init
atgm_open
ec2x_open
SX1278_init
SX1278_receive
Delay_ms
dev_led
Lora_dev
bds_dev
