ARM GAS  C:\Users\CL\AppData\Local\Temp\ccGlybGr.s 			page 1


   1              		.cpu cortex-m4
   2              		.arch armv7e-m
   3              		.fpu fpv4-sp-d16
   4              		.eabi_attribute 27, 1
   5              		.eabi_attribute 28, 1
   6              		.eabi_attribute 20, 1
   7              		.eabi_attribute 21, 1
   8              		.eabi_attribute 23, 3
   9              		.eabi_attribute 24, 1
  10              		.eabi_attribute 25, 1
  11              		.eabi_attribute 26, 1
  12              		.eabi_attribute 30, 4
  13              		.eabi_attribute 34, 1
  14              		.eabi_attribute 18, 4
  15              		.file	"main.c"
  16              		.text
  17              	.Ltext0:
  18              		.cfi_sections	.debug_frame
  19              		.section	.rodata.DeviceID_Print.str1.1,"aMS",%progbits,1
  20              	.LC0:
  21 0000 4D41433A 		.ascii	"MAC:\000"
  21      00
  22              	.LC1:
  23 0005 25303278 		.ascii	"%02x\000"
  23      00
  24              	.LC2:
  25 000a 0D0A00   		.ascii	"\015\012\000"
  26              		.section	.text.DeviceID_Print,"ax",%progbits
  27              		.align	1
  28              		.global	DeviceID_Print
  29              		.syntax unified
  30              		.thumb
  31              		.thumb_func
  33              	DeviceID_Print:
  34              	.LFB293:
  35              		.file 1 "Core/Src/main.c"
   1:Core/Src/main.c **** /* USER CODE BEGIN Header */
   2:Core/Src/main.c **** /**
   3:Core/Src/main.c ****   ******************************************************************************
   4:Core/Src/main.c ****   * @file           : main.c
   5:Core/Src/main.c ****   * @brief          : Main program body
   6:Core/Src/main.c ****   ******************************************************************************
   7:Core/Src/main.c ****   * @attention
   8:Core/Src/main.c ****   *
   9:Core/Src/main.c ****   * Copyright (c) 2023 STMicroelectronics.
  10:Core/Src/main.c ****   * All rights reserved.
  11:Core/Src/main.c ****   *
  12:Core/Src/main.c ****   * This software is licensed under terms that can be found in the LICENSE file
  13:Core/Src/main.c ****   * in the root directory of this software component.
  14:Core/Src/main.c ****   * If no LICENSE file comes with this software, it is provided AS-IS.
  15:Core/Src/main.c ****   *
  16:Core/Src/main.c ****   ******************************************************************************
  17:Core/Src/main.c ****   */
  18:Core/Src/main.c **** /* USER CODE END Header */
  19:Core/Src/main.c **** /* Includes ------------------------------------------------------------------*/
  20:Core/Src/main.c **** #include "main.h"
  21:Core/Src/main.c **** #include "led.h"
ARM GAS  C:\Users\CL\AppData\Local\Temp\ccGlybGr.s 			page 2


  22:Core/Src/main.c **** #include "adc.h"
  23:Core/Src/main.c **** #include "spi.h"
  24:Core/Src/main.c **** #include "usart.h"
  25:Core/Src/main.c **** #include "gpio.h"
  26:Core/Src/main.c **** #include "timer.h"
  27:Core/Src/main.c **** #include "math.h"
  28:Core/Src/main.c **** 
  29:Core/Src/main.c **** /* Private includes ----------------------------------------------------------*/
  30:Core/Src/main.c **** /* USER CODE BEGIN Includes */
  31:Core/Src/main.c **** #include "shell_port.h"
  32:Core/Src/main.c **** #include "stdint.h"
  33:Core/Src/main.c **** #include <stdio.h>
  34:Core/Src/main.c **** #include <string.h>
  35:Core/Src/main.c **** #include <stdarg.h>
  36:Core/Src/main.c **** #include "rs485.h"
  37:Core/Src/main.c **** #include "W25QXX.h"
  38:Core/Src/main.c **** #include "ATGM332D.h"
  39:Core/Src/main.c **** #include "EC2x.h"
  40:Core/Src/main.c **** #include "SX1278.h"
  41:Core/Src/main.c **** // #include "y_lora.h"
  42:Core/Src/main.c **** 
  43:Core/Src/main.c **** 
  44:Core/Src/main.c **** /* USER CODE END Includes */
  45:Core/Src/main.c **** 
  46:Core/Src/main.c **** /* Private typedef -----------------------------------------------------------*/
  47:Core/Src/main.c **** /* USER CODE BEGIN PTD */
  48:Core/Src/main.c **** 
  49:Core/Src/main.c **** /* USER CODE END PTD */
  50:Core/Src/main.c **** 
  51:Core/Src/main.c **** /* Private define ------------------------------------------------------------*/
  52:Core/Src/main.c **** /* USER CODE BEGIN PD */
  53:Core/Src/main.c **** /* USER CODE END PD */
  54:Core/Src/main.c **** 
  55:Core/Src/main.c **** /* Private macro -------------------------------------------------------------*/
  56:Core/Src/main.c **** /* USER CODE BEGIN PM */
  57:Core/Src/main.c **** 
  58:Core/Src/main.c **** /* USER CODE END PM */
  59:Core/Src/main.c **** 
  60:Core/Src/main.c **** /* Private variables ---------------------------------------------------------*/
  61:Core/Src/main.c **** 
  62:Core/Src/main.c **** /* USER CODE BEGIN PV */
  63:Core/Src/main.c **** 
  64:Core/Src/main.c **** /* USER CODE END PV */
  65:Core/Src/main.c **** 
  66:Core/Src/main.c **** /* Private function prototypes -----------------------------------------------*/
  67:Core/Src/main.c **** void SystemClock_Config(void);
  68:Core/Src/main.c **** /* USER CODE BEGIN PFP */
  69:Core/Src/main.c **** void DeviceID_Print(void);
  70:Core/Src/main.c **** /* USER CODE END PFP */
  71:Core/Src/main.c **** 
  72:Core/Src/main.c **** /* Private user code ---------------------------------------------------------*/
  73:Core/Src/main.c **** /* USER CODE BEGIN 0 */
  74:Core/Src/main.c **** 
  75:Core/Src/main.c **** /* USER CODE END 0 */
  76:Core/Src/main.c **** 
  77:Core/Src/main.c **** /**
  78:Core/Src/main.c ****   * @brief  The application entry point.
ARM GAS  C:\Users\CL\AppData\Local\Temp\ccGlybGr.s 			page 3


  79:Core/Src/main.c ****   * @retval int
  80:Core/Src/main.c ****   */
  81:Core/Src/main.c **** int main(void)
  82:Core/Src/main.c **** {
  83:Core/Src/main.c ****   /* USER CODE BEGIN 1 */
  84:Core/Src/main.c ****   
  85:Core/Src/main.c ****   /* USER CODE END 1 */
  86:Core/Src/main.c **** 
  87:Core/Src/main.c ****   /* MCU Configuration--------------------------------------------------------*/
  88:Core/Src/main.c **** 
  89:Core/Src/main.c ****   /* Reset of all peripherals, Initializes the Flash interface and the Systick. */
  90:Core/Src/main.c **** 
  91:Core/Src/main.c ****   HAL_Init();
  92:Core/Src/main.c **** 
  93:Core/Src/main.c ****   /* USER CODE BEGIN Init */
  94:Core/Src/main.c ****   timer_init();//定时事件列表初始化，需要在时基更新函数运行之前进行
  95:Core/Src/main.c ****   /* USER CODE END Init */
  96:Core/Src/main.c **** 
  97:Core/Src/main.c ****   /* Configure the system clock */
  98:Core/Src/main.c ****   SystemClock_Config();
  99:Core/Src/main.c **** 
 100:Core/Src/main.c ****   /* USER CODE BEGIN SysInit */
 101:Core/Src/main.c **** 
 102:Core/Src/main.c ****   /* USER CODE END SysInit */
 103:Core/Src/main.c **** 
 104:Core/Src/main.c ****   /* Initialize all configured peripherals */
 105:Core/Src/main.c ****   MX_GPIO_Init();
 106:Core/Src/main.c ****   LED_Init(&dev_led[0]);
 107:Core/Src/main.c ****   LED_Init(&dev_led[1]);
 108:Core/Src/main.c ****   MX_ADC1_Init();
 109:Core/Src/main.c ****   MX_SPI2_Init();
 110:Core/Src/main.c ****   MX_SPI3_Init();
 111:Core/Src/main.c ****   MX_USART1_UART_Init();
 112:Core/Src/main.c ****   MX_USART2_UART_Init();
 113:Core/Src/main.c ****   MX_USART3_UART_Init();
 114:Core/Src/main.c ****   /* USER CODE BEGIN 2 */
 115:Core/Src/main.c ****   /* TODO:fix shell initialize */
 116:Core/Src/main.c ****   User_Shell_Init();
 117:Core/Src/main.c ****   BSP_W25Qx_Init();
 118:Core/Src/main.c ****   bds_dev = atgm_open("uart2/bds_0");
 119:Core/Src/main.c ****   ec2x_open("uart1/ec200s");
 120:Core/Src/main.c **** 
 121:Core/Src/main.c **** 
 122:Core/Src/main.c ****   //Lora_Init();
 123:Core/Src/main.c ****   SX1278_init(&Lora_dev[0], Lora_dev[0].frequency, Lora_dev[0].power,
 124:Core/Src/main.c **** 		Lora_dev[0].LoRa_SF, Lora_dev[0].LoRa_BW, Lora_dev[0].LoRa_CR,
 125:Core/Src/main.c **** 		Lora_dev[0].LoRa_CRC_sum, Lora_dev[0].packetLength);
 126:Core/Src/main.c ****    SX1278_receive(&Lora_dev[0], 100, 500);
 127:Core/Src/main.c ****   SX1278_init(&Lora_dev[1], Lora_dev[1].frequency, Lora_dev[0].power,
 128:Core/Src/main.c **** 		Lora_dev[0].LoRa_SF, Lora_dev[0].LoRa_BW, Lora_dev[0].LoRa_CR,
 129:Core/Src/main.c **** 		Lora_dev[0].LoRa_CRC_sum, Lora_dev[0].packetLength);
 130:Core/Src/main.c ****    SX1278_receive(&Lora_dev[1], 100, 500);
 131:Core/Src/main.c ****   /* USER CODE END 2 */
 132:Core/Src/main.c **** 
 133:Core/Src/main.c ****   /* Infinite loop */
 134:Core/Src/main.c ****   /* USER CODE BEGIN WHILE */
 135:Core/Src/main.c ****  
ARM GAS  C:\Users\CL\AppData\Local\Temp\ccGlybGr.s 			page 4


 136:Core/Src/main.c ****   while (1)
 137:Core/Src/main.c ****   {
 138:Core/Src/main.c ****     // uint16_t shellidle_upper = 30;
 139:Core/Src/main.c ****     /* USER CODE END WHILE */
 140:Core/Src/main.c ****     /*电量LED D6 D7*/
 141:Core/Src/main.c ****     LED_On(&dev_led[0]);
 142:Core/Src/main.c ****     LED_On(&dev_led[1]);
 143:Core/Src/main.c ****     /*Mac地址打印*/
 144:Core/Src/main.c ****     DeviceID_Print();
 145:Core/Src/main.c ****     /* ADC 电压监测接口测试*/
 146:Core/Src/main.c ****     Battery_Test();
 147:Core/Src/main.c ****     /* LED 测试 */ 
 148:Core/Src/main.c ****     // LED_Blink(&dev_led[0],500,10); //LED0每隔500ms翻转一次
 149:Core/Src/main.c ****     // LED_Blink(&dev_led[1],1000,10);//LED1每个1000ms翻转一次
 150:Core/Src/main.c ****     /* 亮度监测接口测试 */
 151:Core/Src/main.c ****     LDR_Value_Get();
 152:Core/Src/main.c ****     /* RS485接口测试 */
 153:Core/Src/main.c ****     RS485_Test("RS485 TRANSMIT OK\r\n");
 154:Core/Src/main.c ****      /* Flash 接口测试 */
 155:Core/Src/main.c ****     Flash_Test();
 156:Core/Src/main.c ****     /* ATGM223D接口测试 */
 157:Core/Src/main.c ****     BDS_Test("read",100);
 158:Core/Src/main.c ****      /* LORA 1发送 LORA2 接收测试*/
 159:Core/Src/main.c ****     
 160:Core/Src/main.c ****     LORA_Send(1,"Lora1 tx test\r\n",200);
 161:Core/Src/main.c ****     Delay_ms(500);
 162:Core/Src/main.c ****     if(strstr(lora_cache[0],"Lora1 tx test\r\n") != NULL)
 163:Core/Src/main.c ****     { 
 164:Core/Src/main.c ****       shellPrint(&shell,"Lora2 RX Test OK\r\n");
 165:Core/Src/main.c ****       test_ok_cnt++;
 166:Core/Src/main.c ****     }
 167:Core/Src/main.c ****     else
 168:Core/Src/main.c ****       shellPrint(&shell,"Lora2 RX Test Failed\r\n");
 169:Core/Src/main.c ****      /* LORA2发送 LORA1 接收测试*/
 170:Core/Src/main.c ****     LORA_Send(0,"Lora2 tx test\r\n",200);
 171:Core/Src/main.c ****     Delay_ms(500);
 172:Core/Src/main.c ****      if(strstr(lora_cache[1],"Lora2 tx test\r\n") != NULL)
 173:Core/Src/main.c ****     { 
 174:Core/Src/main.c ****       shellPrint(&shell,"Lora1 RX Test OK\r\n");
 175:Core/Src/main.c ****       test_ok_cnt++;
 176:Core/Src/main.c ****     }
 177:Core/Src/main.c ****     else
 178:Core/Src/main.c ****       shellPrint(&shell,"Lora1 RX Test Failed\r\n");
 179:Core/Src/main.c ****      /* Cat-1 测试 */
 180:Core/Src/main.c ****     EC2x_Test(0,"AT","OK",500);
 181:Core/Src/main.c ****     shellPrint(&shell,"Test OK Count:%d/8\r\n",test_ok_cnt);
 182:Core/Src/main.c ****     
 183:Core/Src/main.c ****     shellPrint(&shell,"Type [help] for the list of instructions\r\n");
 184:Core/Src/main.c ****     Delay_ms(500);
 185:Core/Src/main.c ****     ec2x_tcp_connect(0);
 186:Core/Src/main.c ****     while(1){
 187:Core/Src/main.c ****       // shellidle_cnt++;
 188:Core/Src/main.c ****       // if((shellidle_cnt > 10*10)&&(shellidle_cnt % 10 == 0)){
 189:Core/Src/main.c ****       //   shellPrint(&shell,"If no instruction is entered within %ds, it will jump to the app prog
 190:Core/Src/main.c ****       // }
 191:Core/Src/main.c ****       // if(shellidle_cnt > shellidle_upper*10)
 192:Core/Src/main.c ****       // {
ARM GAS  C:\Users\CL\AppData\Local\Temp\ccGlybGr.s 			page 5


 193:Core/Src/main.c ****       //    shellPrint(&shell,"It will jump to the app program now\r\n");
 194:Core/Src/main.c ****       //    shellidle_cnt = 0;
 195:Core/Src/main.c ****       // }
 196:Core/Src/main.c ****       Delay_ms(100);
 197:Core/Src/main.c ****     }
 198:Core/Src/main.c ****     /* USER CODE BEGIN 3 */
 199:Core/Src/main.c ****   }
 200:Core/Src/main.c ****   /* USER CODE END 3 */
 201:Core/Src/main.c **** }
 202:Core/Src/main.c **** /* USER CODE BEGIN 4 */
 203:Core/Src/main.c **** /**
 204:Core/Src/main.c ****  * @brief 
 205:Core/Src/main.c ****  * 
 206:Core/Src/main.c ****  * @param fd 
 207:Core/Src/main.c ****  * @param tx_buff 
 208:Core/Src/main.c ****  * @param expect_reply 
 209:Core/Src/main.c ****  * @param timeout 
 210:Core/Src/main.c ****  */
 211:Core/Src/main.c **** void Test_All(void)
 212:Core/Src/main.c **** {
 213:Core/Src/main.c ****     test_ok_cnt = 0;
 214:Core/Src/main.c ****         /* USER CODE END WHILE */
 215:Core/Src/main.c ****     /* ADC 电压监测接口测试*/
 216:Core/Src/main.c ****     Battery_Test();
 217:Core/Src/main.c ****     /* LED 测试 */ 
 218:Core/Src/main.c ****     // LED_Blink(&dev_led[0],500,10); //LED0每隔500ms翻转一次
 219:Core/Src/main.c ****     // LED_Blink(&dev_led[1],1000,10);//LED1每个1000ms翻转一次
 220:Core/Src/main.c ****     /* 亮度监测接口测试 */
 221:Core/Src/main.c ****     LDR_Value_Get();
 222:Core/Src/main.c ****     /* RS485接口测试 */
 223:Core/Src/main.c ****     RS485_Test("RS485 TRANSMIT OK\r\n");
 224:Core/Src/main.c ****      /* Flash 接口测试 */
 225:Core/Src/main.c ****     Flash_Test();
 226:Core/Src/main.c ****     /* ATGM223D接口测试 */
 227:Core/Src/main.c ****     BDS_Test("read",100);
 228:Core/Src/main.c ****       /* LORA1发送 LORA2 接收测试*/
 229:Core/Src/main.c ****     LORA_Send(1,"Lora1 tx test\r\n",200);
 230:Core/Src/main.c ****     Delay_ms(500);
 231:Core/Src/main.c ****     if(strstr(lora_cache[0],"Lora1 tx test\r\n") != NULL)
 232:Core/Src/main.c ****     { 
 233:Core/Src/main.c ****       shellPrint(&shell,"Lora2 RX Test OK\r\n");
 234:Core/Src/main.c ****       test_ok_cnt++;
 235:Core/Src/main.c ****     }
 236:Core/Src/main.c ****     else
 237:Core/Src/main.c ****       shellPrint(&shell,"Lora2 RX Test Failed\r\n");
 238:Core/Src/main.c ****      /* LORA2发送 LORA1 接收测试*/
 239:Core/Src/main.c ****     LORA_Send(0,"Lora2 tx test\r\n",200);
 240:Core/Src/main.c ****     Delay_ms(500);
 241:Core/Src/main.c ****      if(strstr(lora_cache[1],"Lora2 tx test\r\n") != NULL)
 242:Core/Src/main.c ****     { 
 243:Core/Src/main.c ****       shellPrint(&shell,"Lora1 RX Test OK\r\n");
 244:Core/Src/main.c ****       test_ok_cnt++;
 245:Core/Src/main.c ****     }
 246:Core/Src/main.c ****     else
 247:Core/Src/main.c ****       shellPrint(&shell,"Lora1 RX Test Failed\r\n");
 248:Core/Src/main.c **** 
 249:Core/Src/main.c ****      /* Cat-1 测试 */
ARM GAS  C:\Users\CL\AppData\Local\Temp\ccGlybGr.s 			page 6


 250:Core/Src/main.c ****     EC2x_Test(0,"AT","OK",500);
 251:Core/Src/main.c ****     Delay_ms(100);
 252:Core/Src/main.c ****     shellPrint(&shell,"Test OK Count:%d/8\r\n",test_ok_cnt);
 253:Core/Src/main.c **** }
 254:Core/Src/main.c **** 
 255:Core/Src/main.c **** SHELL_EXPORT_CMD(
 256:Core/Src/main.c **** SHELL_CMD_PERMISSION(0)|SHELL_CMD_TYPE(SHELL_TYPE_CMD_FUNC)|SHELL_CMD_DISABLE_RETURN,
 257:Core/Src/main.c **** test_all, Test_All, test all device);
 258:Core/Src/main.c **** 
 259:Core/Src/main.c **** /**
 260:Core/Src/main.c ****  * @brief printf Device ID 8bytes
 261:Core/Src/main.c ****  * 
 262:Core/Src/main.c ****  */
 263:Core/Src/main.c **** void DeviceID_Print(void){
  36              		.loc 1 263 26 view -0
  37              		.cfi_startproc
  38              		@ args = 0, pretend = 0, frame = 0
  39              		@ frame_needed = 0, uses_anonymous_args = 0
 264:Core/Src/main.c ****     int i = 0;
  40              		.loc 1 264 5 view .LVU1
  41              	.LVL0:
 265:Core/Src/main.c ****     shellPrint(&shell,"MAC:");
  42              		.loc 1 265 5 view .LVU2
 263:Core/Src/main.c ****     int i = 0;
  43              		.loc 1 263 26 is_stmt 0 view .LVU3
  44 0000 F8B5     		push	{r3, r4, r5, r6, r7, lr}
  45              	.LCFI0:
  46              		.cfi_def_cfa_offset 24
  47              		.cfi_offset 3, -24
  48              		.cfi_offset 4, -20
  49              		.cfi_offset 5, -16
  50              		.cfi_offset 6, -12
  51              		.cfi_offset 7, -8
  52              		.cfi_offset 14, -4
  53              		.loc 1 265 5 view .LVU4
  54 0002 1349     		ldr	r1, .L4
  55 0004 1348     		ldr	r0, .L4+4
  56 0006 144E     		ldr	r6, .L4+8
  57              	.LBB16:
 266:Core/Src/main.c **** 
 267:Core/Src/main.c ****     for(i = 0;i < 2 ;++i){
 268:Core/Src/main.c ****       uint32_t u32_mac = 0xffff;
 269:Core/Src/main.c ****       u32_mac = *((uint32_t *)(0x1FFF7594 - i * 4));
 270:Core/Src/main.c ****       //shellPrint(&shell,"%x",u32_mac);
 271:Core/Src/main.c ****       shellPrint(&shell,"%02x",(uint8_t)(u32_mac >> 24));
  58              		.loc 1 271 7 view .LVU5
  59 0008 144C     		ldr	r4, .L4+12
  60              	.LBE16:
 267:Core/Src/main.c ****       uint32_t u32_mac = 0xffff;
  61              		.loc 1 267 5 view .LVU6
  62 000a 154F     		ldr	r7, .L4+16
 265:Core/Src/main.c **** 
  63              		.loc 1 265 5 view .LVU7
  64 000c FFF7FEFF 		bl	shellPrint
  65              	.LVL1:
 267:Core/Src/main.c ****       uint32_t u32_mac = 0xffff;
  66              		.loc 1 267 5 is_stmt 1 view .LVU8
ARM GAS  C:\Users\CL\AppData\Local\Temp\ccGlybGr.s 			page 7


 267:Core/Src/main.c ****       uint32_t u32_mac = 0xffff;
  67              		.loc 1 267 15 view .LVU9
  68              	.L2:
  69              	.LBB17:
 268:Core/Src/main.c ****       u32_mac = *((uint32_t *)(0x1FFF7594 - i * 4));
  70              		.loc 1 268 7 discriminator 3 view .LVU10
 269:Core/Src/main.c ****       //shellPrint(&shell,"%x",u32_mac);
  71              		.loc 1 269 7 discriminator 3 view .LVU11
 269:Core/Src/main.c ****       //shellPrint(&shell,"%x",u32_mac);
  72              		.loc 1 269 15 is_stmt 0 discriminator 3 view .LVU12
  73 0010 56F80459 		ldr	r5, [r6], #-4
  74              	.LVL2:
  75              		.loc 1 271 7 is_stmt 1 discriminator 3 view .LVU13
  76 0014 0F48     		ldr	r0, .L4+4
  77 0016 2A0E     		lsrs	r2, r5, #24
  78 0018 2146     		mov	r1, r4
  79 001a FFF7FEFF 		bl	shellPrint
  80              	.LVL3:
 272:Core/Src/main.c ****       shellPrint(&shell,"%02x",(uint8_t)(u32_mac >> 16));
  81              		.loc 1 272 7 discriminator 3 view .LVU14
  82 001e 0D48     		ldr	r0, .L4+4
  83 0020 C5F30742 		ubfx	r2, r5, #16, #8
  84 0024 2146     		mov	r1, r4
  85 0026 FFF7FEFF 		bl	shellPrint
  86              	.LVL4:
 273:Core/Src/main.c ****       shellPrint(&shell,"%02x",(uint8_t)(u32_mac >> 8));
  87              		.loc 1 273 7 discriminator 3 view .LVU15
  88 002a 0A48     		ldr	r0, .L4+4
  89 002c C5F30722 		ubfx	r2, r5, #8, #8
  90 0030 2146     		mov	r1, r4
  91 0032 FFF7FEFF 		bl	shellPrint
  92              	.LVL5:
 274:Core/Src/main.c ****       shellPrint(&shell,"%02x",(uint8_t)(u32_mac ));
  93              		.loc 1 274 7 discriminator 3 view .LVU16
  94 0036 0748     		ldr	r0, .L4+4
  95 0038 EAB2     		uxtb	r2, r5
  96 003a 2146     		mov	r1, r4
  97 003c FFF7FEFF 		bl	shellPrint
  98              	.LVL6:
  99              	.LBE17:
 267:Core/Src/main.c ****       uint32_t u32_mac = 0xffff;
 100              		.loc 1 267 22 discriminator 3 view .LVU17
 267:Core/Src/main.c ****       uint32_t u32_mac = 0xffff;
 101              		.loc 1 267 15 discriminator 3 view .LVU18
 267:Core/Src/main.c ****       uint32_t u32_mac = 0xffff;
 102              		.loc 1 267 5 is_stmt 0 discriminator 3 view .LVU19
 103 0040 BE42     		cmp	r6, r7
 104 0042 E5D1     		bne	.L2
 275:Core/Src/main.c ****     }
 276:Core/Src/main.c ****     shellPrint(&shell,"\r\n");
 105              		.loc 1 276 5 is_stmt 1 view .LVU20
 277:Core/Src/main.c **** }
 106              		.loc 1 277 1 is_stmt 0 view .LVU21
 107 0044 BDE8F840 		pop	{r3, r4, r5, r6, r7, lr}
 108              	.LCFI1:
 109              		.cfi_restore 14
 110              		.cfi_restore 7
ARM GAS  C:\Users\CL\AppData\Local\Temp\ccGlybGr.s 			page 8


 111              		.cfi_restore 6
 112              		.cfi_restore 5
 113              		.cfi_restore 4
 114              		.cfi_restore 3
 115              		.cfi_def_cfa_offset 0
 116              	.LVL7:
 276:Core/Src/main.c **** }
 117              		.loc 1 276 5 view .LVU22
 118 0048 0649     		ldr	r1, .L4+20
 119 004a 0248     		ldr	r0, .L4+4
 120 004c FFF7FEBF 		b	shellPrint
 121              	.LVL8:
 122              	.L5:
 123              		.align	2
 124              	.L4:
 125 0050 00000000 		.word	.LC0
 126 0054 00000000 		.word	shell
 127 0058 9475FF1F 		.word	536835476
 128 005c 05000000 		.word	.LC1
 129 0060 8C75FF1F 		.word	536835468
 130 0064 0A000000 		.word	.LC2
 131              		.cfi_endproc
 132              	.LFE293:
 134              		.section	.rodata.Test_All.str1.1,"aMS",%progbits,1
 135              	.LC3:
 136 0000 52533438 		.ascii	"RS485 TRANSMIT OK\015\012\000"
 136      35205452 
 136      414E534D 
 136      4954204F 
 136      4B0D0A00 
 137              	.LC4:
 138 0014 72656164 		.ascii	"read\000"
 138      00
 139              	.LC5:
 140 0019 4C6F7261 		.ascii	"Lora1 tx test\015\012\000"
 140      31207478 
 140      20746573 
 140      740D0A00 
 141              	.LC6:
 142 0029 4C6F7261 		.ascii	"Lora2 RX Test OK\015\012\000"
 142      32205258 
 142      20546573 
 142      74204F4B 
 142      0D0A00
 143              	.LC7:
 144 003c 4C6F7261 		.ascii	"Lora2 RX Test Failed\015\012\000"
 144      32205258 
 144      20546573 
 144      74204661 
 144      696C6564 
 145              	.LC8:
 146 0053 4C6F7261 		.ascii	"Lora2 tx test\015\012\000"
 146      32207478 
 146      20746573 
 146      740D0A00 
 147              	.LC9:
 148 0063 4C6F7261 		.ascii	"Lora1 RX Test OK\015\012\000"
ARM GAS  C:\Users\CL\AppData\Local\Temp\ccGlybGr.s 			page 9


 148      31205258 
 148      20546573 
 148      74204F4B 
 148      0D0A00
 149              	.LC10:
 150 0076 4C6F7261 		.ascii	"Lora1 RX Test Failed\015\012\000"
 150      31205258 
 150      20546573 
 150      74204661 
 150      696C6564 
 151              	.LC11:
 152 008d 4F4B00   		.ascii	"OK\000"
 153              	.LC12:
 154 0090 415400   		.ascii	"AT\000"
 155              	.LC13:
 156 0093 54657374 		.ascii	"Test OK Count:%d/8\015\012\000"
 156      204F4B20 
 156      436F756E 
 156      743A2564 
 156      2F380D0A 
 157              		.section	.text.Test_All,"ax",%progbits
 158              		.align	1
 159              		.global	Test_All
 160              		.syntax unified
 161              		.thumb
 162              		.thumb_func
 164              	Test_All:
 165              	.LFB292:
 212:Core/Src/main.c ****     test_ok_cnt = 0;
 166              		.loc 1 212 1 is_stmt 1 view -0
 167              		.cfi_startproc
 168              		@ args = 0, pretend = 0, frame = 0
 169              		@ frame_needed = 0, uses_anonymous_args = 0
 213:Core/Src/main.c ****         /* USER CODE END WHILE */
 170              		.loc 1 213 5 view .LVU24
 212:Core/Src/main.c ****     test_ok_cnt = 0;
 171              		.loc 1 212 1 is_stmt 0 view .LVU25
 172 0000 10B5     		push	{r4, lr}
 173              	.LCFI2:
 174              		.cfi_def_cfa_offset 8
 175              		.cfi_offset 4, -8
 176              		.cfi_offset 14, -4
 213:Core/Src/main.c ****         /* USER CODE END WHILE */
 177              		.loc 1 213 17 view .LVU26
 178 0002 2A4C     		ldr	r4, .L11
 179 0004 0023     		movs	r3, #0
 180 0006 2370     		strb	r3, [r4]
 216:Core/Src/main.c ****     /* LED 测试 */ 
 181              		.loc 1 216 5 is_stmt 1 view .LVU27
 182 0008 FFF7FEFF 		bl	Battery_Test
 183              	.LVL9:
 221:Core/Src/main.c ****     /* RS485接口测试 */
 184              		.loc 1 221 5 view .LVU28
 185 000c FFF7FEFF 		bl	LDR_Value_Get
 186              	.LVL10:
 223:Core/Src/main.c ****      /* Flash 接口测试 */
 187              		.loc 1 223 5 view .LVU29
ARM GAS  C:\Users\CL\AppData\Local\Temp\ccGlybGr.s 			page 10


 188 0010 2748     		ldr	r0, .L11+4
 189 0012 FFF7FEFF 		bl	RS485_Test
 190              	.LVL11:
 225:Core/Src/main.c ****     /* ATGM223D接口测试 */
 191              		.loc 1 225 5 view .LVU30
 192 0016 FFF7FEFF 		bl	Flash_Test
 193              	.LVL12:
 227:Core/Src/main.c ****       /* LORA1发送 LORA2 接收测试*/
 194              		.loc 1 227 5 view .LVU31
 195 001a 2648     		ldr	r0, .L11+8
 196 001c 6421     		movs	r1, #100
 197 001e FFF7FEFF 		bl	BDS_Test
 198              	.LVL13:
 229:Core/Src/main.c ****     Delay_ms(500);
 199              		.loc 1 229 5 view .LVU32
 200 0022 2549     		ldr	r1, .L11+12
 201 0024 C822     		movs	r2, #200
 202 0026 0120     		movs	r0, #1
 203 0028 FFF7FEFF 		bl	LORA_Send
 204              	.LVL14:
 230:Core/Src/main.c ****     if(strstr(lora_cache[0],"Lora1 tx test\r\n") != NULL)
 205              		.loc 1 230 5 view .LVU33
 206 002c 4FF4FA70 		mov	r0, #500
 207 0030 FFF7FEFF 		bl	Delay_ms
 208              	.LVL15:
 231:Core/Src/main.c ****     { 
 209              		.loc 1 231 5 view .LVU34
 231:Core/Src/main.c ****     { 
 210              		.loc 1 231 8 is_stmt 0 view .LVU35
 211 0034 2049     		ldr	r1, .L11+12
 212 0036 2148     		ldr	r0, .L11+16
 213 0038 FFF7FEFF 		bl	strstr
 214              	.LVL16:
 231:Core/Src/main.c ****     { 
 215              		.loc 1 231 7 view .LVU36
 216 003c 60B3     		cbz	r0, .L7
 233:Core/Src/main.c ****       test_ok_cnt++;
 217              		.loc 1 233 7 is_stmt 1 view .LVU37
 218 003e 2049     		ldr	r1, .L11+20
 219 0040 2048     		ldr	r0, .L11+24
 220 0042 FFF7FEFF 		bl	shellPrint
 221              	.LVL17:
 234:Core/Src/main.c ****     }
 222              		.loc 1 234 7 view .LVU38
 234:Core/Src/main.c ****     }
 223              		.loc 1 234 18 is_stmt 0 view .LVU39
 224 0046 2378     		ldrb	r3, [r4]	@ zero_extendqisi2
 225 0048 0133     		adds	r3, r3, #1
 226 004a 2370     		strb	r3, [r4]
 227              	.L8:
 239:Core/Src/main.c ****     Delay_ms(500);
 228              		.loc 1 239 5 is_stmt 1 view .LVU40
 229 004c 1E49     		ldr	r1, .L11+28
 230 004e C822     		movs	r2, #200
 231 0050 0020     		movs	r0, #0
 232 0052 FFF7FEFF 		bl	LORA_Send
 233              	.LVL18:
ARM GAS  C:\Users\CL\AppData\Local\Temp\ccGlybGr.s 			page 11


 240:Core/Src/main.c ****      if(strstr(lora_cache[1],"Lora2 tx test\r\n") != NULL)
 234              		.loc 1 240 5 view .LVU41
 235 0056 4FF4FA70 		mov	r0, #500
 236 005a FFF7FEFF 		bl	Delay_ms
 237              	.LVL19:
 241:Core/Src/main.c ****     { 
 238              		.loc 1 241 6 view .LVU42
 241:Core/Src/main.c ****     { 
 239              		.loc 1 241 9 is_stmt 0 view .LVU43
 240 005e 1A49     		ldr	r1, .L11+28
 241 0060 1A48     		ldr	r0, .L11+32
 242 0062 FFF7FEFF 		bl	strstr
 243              	.LVL20:
 241:Core/Src/main.c ****     { 
 244              		.loc 1 241 8 view .LVU44
 245 0066 E0B1     		cbz	r0, .L9
 243:Core/Src/main.c ****       test_ok_cnt++;
 246              		.loc 1 243 7 is_stmt 1 view .LVU45
 247 0068 1949     		ldr	r1, .L11+36
 248 006a 1648     		ldr	r0, .L11+24
 249 006c FFF7FEFF 		bl	shellPrint
 250              	.LVL21:
 244:Core/Src/main.c ****     }
 251              		.loc 1 244 7 view .LVU46
 244:Core/Src/main.c ****     }
 252              		.loc 1 244 18 is_stmt 0 view .LVU47
 253 0070 2378     		ldrb	r3, [r4]	@ zero_extendqisi2
 254 0072 0133     		adds	r3, r3, #1
 255 0074 2370     		strb	r3, [r4]
 256              	.L10:
 250:Core/Src/main.c ****     Delay_ms(100);
 257              		.loc 1 250 5 is_stmt 1 view .LVU48
 258 0076 174A     		ldr	r2, .L11+40
 259 0078 1749     		ldr	r1, .L11+44
 260 007a 4FF4FA73 		mov	r3, #500
 261 007e 0020     		movs	r0, #0
 262 0080 FFF7FEFF 		bl	EC2x_Test
 263              	.LVL22:
 251:Core/Src/main.c ****     shellPrint(&shell,"Test OK Count:%d/8\r\n",test_ok_cnt);
 264              		.loc 1 251 5 view .LVU49
 265 0084 6420     		movs	r0, #100
 266 0086 FFF7FEFF 		bl	Delay_ms
 267              	.LVL23:
 252:Core/Src/main.c **** }
 268              		.loc 1 252 5 view .LVU50
 269 008a 2278     		ldrb	r2, [r4]	@ zero_extendqisi2
 270 008c 1349     		ldr	r1, .L11+48
 271 008e 0D48     		ldr	r0, .L11+24
 253:Core/Src/main.c **** 
 272              		.loc 1 253 1 is_stmt 0 view .LVU51
 273 0090 BDE81040 		pop	{r4, lr}
 274              	.LCFI3:
 275              		.cfi_remember_state
 276              		.cfi_restore 14
 277              		.cfi_restore 4
 278              		.cfi_def_cfa_offset 0
 252:Core/Src/main.c **** }
ARM GAS  C:\Users\CL\AppData\Local\Temp\ccGlybGr.s 			page 12


 279              		.loc 1 252 5 view .LVU52
 280 0094 FFF7FEBF 		b	shellPrint
 281              	.LVL24:
 282              	.L7:
 283              	.LCFI4:
 284              		.cfi_restore_state
 237:Core/Src/main.c ****      /* LORA2发送 LORA1 接收测试*/
 285              		.loc 1 237 7 is_stmt 1 view .LVU53
 286 0098 1149     		ldr	r1, .L11+52
 287 009a 0A48     		ldr	r0, .L11+24
 288 009c FFF7FEFF 		bl	shellPrint
 289              	.LVL25:
 290 00a0 D4E7     		b	.L8
 291              	.L9:
 247:Core/Src/main.c **** 
 292              		.loc 1 247 7 view .LVU54
 293 00a2 1049     		ldr	r1, .L11+56
 294 00a4 0748     		ldr	r0, .L11+24
 295 00a6 FFF7FEFF 		bl	shellPrint
 296              	.LVL26:
 297 00aa E4E7     		b	.L10
 298              	.L12:
 299              		.align	2
 300              	.L11:
 301 00ac 00000000 		.word	test_ok_cnt
 302 00b0 00000000 		.word	.LC3
 303 00b4 14000000 		.word	.LC4
 304 00b8 19000000 		.word	.LC5
 305 00bc 00000000 		.word	lora_cache
 306 00c0 29000000 		.word	.LC6
 307 00c4 00000000 		.word	shell
 308 00c8 53000000 		.word	.LC8
 309 00cc 1E000000 		.word	lora_cache+30
 310 00d0 63000000 		.word	.LC9
 311 00d4 8D000000 		.word	.LC11
 312 00d8 90000000 		.word	.LC12
 313 00dc 93000000 		.word	.LC13
 314 00e0 3C000000 		.word	.LC7
 315 00e4 76000000 		.word	.LC10
 316              		.cfi_endproc
 317              	.LFE292:
 319              		.section	.text.SystemClock_Config,"ax",%progbits
 320              		.align	1
 321              		.global	SystemClock_Config
 322              		.syntax unified
 323              		.thumb
 324              		.thumb_func
 326              	SystemClock_Config:
 327              	.LFB294:
 278:Core/Src/main.c **** 
 279:Core/Src/main.c **** SHELL_EXPORT_CMD(
 280:Core/Src/main.c **** SHELL_CMD_PERMISSION(0)|SHELL_CMD_TYPE(SHELL_TYPE_CMD_FUNC)|SHELL_CMD_DISABLE_RETURN,
 281:Core/Src/main.c **** mac_print, DeviceID_Print, printf mac_id);
 282:Core/Src/main.c **** /**
 283:Core/Src/main.c ****   * @brief System Clock Configuration
 284:Core/Src/main.c ****   * @retval None
 285:Core/Src/main.c ****   */
ARM GAS  C:\Users\CL\AppData\Local\Temp\ccGlybGr.s 			page 13


 286:Core/Src/main.c **** void SystemClock_Config(void)
 287:Core/Src/main.c **** {
 328              		.loc 1 287 1 view -0
 329              		.cfi_startproc
 330              		@ args = 0, pretend = 0, frame = 88
 331              		@ frame_needed = 0, uses_anonymous_args = 0
 288:Core/Src/main.c ****   RCC_OscInitTypeDef RCC_OscInitStruct = {0};
 332              		.loc 1 288 3 view .LVU56
 287:Core/Src/main.c ****   RCC_OscInitTypeDef RCC_OscInitStruct = {0};
 333              		.loc 1 287 1 is_stmt 0 view .LVU57
 334 0000 30B5     		push	{r4, r5, lr}
 335              	.LCFI5:
 336              		.cfi_def_cfa_offset 12
 337              		.cfi_offset 4, -12
 338              		.cfi_offset 5, -8
 339              		.cfi_offset 14, -4
 340 0002 97B0     		sub	sp, sp, #92
 341              	.LCFI6:
 342              		.cfi_def_cfa_offset 104
 343              		.loc 1 288 22 view .LVU58
 344 0004 4422     		movs	r2, #68
 345 0006 0021     		movs	r1, #0
 346 0008 05A8     		add	r0, sp, #20
 289:Core/Src/main.c ****   RCC_ClkInitTypeDef RCC_ClkInitStruct = {0};
 347              		.loc 1 289 22 view .LVU59
 348 000a 1425     		movs	r5, #20
 288:Core/Src/main.c ****   RCC_OscInitTypeDef RCC_OscInitStruct = {0};
 349              		.loc 1 288 22 view .LVU60
 350 000c FFF7FEFF 		bl	memset
 351              	.LVL27:
 352              		.loc 1 289 3 is_stmt 1 view .LVU61
 353              		.loc 1 289 22 is_stmt 0 view .LVU62
 354 0010 2A46     		mov	r2, r5
 355 0012 0021     		movs	r1, #0
 356 0014 6846     		mov	r0, sp
 357 0016 FFF7FEFF 		bl	memset
 358              	.LVL28:
 290:Core/Src/main.c **** 
 291:Core/Src/main.c ****   /** Configure the main internal regulator output voltage
 292:Core/Src/main.c ****   */
 293:Core/Src/main.c ****   if (HAL_PWREx_ControlVoltageScaling(PWR_REGULATOR_VOLTAGE_SCALE1) != HAL_OK)
 359              		.loc 1 293 3 is_stmt 1 view .LVU63
 360              		.loc 1 293 7 is_stmt 0 view .LVU64
 361 001a 4FF40070 		mov	r0, #512
 362 001e FFF7FEFF 		bl	HAL_PWREx_ControlVoltageScaling
 363              	.LVL29:
 364              		.loc 1 293 6 view .LVU65
 365 0022 08B1     		cbz	r0, .L14
 294:Core/Src/main.c ****   {
 295:Core/Src/main.c ****     Error_Handler();
 366              		.loc 1 295 5 is_stmt 1 view .LVU66
 367              	.LBB18:
 368              	.LBI18:
 296:Core/Src/main.c ****   }
 297:Core/Src/main.c ****   /** Initializes the RCC Oscillators according to the specified parameters
 298:Core/Src/main.c ****   * in the RCC_OscInitTypeDef structure.
 299:Core/Src/main.c ****   */
ARM GAS  C:\Users\CL\AppData\Local\Temp\ccGlybGr.s 			page 14


 300:Core/Src/main.c ****   RCC_OscInitStruct.OscillatorType = RCC_OSCILLATORTYPE_HSE;
 301:Core/Src/main.c ****   RCC_OscInitStruct.HSEState = RCC_HSE_ON;
 302:Core/Src/main.c ****   RCC_OscInitStruct.PLL.PLLState = RCC_PLL_ON;
 303:Core/Src/main.c ****   RCC_OscInitStruct.PLL.PLLSource = RCC_PLLSOURCE_HSE;
 304:Core/Src/main.c ****   RCC_OscInitStruct.PLL.PLLM = 1;
 305:Core/Src/main.c ****   RCC_OscInitStruct.PLL.PLLN = 20;
 306:Core/Src/main.c ****   RCC_OscInitStruct.PLL.PLLP = RCC_PLLP_DIV7;
 307:Core/Src/main.c ****   RCC_OscInitStruct.PLL.PLLQ = RCC_PLLQ_DIV2;
 308:Core/Src/main.c ****   RCC_OscInitStruct.PLL.PLLR = RCC_PLLR_DIV2;
 309:Core/Src/main.c ****   if (HAL_RCC_OscConfig(&RCC_OscInitStruct) != HAL_OK)
 310:Core/Src/main.c ****   {
 311:Core/Src/main.c ****     Error_Handler();
 312:Core/Src/main.c ****   }
 313:Core/Src/main.c ****   /** Initializes the CPU, AHB and APB buses clocks
 314:Core/Src/main.c ****   */
 315:Core/Src/main.c ****   RCC_ClkInitStruct.ClockType = RCC_CLOCKTYPE_HCLK|RCC_CLOCKTYPE_SYSCLK
 316:Core/Src/main.c ****                               |RCC_CLOCKTYPE_PCLK1|RCC_CLOCKTYPE_PCLK2;
 317:Core/Src/main.c ****   RCC_ClkInitStruct.SYSCLKSource = RCC_SYSCLKSOURCE_PLLCLK;
 318:Core/Src/main.c ****   RCC_ClkInitStruct.AHBCLKDivider = RCC_SYSCLK_DIV1;
 319:Core/Src/main.c ****   RCC_ClkInitStruct.APB1CLKDivider = RCC_HCLK_DIV1;
 320:Core/Src/main.c ****   RCC_ClkInitStruct.APB2CLKDivider = RCC_HCLK_DIV1;
 321:Core/Src/main.c **** 
 322:Core/Src/main.c ****   if (HAL_RCC_ClockConfig(&RCC_ClkInitStruct, FLASH_LATENCY_4) != HAL_OK)
 323:Core/Src/main.c ****   {
 324:Core/Src/main.c ****     Error_Handler();
 325:Core/Src/main.c ****   }
 326:Core/Src/main.c **** }
 327:Core/Src/main.c **** /* USER CODE END 4 */
 328:Core/Src/main.c **** 
 329:Core/Src/main.c **** /**
 330:Core/Src/main.c ****   * @brief  This function is executed in case of error occurrence.
 331:Core/Src/main.c ****   * @retval None
 332:Core/Src/main.c ****   */
 333:Core/Src/main.c **** void Error_Handler(void)
 369              		.loc 1 333 6 view .LVU67
 370              	.LBE18:
 334:Core/Src/main.c **** {
 335:Core/Src/main.c ****   /* USER CODE BEGIN Error_Handler_Debug */
 336:Core/Src/main.c ****   /* User can add his own implementation to report the HAL error return state */
 337:Core/Src/main.c ****   __disable_irq();
 371              		.loc 1 337 3 view .LVU68
 372              	.LBB21:
 373              	.LBB19:
 374              	.LBI19:
 375              		.file 2 "Drivers/CMSIS/Include/cmsis_gcc.h"
   1:Drivers/CMSIS/Include/cmsis_gcc.h **** /**************************************************************************//**
   2:Drivers/CMSIS/Include/cmsis_gcc.h ****  * @file     cmsis_gcc.h
   3:Drivers/CMSIS/Include/cmsis_gcc.h ****  * @brief    CMSIS compiler GCC header file
   4:Drivers/CMSIS/Include/cmsis_gcc.h ****  * @version  V5.2.0
   5:Drivers/CMSIS/Include/cmsis_gcc.h ****  * @date     08. May 2019
   6:Drivers/CMSIS/Include/cmsis_gcc.h ****  ******************************************************************************/
   7:Drivers/CMSIS/Include/cmsis_gcc.h **** /*
   8:Drivers/CMSIS/Include/cmsis_gcc.h ****  * Copyright (c) 2009-2019 Arm Limited. All rights reserved.
   9:Drivers/CMSIS/Include/cmsis_gcc.h ****  *
  10:Drivers/CMSIS/Include/cmsis_gcc.h ****  * SPDX-License-Identifier: Apache-2.0
  11:Drivers/CMSIS/Include/cmsis_gcc.h ****  *
  12:Drivers/CMSIS/Include/cmsis_gcc.h ****  * Licensed under the Apache License, Version 2.0 (the License); you may
ARM GAS  C:\Users\CL\AppData\Local\Temp\ccGlybGr.s 			page 15


  13:Drivers/CMSIS/Include/cmsis_gcc.h ****  * not use this file except in compliance with the License.
  14:Drivers/CMSIS/Include/cmsis_gcc.h ****  * You may obtain a copy of the License at
  15:Drivers/CMSIS/Include/cmsis_gcc.h ****  *
  16:Drivers/CMSIS/Include/cmsis_gcc.h ****  * www.apache.org/licenses/LICENSE-2.0
  17:Drivers/CMSIS/Include/cmsis_gcc.h ****  *
  18:Drivers/CMSIS/Include/cmsis_gcc.h ****  * Unless required by applicable law or agreed to in writing, software
  19:Drivers/CMSIS/Include/cmsis_gcc.h ****  * distributed under the License is distributed on an AS IS BASIS, WITHOUT
  20:Drivers/CMSIS/Include/cmsis_gcc.h ****  * WARRANTIES OR CONDITIONS OF ANY KIND, either express or implied.
  21:Drivers/CMSIS/Include/cmsis_gcc.h ****  * See the License for the specific language governing permissions and
  22:Drivers/CMSIS/Include/cmsis_gcc.h ****  * limitations under the License.
  23:Drivers/CMSIS/Include/cmsis_gcc.h ****  */
  24:Drivers/CMSIS/Include/cmsis_gcc.h **** 
  25:Drivers/CMSIS/Include/cmsis_gcc.h **** #ifndef __CMSIS_GCC_H
  26:Drivers/CMSIS/Include/cmsis_gcc.h **** #define __CMSIS_GCC_H
  27:Drivers/CMSIS/Include/cmsis_gcc.h **** 
  28:Drivers/CMSIS/Include/cmsis_gcc.h **** /* ignore some GCC warnings */
  29:Drivers/CMSIS/Include/cmsis_gcc.h **** #pragma GCC diagnostic push
  30:Drivers/CMSIS/Include/cmsis_gcc.h **** #pragma GCC diagnostic ignored "-Wsign-conversion"
  31:Drivers/CMSIS/Include/cmsis_gcc.h **** #pragma GCC diagnostic ignored "-Wconversion"
  32:Drivers/CMSIS/Include/cmsis_gcc.h **** #pragma GCC diagnostic ignored "-Wunused-parameter"
  33:Drivers/CMSIS/Include/cmsis_gcc.h **** 
  34:Drivers/CMSIS/Include/cmsis_gcc.h **** /* Fallback for __has_builtin */
  35:Drivers/CMSIS/Include/cmsis_gcc.h **** #ifndef __has_builtin
  36:Drivers/CMSIS/Include/cmsis_gcc.h ****   #define __has_builtin(x) (0)
  37:Drivers/CMSIS/Include/cmsis_gcc.h **** #endif
  38:Drivers/CMSIS/Include/cmsis_gcc.h **** 
  39:Drivers/CMSIS/Include/cmsis_gcc.h **** /* CMSIS compiler specific defines */
  40:Drivers/CMSIS/Include/cmsis_gcc.h **** #ifndef   __ASM
  41:Drivers/CMSIS/Include/cmsis_gcc.h ****   #define __ASM                                  __asm
  42:Drivers/CMSIS/Include/cmsis_gcc.h **** #endif
  43:Drivers/CMSIS/Include/cmsis_gcc.h **** #ifndef   __INLINE
  44:Drivers/CMSIS/Include/cmsis_gcc.h ****   #define __INLINE                               inline
  45:Drivers/CMSIS/Include/cmsis_gcc.h **** #endif
  46:Drivers/CMSIS/Include/cmsis_gcc.h **** #ifndef   __STATIC_INLINE
  47:Drivers/CMSIS/Include/cmsis_gcc.h ****   #define __STATIC_INLINE                        static inline
  48:Drivers/CMSIS/Include/cmsis_gcc.h **** #endif
  49:Drivers/CMSIS/Include/cmsis_gcc.h **** #ifndef   __STATIC_FORCEINLINE                 
  50:Drivers/CMSIS/Include/cmsis_gcc.h ****   #define __STATIC_FORCEINLINE                   __attribute__((always_inline)) static inline
  51:Drivers/CMSIS/Include/cmsis_gcc.h **** #endif                                           
  52:Drivers/CMSIS/Include/cmsis_gcc.h **** #ifndef   __NO_RETURN
  53:Drivers/CMSIS/Include/cmsis_gcc.h ****   #define __NO_RETURN                            __attribute__((__noreturn__))
  54:Drivers/CMSIS/Include/cmsis_gcc.h **** #endif
  55:Drivers/CMSIS/Include/cmsis_gcc.h **** #ifndef   __USED
  56:Drivers/CMSIS/Include/cmsis_gcc.h ****   #define __USED                                 __attribute__((used))
  57:Drivers/CMSIS/Include/cmsis_gcc.h **** #endif
  58:Drivers/CMSIS/Include/cmsis_gcc.h **** #ifndef   __WEAK
  59:Drivers/CMSIS/Include/cmsis_gcc.h ****   #define __WEAK                                 __attribute__((weak))
  60:Drivers/CMSIS/Include/cmsis_gcc.h **** #endif
  61:Drivers/CMSIS/Include/cmsis_gcc.h **** #ifndef   __PACKED
  62:Drivers/CMSIS/Include/cmsis_gcc.h ****   #define __PACKED                               __attribute__((packed, aligned(1)))
  63:Drivers/CMSIS/Include/cmsis_gcc.h **** #endif
  64:Drivers/CMSIS/Include/cmsis_gcc.h **** #ifndef   __PACKED_STRUCT
  65:Drivers/CMSIS/Include/cmsis_gcc.h ****   #define __PACKED_STRUCT                        struct __attribute__((packed, aligned(1)))
  66:Drivers/CMSIS/Include/cmsis_gcc.h **** #endif
  67:Drivers/CMSIS/Include/cmsis_gcc.h **** #ifndef   __PACKED_UNION
  68:Drivers/CMSIS/Include/cmsis_gcc.h ****   #define __PACKED_UNION                         union __attribute__((packed, aligned(1)))
  69:Drivers/CMSIS/Include/cmsis_gcc.h **** #endif
ARM GAS  C:\Users\CL\AppData\Local\Temp\ccGlybGr.s 			page 16


  70:Drivers/CMSIS/Include/cmsis_gcc.h **** #ifndef   __UNALIGNED_UINT32        /* deprecated */
  71:Drivers/CMSIS/Include/cmsis_gcc.h ****   #pragma GCC diagnostic push
  72:Drivers/CMSIS/Include/cmsis_gcc.h ****   #pragma GCC diagnostic ignored "-Wpacked"
  73:Drivers/CMSIS/Include/cmsis_gcc.h ****   #pragma GCC diagnostic ignored "-Wattributes"
  74:Drivers/CMSIS/Include/cmsis_gcc.h ****   struct __attribute__((packed)) T_UINT32 { uint32_t v; };
  75:Drivers/CMSIS/Include/cmsis_gcc.h ****   #pragma GCC diagnostic pop
  76:Drivers/CMSIS/Include/cmsis_gcc.h ****   #define __UNALIGNED_UINT32(x)                  (((struct T_UINT32 *)(x))->v)
  77:Drivers/CMSIS/Include/cmsis_gcc.h **** #endif
  78:Drivers/CMSIS/Include/cmsis_gcc.h **** #ifndef   __UNALIGNED_UINT16_WRITE
  79:Drivers/CMSIS/Include/cmsis_gcc.h ****   #pragma GCC diagnostic push
  80:Drivers/CMSIS/Include/cmsis_gcc.h ****   #pragma GCC diagnostic ignored "-Wpacked"
  81:Drivers/CMSIS/Include/cmsis_gcc.h ****   #pragma GCC diagnostic ignored "-Wattributes"
  82:Drivers/CMSIS/Include/cmsis_gcc.h ****   __PACKED_STRUCT T_UINT16_WRITE { uint16_t v; };
  83:Drivers/CMSIS/Include/cmsis_gcc.h ****   #pragma GCC diagnostic pop
  84:Drivers/CMSIS/Include/cmsis_gcc.h ****   #define __UNALIGNED_UINT16_WRITE(addr, val)    (void)((((struct T_UINT16_WRITE *)(void *)(addr))-
  85:Drivers/CMSIS/Include/cmsis_gcc.h **** #endif
  86:Drivers/CMSIS/Include/cmsis_gcc.h **** #ifndef   __UNALIGNED_UINT16_READ
  87:Drivers/CMSIS/Include/cmsis_gcc.h ****   #pragma GCC diagnostic push
  88:Drivers/CMSIS/Include/cmsis_gcc.h ****   #pragma GCC diagnostic ignored "-Wpacked"
  89:Drivers/CMSIS/Include/cmsis_gcc.h ****   #pragma GCC diagnostic ignored "-Wattributes"
  90:Drivers/CMSIS/Include/cmsis_gcc.h ****   __PACKED_STRUCT T_UINT16_READ { uint16_t v; };
  91:Drivers/CMSIS/Include/cmsis_gcc.h ****   #pragma GCC diagnostic pop
  92:Drivers/CMSIS/Include/cmsis_gcc.h ****   #define __UNALIGNED_UINT16_READ(addr)          (((const struct T_UINT16_READ *)(const void *)(add
  93:Drivers/CMSIS/Include/cmsis_gcc.h **** #endif
  94:Drivers/CMSIS/Include/cmsis_gcc.h **** #ifndef   __UNALIGNED_UINT32_WRITE
  95:Drivers/CMSIS/Include/cmsis_gcc.h ****   #pragma GCC diagnostic push
  96:Drivers/CMSIS/Include/cmsis_gcc.h ****   #pragma GCC diagnostic ignored "-Wpacked"
  97:Drivers/CMSIS/Include/cmsis_gcc.h ****   #pragma GCC diagnostic ignored "-Wattributes"
  98:Drivers/CMSIS/Include/cmsis_gcc.h ****   __PACKED_STRUCT T_UINT32_WRITE { uint32_t v; };
  99:Drivers/CMSIS/Include/cmsis_gcc.h ****   #pragma GCC diagnostic pop
 100:Drivers/CMSIS/Include/cmsis_gcc.h ****   #define __UNALIGNED_UINT32_WRITE(addr, val)    (void)((((struct T_UINT32_WRITE *)(void *)(addr))-
 101:Drivers/CMSIS/Include/cmsis_gcc.h **** #endif
 102:Drivers/CMSIS/Include/cmsis_gcc.h **** #ifndef   __UNALIGNED_UINT32_READ
 103:Drivers/CMSIS/Include/cmsis_gcc.h ****   #pragma GCC diagnostic push
 104:Drivers/CMSIS/Include/cmsis_gcc.h ****   #pragma GCC diagnostic ignored "-Wpacked"
 105:Drivers/CMSIS/Include/cmsis_gcc.h ****   #pragma GCC diagnostic ignored "-Wattributes"
 106:Drivers/CMSIS/Include/cmsis_gcc.h ****   __PACKED_STRUCT T_UINT32_READ { uint32_t v; };
 107:Drivers/CMSIS/Include/cmsis_gcc.h ****   #pragma GCC diagnostic pop
 108:Drivers/CMSIS/Include/cmsis_gcc.h ****   #define __UNALIGNED_UINT32_READ(addr)          (((const struct T_UINT32_READ *)(const void *)(add
 109:Drivers/CMSIS/Include/cmsis_gcc.h **** #endif
 110:Drivers/CMSIS/Include/cmsis_gcc.h **** #ifndef   __ALIGNED
 111:Drivers/CMSIS/Include/cmsis_gcc.h ****   #define __ALIGNED(x)                           __attribute__((aligned(x)))
 112:Drivers/CMSIS/Include/cmsis_gcc.h **** #endif
 113:Drivers/CMSIS/Include/cmsis_gcc.h **** #ifndef   __RESTRICT
 114:Drivers/CMSIS/Include/cmsis_gcc.h ****   #define __RESTRICT                             __restrict
 115:Drivers/CMSIS/Include/cmsis_gcc.h **** #endif
 116:Drivers/CMSIS/Include/cmsis_gcc.h **** #ifndef   __COMPILER_BARRIER
 117:Drivers/CMSIS/Include/cmsis_gcc.h ****   #define __COMPILER_BARRIER()                   __ASM volatile("":::"memory")
 118:Drivers/CMSIS/Include/cmsis_gcc.h **** #endif
 119:Drivers/CMSIS/Include/cmsis_gcc.h **** 
 120:Drivers/CMSIS/Include/cmsis_gcc.h **** /* #########################  Startup and Lowlevel Init  ######################## */
 121:Drivers/CMSIS/Include/cmsis_gcc.h **** 
 122:Drivers/CMSIS/Include/cmsis_gcc.h **** #ifndef __PROGRAM_START
 123:Drivers/CMSIS/Include/cmsis_gcc.h **** 
 124:Drivers/CMSIS/Include/cmsis_gcc.h **** /**
 125:Drivers/CMSIS/Include/cmsis_gcc.h ****   \brief   Initializes data and bss sections
 126:Drivers/CMSIS/Include/cmsis_gcc.h ****   \details This default implementations initialized all data and additional bss
ARM GAS  C:\Users\CL\AppData\Local\Temp\ccGlybGr.s 			page 17


 127:Drivers/CMSIS/Include/cmsis_gcc.h ****            sections relying on .copy.table and .zero.table specified properly
 128:Drivers/CMSIS/Include/cmsis_gcc.h ****            in the used linker script.
 129:Drivers/CMSIS/Include/cmsis_gcc.h ****   
 130:Drivers/CMSIS/Include/cmsis_gcc.h ****  */
 131:Drivers/CMSIS/Include/cmsis_gcc.h **** __STATIC_FORCEINLINE __NO_RETURN void __cmsis_start(void)
 132:Drivers/CMSIS/Include/cmsis_gcc.h **** {
 133:Drivers/CMSIS/Include/cmsis_gcc.h ****   extern void _start(void) __NO_RETURN;
 134:Drivers/CMSIS/Include/cmsis_gcc.h ****   
 135:Drivers/CMSIS/Include/cmsis_gcc.h ****   typedef struct {
 136:Drivers/CMSIS/Include/cmsis_gcc.h ****     uint32_t const* src;
 137:Drivers/CMSIS/Include/cmsis_gcc.h ****     uint32_t* dest;
 138:Drivers/CMSIS/Include/cmsis_gcc.h ****     uint32_t  wlen;
 139:Drivers/CMSIS/Include/cmsis_gcc.h ****   } __copy_table_t;
 140:Drivers/CMSIS/Include/cmsis_gcc.h ****   
 141:Drivers/CMSIS/Include/cmsis_gcc.h ****   typedef struct {
 142:Drivers/CMSIS/Include/cmsis_gcc.h ****     uint32_t* dest;
 143:Drivers/CMSIS/Include/cmsis_gcc.h ****     uint32_t  wlen;
 144:Drivers/CMSIS/Include/cmsis_gcc.h ****   } __zero_table_t;
 145:Drivers/CMSIS/Include/cmsis_gcc.h ****   
 146:Drivers/CMSIS/Include/cmsis_gcc.h ****   extern const __copy_table_t __copy_table_start__;
 147:Drivers/CMSIS/Include/cmsis_gcc.h ****   extern const __copy_table_t __copy_table_end__;
 148:Drivers/CMSIS/Include/cmsis_gcc.h ****   extern const __zero_table_t __zero_table_start__;
 149:Drivers/CMSIS/Include/cmsis_gcc.h ****   extern const __zero_table_t __zero_table_end__;
 150:Drivers/CMSIS/Include/cmsis_gcc.h **** 
 151:Drivers/CMSIS/Include/cmsis_gcc.h ****   for (__copy_table_t const* pTable = &__copy_table_start__; pTable < &__copy_table_end__; ++pTable
 152:Drivers/CMSIS/Include/cmsis_gcc.h ****     for(uint32_t i=0u; i<pTable->wlen; ++i) {
 153:Drivers/CMSIS/Include/cmsis_gcc.h ****       pTable->dest[i] = pTable->src[i];
 154:Drivers/CMSIS/Include/cmsis_gcc.h ****     }
 155:Drivers/CMSIS/Include/cmsis_gcc.h ****   }
 156:Drivers/CMSIS/Include/cmsis_gcc.h ****  
 157:Drivers/CMSIS/Include/cmsis_gcc.h ****   for (__zero_table_t const* pTable = &__zero_table_start__; pTable < &__zero_table_end__; ++pTable
 158:Drivers/CMSIS/Include/cmsis_gcc.h ****     for(uint32_t i=0u; i<pTable->wlen; ++i) {
 159:Drivers/CMSIS/Include/cmsis_gcc.h ****       pTable->dest[i] = 0u;
 160:Drivers/CMSIS/Include/cmsis_gcc.h ****     }
 161:Drivers/CMSIS/Include/cmsis_gcc.h ****   }
 162:Drivers/CMSIS/Include/cmsis_gcc.h ****  
 163:Drivers/CMSIS/Include/cmsis_gcc.h ****   _start();
 164:Drivers/CMSIS/Include/cmsis_gcc.h **** }
 165:Drivers/CMSIS/Include/cmsis_gcc.h ****   
 166:Drivers/CMSIS/Include/cmsis_gcc.h **** #define __PROGRAM_START           __cmsis_start
 167:Drivers/CMSIS/Include/cmsis_gcc.h **** #endif
 168:Drivers/CMSIS/Include/cmsis_gcc.h **** 
 169:Drivers/CMSIS/Include/cmsis_gcc.h **** #ifndef __INITIAL_SP
 170:Drivers/CMSIS/Include/cmsis_gcc.h **** #define __INITIAL_SP              __StackTop
 171:Drivers/CMSIS/Include/cmsis_gcc.h **** #endif
 172:Drivers/CMSIS/Include/cmsis_gcc.h **** 
 173:Drivers/CMSIS/Include/cmsis_gcc.h **** #ifndef __STACK_LIMIT
 174:Drivers/CMSIS/Include/cmsis_gcc.h **** #define __STACK_LIMIT             __StackLimit
 175:Drivers/CMSIS/Include/cmsis_gcc.h **** #endif
 176:Drivers/CMSIS/Include/cmsis_gcc.h **** 
 177:Drivers/CMSIS/Include/cmsis_gcc.h **** #ifndef __VECTOR_TABLE
 178:Drivers/CMSIS/Include/cmsis_gcc.h **** #define __VECTOR_TABLE            __Vectors
 179:Drivers/CMSIS/Include/cmsis_gcc.h **** #endif
 180:Drivers/CMSIS/Include/cmsis_gcc.h **** 
 181:Drivers/CMSIS/Include/cmsis_gcc.h **** #ifndef __VECTOR_TABLE_ATTRIBUTE
 182:Drivers/CMSIS/Include/cmsis_gcc.h **** #define __VECTOR_TABLE_ATTRIBUTE  __attribute((used, section(".vectors")))
 183:Drivers/CMSIS/Include/cmsis_gcc.h **** #endif
ARM GAS  C:\Users\CL\AppData\Local\Temp\ccGlybGr.s 			page 18


 184:Drivers/CMSIS/Include/cmsis_gcc.h **** 
 185:Drivers/CMSIS/Include/cmsis_gcc.h **** /* ###########################  Core Function Access  ########################### */
 186:Drivers/CMSIS/Include/cmsis_gcc.h **** /** \ingroup  CMSIS_Core_FunctionInterface
 187:Drivers/CMSIS/Include/cmsis_gcc.h ****     \defgroup CMSIS_Core_RegAccFunctions CMSIS Core Register Access Functions
 188:Drivers/CMSIS/Include/cmsis_gcc.h ****   @{
 189:Drivers/CMSIS/Include/cmsis_gcc.h ****  */
 190:Drivers/CMSIS/Include/cmsis_gcc.h **** 
 191:Drivers/CMSIS/Include/cmsis_gcc.h **** /**
 192:Drivers/CMSIS/Include/cmsis_gcc.h ****   \brief   Enable IRQ Interrupts
 193:Drivers/CMSIS/Include/cmsis_gcc.h ****   \details Enables IRQ interrupts by clearing the I-bit in the CPSR.
 194:Drivers/CMSIS/Include/cmsis_gcc.h ****            Can only be executed in Privileged modes.
 195:Drivers/CMSIS/Include/cmsis_gcc.h ****  */
 196:Drivers/CMSIS/Include/cmsis_gcc.h **** __STATIC_FORCEINLINE void __enable_irq(void)
 197:Drivers/CMSIS/Include/cmsis_gcc.h **** {
 198:Drivers/CMSIS/Include/cmsis_gcc.h ****   __ASM volatile ("cpsie i" : : : "memory");
 199:Drivers/CMSIS/Include/cmsis_gcc.h **** }
 200:Drivers/CMSIS/Include/cmsis_gcc.h **** 
 201:Drivers/CMSIS/Include/cmsis_gcc.h **** 
 202:Drivers/CMSIS/Include/cmsis_gcc.h **** /**
 203:Drivers/CMSIS/Include/cmsis_gcc.h ****   \brief   Disable IRQ Interrupts
 204:Drivers/CMSIS/Include/cmsis_gcc.h ****   \details Disables IRQ interrupts by setting the I-bit in the CPSR.
 205:Drivers/CMSIS/Include/cmsis_gcc.h ****            Can only be executed in Privileged modes.
 206:Drivers/CMSIS/Include/cmsis_gcc.h ****  */
 207:Drivers/CMSIS/Include/cmsis_gcc.h **** __STATIC_FORCEINLINE void __disable_irq(void)
 376              		.loc 2 207 27 view .LVU69
 377              	.LBB20:
 208:Drivers/CMSIS/Include/cmsis_gcc.h **** {
 209:Drivers/CMSIS/Include/cmsis_gcc.h ****   __ASM volatile ("cpsid i" : : : "memory");
 378              		.loc 2 209 3 view .LVU70
 379              		.syntax unified
 380              	@ 209 "Drivers/CMSIS/Include/cmsis_gcc.h" 1
 381 0024 72B6     		cpsid i
 382              	@ 0 "" 2
 383              		.thumb
 384              		.syntax unified
 385              	.L15:
 386              	.LBE20:
 387              	.LBE19:
 388              	.LBE21:
 338:Core/Src/main.c ****   while (1)
 389              		.loc 1 338 3 view .LVU71
 339:Core/Src/main.c ****   {
 340:Core/Src/main.c ****   }
 390              		.loc 1 340 3 view .LVU72
 338:Core/Src/main.c ****   while (1)
 391              		.loc 1 338 9 view .LVU73
 392 0026 FEE7     		b	.L15
 393              	.L14:
 300:Core/Src/main.c ****   RCC_OscInitStruct.HSEState = RCC_HSE_ON;
 394              		.loc 1 300 3 view .LVU74
 301:Core/Src/main.c ****   RCC_OscInitStruct.PLL.PLLState = RCC_PLL_ON;
 395              		.loc 1 301 30 is_stmt 0 view .LVU75
 396 0028 0122     		movs	r2, #1
 397 002a 4FF48033 		mov	r3, #65536
 398 002e CDE90523 		strd	r2, r3, [sp, #20]
 302:Core/Src/main.c ****   RCC_OscInitStruct.PLL.PLLSource = RCC_PLLSOURCE_HSE;
 399              		.loc 1 302 3 is_stmt 1 view .LVU76
ARM GAS  C:\Users\CL\AppData\Local\Temp\ccGlybGr.s 			page 19


 305:Core/Src/main.c ****   RCC_OscInitStruct.PLL.PLLP = RCC_PLLP_DIV7;
 400              		.loc 1 305 30 is_stmt 0 view .LVU77
 401 0032 CDE91125 		strd	r2, r5, [sp, #68]
 303:Core/Src/main.c ****   RCC_OscInitStruct.PLL.PLLM = 1;
 402              		.loc 1 303 35 view .LVU78
 403 0036 0223     		movs	r3, #2
 404 0038 0324     		movs	r4, #3
 306:Core/Src/main.c ****   RCC_OscInitStruct.PLL.PLLQ = RCC_PLLQ_DIV2;
 405              		.loc 1 306 30 view .LVU79
 406 003a 0722     		movs	r2, #7
 309:Core/Src/main.c ****   {
 407              		.loc 1 309 7 view .LVU80
 408 003c 05A8     		add	r0, sp, #20
 303:Core/Src/main.c ****   RCC_OscInitStruct.PLL.PLLM = 1;
 409              		.loc 1 303 35 view .LVU81
 410 003e CDE90F34 		strd	r3, r4, [sp, #60]
 304:Core/Src/main.c ****   RCC_OscInitStruct.PLL.PLLN = 20;
 411              		.loc 1 304 3 is_stmt 1 view .LVU82
 306:Core/Src/main.c ****   RCC_OscInitStruct.PLL.PLLQ = RCC_PLLQ_DIV2;
 412              		.loc 1 306 3 view .LVU83
 307:Core/Src/main.c ****   RCC_OscInitStruct.PLL.PLLR = RCC_PLLR_DIV2;
 413              		.loc 1 307 30 is_stmt 0 view .LVU84
 414 0042 CDE91323 		strd	r2, r3, [sp, #76]
 308:Core/Src/main.c ****   if (HAL_RCC_OscConfig(&RCC_OscInitStruct) != HAL_OK)
 415              		.loc 1 308 3 is_stmt 1 view .LVU85
 308:Core/Src/main.c ****   if (HAL_RCC_OscConfig(&RCC_OscInitStruct) != HAL_OK)
 416              		.loc 1 308 30 is_stmt 0 view .LVU86
 417 0046 1593     		str	r3, [sp, #84]
 309:Core/Src/main.c ****   {
 418              		.loc 1 309 3 is_stmt 1 view .LVU87
 309:Core/Src/main.c ****   {
 419              		.loc 1 309 7 is_stmt 0 view .LVU88
 420 0048 FFF7FEFF 		bl	HAL_RCC_OscConfig
 421              	.LVL30:
 309:Core/Src/main.c ****   {
 422              		.loc 1 309 6 view .LVU89
 423 004c 08B1     		cbz	r0, .L16
 311:Core/Src/main.c ****   }
 424              		.loc 1 311 5 is_stmt 1 view .LVU90
 425              	.LBB22:
 426              	.LBI22:
 333:Core/Src/main.c **** {
 427              		.loc 1 333 6 view .LVU91
 428              	.LBE22:
 337:Core/Src/main.c ****   while (1)
 429              		.loc 1 337 3 view .LVU92
 430              	.LBB25:
 431              	.LBB23:
 432              	.LBI23:
 207:Drivers/CMSIS/Include/cmsis_gcc.h **** {
 433              		.loc 2 207 27 view .LVU93
 434              	.LBB24:
 435              		.loc 2 209 3 view .LVU94
 436              		.syntax unified
 437              	@ 209 "Drivers/CMSIS/Include/cmsis_gcc.h" 1
 438 004e 72B6     		cpsid i
 439              	@ 0 "" 2
ARM GAS  C:\Users\CL\AppData\Local\Temp\ccGlybGr.s 			page 20


 440              		.thumb
 441              		.syntax unified
 442              	.L17:
 443              	.LBE24:
 444              	.LBE23:
 445              	.LBE25:
 338:Core/Src/main.c ****   {
 446              		.loc 1 338 3 view .LVU95
 447              		.loc 1 340 3 view .LVU96
 338:Core/Src/main.c ****   {
 448              		.loc 1 338 9 view .LVU97
 449 0050 FEE7     		b	.L17
 450              	.L16:
 315:Core/Src/main.c ****                               |RCC_CLOCKTYPE_PCLK1|RCC_CLOCKTYPE_PCLK2;
 451              		.loc 1 315 3 view .LVU98
 319:Core/Src/main.c ****   RCC_ClkInitStruct.APB2CLKDivider = RCC_HCLK_DIV1;
 452              		.loc 1 319 36 is_stmt 0 view .LVU99
 453 0052 CDE90200 		strd	r0, r0, [sp, #8]
 315:Core/Src/main.c ****                               |RCC_CLOCKTYPE_PCLK1|RCC_CLOCKTYPE_PCLK2;
 454              		.loc 1 315 31 view .LVU100
 455 0056 0F23     		movs	r3, #15
 320:Core/Src/main.c **** 
 456              		.loc 1 320 36 view .LVU101
 457 0058 0490     		str	r0, [sp, #16]
 322:Core/Src/main.c ****   {
 458              		.loc 1 322 7 view .LVU102
 459 005a 0421     		movs	r1, #4
 460 005c 6846     		mov	r0, sp
 317:Core/Src/main.c ****   RCC_ClkInitStruct.AHBCLKDivider = RCC_SYSCLK_DIV1;
 461              		.loc 1 317 34 view .LVU103
 462 005e CDE90034 		strd	r3, r4, [sp]
 318:Core/Src/main.c ****   RCC_ClkInitStruct.APB1CLKDivider = RCC_HCLK_DIV1;
 463              		.loc 1 318 3 is_stmt 1 view .LVU104
 320:Core/Src/main.c **** 
 464              		.loc 1 320 3 view .LVU105
 322:Core/Src/main.c ****   {
 465              		.loc 1 322 3 view .LVU106
 322:Core/Src/main.c ****   {
 466              		.loc 1 322 7 is_stmt 0 view .LVU107
 467 0062 FFF7FEFF 		bl	HAL_RCC_ClockConfig
 468              	.LVL31:
 322:Core/Src/main.c ****   {
 469              		.loc 1 322 6 view .LVU108
 470 0066 08B1     		cbz	r0, .L13
 324:Core/Src/main.c ****   }
 471              		.loc 1 324 5 is_stmt 1 view .LVU109
 472              	.LBB26:
 473              	.LBI26:
 333:Core/Src/main.c **** {
 474              		.loc 1 333 6 view .LVU110
 475              	.LBE26:
 337:Core/Src/main.c ****   while (1)
 476              		.loc 1 337 3 view .LVU111
 477              	.LBB29:
 478              	.LBB27:
 479              	.LBI27:
 207:Drivers/CMSIS/Include/cmsis_gcc.h **** {
ARM GAS  C:\Users\CL\AppData\Local\Temp\ccGlybGr.s 			page 21


 480              		.loc 2 207 27 view .LVU112
 481              	.LBB28:
 482              		.loc 2 209 3 view .LVU113
 483              		.syntax unified
 484              	@ 209 "Drivers/CMSIS/Include/cmsis_gcc.h" 1
 485 0068 72B6     		cpsid i
 486              	@ 0 "" 2
 487              		.thumb
 488              		.syntax unified
 489              	.L19:
 490              	.LBE28:
 491              	.LBE27:
 492              	.LBE29:
 338:Core/Src/main.c ****   {
 493              		.loc 1 338 3 view .LVU114
 494              		.loc 1 340 3 view .LVU115
 338:Core/Src/main.c ****   {
 495              		.loc 1 338 9 view .LVU116
 496 006a FEE7     		b	.L19
 497              	.L13:
 326:Core/Src/main.c **** /* USER CODE END 4 */
 498              		.loc 1 326 1 is_stmt 0 view .LVU117
 499 006c 17B0     		add	sp, sp, #92
 500              	.LCFI7:
 501              		.cfi_def_cfa_offset 12
 502              		@ sp needed
 503 006e 30BD     		pop	{r4, r5, pc}
 504              		.cfi_endproc
 505              	.LFE294:
 507              		.section	.rodata.main.str1.1,"aMS",%progbits,1
 508              	.LC14:
 509 0000 75617274 		.ascii	"uart2/bds_0\000"
 509      322F6264 
 509      735F3000 
 510              	.LC15:
 511 000c 75617274 		.ascii	"uart1/ec200s\000"
 511      312F6563 
 511      32303073 
 511      00
 512              	.LC16:
 513 0019 54797065 		.ascii	"Type [help] for the list of instructions\015\012\000"
 513      205B6865 
 513      6C705D20 
 513      666F7220 
 513      74686520 
 514              		.section	.text.startup.main,"ax",%progbits
 515              		.align	1
 516              		.global	main
 517              		.syntax unified
 518              		.thumb
 519              		.thumb_func
 521              	main:
 522              	.LFB291:
  82:Core/Src/main.c ****   /* USER CODE BEGIN 1 */
 523              		.loc 1 82 1 is_stmt 1 view -0
 524              		.cfi_startproc
 525              		@ Volatile: function does not return.
ARM GAS  C:\Users\CL\AppData\Local\Temp\ccGlybGr.s 			page 22


 526              		@ args = 0, pretend = 0, frame = 0
 527              		@ frame_needed = 0, uses_anonymous_args = 0
  91:Core/Src/main.c **** 
 528              		.loc 1 91 3 view .LVU119
  82:Core/Src/main.c ****   /* USER CODE BEGIN 1 */
 529              		.loc 1 82 1 is_stmt 0 view .LVU120
 530 0000 7FB5     		push	{r0, r1, r2, r3, r4, r5, r6, lr}
 531              	.LCFI8:
 532              		.cfi_def_cfa_offset 32
 533              		.cfi_offset 14, -4
  91:Core/Src/main.c **** 
 534              		.loc 1 91 3 view .LVU121
 535 0002 FFF7FEFF 		bl	HAL_Init
 536              	.LVL32:
  94:Core/Src/main.c ****   /* USER CODE END Init */
 537              		.loc 1 94 3 is_stmt 1 view .LVU122
 538 0006 FFF7FEFF 		bl	timer_init
 539              	.LVL33:
  98:Core/Src/main.c **** 
 540              		.loc 1 98 3 view .LVU123
 541 000a FFF7FEFF 		bl	SystemClock_Config
 542              	.LVL34:
 105:Core/Src/main.c ****   LED_Init(&dev_led[0]);
 543              		.loc 1 105 3 view .LVU124
 544 000e FFF7FEFF 		bl	MX_GPIO_Init
 545              	.LVL35:
 106:Core/Src/main.c ****   LED_Init(&dev_led[1]);
 546              		.loc 1 106 3 view .LVU125
 547 0012 5A48     		ldr	r0, .L26
 123:Core/Src/main.c **** 		Lora_dev[0].LoRa_SF, Lora_dev[0].LoRa_BW, Lora_dev[0].LoRa_CR,
 548              		.loc 1 123 3 is_stmt 0 view .LVU126
 549 0014 5A4C     		ldr	r4, .L26+4
 106:Core/Src/main.c ****   LED_Init(&dev_led[1]);
 550              		.loc 1 106 3 view .LVU127
 551 0016 FFF7FEFF 		bl	LED_Init
 552              	.LVL36:
 107:Core/Src/main.c ****   MX_ADC1_Init();
 553              		.loc 1 107 3 is_stmt 1 view .LVU128
 554 001a 5A48     		ldr	r0, .L26+8
 555 001c FFF7FEFF 		bl	LED_Init
 556              	.LVL37:
 108:Core/Src/main.c ****   MX_SPI2_Init();
 557              		.loc 1 108 3 view .LVU129
 558 0020 FFF7FEFF 		bl	MX_ADC1_Init
 559              	.LVL38:
 109:Core/Src/main.c ****   MX_SPI3_Init();
 560              		.loc 1 109 3 view .LVU130
 561 0024 FFF7FEFF 		bl	MX_SPI2_Init
 562              	.LVL39:
 110:Core/Src/main.c ****   MX_USART1_UART_Init();
 563              		.loc 1 110 3 view .LVU131
 564 0028 FFF7FEFF 		bl	MX_SPI3_Init
 565              	.LVL40:
 111:Core/Src/main.c ****   MX_USART2_UART_Init();
 566              		.loc 1 111 3 view .LVU132
 567 002c FFF7FEFF 		bl	MX_USART1_UART_Init
 568              	.LVL41:
ARM GAS  C:\Users\CL\AppData\Local\Temp\ccGlybGr.s 			page 23


 112:Core/Src/main.c ****   MX_USART3_UART_Init();
 569              		.loc 1 112 3 view .LVU133
 570 0030 FFF7FEFF 		bl	MX_USART2_UART_Init
 571              	.LVL42:
 113:Core/Src/main.c ****   /* USER CODE BEGIN 2 */
 572              		.loc 1 113 3 view .LVU134
 573 0034 FFF7FEFF 		bl	MX_USART3_UART_Init
 574              	.LVL43:
 116:Core/Src/main.c ****   BSP_W25Qx_Init();
 575              		.loc 1 116 3 view .LVU135
 576 0038 FFF7FEFF 		bl	User_Shell_Init
 577              	.LVL44:
 117:Core/Src/main.c ****   bds_dev = atgm_open("uart2/bds_0");
 578              		.loc 1 117 3 view .LVU136
 579 003c FFF7FEFF 		bl	BSP_W25Qx_Init
 580              	.LVL45:
 118:Core/Src/main.c ****   ec2x_open("uart1/ec200s");
 581              		.loc 1 118 3 view .LVU137
 118:Core/Src/main.c ****   ec2x_open("uart1/ec200s");
 582              		.loc 1 118 13 is_stmt 0 view .LVU138
 583 0040 5148     		ldr	r0, .L26+12
 584 0042 FFF7FEFF 		bl	atgm_open
 585              	.LVL46:
 118:Core/Src/main.c ****   ec2x_open("uart1/ec200s");
 586              		.loc 1 118 11 view .LVU139
 587 0046 514B     		ldr	r3, .L26+16
 588 0048 1860     		str	r0, [r3]
 119:Core/Src/main.c **** 
 589              		.loc 1 119 3 is_stmt 1 view .LVU140
 590 004a 5148     		ldr	r0, .L26+20
 591 004c FFF7FEFF 		bl	ec2x_open
 592              	.LVL47:
 123:Core/Src/main.c **** 		Lora_dev[0].LoRa_SF, Lora_dev[0].LoRa_BW, Lora_dev[0].LoRa_CR,
 593              		.loc 1 123 3 view .LVU141
 594 0050 637D     		ldrb	r3, [r4, #21]	@ zero_extendqisi2
 595 0052 0593     		str	r3, [sp, #20]
 596 0054 237D     		ldrb	r3, [r4, #20]	@ zero_extendqisi2
 597 0056 0493     		str	r3, [sp, #16]
 598 0058 E37C     		ldrb	r3, [r4, #19]	@ zero_extendqisi2
 599 005a 0393     		str	r3, [sp, #12]
 600 005c A37C     		ldrb	r3, [r4, #18]	@ zero_extendqisi2
 601 005e 0293     		str	r3, [sp, #8]
 602 0060 637C     		ldrb	r3, [r4, #17]	@ zero_extendqisi2
 603 0062 0193     		str	r3, [sp, #4]
 604 0064 237C     		ldrb	r3, [r4, #16]	@ zero_extendqisi2
 605 0066 0093     		str	r3, [sp]
 606 0068 D4E90223 		ldrd	r2, [r4, #8]
 607 006c 2046     		mov	r0, r4
 608 006e FFF7FEFF 		bl	SX1278_init
 609              	.LVL48:
 126:Core/Src/main.c ****   SX1278_init(&Lora_dev[1], Lora_dev[1].frequency, Lora_dev[0].power,
 610              		.loc 1 126 4 view .LVU142
 611 0072 6421     		movs	r1, #100
 612 0074 4FF4FA72 		mov	r2, #500
 613 0078 2046     		mov	r0, r4
 614 007a FFF7FEFF 		bl	SX1278_receive
 615              	.LVL49:
ARM GAS  C:\Users\CL\AppData\Local\Temp\ccGlybGr.s 			page 24


 127:Core/Src/main.c **** 		Lora_dev[0].LoRa_SF, Lora_dev[0].LoRa_BW, Lora_dev[0].LoRa_CR,
 616              		.loc 1 127 3 view .LVU143
 617 007e 637D     		ldrb	r3, [r4, #21]	@ zero_extendqisi2
 618 0080 0593     		str	r3, [sp, #20]
 619 0082 237D     		ldrb	r3, [r4, #20]	@ zero_extendqisi2
 620 0084 0493     		str	r3, [sp, #16]
 621 0086 E37C     		ldrb	r3, [r4, #19]	@ zero_extendqisi2
 622 0088 0393     		str	r3, [sp, #12]
 623 008a A37C     		ldrb	r3, [r4, #18]	@ zero_extendqisi2
 624 008c 0293     		str	r3, [sp, #8]
 625 008e 637C     		ldrb	r3, [r4, #17]	@ zero_extendqisi2
 626 0090 0193     		str	r3, [sp, #4]
 627 0092 237C     		ldrb	r3, [r4, #16]	@ zero_extendqisi2
 628 0094 0093     		str	r3, [sp]
 629 0096 D4E94823 		ldrd	r2, [r4, #288]
 630 009a 04F58C70 		add	r0, r4, #280
 631 009e FFF7FEFF 		bl	SX1278_init
 632              	.LVL50:
 130:Core/Src/main.c ****   /* USER CODE END 2 */
 633              		.loc 1 130 4 view .LVU144
 634 00a2 4FF4FA72 		mov	r2, #500
 635 00a6 6421     		movs	r1, #100
 636 00a8 04F58C70 		add	r0, r4, #280
 637 00ac FFF7FEFF 		bl	SX1278_receive
 638              	.LVL51:
 136:Core/Src/main.c ****   {
 639              		.loc 1 136 3 view .LVU145
 640              	.LBB30:
 141:Core/Src/main.c ****     LED_On(&dev_led[1]);
 641              		.loc 1 141 5 view .LVU146
 642 00b0 3248     		ldr	r0, .L26
 643 00b2 384C     		ldr	r4, .L26+24
 644 00b4 FFF7FEFF 		bl	LED_On
 645              	.LVL52:
 142:Core/Src/main.c ****     /*Mac地址打印*/
 646              		.loc 1 142 5 view .LVU147
 647 00b8 3248     		ldr	r0, .L26+8
 648 00ba FFF7FEFF 		bl	LED_On
 649              	.LVL53:
 144:Core/Src/main.c ****     /* ADC 电压监测接口测试*/
 650              		.loc 1 144 5 view .LVU148
 651 00be FFF7FEFF 		bl	DeviceID_Print
 652              	.LVL54:
 146:Core/Src/main.c ****     /* LED 测试 */ 
 653              		.loc 1 146 5 view .LVU149
 654 00c2 FFF7FEFF 		bl	Battery_Test
 655              	.LVL55:
 151:Core/Src/main.c ****     /* RS485接口测试 */
 656              		.loc 1 151 5 view .LVU150
 657 00c6 FFF7FEFF 		bl	LDR_Value_Get
 658              	.LVL56:
 153:Core/Src/main.c ****      /* Flash 接口测试 */
 659              		.loc 1 153 5 view .LVU151
 660 00ca 3348     		ldr	r0, .L26+28
 661 00cc FFF7FEFF 		bl	RS485_Test
 662              	.LVL57:
 155:Core/Src/main.c ****     /* ATGM223D接口测试 */
ARM GAS  C:\Users\CL\AppData\Local\Temp\ccGlybGr.s 			page 25


 663              		.loc 1 155 5 view .LVU152
 664 00d0 FFF7FEFF 		bl	Flash_Test
 665              	.LVL58:
 157:Core/Src/main.c ****      /* LORA 1发送 LORA2 接收测试*/
 666              		.loc 1 157 5 view .LVU153
 667 00d4 3148     		ldr	r0, .L26+32
 668 00d6 6421     		movs	r1, #100
 669 00d8 FFF7FEFF 		bl	BDS_Test
 670              	.LVL59:
 160:Core/Src/main.c ****     Delay_ms(500);
 671              		.loc 1 160 5 view .LVU154
 672 00dc 3049     		ldr	r1, .L26+36
 673 00de C822     		movs	r2, #200
 674 00e0 0120     		movs	r0, #1
 675 00e2 FFF7FEFF 		bl	LORA_Send
 676              	.LVL60:
 161:Core/Src/main.c ****     if(strstr(lora_cache[0],"Lora1 tx test\r\n") != NULL)
 677              		.loc 1 161 5 view .LVU155
 678 00e6 4FF4FA70 		mov	r0, #500
 679 00ea FFF7FEFF 		bl	Delay_ms
 680              	.LVL61:
 162:Core/Src/main.c ****     { 
 681              		.loc 1 162 5 view .LVU156
 162:Core/Src/main.c ****     { 
 682              		.loc 1 162 8 is_stmt 0 view .LVU157
 683 00ee 2C49     		ldr	r1, .L26+36
 684 00f0 2C48     		ldr	r0, .L26+40
 685 00f2 FFF7FEFF 		bl	strstr
 686              	.LVL62:
 162:Core/Src/main.c ****     { 
 687              		.loc 1 162 7 view .LVU158
 688 00f6 0028     		cmp	r0, #0
 689 00f8 36D0     		beq	.L21
 164:Core/Src/main.c ****       test_ok_cnt++;
 690              		.loc 1 164 7 is_stmt 1 view .LVU159
 691 00fa 2B49     		ldr	r1, .L26+44
 692 00fc 2B48     		ldr	r0, .L26+48
 693 00fe FFF7FEFF 		bl	shellPrint
 694              	.LVL63:
 165:Core/Src/main.c ****     }
 695              		.loc 1 165 7 view .LVU160
 165:Core/Src/main.c ****     }
 696              		.loc 1 165 18 is_stmt 0 view .LVU161
 697 0102 2378     		ldrb	r3, [r4]	@ zero_extendqisi2
 698 0104 0133     		adds	r3, r3, #1
 699 0106 2370     		strb	r3, [r4]
 700              	.L22:
 170:Core/Src/main.c ****     Delay_ms(500);
 701              		.loc 1 170 5 is_stmt 1 view .LVU162
 702 0108 2949     		ldr	r1, .L26+52
 703 010a C822     		movs	r2, #200
 704 010c 0020     		movs	r0, #0
 705 010e FFF7FEFF 		bl	LORA_Send
 706              	.LVL64:
 171:Core/Src/main.c ****      if(strstr(lora_cache[1],"Lora2 tx test\r\n") != NULL)
 707              		.loc 1 171 5 view .LVU163
 708 0112 4FF4FA70 		mov	r0, #500
ARM GAS  C:\Users\CL\AppData\Local\Temp\ccGlybGr.s 			page 26


 709 0116 FFF7FEFF 		bl	Delay_ms
 710              	.LVL65:
 172:Core/Src/main.c ****     { 
 711              		.loc 1 172 6 view .LVU164
 172:Core/Src/main.c ****     { 
 712              		.loc 1 172 9 is_stmt 0 view .LVU165
 713 011a 2549     		ldr	r1, .L26+52
 714 011c 2548     		ldr	r0, .L26+56
 715 011e FFF7FEFF 		bl	strstr
 716              	.LVL66:
 172:Core/Src/main.c ****     { 
 717              		.loc 1 172 8 view .LVU166
 718 0122 30B3     		cbz	r0, .L23
 174:Core/Src/main.c ****       test_ok_cnt++;
 719              		.loc 1 174 7 is_stmt 1 view .LVU167
 720 0124 2449     		ldr	r1, .L26+60
 721 0126 2148     		ldr	r0, .L26+48
 722 0128 FFF7FEFF 		bl	shellPrint
 723              	.LVL67:
 175:Core/Src/main.c ****     }
 724              		.loc 1 175 7 view .LVU168
 175:Core/Src/main.c ****     }
 725              		.loc 1 175 18 is_stmt 0 view .LVU169
 726 012c 2378     		ldrb	r3, [r4]	@ zero_extendqisi2
 727 012e 0133     		adds	r3, r3, #1
 728 0130 2370     		strb	r3, [r4]
 729              	.L24:
 180:Core/Src/main.c ****     shellPrint(&shell,"Test OK Count:%d/8\r\n",test_ok_cnt);
 730              		.loc 1 180 5 is_stmt 1 view .LVU170
 731 0132 4FF4FA73 		mov	r3, #500
 732 0136 214A     		ldr	r2, .L26+64
 733 0138 2149     		ldr	r1, .L26+68
 734 013a 0020     		movs	r0, #0
 735 013c FFF7FEFF 		bl	EC2x_Test
 736              	.LVL68:
 181:Core/Src/main.c ****     
 737              		.loc 1 181 5 view .LVU171
 738 0140 2278     		ldrb	r2, [r4]	@ zero_extendqisi2
 739 0142 2049     		ldr	r1, .L26+72
 740 0144 1948     		ldr	r0, .L26+48
 741 0146 FFF7FEFF 		bl	shellPrint
 742              	.LVL69:
 183:Core/Src/main.c ****     Delay_ms(500);
 743              		.loc 1 183 5 view .LVU172
 744 014a 1F49     		ldr	r1, .L26+76
 745 014c 1748     		ldr	r0, .L26+48
 746 014e FFF7FEFF 		bl	shellPrint
 747              	.LVL70:
 184:Core/Src/main.c ****     ec2x_tcp_connect(0);
 748              		.loc 1 184 5 view .LVU173
 749 0152 4FF4FA70 		mov	r0, #500
 750 0156 FFF7FEFF 		bl	Delay_ms
 751              	.LVL71:
 185:Core/Src/main.c ****     while(1){
 752              		.loc 1 185 5 view .LVU174
 753 015a 0020     		movs	r0, #0
 754 015c FFF7FEFF 		bl	ec2x_tcp_connect
ARM GAS  C:\Users\CL\AppData\Local\Temp\ccGlybGr.s 			page 27


 755              	.LVL72:
 756              	.L25:
 186:Core/Src/main.c ****       // shellidle_cnt++;
 757              		.loc 1 186 5 discriminator 1 view .LVU175
 196:Core/Src/main.c ****     }
 758              		.loc 1 196 7 discriminator 1 view .LVU176
 759 0160 6420     		movs	r0, #100
 760 0162 FFF7FEFF 		bl	Delay_ms
 761              	.LVL73:
 186:Core/Src/main.c ****       // shellidle_cnt++;
 762              		.loc 1 186 10 discriminator 1 view .LVU177
 763 0166 FBE7     		b	.L25
 764              	.L21:
 168:Core/Src/main.c ****      /* LORA2发送 LORA1 接收测试*/
 765              		.loc 1 168 7 view .LVU178
 766 0168 1849     		ldr	r1, .L26+80
 767 016a 1048     		ldr	r0, .L26+48
 768 016c FFF7FEFF 		bl	shellPrint
 769              	.LVL74:
 770 0170 CAE7     		b	.L22
 771              	.L23:
 178:Core/Src/main.c ****      /* Cat-1 测试 */
 772              		.loc 1 178 7 view .LVU179
 773 0172 1749     		ldr	r1, .L26+84
 774 0174 0D48     		ldr	r0, .L26+48
 775 0176 FFF7FEFF 		bl	shellPrint
 776              	.LVL75:
 777 017a DAE7     		b	.L24
 778              	.L27:
 779              		.align	2
 780              	.L26:
 781 017c 00000000 		.word	dev_led
 782 0180 00000000 		.word	Lora_dev
 783 0184 08000000 		.word	dev_led+8
 784 0188 00000000 		.word	.LC14
 785 018c 00000000 		.word	bds_dev
 786 0190 0C000000 		.word	.LC15
 787 0194 00000000 		.word	test_ok_cnt
 788 0198 00000000 		.word	.LC3
 789 019c 14000000 		.word	.LC4
 790 01a0 19000000 		.word	.LC5
 791 01a4 00000000 		.word	lora_cache
 792 01a8 29000000 		.word	.LC6
 793 01ac 00000000 		.word	shell
 794 01b0 53000000 		.word	.LC8
 795 01b4 1E000000 		.word	lora_cache+30
 796 01b8 63000000 		.word	.LC9
 797 01bc 8D000000 		.word	.LC11
 798 01c0 90000000 		.word	.LC12
 799 01c4 93000000 		.word	.LC13
 800 01c8 19000000 		.word	.LC16
 801 01cc 3C000000 		.word	.LC7
 802 01d0 76000000 		.word	.LC10
 803              	.LBE30:
 804              		.cfi_endproc
 805              	.LFE291:
 807              		.section	.text.Error_Handler,"ax",%progbits
ARM GAS  C:\Users\CL\AppData\Local\Temp\ccGlybGr.s 			page 28


 808              		.align	1
 809              		.global	Error_Handler
 810              		.syntax unified
 811              		.thumb
 812              		.thumb_func
 814              	Error_Handler:
 815              	.LFB295:
 334:Core/Src/main.c ****   /* USER CODE BEGIN Error_Handler_Debug */
 816              		.loc 1 334 1 view -0
 817              		.cfi_startproc
 818              		@ Volatile: function does not return.
 819              		@ args = 0, pretend = 0, frame = 0
 820              		@ frame_needed = 0, uses_anonymous_args = 0
 821              		@ link register save eliminated.
 337:Core/Src/main.c ****   while (1)
 822              		.loc 1 337 3 view .LVU181
 823              	.LBB31:
 824              	.LBI31:
 207:Drivers/CMSIS/Include/cmsis_gcc.h **** {
 825              		.loc 2 207 27 view .LVU182
 826              	.LBB32:
 827              		.loc 2 209 3 view .LVU183
 828              		.syntax unified
 829              	@ 209 "Drivers/CMSIS/Include/cmsis_gcc.h" 1
 830 0000 72B6     		cpsid i
 831              	@ 0 "" 2
 832              		.thumb
 833              		.syntax unified
 834              	.L29:
 835              	.LBE32:
 836              	.LBE31:
 338:Core/Src/main.c ****   {
 837              		.loc 1 338 3 discriminator 1 view .LVU184
 838              		.loc 1 340 3 discriminator 1 view .LVU185
 338:Core/Src/main.c ****   {
 839              		.loc 1 338 9 discriminator 1 view .LVU186
 840 0002 FEE7     		b	.L29
 841              		.cfi_endproc
 842              	.LFE295:
 844              		.global	shellCommandmac_print
 845              		.global	shellDescmac_print
 846              		.global	shellCmdmac_print
 847              		.global	shellCommandtest_all
 848              		.global	shellDesctest_all
 849              		.global	shellCmdtest_all
 850              		.section	.rodata.shellCmdmac_print,"a"
 853              	shellCmdmac_print:
 854 0000 6D61635F 		.ascii	"mac_print\000"
 854      7072696E 
 854      7400
 855              		.section	.rodata.shellCmdtest_all,"a"
 858              	shellCmdtest_all:
 859 0000 74657374 		.ascii	"test_all\000"
 859      5F616C6C 
 859      00
 860              		.section	.rodata.shellDescmac_print,"a"
 863              	shellDescmac_print:
ARM GAS  C:\Users\CL\AppData\Local\Temp\ccGlybGr.s 			page 29


 864 0000 7072696E 		.ascii	"printf mac_id\000"
 864      7466206D 
 864      61635F69 
 864      6400
 865              		.section	.rodata.shellDesctest_all,"a"
 868              	shellDesctest_all:
 869 0000 74657374 		.ascii	"test all device\000"
 869      20616C6C 
 869      20646576 
 869      69636500 
 870              		.section	shellCommand,"a"
 873              	shellCommandmac_print:
 874 0000 00210000 		.4byte	8448
 875 0004 00000000 		.4byte	shellCmdmac_print
 876 0008 00000000 		.4byte	DeviceID_Print
 877 000c 00000000 		.4byte	shellDescmac_print
 880              	shellCommandtest_all:
 881 0010 00210000 		.4byte	8448
 882 0014 00000000 		.4byte	shellCmdtest_all
 883 0018 00000000 		.4byte	Test_All
 884 001c 00000000 		.4byte	shellDesctest_all
 885              		.text
 886              	.Letext0:
 887              		.file 3 "e:\\gcc-arm-none-eabi-10.3-2021.10-win32\\gcc-arm-none-eabi-10.3-2021.10\\arm-none-eabi\\
 888              		.file 4 "e:\\gcc-arm-none-eabi-10.3-2021.10-win32\\gcc-arm-none-eabi-10.3-2021.10\\arm-none-eabi\\
 889              		.file 5 "Drivers/CMSIS/Device/ST/STM32L4xx/Include/stm32l431xx.h"
 890              		.file 6 "Drivers/STM32L4xx_HAL_Driver/Inc/stm32l4xx_hal_rcc.h"
 891              		.file 7 "FML/Inc/led.h"
 892              		.file 8 "Drivers/STM32L4xx_HAL_Driver/Inc/stm32l4xx_hal_def.h"
 893              		.file 9 "ThirdParty/Letter-shell/Inc/shell.h"
 894              		.file 10 "ThirdParty/Letter-shell/Inc/shell_port.h"
 895              		.file 11 "FML/Inc/ATGM332D.h"
 896              		.file 12 "HAL/Inc/SX1278_hw.h"
 897              		.file 13 "FML/Inc/SX1278.h"
 898              		.file 14 "Drivers/STM32L4xx_HAL_Driver/Inc/stm32l4xx_hal_pwr_ex.h"
 899              		.file 15 "HAL/Inc/adc.h"
 900              		.file 16 "FML/Inc/rs485.h"
 901              		.file 17 "Drivers/STM32L4xx_HAL_Driver/Inc/stm32l4xx_hal.h"
 902              		.file 18 "e:\\gcc-arm-none-eabi-10.3-2021.10-win32\\gcc-arm-none-eabi-10.3-2021.10\\arm-none-eabi\
 903              		.file 19 "FML/Inc/EC2x.h"
 904              		.file 20 "HAL/Inc/timer.h"
 905              		.file 21 "HAL/Inc/gpio.h"
 906              		.file 22 "HAL/Inc/spi.h"
 907              		.file 23 "HAL/Inc/usart.h"
 908              		.file 24 "FML/Inc/W25QXX.h"
 909              		.file 25 "<built-in>"
ARM GAS  C:\Users\CL\AppData\Local\Temp\ccGlybGr.s 			page 30


DEFINED SYMBOLS
                            *ABS*:00000000 main.c
C:\Users\CL\AppData\Local\Temp\ccGlybGr.s:27     .text.DeviceID_Print:00000000 $t
C:\Users\CL\AppData\Local\Temp\ccGlybGr.s:33     .text.DeviceID_Print:00000000 DeviceID_Print
C:\Users\CL\AppData\Local\Temp\ccGlybGr.s:125    .text.DeviceID_Print:00000050 $d
C:\Users\CL\AppData\Local\Temp\ccGlybGr.s:158    .text.Test_All:00000000 $t
C:\Users\CL\AppData\Local\Temp\ccGlybGr.s:164    .text.Test_All:00000000 Test_All
C:\Users\CL\AppData\Local\Temp\ccGlybGr.s:301    .text.Test_All:000000ac $d
C:\Users\CL\AppData\Local\Temp\ccGlybGr.s:320    .text.SystemClock_Config:00000000 $t
C:\Users\CL\AppData\Local\Temp\ccGlybGr.s:326    .text.SystemClock_Config:00000000 SystemClock_Config
C:\Users\CL\AppData\Local\Temp\ccGlybGr.s:515    .text.startup.main:00000000 $t
C:\Users\CL\AppData\Local\Temp\ccGlybGr.s:521    .text.startup.main:00000000 main
C:\Users\CL\AppData\Local\Temp\ccGlybGr.s:781    .text.startup.main:0000017c $d
C:\Users\CL\AppData\Local\Temp\ccGlybGr.s:808    .text.Error_Handler:00000000 $t
C:\Users\CL\AppData\Local\Temp\ccGlybGr.s:814    .text.Error_Handler:00000000 Error_Handler
C:\Users\CL\AppData\Local\Temp\ccGlybGr.s:873    shellCommand:00000000 shellCommandmac_print
C:\Users\CL\AppData\Local\Temp\ccGlybGr.s:863    .rodata.shellDescmac_print:00000000 shellDescmac_print
C:\Users\CL\AppData\Local\Temp\ccGlybGr.s:853    .rodata.shellCmdmac_print:00000000 shellCmdmac_print
C:\Users\CL\AppData\Local\Temp\ccGlybGr.s:880    shellCommand:00000010 shellCommandtest_all
C:\Users\CL\AppData\Local\Temp\ccGlybGr.s:868    .rodata.shellDesctest_all:00000000 shellDesctest_all
C:\Users\CL\AppData\Local\Temp\ccGlybGr.s:858    .rodata.shellCmdtest_all:00000000 shellCmdtest_all

UNDEFINED SYMBOLS
shellPrint
shell
Battery_Test
LDR_Value_Get
RS485_Test
Flash_Test
BDS_Test
LORA_Send
Delay_ms
strstr
EC2x_Test
test_ok_cnt
lora_cache
memset
HAL_PWREx_ControlVoltageScaling
HAL_RCC_OscConfig
HAL_RCC_ClockConfig
HAL_Init
timer_init
MX_GPIO_Init
LED_Init
MX_ADC1_Init
MX_SPI2_Init
MX_SPI3_Init
MX_USART1_UART_Init
MX_USART2_UART_Init
MX_USART3_UART_Init
User_Shell_Init
BSP_W25Qx_Init
atgm_open
ec2x_open
SX1278_init
SX1278_receive
LED_On
ARM GAS  C:\Users\CL\AppData\Local\Temp\ccGlybGr.s 			page 31


ec2x_tcp_connect
dev_led
Lora_dev
bds_dev
