ARM GAS  C:\Users\CL\AppData\Local\Temp\cc5UoLfW.s 			page 1


   1              		.cpu cortex-m4
   2              		.arch armv7e-m
   3              		.fpu fpv4-sp-d16
   4              		.eabi_attribute 27, 1
   5              		.eabi_attribute 28, 1
   6              		.eabi_attribute 20, 1
   7              		.eabi_attribute 21, 1
   8              		.eabi_attribute 23, 3
   9              		.eabi_attribute 24, 1
  10              		.eabi_attribute 25, 1
  11              		.eabi_attribute 26, 1
  12              		.eabi_attribute 30, 1
  13              		.eabi_attribute 34, 1
  14              		.eabi_attribute 18, 4
  15              		.file	"main.c"
  16              		.text
  17              	.Ltext0:
  18              		.cfi_sections	.debug_frame
  19              		.section	.rodata.LED_Test.str1.4,"aMS",%progbits,1
  20              		.align	2
  21              	.LC0:
  22 0000 443600   		.ascii	"D6\000"
  23 0003 00       		.align	2
  24              	.LC1:
  25 0004 443700   		.ascii	"D7\000"
  26 0007 00       		.align	2
  27              	.LC2:
  28 0008 696E7661 		.ascii	"invalid led name\000"
  28      6C696420 
  28      6C656420 
  28      6E616D65 
  28      00
  29 0019 000000   		.align	2
  30              	.LC3:
  31 001c 6F6E00   		.ascii	"on\000"
  32 001f 00       		.align	2
  33              	.LC4:
  34 0020 6F666600 		.ascii	"off\000"
  35              		.align	2
  36              	.LC5:
  37 0024 746F6767 		.ascii	"toggle\000"
  37      6C6500
  38 002b 00       		.align	2
  39              	.LC6:
  40 002c 626C696E 		.ascii	"blink\000"
  40      6B00
  41 0032 0000     		.align	2
  42              	.LC7:
  43 0034 696E7661 		.ascii	"invalid cmd type\000"
  43      6C696420 
  43      636D6420 
  43      74797065 
  43      00
  44              		.section	.text.LED_Test,"ax",%progbits
  45              		.align	1
  46              		.global	LED_Test
  47              		.syntax unified
ARM GAS  C:\Users\CL\AppData\Local\Temp\cc5UoLfW.s 			page 2


  48              		.thumb
  49              		.thumb_func
  51              	LED_Test:
  52              	.LVL0:
  53              	.LFB295:
  54              		.file 1 "Core/Src/main.c"
   1:Core/Src/main.c **** /* USER CODE BEGIN Header */
   2:Core/Src/main.c **** /**
   3:Core/Src/main.c ****   ******************************************************************************
   4:Core/Src/main.c ****   * @file           : main.c
   5:Core/Src/main.c ****   * @brief          : Main program body
   6:Core/Src/main.c ****   ******************************************************************************
   7:Core/Src/main.c ****   * @attention
   8:Core/Src/main.c ****   *
   9:Core/Src/main.c ****   * Copyright (c) 2023 STMicroelectronics.
  10:Core/Src/main.c ****   * All rights reserved.
  11:Core/Src/main.c ****   *
  12:Core/Src/main.c ****   * This software is licensed under terms that can be found in the LICENSE file
  13:Core/Src/main.c ****   * in the root directory of this software component.
  14:Core/Src/main.c ****   * If no LICENSE file comes with this software, it is provided AS-IS.
  15:Core/Src/main.c ****   *
  16:Core/Src/main.c ****   ******************************************************************************
  17:Core/Src/main.c ****   */
  18:Core/Src/main.c **** /* USER CODE END Header */
  19:Core/Src/main.c **** /* Includes ------------------------------------------------------------------*/
  20:Core/Src/main.c **** #include "main.h"
  21:Core/Src/main.c **** #include "led.h"
  22:Core/Src/main.c **** #include "adc.h"
  23:Core/Src/main.c **** #include "spi.h"
  24:Core/Src/main.c **** #include "usart.h"
  25:Core/Src/main.c **** #include "gpio.h"
  26:Core/Src/main.c **** 
  27:Core/Src/main.c **** /* Private includes ----------------------------------------------------------*/
  28:Core/Src/main.c **** /* USER CODE BEGIN Includes */
  29:Core/Src/main.c **** #include "shell_port.h"
  30:Core/Src/main.c **** #include <stdio.h>
  31:Core/Src/main.c **** #include <string.h>
  32:Core/Src/main.c **** #include <stdarg.h>
  33:Core/Src/main.c **** #include "rs485.h"
  34:Core/Src/main.c **** #include "W25QXX.h"
  35:Core/Src/main.c **** /* USER CODE END Includes */
  36:Core/Src/main.c **** 
  37:Core/Src/main.c **** /* Private typedef -----------------------------------------------------------*/
  38:Core/Src/main.c **** /* USER CODE BEGIN PTD */
  39:Core/Src/main.c **** 
  40:Core/Src/main.c **** /* USER CODE END PTD */
  41:Core/Src/main.c **** 
  42:Core/Src/main.c **** /* Private define ------------------------------------------------------------*/
  43:Core/Src/main.c **** /* USER CODE BEGIN PD */
  44:Core/Src/main.c **** /* USER CODE END PD */
  45:Core/Src/main.c **** 
  46:Core/Src/main.c **** /* Private macro -------------------------------------------------------------*/
  47:Core/Src/main.c **** /* USER CODE BEGIN PM */
  48:Core/Src/main.c **** 
  49:Core/Src/main.c **** /* USER CODE END PM */
  50:Core/Src/main.c **** 
  51:Core/Src/main.c **** /* Private variables ---------------------------------------------------------*/
ARM GAS  C:\Users\CL\AppData\Local\Temp\cc5UoLfW.s 			page 3


  52:Core/Src/main.c **** 
  53:Core/Src/main.c **** /* USER CODE BEGIN PV */
  54:Core/Src/main.c **** 
  55:Core/Src/main.c **** /* USER CODE END PV */
  56:Core/Src/main.c **** 
  57:Core/Src/main.c **** /* Private function prototypes -----------------------------------------------*/
  58:Core/Src/main.c **** void SystemClock_Config(void);
  59:Core/Src/main.c **** /* USER CODE BEGIN PFP */
  60:Core/Src/main.c **** 
  61:Core/Src/main.c **** /* USER CODE END PFP */
  62:Core/Src/main.c **** 
  63:Core/Src/main.c **** /* Private user code ---------------------------------------------------------*/
  64:Core/Src/main.c **** /* USER CODE BEGIN 0 */
  65:Core/Src/main.c **** 
  66:Core/Src/main.c **** /* USER CODE END 0 */
  67:Core/Src/main.c **** 
  68:Core/Src/main.c **** /**
  69:Core/Src/main.c ****   * @brief  The application entry point.
  70:Core/Src/main.c ****   * @retval int
  71:Core/Src/main.c ****   */
  72:Core/Src/main.c **** int main(void)
  73:Core/Src/main.c **** {
  74:Core/Src/main.c ****   /* USER CODE BEGIN 1 */
  75:Core/Src/main.c **** 
  76:Core/Src/main.c ****   /* USER CODE END 1 */
  77:Core/Src/main.c **** 
  78:Core/Src/main.c ****   /* MCU Configuration--------------------------------------------------------*/
  79:Core/Src/main.c **** 
  80:Core/Src/main.c ****   /* Reset of all peripherals, Initializes the Flash interface and the Systick. */
  81:Core/Src/main.c ****   HAL_Init();
  82:Core/Src/main.c **** 
  83:Core/Src/main.c ****   /* USER CODE BEGIN Init */
  84:Core/Src/main.c **** 
  85:Core/Src/main.c ****   /* USER CODE END Init */
  86:Core/Src/main.c **** 
  87:Core/Src/main.c ****   /* Configure the system clock */
  88:Core/Src/main.c ****   SystemClock_Config();
  89:Core/Src/main.c **** 
  90:Core/Src/main.c ****   /* USER CODE BEGIN SysInit */
  91:Core/Src/main.c **** 
  92:Core/Src/main.c ****   /* USER CODE END SysInit */
  93:Core/Src/main.c **** 
  94:Core/Src/main.c ****   /* Initialize all configured peripherals */
  95:Core/Src/main.c ****   MX_GPIO_Init();
  96:Core/Src/main.c ****   LED_Init(&dev_led[0]);
  97:Core/Src/main.c ****   LED_Init(&dev_led[1]);
  98:Core/Src/main.c ****   MX_ADC1_Init();
  99:Core/Src/main.c ****   MX_SPI2_Init();
 100:Core/Src/main.c ****   MX_SPI3_Init();
 101:Core/Src/main.c ****   MX_USART1_UART_Init();
 102:Core/Src/main.c ****   MX_USART2_UART_Init();
 103:Core/Src/main.c ****   MX_USART3_UART_Init();
 104:Core/Src/main.c ****   /* USER CODE BEGIN 2 */
 105:Core/Src/main.c ****   /* TODO:fix shell initialize */
 106:Core/Src/main.c ****   User_Shell_Init();
 107:Core/Src/main.c ****   BSP_W25Qx_Init();
 108:Core/Src/main.c ****   /* USER CODE END 2 */
ARM GAS  C:\Users\CL\AppData\Local\Temp\cc5UoLfW.s 			page 4


 109:Core/Src/main.c **** 
 110:Core/Src/main.c ****   /* Infinite loop */
 111:Core/Src/main.c ****   /* USER CODE BEGIN WHILE */
 112:Core/Src/main.c ****  
 113:Core/Src/main.c ****   while (1)
 114:Core/Src/main.c ****   {
 115:Core/Src/main.c ****    
 116:Core/Src/main.c ****     /* USER CODE END WHILE */
 117:Core/Src/main.c ****     /* ADC 电压监测接口测试*/
 118:Core/Src/main.c ****     /* LED 测试 */ 
 119:Core/Src/main.c ****     /* 亮度监测接口测试 */
 120:Core/Src/main.c ****     
 121:Core/Src/main.c ****     /* RS485接口测试 */
 122:Core/Src/main.c ****      /* Flash 接口测试 */
 123:Core/Src/main.c ****      /* LORA 1发送 LORA2 接收测试*/
 124:Core/Src/main.c ****      /* LORA2发送 LORA1 接收测试*/
 125:Core/Src/main.c ****      /* Cat-1 测试 */
 126:Core/Src/main.c ****      /* ETH 测试 */
 127:Core/Src/main.c ****      /* ATGM223D接口测试 */
 128:Core/Src/main.c ****      
 129:Core/Src/main.c ****      HAL_Delay(100);
 130:Core/Src/main.c ****     /* USER CODE BEGIN 3 */
 131:Core/Src/main.c ****   }
 132:Core/Src/main.c ****   /* USER CODE END 3 */
 133:Core/Src/main.c **** }
 134:Core/Src/main.c **** 
 135:Core/Src/main.c **** /**
 136:Core/Src/main.c ****   * @brief System Clock Configuration
 137:Core/Src/main.c ****   * @retval None
 138:Core/Src/main.c ****   */
 139:Core/Src/main.c **** void SystemClock_Config(void)
 140:Core/Src/main.c **** {
 141:Core/Src/main.c ****   RCC_OscInitTypeDef RCC_OscInitStruct = {0};
 142:Core/Src/main.c ****   RCC_ClkInitTypeDef RCC_ClkInitStruct = {0};
 143:Core/Src/main.c **** 
 144:Core/Src/main.c ****   /** Configure the main internal regulator output voltage
 145:Core/Src/main.c ****   */
 146:Core/Src/main.c ****   if (HAL_PWREx_ControlVoltageScaling(PWR_REGULATOR_VOLTAGE_SCALE1) != HAL_OK)
 147:Core/Src/main.c ****   {
 148:Core/Src/main.c ****     Error_Handler();
 149:Core/Src/main.c ****   }
 150:Core/Src/main.c ****   /** Initializes the RCC Oscillators according to the specified parameters
 151:Core/Src/main.c ****   * in the RCC_OscInitTypeDef structure.
 152:Core/Src/main.c ****   */
 153:Core/Src/main.c ****   RCC_OscInitStruct.OscillatorType = RCC_OSCILLATORTYPE_HSE;
 154:Core/Src/main.c ****   RCC_OscInitStruct.HSEState = RCC_HSE_ON;
 155:Core/Src/main.c ****   RCC_OscInitStruct.PLL.PLLState = RCC_PLL_ON;
 156:Core/Src/main.c ****   RCC_OscInitStruct.PLL.PLLSource = RCC_PLLSOURCE_HSE;
 157:Core/Src/main.c ****   RCC_OscInitStruct.PLL.PLLM = 1;
 158:Core/Src/main.c ****   RCC_OscInitStruct.PLL.PLLN = 20;
 159:Core/Src/main.c ****   RCC_OscInitStruct.PLL.PLLP = RCC_PLLP_DIV7;
 160:Core/Src/main.c ****   RCC_OscInitStruct.PLL.PLLQ = RCC_PLLQ_DIV2;
 161:Core/Src/main.c ****   RCC_OscInitStruct.PLL.PLLR = RCC_PLLR_DIV2;
 162:Core/Src/main.c ****   if (HAL_RCC_OscConfig(&RCC_OscInitStruct) != HAL_OK)
 163:Core/Src/main.c ****   {
 164:Core/Src/main.c ****     Error_Handler();
 165:Core/Src/main.c ****   }
ARM GAS  C:\Users\CL\AppData\Local\Temp\cc5UoLfW.s 			page 5


 166:Core/Src/main.c ****   /** Initializes the CPU, AHB and APB buses clocks
 167:Core/Src/main.c ****   */
 168:Core/Src/main.c ****   RCC_ClkInitStruct.ClockType = RCC_CLOCKTYPE_HCLK|RCC_CLOCKTYPE_SYSCLK
 169:Core/Src/main.c ****                               |RCC_CLOCKTYPE_PCLK1|RCC_CLOCKTYPE_PCLK2;
 170:Core/Src/main.c ****   RCC_ClkInitStruct.SYSCLKSource = RCC_SYSCLKSOURCE_PLLCLK;
 171:Core/Src/main.c ****   RCC_ClkInitStruct.AHBCLKDivider = RCC_SYSCLK_DIV1;
 172:Core/Src/main.c ****   RCC_ClkInitStruct.APB1CLKDivider = RCC_HCLK_DIV1;
 173:Core/Src/main.c ****   RCC_ClkInitStruct.APB2CLKDivider = RCC_HCLK_DIV1;
 174:Core/Src/main.c **** 
 175:Core/Src/main.c ****   if (HAL_RCC_ClockConfig(&RCC_ClkInitStruct, FLASH_LATENCY_4) != HAL_OK)
 176:Core/Src/main.c ****   {
 177:Core/Src/main.c ****     Error_Handler();
 178:Core/Src/main.c ****   }
 179:Core/Src/main.c **** }
 180:Core/Src/main.c **** 
 181:Core/Src/main.c **** /* USER CODE BEGIN 4 */
 182:Core/Src/main.c **** /**
 183:Core/Src/main.c ****  * @brief 
 184:Core/Src/main.c ****  * 
 185:Core/Src/main.c ****  * @param a 
 186:Core/Src/main.c ****  * @param b 
 187:Core/Src/main.c ****  * @param str 
 188:Core/Src/main.c ****  * @param val 
 189:Core/Src/main.c ****  */
 190:Core/Src/main.c **** void LDR_Value_Get(int a, char b, char *str,float val)
 191:Core/Src/main.c **** {   
 192:Core/Src/main.c ****     uint32_t ldr_adc_value = 0;
 193:Core/Src/main.c ****     ldr_adc_value = ADC_Average_Get(10,50);
 194:Core/Src/main.c ****     shellPrint(&shell,"LDR:%d, input int:%d, input char:%c, input str:%s, input float:%.4f \r\n",ld
 195:Core/Src/main.c **** }
 196:Core/Src/main.c **** 
 197:Core/Src/main.c **** /**
 198:Core/Src/main.c ****  * @brief 
 199:Core/Src/main.c ****  * 
 200:Core/Src/main.c ****  */
 201:Core/Src/main.c **** SHELL_EXPORT_CMD_AGENCY(
 202:Core/Src/main.c **** SHELL_CMD_PERMISSION(0)|SHELL_CMD_TYPE(SHELL_TYPE_CMD_FUNC)|SHELL_CMD_DISABLE_RETURN,
 203:Core/Src/main.c **** LDR_Get, LDR_Value_Get, get ldr value,p1,(char)p2,(char *)p3,SHELL_PARAM_FLOAT(p4));
 204:Core/Src/main.c **** 
 205:Core/Src/main.c **** /**
 206:Core/Src/main.c ****  * @brief 
 207:Core/Src/main.c ****  * 
 208:Core/Src/main.c ****  * @param name 
 209:Core/Src/main.c ****  * @param type 
 210:Core/Src/main.c ****  * @param ... 
 211:Core/Src/main.c ****  */
 212:Core/Src/main.c **** void LED_Test(char *name, char *type, ...){
  55              		.loc 1 212 43 view -0
  56              		.cfi_startproc
  57              		@ args = 4, pretend = 12, frame = 8
  58              		@ frame_needed = 0, uses_anonymous_args = 1
  59              		.loc 1 212 43 is_stmt 0 view .LVU1
  60 0000 0EB4     		push	{r1, r2, r3}
  61              	.LCFI0:
  62              		.cfi_def_cfa_offset 12
  63              		.cfi_offset 1, -12
  64              		.cfi_offset 2, -8
ARM GAS  C:\Users\CL\AppData\Local\Temp\cc5UoLfW.s 			page 6


  65              		.cfi_offset 3, -4
  66 0002 30B5     		push	{r4, r5, lr}
  67              	.LCFI1:
  68              		.cfi_def_cfa_offset 24
  69              		.cfi_offset 4, -24
  70              		.cfi_offset 5, -20
  71              		.cfi_offset 14, -16
  72 0004 82B0     		sub	sp, sp, #8
  73              	.LCFI2:
  74              		.cfi_def_cfa_offset 32
  75 0006 0446     		mov	r4, r0
  76 0008 059D     		ldr	r5, [sp, #20]
 213:Core/Src/main.c ****   LED_HandleTypeDef *test_led;
  77              		.loc 1 213 3 is_stmt 1 view .LVU2
 214:Core/Src/main.c ****   uint32_t gap = 0;
  78              		.loc 1 214 3 view .LVU3
  79              	.LVL1:
 215:Core/Src/main.c ****   uint8_t cycle = 0;
  80              		.loc 1 215 3 view .LVU4
 216:Core/Src/main.c **** 
 217:Core/Src/main.c ****   if(strcmp(name,"D6") == 0)
  81              		.loc 1 217 3 view .LVU5
  82              		.loc 1 217 6 is_stmt 0 view .LVU6
  83 000a 2349     		ldr	r1, .L15
  84 000c FFF7FEFF 		bl	strcmp
  85              	.LVL2:
  86              		.loc 1 217 5 view .LVU7
  87 0010 58B1     		cbz	r0, .L8
 218:Core/Src/main.c ****     test_led = &dev_led[0];
 219:Core/Src/main.c ****   else if((strcmp(name,"D7") == 0))
  88              		.loc 1 219 8 is_stmt 1 view .LVU8
  89              		.loc 1 219 12 is_stmt 0 view .LVU9
  90 0012 2249     		ldr	r1, .L15+4
  91 0014 2046     		mov	r0, r4
  92 0016 FFF7FEFF 		bl	strcmp
  93              	.LVL3:
  94              		.loc 1 219 10 view .LVU10
  95 001a 08B9     		cbnz	r0, .L11
 220:Core/Src/main.c ****     test_led = &dev_led[1];
  96              		.loc 1 220 14 view .LVU11
  97 001c 204C     		ldr	r4, .L15+8
  98              	.LVL4:
  99              		.loc 1 220 14 view .LVU12
 100 001e 05E0     		b	.L2
 101              	.LVL5:
 102              	.L11:
 221:Core/Src/main.c ****   else{
 222:Core/Src/main.c ****     shellPrint(&shell,"invalid led name");
 103              		.loc 1 222 5 is_stmt 1 view .LVU13
 104 0020 2049     		ldr	r1, .L15+12
 105 0022 2148     		ldr	r0, .L15+16
 106 0024 FFF7FEFF 		bl	shellPrint
 107              	.LVL6:
 223:Core/Src/main.c ****     return;
 108              		.loc 1 223 5 view .LVU14
 109 0028 24E0     		b	.L1
 110              	.L8:
ARM GAS  C:\Users\CL\AppData\Local\Temp\cc5UoLfW.s 			page 7


 218:Core/Src/main.c ****   else if((strcmp(name,"D7") == 0))
 111              		.loc 1 218 14 is_stmt 0 view .LVU15
 112 002a 204C     		ldr	r4, .L15+20
 113              	.LVL7:
 114              	.L2:
 224:Core/Src/main.c ****   }
 225:Core/Src/main.c **** 
 226:Core/Src/main.c ****   if(strcmp(type,"on") == 0)
 115              		.loc 1 226 3 is_stmt 1 view .LVU16
 116              		.loc 1 226 6 is_stmt 0 view .LVU17
 117 002c 2049     		ldr	r1, .L15+24
 118 002e 2846     		mov	r0, r5
 119 0030 FFF7FEFF 		bl	strcmp
 120              	.LVL8:
 121              		.loc 1 226 5 view .LVU18
 122 0034 D8B1     		cbz	r0, .L12
 227:Core/Src/main.c ****     LED_On(test_led);
 228:Core/Src/main.c ****   else if(strcmp(type,"off") == 0)
 123              		.loc 1 228 8 is_stmt 1 view .LVU19
 124              		.loc 1 228 11 is_stmt 0 view .LVU20
 125 0036 1F49     		ldr	r1, .L15+28
 126 0038 2846     		mov	r0, r5
 127 003a FFF7FEFF 		bl	strcmp
 128              	.LVL9:
 129              		.loc 1 228 10 view .LVU21
 130 003e F0B1     		cbz	r0, .L13
 229:Core/Src/main.c ****     LED_Off(test_led);
 230:Core/Src/main.c ****   else if(strcmp(type,"toggle") == 0)
 131              		.loc 1 230 8 is_stmt 1 view .LVU22
 132              		.loc 1 230 11 is_stmt 0 view .LVU23
 133 0040 1D49     		ldr	r1, .L15+32
 134 0042 2846     		mov	r0, r5
 135 0044 FFF7FEFF 		bl	strcmp
 136              	.LVL10:
 137              		.loc 1 230 10 view .LVU24
 138 0048 E8B1     		cbz	r0, .L14
 231:Core/Src/main.c ****     LED_Toggle(test_led);
 232:Core/Src/main.c ****   else if(strcmp(type,"blink") == 0)
 139              		.loc 1 232 8 is_stmt 1 view .LVU25
 140              		.loc 1 232 11 is_stmt 0 view .LVU26
 141 004a 1C49     		ldr	r1, .L15+36
 142 004c 2846     		mov	r0, r5
 143 004e FFF7FEFF 		bl	strcmp
 144              	.LVL11:
 145              		.loc 1 232 10 view .LVU27
 146 0052 E0B9     		cbnz	r0, .L7
 147              	.LBB4:
 233:Core/Src/main.c ****   {
 234:Core/Src/main.c ****     va_list p_args;
 148              		.loc 1 234 5 is_stmt 1 view .LVU28
 235:Core/Src/main.c ****     va_start(p_args,type);
 149              		.loc 1 235 5 view .LVU29
 150 0054 06AA     		add	r2, sp, #24
 151 0056 0192     		str	r2, [sp, #4]
 236:Core/Src/main.c ****     gap = va_arg(p_args,int);
 152              		.loc 1 236 5 view .LVU30
 153              		.loc 1 236 11 is_stmt 0 view .LVU31
ARM GAS  C:\Users\CL\AppData\Local\Temp\cc5UoLfW.s 			page 8


 154 0058 07AB     		add	r3, sp, #28
 155 005a 0193     		str	r3, [sp, #4]
 156              	.LVL12:
 237:Core/Src/main.c ****     cycle = va_arg(p_args,int);
 157              		.loc 1 237 5 is_stmt 1 view .LVU32
 158              		.loc 1 237 13 is_stmt 0 view .LVU33
 159 005c 08AB     		add	r3, sp, #32
 160 005e 0193     		str	r3, [sp, #4]
 161              	.LVL13:
 238:Core/Src/main.c ****     va_end(p_args);
 162              		.loc 1 238 5 is_stmt 1 view .LVU34
 239:Core/Src/main.c ****     LED_Blink(test_led, gap, cycle);
 163              		.loc 1 239 5 view .LVU35
 164 0060 9DF81C20 		ldrb	r2, [sp, #28]	@ zero_extendqisi2
 165 0064 0699     		ldr	r1, [sp, #24]
 166 0066 2046     		mov	r0, r4
 167 0068 FFF7FEFF 		bl	LED_Blink
 168              	.LVL14:
 169              		.loc 1 239 5 is_stmt 0 view .LVU36
 170              	.LBE4:
 171 006c 02E0     		b	.L1
 172              	.LVL15:
 173              	.L12:
 227:Core/Src/main.c ****   else if(strcmp(type,"off") == 0)
 174              		.loc 1 227 5 is_stmt 1 view .LVU37
 175 006e 2046     		mov	r0, r4
 176 0070 FFF7FEFF 		bl	LED_On
 177              	.LVL16:
 178              	.L1:
 240:Core/Src/main.c ****   }
 241:Core/Src/main.c ****   else{
 242:Core/Src/main.c ****     shellPrint(&shell,"invalid cmd type");
 243:Core/Src/main.c ****     return;
 244:Core/Src/main.c ****   }
 245:Core/Src/main.c **** }
 179              		.loc 1 245 1 is_stmt 0 view .LVU38
 180 0074 02B0     		add	sp, sp, #8
 181              	.LCFI3:
 182              		.cfi_remember_state
 183              		.cfi_def_cfa_offset 24
 184              		@ sp needed
 185 0076 BDE83040 		pop	{r4, r5, lr}
 186              	.LCFI4:
 187              		.cfi_restore 14
 188              		.cfi_restore 5
 189              		.cfi_restore 4
 190              		.cfi_def_cfa_offset 12
 191 007a 03B0     		add	sp, sp, #12
 192              	.LCFI5:
 193              		.cfi_restore 3
 194              		.cfi_restore 2
 195              		.cfi_restore 1
 196              		.cfi_def_cfa_offset 0
 197 007c 7047     		bx	lr
 198              	.LVL17:
 199              	.L13:
 200              	.LCFI6:
ARM GAS  C:\Users\CL\AppData\Local\Temp\cc5UoLfW.s 			page 9


 201              		.cfi_restore_state
 229:Core/Src/main.c ****   else if(strcmp(type,"toggle") == 0)
 202              		.loc 1 229 5 is_stmt 1 view .LVU39
 203 007e 2046     		mov	r0, r4
 204 0080 FFF7FEFF 		bl	LED_Off
 205              	.LVL18:
 206 0084 F6E7     		b	.L1
 207              	.L14:
 231:Core/Src/main.c ****   else if(strcmp(type,"blink") == 0)
 208              		.loc 1 231 5 view .LVU40
 209 0086 2046     		mov	r0, r4
 210 0088 FFF7FEFF 		bl	LED_Toggle
 211              	.LVL19:
 212 008c F2E7     		b	.L1
 213              	.L7:
 242:Core/Src/main.c ****     return;
 214              		.loc 1 242 5 view .LVU41
 215 008e 0C49     		ldr	r1, .L15+40
 216 0090 0548     		ldr	r0, .L15+16
 217 0092 FFF7FEFF 		bl	shellPrint
 218              	.LVL20:
 243:Core/Src/main.c ****   }
 219              		.loc 1 243 5 view .LVU42
 220 0096 EDE7     		b	.L1
 221              	.L16:
 222              		.align	2
 223              	.L15:
 224 0098 00000000 		.word	.LC0
 225 009c 04000000 		.word	.LC1
 226 00a0 08000000 		.word	dev_led+8
 227 00a4 08000000 		.word	.LC2
 228 00a8 00000000 		.word	shell
 229 00ac 00000000 		.word	dev_led
 230 00b0 1C000000 		.word	.LC3
 231 00b4 20000000 		.word	.LC4
 232 00b8 24000000 		.word	.LC5
 233 00bc 2C000000 		.word	.LC6
 234 00c0 34000000 		.word	.LC7
 235              		.cfi_endproc
 236              	.LFE295:
 238              		.section	.text.RS485_Test,"ax",%progbits
 239              		.align	1
 240              		.global	RS485_Test
 241              		.syntax unified
 242              		.thumb
 243              		.thumb_func
 245              	RS485_Test:
 246              	.LVL21:
 247              	.LFB298:
 246:Core/Src/main.c **** /**
 247:Core/Src/main.c ****  * @brief 
 248:Core/Src/main.c ****  * 
 249:Core/Src/main.c ****  */
 250:Core/Src/main.c **** SHELL_EXPORT_CMD(
 251:Core/Src/main.c **** SHELL_CMD_PERMISSION(0)|SHELL_CMD_TYPE(SHELL_TYPE_CMD_FUNC)|SHELL_CMD_DISABLE_RETURN,
 252:Core/Src/main.c **** led, LED_Test, test led func);
 253:Core/Src/main.c **** 
ARM GAS  C:\Users\CL\AppData\Local\Temp\cc5UoLfW.s 			page 10


 254:Core/Src/main.c **** /**
 255:Core/Src/main.c ****  * @brief 
 256:Core/Src/main.c ****  * 
 257:Core/Src/main.c ****  */
 258:Core/Src/main.c **** void Battery_Test(void)
 259:Core/Src/main.c **** {   
 260:Core/Src/main.c ****     float voltage = 0;
 261:Core/Src/main.c ****     voltage = (float)ADC_Average_Get(5,50)/4096 * 3.3 * 2;
 262:Core/Src/main.c ****     
 263:Core/Src/main.c ****     shellPrint(&shell,"voltage:%.2fv\r\n",voltage);
 264:Core/Src/main.c **** }
 265:Core/Src/main.c **** 
 266:Core/Src/main.c **** /**
 267:Core/Src/main.c ****  * @brief 
 268:Core/Src/main.c ****  * 
 269:Core/Src/main.c ****  */
 270:Core/Src/main.c **** SHELL_EXPORT_CMD_AGENCY(
 271:Core/Src/main.c **** SHELL_CMD_PERMISSION(0)|SHELL_CMD_TYPE(SHELL_TYPE_CMD_FUNC)|SHELL_CMD_DISABLE_RETURN,
 272:Core/Src/main.c **** battery, Battery_Test, get battery voltage value);
 273:Core/Src/main.c **** 
 274:Core/Src/main.c **** /**
 275:Core/Src/main.c ****  * @brief 
 276:Core/Src/main.c ****  * 
 277:Core/Src/main.c ****  * @param str 
 278:Core/Src/main.c ****  */
 279:Core/Src/main.c **** void RS485_Test(char *str)
 280:Core/Src/main.c **** {
 248              		.loc 1 280 1 view -0
 249              		.cfi_startproc
 250              		@ args = 0, pretend = 0, frame = 0
 251              		@ frame_needed = 0, uses_anonymous_args = 0
 252              		.loc 1 280 1 is_stmt 0 view .LVU44
 253 0000 10B5     		push	{r4, lr}
 254              	.LCFI7:
 255              		.cfi_def_cfa_offset 8
 256              		.cfi_offset 4, -8
 257              		.cfi_offset 14, -4
 258 0002 0446     		mov	r4, r0
 281:Core/Src/main.c ****   RS485_SendData(&dev_rs485[0], (uint8_t *)str, strlen(str));
 259              		.loc 1 281 3 is_stmt 1 view .LVU45
 260              		.loc 1 281 49 is_stmt 0 view .LVU46
 261 0004 FFF7FEFF 		bl	strlen
 262              	.LVL22:
 263              		.loc 1 281 3 view .LVU47
 264 0008 82B2     		uxth	r2, r0
 265 000a 2146     		mov	r1, r4
 266 000c 0148     		ldr	r0, .L19
 267 000e FFF7FEFF 		bl	RS485_SendData
 268              	.LVL23:
 282:Core/Src/main.c **** }
 269              		.loc 1 282 1 view .LVU48
 270 0012 10BD     		pop	{r4, pc}
 271              	.LVL24:
 272              	.L20:
 273              		.loc 1 282 1 view .LVU49
 274              		.align	2
 275              	.L19:
ARM GAS  C:\Users\CL\AppData\Local\Temp\cc5UoLfW.s 			page 11


 276 0014 00000000 		.word	dev_rs485
 277              		.cfi_endproc
 278              	.LFE298:
 280              		.global	__aeabi_i2d
 281              		.global	__aeabi_dmul
 282              		.global	__aeabi_d2uiz
 283              		.section	.rodata.Flash_Test.str1.4,"aMS",%progbits,1
 284              		.align	2
 285              	.LC9:
 286 0000 4D616E75 		.ascii	"Manu_ID:0x%02x,Dev_ID:0x%02x\015\012Manu_Identi:0x%"
 286      5F49443A 
 286      30782530 
 286      32782C44 
 286      65765F49 
 287 002d 3032782C 		.ascii	"02x,Memory_Type:0x%02x\015\012  Capacity:0x%02x = %"
 287      4D656D6F 
 287      72795F54 
 287      7970653A 
 287      30782530 
 288 005a 64204B2D 		.ascii	"d K-Bit = %.2fM-Bit\015\012\000"
 288      42697420 
 288      3D20252E 
 288      32664D2D 
 288      4269740D 
 289              		.global	__aeabi_f2d
 290              		.section	.text.Flash_Test,"ax",%progbits
 291              		.align	1
 292              		.global	Flash_Test
 293              		.syntax unified
 294              		.thumb
 295              		.thumb_func
 297              	Flash_Test:
 298              	.LFB299:
 283:Core/Src/main.c **** 
 284:Core/Src/main.c **** SHELL_EXPORT_CMD(
 285:Core/Src/main.c **** SHELL_CMD_PERMISSION(0)|SHELL_CMD_TYPE(SHELL_TYPE_CMD_FUNC)|SHELL_CMD_DISABLE_RETURN,
 286:Core/Src/main.c **** rs485_send, RS485_Test, rs485 send test);
 287:Core/Src/main.c **** 
 288:Core/Src/main.c **** /**
 289:Core/Src/main.c ****  * @brief 
 290:Core/Src/main.c ****  * 
 291:Core/Src/main.c ****  * @param str 
 292:Core/Src/main.c ****  */
 293:Core/Src/main.c **** void Flash_Test(void)
 294:Core/Src/main.c **** {
 299              		.loc 1 294 1 is_stmt 1 view -0
 300              		.cfi_startproc
 301              		@ args = 0, pretend = 0, frame = 8
 302              		@ frame_needed = 0, uses_anonymous_args = 0
 303 0000 2DE9F043 		push	{r4, r5, r6, r7, r8, r9, lr}
 304              	.LCFI8:
 305              		.cfi_def_cfa_offset 28
 306              		.cfi_offset 4, -28
 307              		.cfi_offset 5, -24
 308              		.cfi_offset 6, -20
 309              		.cfi_offset 7, -16
 310              		.cfi_offset 8, -12
ARM GAS  C:\Users\CL\AppData\Local\Temp\cc5UoLfW.s 			page 12


 311              		.cfi_offset 9, -8
 312              		.cfi_offset 14, -4
 313 0004 89B0     		sub	sp, sp, #36
 314              	.LCFI9:
 315              		.cfi_def_cfa_offset 64
 295:Core/Src/main.c ****   uint8_t flash_id[2] = {0x00,};
 316              		.loc 1 295 3 view .LVU51
 317              		.loc 1 295 11 is_stmt 0 view .LVU52
 318 0006 0023     		movs	r3, #0
 319 0008 ADF81C30 		strh	r3, [sp, #28]	@ movhi
 296:Core/Src/main.c ****   uint8_t JEDEC_id[3] = {0x00,};
 320              		.loc 1 296 3 is_stmt 1 view .LVU53
 321              		.loc 1 296 11 is_stmt 0 view .LVU54
 322 000c 264A     		ldr	r2, .L23+8
 323 000e 1288     		ldrh	r2, [r2]
 324 0010 ADF81820 		strh	r2, [sp, #24]	@ movhi
 325 0014 8DF81A30 		strb	r3, [sp, #26]
 297:Core/Src/main.c ****   uint32_t cap_kb = 0;
 326              		.loc 1 297 3 is_stmt 1 view .LVU55
 327              	.LVL25:
 298:Core/Src/main.c ****   float cap_mb = 0.0f;
 328              		.loc 1 298 3 view .LVU56
 299:Core/Src/main.c **** 
 300:Core/Src/main.c ****   BSP_W25Qx_Read_ID(flash_id);
 329              		.loc 1 300 3 view .LVU57
 330 0018 07A8     		add	r0, sp, #28
 331 001a FFF7FEFF 		bl	BSP_W25Qx_Read_ID
 332              	.LVL26:
 301:Core/Src/main.c ****   BSP_W25Qx_Read_JEDEC_ID(JEDEC_id);
 333              		.loc 1 301 3 view .LVU58
 334 001e 06A8     		add	r0, sp, #24
 335 0020 FFF7FEFF 		bl	BSP_W25Qx_Read_JEDEC_ID
 336              	.LVL27:
 302:Core/Src/main.c ****   cap_kb = pow(2 , (JEDEC_id[2] - 10)) *8 ;
 337              		.loc 1 302 3 view .LVU59
 338              		.loc 1 302 29 is_stmt 0 view .LVU60
 339 0024 9DF81A00 		ldrb	r0, [sp, #26]	@ zero_extendqisi2
 340              		.loc 1 302 12 view .LVU61
 341 0028 0A38     		subs	r0, r0, #10
 342 002a FFF7FEFF 		bl	__aeabi_i2d
 343              	.LVL28:
 344 002e 41EC110B 		vmov	d1, r0, r1
 345 0032 9FED1B0B 		vldr.64	d0, .L23
 346 0036 FFF7FEFF 		bl	pow
 347              	.LVL29:
 348 003a 51EC100B 		vmov	r0, r1, d0
 349              		.loc 1 302 40 view .LVU62
 350 003e 0022     		movs	r2, #0
 351 0040 1A4B     		ldr	r3, .L23+12
 352 0042 FFF7FEFF 		bl	__aeabi_dmul
 353              	.LVL30:
 354              		.loc 1 302 10 view .LVU63
 355 0046 FFF7FEFF 		bl	__aeabi_d2uiz
 356              	.LVL31:
 357 004a 0446     		mov	r4, r0
 358              	.LVL32:
 303:Core/Src/main.c ****   cap_mb = (float)cap_kb / 1024.0;
ARM GAS  C:\Users\CL\AppData\Local\Temp\cc5UoLfW.s 			page 13


 359              		.loc 1 303 3 is_stmt 1 view .LVU64
 360              		.loc 1 303 12 is_stmt 0 view .LVU65
 361 004c 07EE900A 		vmov	s15, r0	@ int
 362 0050 B8EE677A 		vcvt.f32.u32	s14, s15
 363              	.LVL33:
 304:Core/Src/main.c **** 
 305:Core/Src/main.c ****   shellPrint(&shell,"Manu_ID:0x%02x,Dev_ID:0x%02x\r\nManu_Identi:0x%02x,Memory_Type:0x%02x\r\n\
 364              		.loc 1 305 3 is_stmt 1 view .LVU66
 306:Core/Src/main.c ****   Capacity:0x%02x = %d K-Bit = %.2fM-Bit\r\n",flash_id[0],flash_id[1],JEDEC_id[0],JEDEC_id[1],JEDEC
 365              		.loc 1 306 55 is_stmt 0 view .LVU67
 366 0054 9DF81C50 		ldrb	r5, [sp, #28]	@ zero_extendqisi2
 367              		.loc 1 306 67 view .LVU68
 368 0058 9DF81D60 		ldrb	r6, [sp, #29]	@ zero_extendqisi2
 369              		.loc 1 306 79 view .LVU69
 370 005c 9DF81870 		ldrb	r7, [sp, #24]	@ zero_extendqisi2
 371              		.loc 1 306 91 view .LVU70
 372 0060 9DF81980 		ldrb	r8, [sp, #25]	@ zero_extendqisi2
 373              		.loc 1 306 103 view .LVU71
 374 0064 9DF81A90 		ldrb	r9, [sp, #26]	@ zero_extendqisi2
 305:Core/Src/main.c ****   Capacity:0x%02x = %d K-Bit = %.2fM-Bit\r\n",flash_id[0],flash_id[1],JEDEC_id[0],JEDEC_id[1],JEDEC
 375              		.loc 1 305 3 view .LVU72
 376 0068 DFED117A 		vldr.32	s15, .L23+16
 377 006c 67EE277A 		vmul.f32	s15, s14, s15
 378              	.LVL34:
 305:Core/Src/main.c ****   Capacity:0x%02x = %d K-Bit = %.2fM-Bit\r\n",flash_id[0],flash_id[1],JEDEC_id[0],JEDEC_id[1],JEDEC
 379              		.loc 1 305 3 view .LVU73
 380 0070 17EE900A 		vmov	r0, s15
 381              	.LVL35:
 305:Core/Src/main.c ****   Capacity:0x%02x = %d K-Bit = %.2fM-Bit\r\n",flash_id[0],flash_id[1],JEDEC_id[0],JEDEC_id[1],JEDEC
 382              		.loc 1 305 3 view .LVU74
 383 0074 FFF7FEFF 		bl	__aeabi_f2d
 384              	.LVL36:
 305:Core/Src/main.c ****   Capacity:0x%02x = %d K-Bit = %.2fM-Bit\r\n",flash_id[0],flash_id[1],JEDEC_id[0],JEDEC_id[1],JEDEC
 385              		.loc 1 305 3 view .LVU75
 386 0078 CDE90401 		strd	r0, [sp, #16]
 387 007c 0394     		str	r4, [sp, #12]
 388 007e CDF80890 		str	r9, [sp, #8]
 389 0082 CDF80480 		str	r8, [sp, #4]
 390 0086 0097     		str	r7, [sp]
 391 0088 3346     		mov	r3, r6
 392 008a 2A46     		mov	r2, r5
 393 008c 0949     		ldr	r1, .L23+20
 394 008e 0A48     		ldr	r0, .L23+24
 395 0090 FFF7FEFF 		bl	shellPrint
 396              	.LVL37:
 307:Core/Src/main.c **** }
 397              		.loc 1 307 1 view .LVU76
 398 0094 09B0     		add	sp, sp, #36
 399              	.LCFI10:
 400              		.cfi_def_cfa_offset 28
 401              		@ sp needed
 402 0096 BDE8F083 		pop	{r4, r5, r6, r7, r8, r9, pc}
 403              	.LVL38:
 404              	.L24:
 405              		.loc 1 307 1 view .LVU77
 406 009a 00BFAFF3 		.align	3
 406      0080
ARM GAS  C:\Users\CL\AppData\Local\Temp\cc5UoLfW.s 			page 14


 407              	.L23:
 408 00a0 00000000 		.word	0
 409 00a4 00000040 		.word	1073741824
 410 00a8 00000000 		.word	.LANCHOR0
 411 00ac 00002040 		.word	1075838976
 412 00b0 0000803A 		.word	981467136
 413 00b4 00000000 		.word	.LC9
 414 00b8 00000000 		.word	shell
 415              		.cfi_endproc
 416              	.LFE299:
 418              		.section	.rodata.LDR_Value_Get.str1.4,"aMS",%progbits,1
 419              		.align	2
 420              	.LC10:
 421 0000 4C44523A 		.ascii	"LDR:%d, input int:%d, input char:%c, input str:%s, "
 421      25642C20 
 421      696E7075 
 421      7420696E 
 421      743A2564 
 422 0033 696E7075 		.ascii	"input float:%.4f \015\012\000"
 422      7420666C 
 422      6F61743A 
 422      252E3466 
 422      200D0A00 
 423              		.section	.text.LDR_Value_Get,"ax",%progbits
 424              		.align	1
 425              		.global	LDR_Value_Get
 426              		.syntax unified
 427              		.thumb
 428              		.thumb_func
 430              	LDR_Value_Get:
 431              	.LVL39:
 432              	.LFB293:
 191:Core/Src/main.c ****     uint32_t ldr_adc_value = 0;
 433              		.loc 1 191 1 is_stmt 1 view -0
 434              		.cfi_startproc
 435              		@ args = 0, pretend = 0, frame = 0
 436              		@ frame_needed = 0, uses_anonymous_args = 0
 191:Core/Src/main.c ****     uint32_t ldr_adc_value = 0;
 437              		.loc 1 191 1 is_stmt 0 view .LVU79
 438 0000 2DE9F041 		push	{r4, r5, r6, r7, r8, lr}
 439              	.LCFI11:
 440              		.cfi_def_cfa_offset 24
 441              		.cfi_offset 4, -24
 442              		.cfi_offset 5, -20
 443              		.cfi_offset 6, -16
 444              		.cfi_offset 7, -12
 445              		.cfi_offset 8, -8
 446              		.cfi_offset 14, -4
 447 0004 84B0     		sub	sp, sp, #16
 448              	.LCFI12:
 449              		.cfi_def_cfa_offset 40
 450 0006 0546     		mov	r5, r0
 451 0008 0E46     		mov	r6, r1
 452 000a 1746     		mov	r7, r2
 453 000c 10EE108A 		vmov	r8, s0
 192:Core/Src/main.c ****     ldr_adc_value = ADC_Average_Get(10,50);
 454              		.loc 1 192 5 is_stmt 1 view .LVU80
ARM GAS  C:\Users\CL\AppData\Local\Temp\cc5UoLfW.s 			page 15


 455              	.LVL40:
 193:Core/Src/main.c ****     shellPrint(&shell,"LDR:%d, input int:%d, input char:%c, input str:%s, input float:%.4f \r\n",ld
 456              		.loc 1 193 5 view .LVU81
 193:Core/Src/main.c ****     shellPrint(&shell,"LDR:%d, input int:%d, input char:%c, input str:%s, input float:%.4f \r\n",ld
 457              		.loc 1 193 21 is_stmt 0 view .LVU82
 458 0010 3221     		movs	r1, #50
 459              	.LVL41:
 193:Core/Src/main.c ****     shellPrint(&shell,"LDR:%d, input int:%d, input char:%c, input str:%s, input float:%.4f \r\n",ld
 460              		.loc 1 193 21 view .LVU83
 461 0012 0A20     		movs	r0, #10
 462              	.LVL42:
 193:Core/Src/main.c ****     shellPrint(&shell,"LDR:%d, input int:%d, input char:%c, input str:%s, input float:%.4f \r\n",ld
 463              		.loc 1 193 21 view .LVU84
 464 0014 FFF7FEFF 		bl	ADC_Average_Get
 465              	.LVL43:
 193:Core/Src/main.c ****     shellPrint(&shell,"LDR:%d, input int:%d, input char:%c, input str:%s, input float:%.4f \r\n",ld
 466              		.loc 1 193 21 view .LVU85
 467 0018 0446     		mov	r4, r0
 468              	.LVL44:
 194:Core/Src/main.c **** }
 469              		.loc 1 194 5 is_stmt 1 view .LVU86
 470 001a 4046     		mov	r0, r8	@ float
 471              	.LVL45:
 194:Core/Src/main.c **** }
 472              		.loc 1 194 5 is_stmt 0 view .LVU87
 473 001c FFF7FEFF 		bl	__aeabi_f2d
 474              	.LVL46:
 475 0020 CDE90201 		strd	r0, [sp, #8]
 476 0024 0197     		str	r7, [sp, #4]
 477 0026 0096     		str	r6, [sp]
 478 0028 2B46     		mov	r3, r5
 479 002a 2246     		mov	r2, r4
 480 002c 0349     		ldr	r1, .L27
 481 002e 0448     		ldr	r0, .L27+4
 482 0030 FFF7FEFF 		bl	shellPrint
 483              	.LVL47:
 195:Core/Src/main.c **** 
 484              		.loc 1 195 1 view .LVU88
 485 0034 04B0     		add	sp, sp, #16
 486              	.LCFI13:
 487              		.cfi_def_cfa_offset 24
 488              		@ sp needed
 489 0036 BDE8F081 		pop	{r4, r5, r6, r7, r8, pc}
 490              	.LVL48:
 491              	.L28:
 195:Core/Src/main.c **** 
 492              		.loc 1 195 1 view .LVU89
 493 003a 00BF     		.align	2
 494              	.L27:
 495 003c 00000000 		.word	.LC10
 496 0040 00000000 		.word	shell
 497              		.cfi_endproc
 498              	.LFE293:
 500              		.section	.text.agencyLDR_Value_Get,"ax",%progbits
 501              		.align	1
 502              		.global	agencyLDR_Value_Get
 503              		.syntax unified
ARM GAS  C:\Users\CL\AppData\Local\Temp\cc5UoLfW.s 			page 16


 504              		.thumb
 505              		.thumb_func
 507              	agencyLDR_Value_Get:
 508              	.LVL49:
 509              	.LFB294:
 201:Core/Src/main.c **** SHELL_CMD_PERMISSION(0)|SHELL_CMD_TYPE(SHELL_TYPE_CMD_FUNC)|SHELL_CMD_DISABLE_RETURN,
 510              		.loc 1 201 1 is_stmt 1 view -0
 511              		.cfi_startproc
 512              		@ args = 12, pretend = 0, frame = 0
 513              		@ frame_needed = 0, uses_anonymous_args = 0
 201:Core/Src/main.c **** SHELL_CMD_PERMISSION(0)|SHELL_CMD_TYPE(SHELL_TYPE_CMD_FUNC)|SHELL_CMD_DISABLE_RETURN,
 514              		.loc 1 201 1 is_stmt 0 view .LVU91
 515 0000 08B5     		push	{r3, lr}
 516              	.LCFI14:
 517              		.cfi_def_cfa_offset 8
 518              		.cfi_offset 3, -8
 519              		.cfi_offset 14, -4
 201:Core/Src/main.c **** SHELL_CMD_PERMISSION(0)|SHELL_CMD_TYPE(SHELL_TYPE_CMD_FUNC)|SHELL_CMD_DISABLE_RETURN,
 520              		.loc 1 201 1 is_stmt 1 view .LVU92
 521 0002 00EE103A 		vmov	s0, r3
 522 0006 C9B2     		uxtb	r1, r1
 523              	.LVL50:
 201:Core/Src/main.c **** SHELL_CMD_PERMISSION(0)|SHELL_CMD_TYPE(SHELL_TYPE_CMD_FUNC)|SHELL_CMD_DISABLE_RETURN,
 524              		.loc 1 201 1 is_stmt 0 view .LVU93
 525 0008 FFF7FEFF 		bl	LDR_Value_Get
 526              	.LVL51:
 201:Core/Src/main.c **** SHELL_CMD_PERMISSION(0)|SHELL_CMD_TYPE(SHELL_TYPE_CMD_FUNC)|SHELL_CMD_DISABLE_RETURN,
 527              		.loc 1 201 1 view .LVU94
 528 000c 08BD     		pop	{r3, pc}
 201:Core/Src/main.c **** SHELL_CMD_PERMISSION(0)|SHELL_CMD_TYPE(SHELL_TYPE_CMD_FUNC)|SHELL_CMD_DISABLE_RETURN,
 529              		.loc 1 201 1 view .LVU95
 530              		.cfi_endproc
 531              	.LFE294:
 533              		.global	__aeabi_dadd
 534              		.global	__aeabi_d2f
 535              		.section	.rodata.Battery_Test.str1.4,"aMS",%progbits,1
 536              		.align	2
 537              	.LC11:
 538 0000 766F6C74 		.ascii	"voltage:%.2fv\015\012\000"
 538      6167653A 
 538      252E3266 
 538      760D0A00 
 539              		.section	.text.Battery_Test,"ax",%progbits
 540              		.align	1
 541              		.global	Battery_Test
 542              		.syntax unified
 543              		.thumb
 544              		.thumb_func
 546              	Battery_Test:
 547              	.LFB296:
 259:Core/Src/main.c ****     float voltage = 0;
 548              		.loc 1 259 1 is_stmt 1 view -0
 549              		.cfi_startproc
 550              		@ args = 0, pretend = 0, frame = 0
 551              		@ frame_needed = 0, uses_anonymous_args = 0
 552 0000 08B5     		push	{r3, lr}
 553              	.LCFI15:
ARM GAS  C:\Users\CL\AppData\Local\Temp\cc5UoLfW.s 			page 17


 554              		.cfi_def_cfa_offset 8
 555              		.cfi_offset 3, -8
 556              		.cfi_offset 14, -4
 260:Core/Src/main.c ****     voltage = (float)ADC_Average_Get(5,50)/4096 * 3.3 * 2;
 557              		.loc 1 260 5 view .LVU97
 558              	.LVL52:
 261:Core/Src/main.c ****     
 559              		.loc 1 261 5 view .LVU98
 261:Core/Src/main.c ****     
 560              		.loc 1 261 22 is_stmt 0 view .LVU99
 561 0002 3221     		movs	r1, #50
 562 0004 0520     		movs	r0, #5
 563 0006 FFF7FEFF 		bl	ADC_Average_Get
 564              	.LVL53:
 565 000a 07EE900A 		vmov	s15, r0	@ int
 261:Core/Src/main.c ****     
 566              		.loc 1 261 15 view .LVU100
 567 000e F8EE677A 		vcvt.f32.u32	s15, s15
 261:Core/Src/main.c ****     
 568              		.loc 1 261 43 view .LVU101
 569 0012 9FED117A 		vldr.32	s14, .L33+8
 570 0016 67EE877A 		vmul.f32	s15, s15, s14
 571 001a 17EE900A 		vmov	r0, s15
 572 001e FFF7FEFF 		bl	__aeabi_f2d
 573              	.LVL54:
 261:Core/Src/main.c ****     
 574              		.loc 1 261 49 view .LVU102
 575 0022 0BA3     		adr	r3, .L33
 576 0024 D3E90023 		ldrd	r2, [r3]
 577 0028 FFF7FEFF 		bl	__aeabi_dmul
 578              	.LVL55:
 579 002c 0246     		mov	r2, r0
 580 002e 0B46     		mov	r3, r1
 261:Core/Src/main.c ****     
 581              		.loc 1 261 55 view .LVU103
 582 0030 FFF7FEFF 		bl	__aeabi_dadd
 583              	.LVL56:
 261:Core/Src/main.c ****     
 584              		.loc 1 261 13 view .LVU104
 585 0034 FFF7FEFF 		bl	__aeabi_d2f
 586              	.LVL57:
 263:Core/Src/main.c **** }
 587              		.loc 1 263 5 is_stmt 1 view .LVU105
 588 0038 FFF7FEFF 		bl	__aeabi_f2d
 589              	.LVL58:
 263:Core/Src/main.c **** }
 590              		.loc 1 263 5 is_stmt 0 view .LVU106
 591 003c 0246     		mov	r2, r0
 592 003e 0B46     		mov	r3, r1
 593 0040 0649     		ldr	r1, .L33+12
 594 0042 0748     		ldr	r0, .L33+16
 595 0044 FFF7FEFF 		bl	shellPrint
 596              	.LVL59:
 264:Core/Src/main.c **** 
 597              		.loc 1 264 1 view .LVU107
 598 0048 08BD     		pop	{r3, pc}
 599              	.L34:
ARM GAS  C:\Users\CL\AppData\Local\Temp\cc5UoLfW.s 			page 18


 600 004a 00BFAFF3 		.align	3
 600      0080
 601              	.L33:
 602 0050 66666666 		.word	1717986918
 603 0054 66660A40 		.word	1074423398
 604 0058 00008039 		.word	964689920
 605 005c 00000000 		.word	.LC11
 606 0060 00000000 		.word	shell
 607              		.cfi_endproc
 608              	.LFE296:
 610              		.section	.text.agencyBattery_Test,"ax",%progbits
 611              		.align	1
 612              		.global	agencyBattery_Test
 613              		.syntax unified
 614              		.thumb
 615              		.thumb_func
 617              	agencyBattery_Test:
 618              	.LVL60:
 619              	.LFB297:
 270:Core/Src/main.c **** SHELL_CMD_PERMISSION(0)|SHELL_CMD_TYPE(SHELL_TYPE_CMD_FUNC)|SHELL_CMD_DISABLE_RETURN,
 620              		.loc 1 270 1 is_stmt 1 view -0
 621              		.cfi_startproc
 622              		@ args = 12, pretend = 0, frame = 0
 623              		@ frame_needed = 0, uses_anonymous_args = 0
 270:Core/Src/main.c **** SHELL_CMD_PERMISSION(0)|SHELL_CMD_TYPE(SHELL_TYPE_CMD_FUNC)|SHELL_CMD_DISABLE_RETURN,
 624              		.loc 1 270 1 is_stmt 0 view .LVU109
 625 0000 08B5     		push	{r3, lr}
 626              	.LCFI16:
 627              		.cfi_def_cfa_offset 8
 628              		.cfi_offset 3, -8
 629              		.cfi_offset 14, -4
 270:Core/Src/main.c **** SHELL_CMD_PERMISSION(0)|SHELL_CMD_TYPE(SHELL_TYPE_CMD_FUNC)|SHELL_CMD_DISABLE_RETURN,
 630              		.loc 1 270 1 is_stmt 1 view .LVU110
 631 0002 FFF7FEFF 		bl	Battery_Test
 632              	.LVL61:
 270:Core/Src/main.c **** SHELL_CMD_PERMISSION(0)|SHELL_CMD_TYPE(SHELL_TYPE_CMD_FUNC)|SHELL_CMD_DISABLE_RETURN,
 633              		.loc 1 270 1 is_stmt 0 view .LVU111
 634 0006 08BD     		pop	{r3, pc}
 270:Core/Src/main.c **** SHELL_CMD_PERMISSION(0)|SHELL_CMD_TYPE(SHELL_TYPE_CMD_FUNC)|SHELL_CMD_DISABLE_RETURN,
 635              		.loc 1 270 1 view .LVU112
 636              		.cfi_endproc
 637              	.LFE297:
 639              		.section	.text.Error_Handler,"ax",%progbits
 640              		.align	1
 641              		.global	Error_Handler
 642              		.syntax unified
 643              		.thumb
 644              		.thumb_func
 646              	Error_Handler:
 647              	.LFB300:
 308:Core/Src/main.c **** 
 309:Core/Src/main.c **** SHELL_EXPORT_CMD(
 310:Core/Src/main.c **** SHELL_CMD_PERMISSION(0)|SHELL_CMD_TYPE(SHELL_TYPE_CMD_FUNC)|SHELL_CMD_DISABLE_RETURN,
 311:Core/Src/main.c **** flash_test, Flash_Test, rs485 send test);
 312:Core/Src/main.c **** 
 313:Core/Src/main.c **** 
 314:Core/Src/main.c **** /* USER CODE END 4 */
ARM GAS  C:\Users\CL\AppData\Local\Temp\cc5UoLfW.s 			page 19


 315:Core/Src/main.c **** 
 316:Core/Src/main.c **** /**
 317:Core/Src/main.c ****   * @brief  This function is executed in case of error occurrence.
 318:Core/Src/main.c ****   * @retval None
 319:Core/Src/main.c ****   */
 320:Core/Src/main.c **** void Error_Handler(void)
 321:Core/Src/main.c **** {
 648              		.loc 1 321 1 is_stmt 1 view -0
 649              		.cfi_startproc
 650              		@ Volatile: function does not return.
 651              		@ args = 0, pretend = 0, frame = 0
 652              		@ frame_needed = 0, uses_anonymous_args = 0
 653              		@ link register save eliminated.
 322:Core/Src/main.c ****   /* USER CODE BEGIN Error_Handler_Debug */
 323:Core/Src/main.c ****   /* User can add his own implementation to report the HAL error return state */
 324:Core/Src/main.c ****   __disable_irq();
 654              		.loc 1 324 3 view .LVU114
 655              	.LBB5:
 656              	.LBI5:
 657              		.file 2 "Drivers/CMSIS/Include/cmsis_gcc.h"
   1:Drivers/CMSIS/Include/cmsis_gcc.h **** /**************************************************************************//**
   2:Drivers/CMSIS/Include/cmsis_gcc.h ****  * @file     cmsis_gcc.h
   3:Drivers/CMSIS/Include/cmsis_gcc.h ****  * @brief    CMSIS compiler GCC header file
   4:Drivers/CMSIS/Include/cmsis_gcc.h ****  * @version  V5.2.0
   5:Drivers/CMSIS/Include/cmsis_gcc.h ****  * @date     08. May 2019
   6:Drivers/CMSIS/Include/cmsis_gcc.h ****  ******************************************************************************/
   7:Drivers/CMSIS/Include/cmsis_gcc.h **** /*
   8:Drivers/CMSIS/Include/cmsis_gcc.h ****  * Copyright (c) 2009-2019 Arm Limited. All rights reserved.
   9:Drivers/CMSIS/Include/cmsis_gcc.h ****  *
  10:Drivers/CMSIS/Include/cmsis_gcc.h ****  * SPDX-License-Identifier: Apache-2.0
  11:Drivers/CMSIS/Include/cmsis_gcc.h ****  *
  12:Drivers/CMSIS/Include/cmsis_gcc.h ****  * Licensed under the Apache License, Version 2.0 (the License); you may
  13:Drivers/CMSIS/Include/cmsis_gcc.h ****  * not use this file except in compliance with the License.
  14:Drivers/CMSIS/Include/cmsis_gcc.h ****  * You may obtain a copy of the License at
  15:Drivers/CMSIS/Include/cmsis_gcc.h ****  *
  16:Drivers/CMSIS/Include/cmsis_gcc.h ****  * www.apache.org/licenses/LICENSE-2.0
  17:Drivers/CMSIS/Include/cmsis_gcc.h ****  *
  18:Drivers/CMSIS/Include/cmsis_gcc.h ****  * Unless required by applicable law or agreed to in writing, software
  19:Drivers/CMSIS/Include/cmsis_gcc.h ****  * distributed under the License is distributed on an AS IS BASIS, WITHOUT
  20:Drivers/CMSIS/Include/cmsis_gcc.h ****  * WARRANTIES OR CONDITIONS OF ANY KIND, either express or implied.
  21:Drivers/CMSIS/Include/cmsis_gcc.h ****  * See the License for the specific language governing permissions and
  22:Drivers/CMSIS/Include/cmsis_gcc.h ****  * limitations under the License.
  23:Drivers/CMSIS/Include/cmsis_gcc.h ****  */
  24:Drivers/CMSIS/Include/cmsis_gcc.h **** 
  25:Drivers/CMSIS/Include/cmsis_gcc.h **** #ifndef __CMSIS_GCC_H
  26:Drivers/CMSIS/Include/cmsis_gcc.h **** #define __CMSIS_GCC_H
  27:Drivers/CMSIS/Include/cmsis_gcc.h **** 
  28:Drivers/CMSIS/Include/cmsis_gcc.h **** /* ignore some GCC warnings */
  29:Drivers/CMSIS/Include/cmsis_gcc.h **** #pragma GCC diagnostic push
  30:Drivers/CMSIS/Include/cmsis_gcc.h **** #pragma GCC diagnostic ignored "-Wsign-conversion"
  31:Drivers/CMSIS/Include/cmsis_gcc.h **** #pragma GCC diagnostic ignored "-Wconversion"
  32:Drivers/CMSIS/Include/cmsis_gcc.h **** #pragma GCC diagnostic ignored "-Wunused-parameter"
  33:Drivers/CMSIS/Include/cmsis_gcc.h **** 
  34:Drivers/CMSIS/Include/cmsis_gcc.h **** /* Fallback for __has_builtin */
  35:Drivers/CMSIS/Include/cmsis_gcc.h **** #ifndef __has_builtin
  36:Drivers/CMSIS/Include/cmsis_gcc.h ****   #define __has_builtin(x) (0)
  37:Drivers/CMSIS/Include/cmsis_gcc.h **** #endif
ARM GAS  C:\Users\CL\AppData\Local\Temp\cc5UoLfW.s 			page 20


  38:Drivers/CMSIS/Include/cmsis_gcc.h **** 
  39:Drivers/CMSIS/Include/cmsis_gcc.h **** /* CMSIS compiler specific defines */
  40:Drivers/CMSIS/Include/cmsis_gcc.h **** #ifndef   __ASM
  41:Drivers/CMSIS/Include/cmsis_gcc.h ****   #define __ASM                                  __asm
  42:Drivers/CMSIS/Include/cmsis_gcc.h **** #endif
  43:Drivers/CMSIS/Include/cmsis_gcc.h **** #ifndef   __INLINE
  44:Drivers/CMSIS/Include/cmsis_gcc.h ****   #define __INLINE                               inline
  45:Drivers/CMSIS/Include/cmsis_gcc.h **** #endif
  46:Drivers/CMSIS/Include/cmsis_gcc.h **** #ifndef   __STATIC_INLINE
  47:Drivers/CMSIS/Include/cmsis_gcc.h ****   #define __STATIC_INLINE                        static inline
  48:Drivers/CMSIS/Include/cmsis_gcc.h **** #endif
  49:Drivers/CMSIS/Include/cmsis_gcc.h **** #ifndef   __STATIC_FORCEINLINE                 
  50:Drivers/CMSIS/Include/cmsis_gcc.h ****   #define __STATIC_FORCEINLINE                   __attribute__((always_inline)) static inline
  51:Drivers/CMSIS/Include/cmsis_gcc.h **** #endif                                           
  52:Drivers/CMSIS/Include/cmsis_gcc.h **** #ifndef   __NO_RETURN
  53:Drivers/CMSIS/Include/cmsis_gcc.h ****   #define __NO_RETURN                            __attribute__((__noreturn__))
  54:Drivers/CMSIS/Include/cmsis_gcc.h **** #endif
  55:Drivers/CMSIS/Include/cmsis_gcc.h **** #ifndef   __USED
  56:Drivers/CMSIS/Include/cmsis_gcc.h ****   #define __USED                                 __attribute__((used))
  57:Drivers/CMSIS/Include/cmsis_gcc.h **** #endif
  58:Drivers/CMSIS/Include/cmsis_gcc.h **** #ifndef   __WEAK
  59:Drivers/CMSIS/Include/cmsis_gcc.h ****   #define __WEAK                                 __attribute__((weak))
  60:Drivers/CMSIS/Include/cmsis_gcc.h **** #endif
  61:Drivers/CMSIS/Include/cmsis_gcc.h **** #ifndef   __PACKED
  62:Drivers/CMSIS/Include/cmsis_gcc.h ****   #define __PACKED                               __attribute__((packed, aligned(1)))
  63:Drivers/CMSIS/Include/cmsis_gcc.h **** #endif
  64:Drivers/CMSIS/Include/cmsis_gcc.h **** #ifndef   __PACKED_STRUCT
  65:Drivers/CMSIS/Include/cmsis_gcc.h ****   #define __PACKED_STRUCT                        struct __attribute__((packed, aligned(1)))
  66:Drivers/CMSIS/Include/cmsis_gcc.h **** #endif
  67:Drivers/CMSIS/Include/cmsis_gcc.h **** #ifndef   __PACKED_UNION
  68:Drivers/CMSIS/Include/cmsis_gcc.h ****   #define __PACKED_UNION                         union __attribute__((packed, aligned(1)))
  69:Drivers/CMSIS/Include/cmsis_gcc.h **** #endif
  70:Drivers/CMSIS/Include/cmsis_gcc.h **** #ifndef   __UNALIGNED_UINT32        /* deprecated */
  71:Drivers/CMSIS/Include/cmsis_gcc.h ****   #pragma GCC diagnostic push
  72:Drivers/CMSIS/Include/cmsis_gcc.h ****   #pragma GCC diagnostic ignored "-Wpacked"
  73:Drivers/CMSIS/Include/cmsis_gcc.h ****   #pragma GCC diagnostic ignored "-Wattributes"
  74:Drivers/CMSIS/Include/cmsis_gcc.h ****   struct __attribute__((packed)) T_UINT32 { uint32_t v; };
  75:Drivers/CMSIS/Include/cmsis_gcc.h ****   #pragma GCC diagnostic pop
  76:Drivers/CMSIS/Include/cmsis_gcc.h ****   #define __UNALIGNED_UINT32(x)                  (((struct T_UINT32 *)(x))->v)
  77:Drivers/CMSIS/Include/cmsis_gcc.h **** #endif
  78:Drivers/CMSIS/Include/cmsis_gcc.h **** #ifndef   __UNALIGNED_UINT16_WRITE
  79:Drivers/CMSIS/Include/cmsis_gcc.h ****   #pragma GCC diagnostic push
  80:Drivers/CMSIS/Include/cmsis_gcc.h ****   #pragma GCC diagnostic ignored "-Wpacked"
  81:Drivers/CMSIS/Include/cmsis_gcc.h ****   #pragma GCC diagnostic ignored "-Wattributes"
  82:Drivers/CMSIS/Include/cmsis_gcc.h ****   __PACKED_STRUCT T_UINT16_WRITE { uint16_t v; };
  83:Drivers/CMSIS/Include/cmsis_gcc.h ****   #pragma GCC diagnostic pop
  84:Drivers/CMSIS/Include/cmsis_gcc.h ****   #define __UNALIGNED_UINT16_WRITE(addr, val)    (void)((((struct T_UINT16_WRITE *)(void *)(addr))-
  85:Drivers/CMSIS/Include/cmsis_gcc.h **** #endif
  86:Drivers/CMSIS/Include/cmsis_gcc.h **** #ifndef   __UNALIGNED_UINT16_READ
  87:Drivers/CMSIS/Include/cmsis_gcc.h ****   #pragma GCC diagnostic push
  88:Drivers/CMSIS/Include/cmsis_gcc.h ****   #pragma GCC diagnostic ignored "-Wpacked"
  89:Drivers/CMSIS/Include/cmsis_gcc.h ****   #pragma GCC diagnostic ignored "-Wattributes"
  90:Drivers/CMSIS/Include/cmsis_gcc.h ****   __PACKED_STRUCT T_UINT16_READ { uint16_t v; };
  91:Drivers/CMSIS/Include/cmsis_gcc.h ****   #pragma GCC diagnostic pop
  92:Drivers/CMSIS/Include/cmsis_gcc.h ****   #define __UNALIGNED_UINT16_READ(addr)          (((const struct T_UINT16_READ *)(const void *)(add
  93:Drivers/CMSIS/Include/cmsis_gcc.h **** #endif
  94:Drivers/CMSIS/Include/cmsis_gcc.h **** #ifndef   __UNALIGNED_UINT32_WRITE
ARM GAS  C:\Users\CL\AppData\Local\Temp\cc5UoLfW.s 			page 21


  95:Drivers/CMSIS/Include/cmsis_gcc.h ****   #pragma GCC diagnostic push
  96:Drivers/CMSIS/Include/cmsis_gcc.h ****   #pragma GCC diagnostic ignored "-Wpacked"
  97:Drivers/CMSIS/Include/cmsis_gcc.h ****   #pragma GCC diagnostic ignored "-Wattributes"
  98:Drivers/CMSIS/Include/cmsis_gcc.h ****   __PACKED_STRUCT T_UINT32_WRITE { uint32_t v; };
  99:Drivers/CMSIS/Include/cmsis_gcc.h ****   #pragma GCC diagnostic pop
 100:Drivers/CMSIS/Include/cmsis_gcc.h ****   #define __UNALIGNED_UINT32_WRITE(addr, val)    (void)((((struct T_UINT32_WRITE *)(void *)(addr))-
 101:Drivers/CMSIS/Include/cmsis_gcc.h **** #endif
 102:Drivers/CMSIS/Include/cmsis_gcc.h **** #ifndef   __UNALIGNED_UINT32_READ
 103:Drivers/CMSIS/Include/cmsis_gcc.h ****   #pragma GCC diagnostic push
 104:Drivers/CMSIS/Include/cmsis_gcc.h ****   #pragma GCC diagnostic ignored "-Wpacked"
 105:Drivers/CMSIS/Include/cmsis_gcc.h ****   #pragma GCC diagnostic ignored "-Wattributes"
 106:Drivers/CMSIS/Include/cmsis_gcc.h ****   __PACKED_STRUCT T_UINT32_READ { uint32_t v; };
 107:Drivers/CMSIS/Include/cmsis_gcc.h ****   #pragma GCC diagnostic pop
 108:Drivers/CMSIS/Include/cmsis_gcc.h ****   #define __UNALIGNED_UINT32_READ(addr)          (((const struct T_UINT32_READ *)(const void *)(add
 109:Drivers/CMSIS/Include/cmsis_gcc.h **** #endif
 110:Drivers/CMSIS/Include/cmsis_gcc.h **** #ifndef   __ALIGNED
 111:Drivers/CMSIS/Include/cmsis_gcc.h ****   #define __ALIGNED(x)                           __attribute__((aligned(x)))
 112:Drivers/CMSIS/Include/cmsis_gcc.h **** #endif
 113:Drivers/CMSIS/Include/cmsis_gcc.h **** #ifndef   __RESTRICT
 114:Drivers/CMSIS/Include/cmsis_gcc.h ****   #define __RESTRICT                             __restrict
 115:Drivers/CMSIS/Include/cmsis_gcc.h **** #endif
 116:Drivers/CMSIS/Include/cmsis_gcc.h **** #ifndef   __COMPILER_BARRIER
 117:Drivers/CMSIS/Include/cmsis_gcc.h ****   #define __COMPILER_BARRIER()                   __ASM volatile("":::"memory")
 118:Drivers/CMSIS/Include/cmsis_gcc.h **** #endif
 119:Drivers/CMSIS/Include/cmsis_gcc.h **** 
 120:Drivers/CMSIS/Include/cmsis_gcc.h **** /* #########################  Startup and Lowlevel Init  ######################## */
 121:Drivers/CMSIS/Include/cmsis_gcc.h **** 
 122:Drivers/CMSIS/Include/cmsis_gcc.h **** #ifndef __PROGRAM_START
 123:Drivers/CMSIS/Include/cmsis_gcc.h **** 
 124:Drivers/CMSIS/Include/cmsis_gcc.h **** /**
 125:Drivers/CMSIS/Include/cmsis_gcc.h ****   \brief   Initializes data and bss sections
 126:Drivers/CMSIS/Include/cmsis_gcc.h ****   \details This default implementations initialized all data and additional bss
 127:Drivers/CMSIS/Include/cmsis_gcc.h ****            sections relying on .copy.table and .zero.table specified properly
 128:Drivers/CMSIS/Include/cmsis_gcc.h ****            in the used linker script.
 129:Drivers/CMSIS/Include/cmsis_gcc.h ****   
 130:Drivers/CMSIS/Include/cmsis_gcc.h ****  */
 131:Drivers/CMSIS/Include/cmsis_gcc.h **** __STATIC_FORCEINLINE __NO_RETURN void __cmsis_start(void)
 132:Drivers/CMSIS/Include/cmsis_gcc.h **** {
 133:Drivers/CMSIS/Include/cmsis_gcc.h ****   extern void _start(void) __NO_RETURN;
 134:Drivers/CMSIS/Include/cmsis_gcc.h ****   
 135:Drivers/CMSIS/Include/cmsis_gcc.h ****   typedef struct {
 136:Drivers/CMSIS/Include/cmsis_gcc.h ****     uint32_t const* src;
 137:Drivers/CMSIS/Include/cmsis_gcc.h ****     uint32_t* dest;
 138:Drivers/CMSIS/Include/cmsis_gcc.h ****     uint32_t  wlen;
 139:Drivers/CMSIS/Include/cmsis_gcc.h ****   } __copy_table_t;
 140:Drivers/CMSIS/Include/cmsis_gcc.h ****   
 141:Drivers/CMSIS/Include/cmsis_gcc.h ****   typedef struct {
 142:Drivers/CMSIS/Include/cmsis_gcc.h ****     uint32_t* dest;
 143:Drivers/CMSIS/Include/cmsis_gcc.h ****     uint32_t  wlen;
 144:Drivers/CMSIS/Include/cmsis_gcc.h ****   } __zero_table_t;
 145:Drivers/CMSIS/Include/cmsis_gcc.h ****   
 146:Drivers/CMSIS/Include/cmsis_gcc.h ****   extern const __copy_table_t __copy_table_start__;
 147:Drivers/CMSIS/Include/cmsis_gcc.h ****   extern const __copy_table_t __copy_table_end__;
 148:Drivers/CMSIS/Include/cmsis_gcc.h ****   extern const __zero_table_t __zero_table_start__;
 149:Drivers/CMSIS/Include/cmsis_gcc.h ****   extern const __zero_table_t __zero_table_end__;
 150:Drivers/CMSIS/Include/cmsis_gcc.h **** 
 151:Drivers/CMSIS/Include/cmsis_gcc.h ****   for (__copy_table_t const* pTable = &__copy_table_start__; pTable < &__copy_table_end__; ++pTable
ARM GAS  C:\Users\CL\AppData\Local\Temp\cc5UoLfW.s 			page 22


 152:Drivers/CMSIS/Include/cmsis_gcc.h ****     for(uint32_t i=0u; i<pTable->wlen; ++i) {
 153:Drivers/CMSIS/Include/cmsis_gcc.h ****       pTable->dest[i] = pTable->src[i];
 154:Drivers/CMSIS/Include/cmsis_gcc.h ****     }
 155:Drivers/CMSIS/Include/cmsis_gcc.h ****   }
 156:Drivers/CMSIS/Include/cmsis_gcc.h ****  
 157:Drivers/CMSIS/Include/cmsis_gcc.h ****   for (__zero_table_t const* pTable = &__zero_table_start__; pTable < &__zero_table_end__; ++pTable
 158:Drivers/CMSIS/Include/cmsis_gcc.h ****     for(uint32_t i=0u; i<pTable->wlen; ++i) {
 159:Drivers/CMSIS/Include/cmsis_gcc.h ****       pTable->dest[i] = 0u;
 160:Drivers/CMSIS/Include/cmsis_gcc.h ****     }
 161:Drivers/CMSIS/Include/cmsis_gcc.h ****   }
 162:Drivers/CMSIS/Include/cmsis_gcc.h ****  
 163:Drivers/CMSIS/Include/cmsis_gcc.h ****   _start();
 164:Drivers/CMSIS/Include/cmsis_gcc.h **** }
 165:Drivers/CMSIS/Include/cmsis_gcc.h ****   
 166:Drivers/CMSIS/Include/cmsis_gcc.h **** #define __PROGRAM_START           __cmsis_start
 167:Drivers/CMSIS/Include/cmsis_gcc.h **** #endif
 168:Drivers/CMSIS/Include/cmsis_gcc.h **** 
 169:Drivers/CMSIS/Include/cmsis_gcc.h **** #ifndef __INITIAL_SP
 170:Drivers/CMSIS/Include/cmsis_gcc.h **** #define __INITIAL_SP              __StackTop
 171:Drivers/CMSIS/Include/cmsis_gcc.h **** #endif
 172:Drivers/CMSIS/Include/cmsis_gcc.h **** 
 173:Drivers/CMSIS/Include/cmsis_gcc.h **** #ifndef __STACK_LIMIT
 174:Drivers/CMSIS/Include/cmsis_gcc.h **** #define __STACK_LIMIT             __StackLimit
 175:Drivers/CMSIS/Include/cmsis_gcc.h **** #endif
 176:Drivers/CMSIS/Include/cmsis_gcc.h **** 
 177:Drivers/CMSIS/Include/cmsis_gcc.h **** #ifndef __VECTOR_TABLE
 178:Drivers/CMSIS/Include/cmsis_gcc.h **** #define __VECTOR_TABLE            __Vectors
 179:Drivers/CMSIS/Include/cmsis_gcc.h **** #endif
 180:Drivers/CMSIS/Include/cmsis_gcc.h **** 
 181:Drivers/CMSIS/Include/cmsis_gcc.h **** #ifndef __VECTOR_TABLE_ATTRIBUTE
 182:Drivers/CMSIS/Include/cmsis_gcc.h **** #define __VECTOR_TABLE_ATTRIBUTE  __attribute((used, section(".vectors")))
 183:Drivers/CMSIS/Include/cmsis_gcc.h **** #endif
 184:Drivers/CMSIS/Include/cmsis_gcc.h **** 
 185:Drivers/CMSIS/Include/cmsis_gcc.h **** /* ###########################  Core Function Access  ########################### */
 186:Drivers/CMSIS/Include/cmsis_gcc.h **** /** \ingroup  CMSIS_Core_FunctionInterface
 187:Drivers/CMSIS/Include/cmsis_gcc.h ****     \defgroup CMSIS_Core_RegAccFunctions CMSIS Core Register Access Functions
 188:Drivers/CMSIS/Include/cmsis_gcc.h ****   @{
 189:Drivers/CMSIS/Include/cmsis_gcc.h ****  */
 190:Drivers/CMSIS/Include/cmsis_gcc.h **** 
 191:Drivers/CMSIS/Include/cmsis_gcc.h **** /**
 192:Drivers/CMSIS/Include/cmsis_gcc.h ****   \brief   Enable IRQ Interrupts
 193:Drivers/CMSIS/Include/cmsis_gcc.h ****   \details Enables IRQ interrupts by clearing the I-bit in the CPSR.
 194:Drivers/CMSIS/Include/cmsis_gcc.h ****            Can only be executed in Privileged modes.
 195:Drivers/CMSIS/Include/cmsis_gcc.h ****  */
 196:Drivers/CMSIS/Include/cmsis_gcc.h **** __STATIC_FORCEINLINE void __enable_irq(void)
 197:Drivers/CMSIS/Include/cmsis_gcc.h **** {
 198:Drivers/CMSIS/Include/cmsis_gcc.h ****   __ASM volatile ("cpsie i" : : : "memory");
 199:Drivers/CMSIS/Include/cmsis_gcc.h **** }
 200:Drivers/CMSIS/Include/cmsis_gcc.h **** 
 201:Drivers/CMSIS/Include/cmsis_gcc.h **** 
 202:Drivers/CMSIS/Include/cmsis_gcc.h **** /**
 203:Drivers/CMSIS/Include/cmsis_gcc.h ****   \brief   Disable IRQ Interrupts
 204:Drivers/CMSIS/Include/cmsis_gcc.h ****   \details Disables IRQ interrupts by setting the I-bit in the CPSR.
 205:Drivers/CMSIS/Include/cmsis_gcc.h ****            Can only be executed in Privileged modes.
 206:Drivers/CMSIS/Include/cmsis_gcc.h ****  */
 207:Drivers/CMSIS/Include/cmsis_gcc.h **** __STATIC_FORCEINLINE void __disable_irq(void)
 658              		.loc 2 207 27 view .LVU115
ARM GAS  C:\Users\CL\AppData\Local\Temp\cc5UoLfW.s 			page 23


 659              	.LBB6:
 208:Drivers/CMSIS/Include/cmsis_gcc.h **** {
 209:Drivers/CMSIS/Include/cmsis_gcc.h ****   __ASM volatile ("cpsid i" : : : "memory");
 660              		.loc 2 209 3 view .LVU116
 661              		.syntax unified
 662              	@ 209 "Drivers/CMSIS/Include/cmsis_gcc.h" 1
 663 0000 72B6     		cpsid i
 664              	@ 0 "" 2
 665              		.thumb
 666              		.syntax unified
 667              	.L38:
 668              	.LBE6:
 669              	.LBE5:
 325:Core/Src/main.c ****   while (1)
 670              		.loc 1 325 3 discriminator 1 view .LVU117
 326:Core/Src/main.c ****   {
 327:Core/Src/main.c ****   }
 671              		.loc 1 327 3 discriminator 1 view .LVU118
 325:Core/Src/main.c ****   while (1)
 672              		.loc 1 325 9 discriminator 1 view .LVU119
 673 0002 FEE7     		b	.L38
 674              		.cfi_endproc
 675              	.LFE300:
 677              		.section	.text.SystemClock_Config,"ax",%progbits
 678              		.align	1
 679              		.global	SystemClock_Config
 680              		.syntax unified
 681              		.thumb
 682              		.thumb_func
 684              	SystemClock_Config:
 685              	.LFB292:
 140:Core/Src/main.c ****   RCC_OscInitTypeDef RCC_OscInitStruct = {0};
 686              		.loc 1 140 1 view -0
 687              		.cfi_startproc
 688              		@ args = 0, pretend = 0, frame = 88
 689              		@ frame_needed = 0, uses_anonymous_args = 0
 690 0000 00B5     		push	{lr}
 691              	.LCFI17:
 692              		.cfi_def_cfa_offset 4
 693              		.cfi_offset 14, -4
 694 0002 97B0     		sub	sp, sp, #92
 695              	.LCFI18:
 696              		.cfi_def_cfa_offset 96
 141:Core/Src/main.c ****   RCC_ClkInitTypeDef RCC_ClkInitStruct = {0};
 697              		.loc 1 141 3 view .LVU121
 141:Core/Src/main.c ****   RCC_ClkInitTypeDef RCC_ClkInitStruct = {0};
 698              		.loc 1 141 22 is_stmt 0 view .LVU122
 699 0004 4422     		movs	r2, #68
 700 0006 0021     		movs	r1, #0
 701 0008 05A8     		add	r0, sp, #20
 702 000a FFF7FEFF 		bl	memset
 703              	.LVL62:
 142:Core/Src/main.c **** 
 704              		.loc 1 142 3 is_stmt 1 view .LVU123
 142:Core/Src/main.c **** 
 705              		.loc 1 142 22 is_stmt 0 view .LVU124
 706 000e 0023     		movs	r3, #0
ARM GAS  C:\Users\CL\AppData\Local\Temp\cc5UoLfW.s 			page 24


 707 0010 0093     		str	r3, [sp]
 708 0012 0193     		str	r3, [sp, #4]
 709 0014 0293     		str	r3, [sp, #8]
 710 0016 0393     		str	r3, [sp, #12]
 711 0018 0493     		str	r3, [sp, #16]
 146:Core/Src/main.c ****   {
 712              		.loc 1 146 3 is_stmt 1 view .LVU125
 146:Core/Src/main.c ****   {
 713              		.loc 1 146 7 is_stmt 0 view .LVU126
 714 001a 4FF40070 		mov	r0, #512
 715 001e FFF7FEFF 		bl	HAL_PWREx_ControlVoltageScaling
 716              	.LVL63:
 146:Core/Src/main.c ****   {
 717              		.loc 1 146 6 view .LVU127
 718 0022 18BB     		cbnz	r0, .L44
 153:Core/Src/main.c ****   RCC_OscInitStruct.HSEState = RCC_HSE_ON;
 719              		.loc 1 153 3 is_stmt 1 view .LVU128
 153:Core/Src/main.c ****   RCC_OscInitStruct.HSEState = RCC_HSE_ON;
 720              		.loc 1 153 36 is_stmt 0 view .LVU129
 721 0024 0122     		movs	r2, #1
 722 0026 0592     		str	r2, [sp, #20]
 154:Core/Src/main.c ****   RCC_OscInitStruct.PLL.PLLState = RCC_PLL_ON;
 723              		.loc 1 154 3 is_stmt 1 view .LVU130
 154:Core/Src/main.c ****   RCC_OscInitStruct.PLL.PLLState = RCC_PLL_ON;
 724              		.loc 1 154 30 is_stmt 0 view .LVU131
 725 0028 4FF48033 		mov	r3, #65536
 726 002c 0693     		str	r3, [sp, #24]
 155:Core/Src/main.c ****   RCC_OscInitStruct.PLL.PLLSource = RCC_PLLSOURCE_HSE;
 727              		.loc 1 155 3 is_stmt 1 view .LVU132
 155:Core/Src/main.c ****   RCC_OscInitStruct.PLL.PLLSource = RCC_PLLSOURCE_HSE;
 728              		.loc 1 155 34 is_stmt 0 view .LVU133
 729 002e 0223     		movs	r3, #2
 730 0030 0F93     		str	r3, [sp, #60]
 156:Core/Src/main.c ****   RCC_OscInitStruct.PLL.PLLM = 1;
 731              		.loc 1 156 3 is_stmt 1 view .LVU134
 156:Core/Src/main.c ****   RCC_OscInitStruct.PLL.PLLM = 1;
 732              		.loc 1 156 35 is_stmt 0 view .LVU135
 733 0032 0321     		movs	r1, #3
 734 0034 1091     		str	r1, [sp, #64]
 157:Core/Src/main.c ****   RCC_OscInitStruct.PLL.PLLN = 20;
 735              		.loc 1 157 3 is_stmt 1 view .LVU136
 157:Core/Src/main.c ****   RCC_OscInitStruct.PLL.PLLN = 20;
 736              		.loc 1 157 30 is_stmt 0 view .LVU137
 737 0036 1192     		str	r2, [sp, #68]
 158:Core/Src/main.c ****   RCC_OscInitStruct.PLL.PLLP = RCC_PLLP_DIV7;
 738              		.loc 1 158 3 is_stmt 1 view .LVU138
 158:Core/Src/main.c ****   RCC_OscInitStruct.PLL.PLLP = RCC_PLLP_DIV7;
 739              		.loc 1 158 30 is_stmt 0 view .LVU139
 740 0038 1422     		movs	r2, #20
 741 003a 1292     		str	r2, [sp, #72]
 159:Core/Src/main.c ****   RCC_OscInitStruct.PLL.PLLQ = RCC_PLLQ_DIV2;
 742              		.loc 1 159 3 is_stmt 1 view .LVU140
 159:Core/Src/main.c ****   RCC_OscInitStruct.PLL.PLLQ = RCC_PLLQ_DIV2;
 743              		.loc 1 159 30 is_stmt 0 view .LVU141
 744 003c 0722     		movs	r2, #7
 745 003e 1392     		str	r2, [sp, #76]
 160:Core/Src/main.c ****   RCC_OscInitStruct.PLL.PLLR = RCC_PLLR_DIV2;
ARM GAS  C:\Users\CL\AppData\Local\Temp\cc5UoLfW.s 			page 25


 746              		.loc 1 160 3 is_stmt 1 view .LVU142
 160:Core/Src/main.c ****   RCC_OscInitStruct.PLL.PLLR = RCC_PLLR_DIV2;
 747              		.loc 1 160 30 is_stmt 0 view .LVU143
 748 0040 1493     		str	r3, [sp, #80]
 161:Core/Src/main.c ****   if (HAL_RCC_OscConfig(&RCC_OscInitStruct) != HAL_OK)
 749              		.loc 1 161 3 is_stmt 1 view .LVU144
 161:Core/Src/main.c ****   if (HAL_RCC_OscConfig(&RCC_OscInitStruct) != HAL_OK)
 750              		.loc 1 161 30 is_stmt 0 view .LVU145
 751 0042 1593     		str	r3, [sp, #84]
 162:Core/Src/main.c ****   {
 752              		.loc 1 162 3 is_stmt 1 view .LVU146
 162:Core/Src/main.c ****   {
 753              		.loc 1 162 7 is_stmt 0 view .LVU147
 754 0044 05A8     		add	r0, sp, #20
 755 0046 FFF7FEFF 		bl	HAL_RCC_OscConfig
 756              	.LVL64:
 162:Core/Src/main.c ****   {
 757              		.loc 1 162 6 view .LVU148
 758 004a 88B9     		cbnz	r0, .L45
 168:Core/Src/main.c ****                               |RCC_CLOCKTYPE_PCLK1|RCC_CLOCKTYPE_PCLK2;
 759              		.loc 1 168 3 is_stmt 1 view .LVU149
 168:Core/Src/main.c ****                               |RCC_CLOCKTYPE_PCLK1|RCC_CLOCKTYPE_PCLK2;
 760              		.loc 1 168 31 is_stmt 0 view .LVU150
 761 004c 0F23     		movs	r3, #15
 762 004e 0093     		str	r3, [sp]
 170:Core/Src/main.c ****   RCC_ClkInitStruct.AHBCLKDivider = RCC_SYSCLK_DIV1;
 763              		.loc 1 170 3 is_stmt 1 view .LVU151
 170:Core/Src/main.c ****   RCC_ClkInitStruct.AHBCLKDivider = RCC_SYSCLK_DIV1;
 764              		.loc 1 170 34 is_stmt 0 view .LVU152
 765 0050 0323     		movs	r3, #3
 766 0052 0193     		str	r3, [sp, #4]
 171:Core/Src/main.c ****   RCC_ClkInitStruct.APB1CLKDivider = RCC_HCLK_DIV1;
 767              		.loc 1 171 3 is_stmt 1 view .LVU153
 171:Core/Src/main.c ****   RCC_ClkInitStruct.APB1CLKDivider = RCC_HCLK_DIV1;
 768              		.loc 1 171 35 is_stmt 0 view .LVU154
 769 0054 0023     		movs	r3, #0
 770 0056 0293     		str	r3, [sp, #8]
 172:Core/Src/main.c ****   RCC_ClkInitStruct.APB2CLKDivider = RCC_HCLK_DIV1;
 771              		.loc 1 172 3 is_stmt 1 view .LVU155
 172:Core/Src/main.c ****   RCC_ClkInitStruct.APB2CLKDivider = RCC_HCLK_DIV1;
 772              		.loc 1 172 36 is_stmt 0 view .LVU156
 773 0058 0393     		str	r3, [sp, #12]
 173:Core/Src/main.c **** 
 774              		.loc 1 173 3 is_stmt 1 view .LVU157
 173:Core/Src/main.c **** 
 775              		.loc 1 173 36 is_stmt 0 view .LVU158
 776 005a 0493     		str	r3, [sp, #16]
 175:Core/Src/main.c ****   {
 777              		.loc 1 175 3 is_stmt 1 view .LVU159
 175:Core/Src/main.c ****   {
 778              		.loc 1 175 7 is_stmt 0 view .LVU160
 779 005c 0421     		movs	r1, #4
 780 005e 6846     		mov	r0, sp
 781 0060 FFF7FEFF 		bl	HAL_RCC_ClockConfig
 782              	.LVL65:
 175:Core/Src/main.c ****   {
 783              		.loc 1 175 6 view .LVU161
ARM GAS  C:\Users\CL\AppData\Local\Temp\cc5UoLfW.s 			page 26


 784 0064 30B9     		cbnz	r0, .L46
 179:Core/Src/main.c **** 
 785              		.loc 1 179 1 view .LVU162
 786 0066 17B0     		add	sp, sp, #92
 787              	.LCFI19:
 788              		.cfi_remember_state
 789              		.cfi_def_cfa_offset 4
 790              		@ sp needed
 791 0068 5DF804FB 		ldr	pc, [sp], #4
 792              	.L44:
 793              	.LCFI20:
 794              		.cfi_restore_state
 148:Core/Src/main.c ****   }
 795              		.loc 1 148 5 is_stmt 1 view .LVU163
 796 006c FFF7FEFF 		bl	Error_Handler
 797              	.LVL66:
 798              	.L45:
 164:Core/Src/main.c ****   }
 799              		.loc 1 164 5 view .LVU164
 800 0070 FFF7FEFF 		bl	Error_Handler
 801              	.LVL67:
 802              	.L46:
 177:Core/Src/main.c ****   }
 803              		.loc 1 177 5 view .LVU165
 804 0074 FFF7FEFF 		bl	Error_Handler
 805              	.LVL68:
 806              		.cfi_endproc
 807              	.LFE292:
 809              		.section	.text.main,"ax",%progbits
 810              		.align	1
 811              		.global	main
 812              		.syntax unified
 813              		.thumb
 814              		.thumb_func
 816              	main:
 817              	.LFB291:
  73:Core/Src/main.c ****   /* USER CODE BEGIN 1 */
 818              		.loc 1 73 1 view -0
 819              		.cfi_startproc
 820              		@ Volatile: function does not return.
 821              		@ args = 0, pretend = 0, frame = 0
 822              		@ frame_needed = 0, uses_anonymous_args = 0
 823 0000 08B5     		push	{r3, lr}
 824              	.LCFI21:
 825              		.cfi_def_cfa_offset 8
 826              		.cfi_offset 3, -8
 827              		.cfi_offset 14, -4
  81:Core/Src/main.c **** 
 828              		.loc 1 81 3 view .LVU167
 829 0002 FFF7FEFF 		bl	HAL_Init
 830              	.LVL69:
  88:Core/Src/main.c **** 
 831              		.loc 1 88 3 view .LVU168
 832 0006 FFF7FEFF 		bl	SystemClock_Config
 833              	.LVL70:
  95:Core/Src/main.c ****   LED_Init(&dev_led[0]);
 834              		.loc 1 95 3 view .LVU169
ARM GAS  C:\Users\CL\AppData\Local\Temp\cc5UoLfW.s 			page 27


 835 000a FFF7FEFF 		bl	MX_GPIO_Init
 836              	.LVL71:
  96:Core/Src/main.c ****   LED_Init(&dev_led[1]);
 837              		.loc 1 96 3 view .LVU170
 838 000e 0E4C     		ldr	r4, .L50
 839 0010 2046     		mov	r0, r4
 840 0012 FFF7FEFF 		bl	LED_Init
 841              	.LVL72:
  97:Core/Src/main.c ****   MX_ADC1_Init();
 842              		.loc 1 97 3 view .LVU171
 843 0016 04F10800 		add	r0, r4, #8
 844 001a FFF7FEFF 		bl	LED_Init
 845              	.LVL73:
  98:Core/Src/main.c ****   MX_SPI2_Init();
 846              		.loc 1 98 3 view .LVU172
 847 001e FFF7FEFF 		bl	MX_ADC1_Init
 848              	.LVL74:
  99:Core/Src/main.c ****   MX_SPI3_Init();
 849              		.loc 1 99 3 view .LVU173
 850 0022 FFF7FEFF 		bl	MX_SPI2_Init
 851              	.LVL75:
 100:Core/Src/main.c ****   MX_USART1_UART_Init();
 852              		.loc 1 100 3 view .LVU174
 853 0026 FFF7FEFF 		bl	MX_SPI3_Init
 854              	.LVL76:
 101:Core/Src/main.c ****   MX_USART2_UART_Init();
 855              		.loc 1 101 3 view .LVU175
 856 002a FFF7FEFF 		bl	MX_USART1_UART_Init
 857              	.LVL77:
 102:Core/Src/main.c ****   MX_USART3_UART_Init();
 858              		.loc 1 102 3 view .LVU176
 859 002e FFF7FEFF 		bl	MX_USART2_UART_Init
 860              	.LVL78:
 103:Core/Src/main.c ****   /* USER CODE BEGIN 2 */
 861              		.loc 1 103 3 view .LVU177
 862 0032 FFF7FEFF 		bl	MX_USART3_UART_Init
 863              	.LVL79:
 106:Core/Src/main.c ****   BSP_W25Qx_Init();
 864              		.loc 1 106 3 view .LVU178
 865 0036 FFF7FEFF 		bl	User_Shell_Init
 866              	.LVL80:
 107:Core/Src/main.c ****   /* USER CODE END 2 */
 867              		.loc 1 107 3 view .LVU179
 868 003a FFF7FEFF 		bl	BSP_W25Qx_Init
 869              	.LVL81:
 870              	.L48:
 113:Core/Src/main.c ****   {
 871              		.loc 1 113 3 discriminator 1 view .LVU180
 129:Core/Src/main.c ****     /* USER CODE BEGIN 3 */
 872              		.loc 1 129 6 discriminator 1 view .LVU181
 873 003e 6420     		movs	r0, #100
 874 0040 FFF7FEFF 		bl	HAL_Delay
 875              	.LVL82:
 113:Core/Src/main.c ****   {
 876              		.loc 1 113 9 discriminator 1 view .LVU182
 877 0044 FBE7     		b	.L48
 878              	.L51:
ARM GAS  C:\Users\CL\AppData\Local\Temp\cc5UoLfW.s 			page 28


 879 0046 00BF     		.align	2
 880              	.L50:
 881 0048 00000000 		.word	dev_led
 882              		.cfi_endproc
 883              	.LFE291:
 885              		.global	shellCommandflash_test
 886              		.global	shellDescflash_test
 887              		.global	shellCmdflash_test
 888              		.global	shellCommandrs485_send
 889              		.global	shellDescrs485_send
 890              		.global	shellCmdrs485_send
 891              		.global	shellCommandbattery
 892              		.global	shellDescbattery
 893              		.global	shellCmdbattery
 894              		.global	shellCommandled
 895              		.global	shellDescled
 896              		.global	shellCmdled
 897              		.global	shellCommandLDR_Get
 898              		.global	shellDescLDR_Get
 899              		.global	shellCmdLDR_Get
 900              		.section	.rodata
 901              		.align	2
 902              		.set	.LANCHOR0,. + 0
 903              	.LC8:
 904 0000 0000     		.ascii	"\000\000"
 905 0002 00       		.space	1
 906              		.section	.rodata.shellCmdLDR_Get,"a"
 907              		.align	2
 910              	shellCmdLDR_Get:
 911 0000 4C44525F 		.ascii	"LDR_Get\000"
 911      47657400 
 912              		.section	.rodata.shellCmdbattery,"a"
 913              		.align	2
 916              	shellCmdbattery:
 917 0000 62617474 		.ascii	"battery\000"
 917      65727900 
 918              		.section	.rodata.shellCmdflash_test,"a"
 919              		.align	2
 922              	shellCmdflash_test:
 923 0000 666C6173 		.ascii	"flash_test\000"
 923      685F7465 
 923      737400
 924              		.section	.rodata.shellCmdled,"a"
 925              		.align	2
 928              	shellCmdled:
 929 0000 6C656400 		.ascii	"led\000"
 930              		.section	.rodata.shellCmdrs485_send,"a"
 931              		.align	2
 934              	shellCmdrs485_send:
 935 0000 72733438 		.ascii	"rs485_send\000"
 935      355F7365 
 935      6E6400
 936              		.section	.rodata.shellDescLDR_Get,"a"
 937              		.align	2
 940              	shellDescLDR_Get:
 941 0000 67657420 		.ascii	"get ldr value\000"
 941      6C647220 
ARM GAS  C:\Users\CL\AppData\Local\Temp\cc5UoLfW.s 			page 29


 941      76616C75 
 941      6500
 942              		.section	.rodata.shellDescbattery,"a"
 943              		.align	2
 946              	shellDescbattery:
 947 0000 67657420 		.ascii	"get battery voltage value\000"
 947      62617474 
 947      65727920 
 947      766F6C74 
 947      61676520 
 948              		.section	.rodata.shellDescflash_test,"a"
 949              		.align	2
 952              	shellDescflash_test:
 953 0000 72733438 		.ascii	"rs485 send test\000"
 953      35207365 
 953      6E642074 
 953      65737400 
 954              		.section	.rodata.shellDescled,"a"
 955              		.align	2
 958              	shellDescled:
 959 0000 74657374 		.ascii	"test led func\000"
 959      206C6564 
 959      2066756E 
 959      6300
 960              		.section	.rodata.shellDescrs485_send,"a"
 961              		.align	2
 964              	shellDescrs485_send:
 965 0000 72733438 		.ascii	"rs485 send test\000"
 965      35207365 
 965      6E642074 
 965      65737400 
 966              		.section	shellCommand,"a"
 969              	shellCommandflash_test:
 970 0000 00210000 		.4byte	8448
 971 0004 00000000 		.4byte	shellCmdflash_test
 972 0008 00000000 		.4byte	Flash_Test
 973 000c 00000000 		.4byte	shellDescflash_test
 976              	shellCommandrs485_send:
 977 0010 00210000 		.4byte	8448
 978 0014 00000000 		.4byte	shellCmdrs485_send
 979 0018 00000000 		.4byte	RS485_Test
 980 001c 00000000 		.4byte	shellDescrs485_send
 983              	shellCommandbattery:
 984 0020 00210000 		.4byte	8448
 985 0024 00000000 		.4byte	shellCmdbattery
 986 0028 00000000 		.4byte	agencyBattery_Test
 987 002c 00000000 		.4byte	shellDescbattery
 990              	shellCommandled:
 991 0030 00210000 		.4byte	8448
 992 0034 00000000 		.4byte	shellCmdled
 993 0038 00000000 		.4byte	LED_Test
 994 003c 00000000 		.4byte	shellDescled
 997              	shellCommandLDR_Get:
 998 0040 00210000 		.4byte	8448
 999 0044 00000000 		.4byte	shellCmdLDR_Get
 1000 0048 00000000 		.4byte	agencyLDR_Value_Get
 1001 004c 00000000 		.4byte	shellDescLDR_Get
ARM GAS  C:\Users\CL\AppData\Local\Temp\cc5UoLfW.s 			page 30


 1002              		.text
 1003              	.Letext0:
 1004              		.file 3 "e:\\gcc-arm-none-eabi-10.3-2021.10-win32\\gcc-arm-none-eabi-10.3-2021.10\\arm-none-eabi\\
 1005              		.file 4 "e:\\gcc-arm-none-eabi-10.3-2021.10-win32\\gcc-arm-none-eabi-10.3-2021.10\\arm-none-eabi\\
 1006              		.file 5 "Drivers/CMSIS/Device/ST/STM32L4xx/Include/stm32l431xx.h"
 1007              		.file 6 "Drivers/STM32L4xx_HAL_Driver/Inc/stm32l4xx_hal_def.h"
 1008              		.file 7 "Drivers/STM32L4xx_HAL_Driver/Inc/stm32l4xx_hal_rcc.h"
 1009              		.file 8 "Drivers/STM32L4xx_HAL_Driver/Inc/stm32l4xx_hal_dma.h"
 1010              		.file 9 "Drivers/STM32L4xx_HAL_Driver/Inc/stm32l4xx_hal_uart.h"
 1011              		.file 10 "FML/Inc/led.h"
 1012              		.file 11 "ThirdParty/Letter-shell/Inc/shell.h"
 1013              		.file 12 "ThirdParty/Letter-shell/Inc/shell_port.h"
 1014              		.file 13 "e:\\gcc-arm-none-eabi-10.3-2021.10-win32\\gcc-arm-none-eabi-10.3-2021.10\\lib\\gcc\\arm-
 1015              		.file 14 "e:\\gcc-arm-none-eabi-10.3-2021.10-win32\\gcc-arm-none-eabi-10.3-2021.10\\arm-none-eabi\
 1016              		.file 15 "FML/Inc/rs485.h"
 1017              		.file 16 "FML/Inc/W25QXX.h"
 1018              		.file 17 "e:\\gcc-arm-none-eabi-10.3-2021.10-win32\\gcc-arm-none-eabi-10.3-2021.10\\arm-none-eabi\
 1019              		.file 18 "HAL/Inc/adc.h"
 1020              		.file 19 "Drivers/STM32L4xx_HAL_Driver/Inc/stm32l4xx_hal_pwr_ex.h"
 1021              		.file 20 "Drivers/STM32L4xx_HAL_Driver/Inc/stm32l4xx_hal.h"
 1022              		.file 21 "HAL/Inc/gpio.h"
 1023              		.file 22 "HAL/Inc/spi.h"
 1024              		.file 23 "HAL/Inc/usart.h"
 1025              		.file 24 "<built-in>"
ARM GAS  C:\Users\CL\AppData\Local\Temp\cc5UoLfW.s 			page 31


DEFINED SYMBOLS
                            *ABS*:00000000 main.c
C:\Users\CL\AppData\Local\Temp\cc5UoLfW.s:20     .rodata.LED_Test.str1.4:00000000 $d
C:\Users\CL\AppData\Local\Temp\cc5UoLfW.s:45     .text.LED_Test:00000000 $t
C:\Users\CL\AppData\Local\Temp\cc5UoLfW.s:51     .text.LED_Test:00000000 LED_Test
C:\Users\CL\AppData\Local\Temp\cc5UoLfW.s:224    .text.LED_Test:00000098 $d
C:\Users\CL\AppData\Local\Temp\cc5UoLfW.s:239    .text.RS485_Test:00000000 $t
C:\Users\CL\AppData\Local\Temp\cc5UoLfW.s:245    .text.RS485_Test:00000000 RS485_Test
C:\Users\CL\AppData\Local\Temp\cc5UoLfW.s:276    .text.RS485_Test:00000014 $d
C:\Users\CL\AppData\Local\Temp\cc5UoLfW.s:284    .rodata.Flash_Test.str1.4:00000000 $d
C:\Users\CL\AppData\Local\Temp\cc5UoLfW.s:291    .text.Flash_Test:00000000 $t
C:\Users\CL\AppData\Local\Temp\cc5UoLfW.s:297    .text.Flash_Test:00000000 Flash_Test
C:\Users\CL\AppData\Local\Temp\cc5UoLfW.s:408    .text.Flash_Test:000000a0 $d
C:\Users\CL\AppData\Local\Temp\cc5UoLfW.s:419    .rodata.LDR_Value_Get.str1.4:00000000 $d
C:\Users\CL\AppData\Local\Temp\cc5UoLfW.s:424    .text.LDR_Value_Get:00000000 $t
C:\Users\CL\AppData\Local\Temp\cc5UoLfW.s:430    .text.LDR_Value_Get:00000000 LDR_Value_Get
C:\Users\CL\AppData\Local\Temp\cc5UoLfW.s:495    .text.LDR_Value_Get:0000003c $d
C:\Users\CL\AppData\Local\Temp\cc5UoLfW.s:501    .text.agencyLDR_Value_Get:00000000 $t
C:\Users\CL\AppData\Local\Temp\cc5UoLfW.s:507    .text.agencyLDR_Value_Get:00000000 agencyLDR_Value_Get
C:\Users\CL\AppData\Local\Temp\cc5UoLfW.s:536    .rodata.Battery_Test.str1.4:00000000 $d
C:\Users\CL\AppData\Local\Temp\cc5UoLfW.s:540    .text.Battery_Test:00000000 $t
C:\Users\CL\AppData\Local\Temp\cc5UoLfW.s:546    .text.Battery_Test:00000000 Battery_Test
C:\Users\CL\AppData\Local\Temp\cc5UoLfW.s:602    .text.Battery_Test:00000050 $d
C:\Users\CL\AppData\Local\Temp\cc5UoLfW.s:611    .text.agencyBattery_Test:00000000 $t
C:\Users\CL\AppData\Local\Temp\cc5UoLfW.s:617    .text.agencyBattery_Test:00000000 agencyBattery_Test
C:\Users\CL\AppData\Local\Temp\cc5UoLfW.s:640    .text.Error_Handler:00000000 $t
C:\Users\CL\AppData\Local\Temp\cc5UoLfW.s:646    .text.Error_Handler:00000000 Error_Handler
C:\Users\CL\AppData\Local\Temp\cc5UoLfW.s:678    .text.SystemClock_Config:00000000 $t
C:\Users\CL\AppData\Local\Temp\cc5UoLfW.s:684    .text.SystemClock_Config:00000000 SystemClock_Config
C:\Users\CL\AppData\Local\Temp\cc5UoLfW.s:810    .text.main:00000000 $t
C:\Users\CL\AppData\Local\Temp\cc5UoLfW.s:816    .text.main:00000000 main
C:\Users\CL\AppData\Local\Temp\cc5UoLfW.s:881    .text.main:00000048 $d
C:\Users\CL\AppData\Local\Temp\cc5UoLfW.s:969    shellCommand:00000000 shellCommandflash_test
C:\Users\CL\AppData\Local\Temp\cc5UoLfW.s:952    .rodata.shellDescflash_test:00000000 shellDescflash_test
C:\Users\CL\AppData\Local\Temp\cc5UoLfW.s:922    .rodata.shellCmdflash_test:00000000 shellCmdflash_test
C:\Users\CL\AppData\Local\Temp\cc5UoLfW.s:976    shellCommand:00000010 shellCommandrs485_send
C:\Users\CL\AppData\Local\Temp\cc5UoLfW.s:964    .rodata.shellDescrs485_send:00000000 shellDescrs485_send
C:\Users\CL\AppData\Local\Temp\cc5UoLfW.s:934    .rodata.shellCmdrs485_send:00000000 shellCmdrs485_send
C:\Users\CL\AppData\Local\Temp\cc5UoLfW.s:983    shellCommand:00000020 shellCommandbattery
C:\Users\CL\AppData\Local\Temp\cc5UoLfW.s:946    .rodata.shellDescbattery:00000000 shellDescbattery
C:\Users\CL\AppData\Local\Temp\cc5UoLfW.s:916    .rodata.shellCmdbattery:00000000 shellCmdbattery
C:\Users\CL\AppData\Local\Temp\cc5UoLfW.s:990    shellCommand:00000030 shellCommandled
C:\Users\CL\AppData\Local\Temp\cc5UoLfW.s:958    .rodata.shellDescled:00000000 shellDescled
C:\Users\CL\AppData\Local\Temp\cc5UoLfW.s:928    .rodata.shellCmdled:00000000 shellCmdled
C:\Users\CL\AppData\Local\Temp\cc5UoLfW.s:997    shellCommand:00000040 shellCommandLDR_Get
C:\Users\CL\AppData\Local\Temp\cc5UoLfW.s:940    .rodata.shellDescLDR_Get:00000000 shellDescLDR_Get
C:\Users\CL\AppData\Local\Temp\cc5UoLfW.s:910    .rodata.shellCmdLDR_Get:00000000 shellCmdLDR_Get
C:\Users\CL\AppData\Local\Temp\cc5UoLfW.s:901    .rodata:00000000 $d
C:\Users\CL\AppData\Local\Temp\cc5UoLfW.s:907    .rodata.shellCmdLDR_Get:00000000 $d
C:\Users\CL\AppData\Local\Temp\cc5UoLfW.s:913    .rodata.shellCmdbattery:00000000 $d
C:\Users\CL\AppData\Local\Temp\cc5UoLfW.s:919    .rodata.shellCmdflash_test:00000000 $d
C:\Users\CL\AppData\Local\Temp\cc5UoLfW.s:925    .rodata.shellCmdled:00000000 $d
C:\Users\CL\AppData\Local\Temp\cc5UoLfW.s:931    .rodata.shellCmdrs485_send:00000000 $d
C:\Users\CL\AppData\Local\Temp\cc5UoLfW.s:937    .rodata.shellDescLDR_Get:00000000 $d
C:\Users\CL\AppData\Local\Temp\cc5UoLfW.s:943    .rodata.shellDescbattery:00000000 $d
C:\Users\CL\AppData\Local\Temp\cc5UoLfW.s:949    .rodata.shellDescflash_test:00000000 $d
C:\Users\CL\AppData\Local\Temp\cc5UoLfW.s:955    .rodata.shellDescled:00000000 $d
ARM GAS  C:\Users\CL\AppData\Local\Temp\cc5UoLfW.s 			page 32


C:\Users\CL\AppData\Local\Temp\cc5UoLfW.s:961    .rodata.shellDescrs485_send:00000000 $d

UNDEFINED SYMBOLS
strcmp
shellPrint
LED_Blink
LED_On
LED_Off
LED_Toggle
dev_led
shell
strlen
RS485_SendData
dev_rs485
__aeabi_i2d
__aeabi_dmul
__aeabi_d2uiz
__aeabi_f2d
BSP_W25Qx_Read_ID
BSP_W25Qx_Read_JEDEC_ID
pow
ADC_Average_Get
__aeabi_dadd
__aeabi_d2f
memset
HAL_PWREx_ControlVoltageScaling
HAL_RCC_OscConfig
HAL_RCC_ClockConfig
HAL_Init
MX_GPIO_Init
LED_Init
MX_ADC1_Init
MX_SPI2_Init
MX_SPI3_Init
MX_USART1_UART_Init
MX_USART2_UART_Init
MX_USART3_UART_Init
User_Shell_Init
BSP_W25Qx_Init
HAL_Delay
