ARM GAS  C:\Users\CL\AppData\Local\Temp\cc0LHTSq.s 			page 1


   1              		.cpu cortex-m4
   2              		.arch armv7e-m
   3              		.fpu fpv4-sp-d16
   4              		.eabi_attribute 27, 1
   5              		.eabi_attribute 28, 1
   6              		.eabi_attribute 20, 1
   7              		.eabi_attribute 21, 1
   8              		.eabi_attribute 23, 3
   9              		.eabi_attribute 24, 1
  10              		.eabi_attribute 25, 1
  11              		.eabi_attribute 26, 1
  12              		.eabi_attribute 30, 1
  13              		.eabi_attribute 34, 1
  14              		.eabi_attribute 18, 4
  15              		.file	"queue.c"
  16              		.text
  17              	.Ltext0:
  18              		.cfi_sections	.debug_frame
  19              		.section	.text.queue_init,"ax",%progbits
  20              		.align	1
  21              		.global	queue_init
  22              		.syntax unified
  23              		.thumb
  24              		.thumb_func
  26              	queue_init:
  27              	.LVL0:
  28              	.LFB288:
  29              		.file 1 "HAL/Src/queue.c"
   1:HAL/Src/queue.c **** /**
   2:HAL/Src/queue.c ****  * @file queue.c
   3:HAL/Src/queue.c ****  * @brief 
   4:HAL/Src/queue.c ****  * @author CL
   5:HAL/Src/queue.c ****  * @version 1.0
   6:HAL/Src/queue.c ****  * @date 2023-08-30
   7:HAL/Src/queue.c ****  * 
   8:HAL/Src/queue.c ****  * @copyright Copyright (c) 2023  JiuTong
   9:HAL/Src/queue.c ****  * 
  10:HAL/Src/queue.c ****  */
  11:HAL/Src/queue.c **** #include "queue.h"
  12:HAL/Src/queue.c **** 
  13:HAL/Src/queue.c **** /**
  14:HAL/Src/queue.c ****  * @brief 
  15:HAL/Src/queue.c ****  * @param  self             My Param doc
  16:HAL/Src/queue.c ****  * @param  buff             My Param doc
  17:HAL/Src/queue.c ****  * @param  size             My Param doc
  18:HAL/Src/queue.c ****  */
  19:HAL/Src/queue.c **** void queue_init(Queue_HandleTypeDef *self,void *buff,uint16_t capacity){
  30              		.loc 1 19 72 view -0
  31              		.cfi_startproc
  32              		@ args = 0, pretend = 0, frame = 0
  33              		@ frame_needed = 0, uses_anonymous_args = 0
  34              		@ link register save eliminated.
  20:HAL/Src/queue.c ****     self->block = 0;
  35              		.loc 1 20 5 view .LVU1
  36              		.loc 1 20 17 is_stmt 0 view .LVU2
  37 0000 0023     		movs	r3, #0
  38 0002 0370     		strb	r3, [r0]
ARM GAS  C:\Users\CL\AppData\Local\Temp\cc0LHTSq.s 			page 2


  21:HAL/Src/queue.c ****     self->head = 0;
  39              		.loc 1 21 5 is_stmt 1 view .LVU3
  40              		.loc 1 21 16 is_stmt 0 view .LVU4
  41 0004 4380     		strh	r3, [r0, #2]	@ movhi
  22:HAL/Src/queue.c ****     self->tail = 0;
  42              		.loc 1 22 5 is_stmt 1 view .LVU5
  43              		.loc 1 22 16 is_stmt 0 view .LVU6
  44 0006 8380     		strh	r3, [r0, #4]	@ movhi
  23:HAL/Src/queue.c ****     self->capacity = capacity; 
  45              		.loc 1 23 5 is_stmt 1 view .LVU7
  46              		.loc 1 23 20 is_stmt 0 view .LVU8
  47 0008 8281     		strh	r2, [r0, #12]	@ movhi
  24:HAL/Src/queue.c ****     self->buff = buff;
  48              		.loc 1 24 5 is_stmt 1 view .LVU9
  49              		.loc 1 24 16 is_stmt 0 view .LVU10
  50 000a 8160     		str	r1, [r0, #8]
  25:HAL/Src/queue.c **** }
  51              		.loc 1 25 1 view .LVU11
  52 000c 7047     		bx	lr
  53              		.cfi_endproc
  54              	.LFE288:
  56              		.section	.text.queue_insert,"ax",%progbits
  57              		.align	1
  58              		.global	queue_insert
  59              		.syntax unified
  60              		.thumb
  61              		.thumb_func
  63              	queue_insert:
  64              	.LVL1:
  65              	.LFB289:
  26:HAL/Src/queue.c **** /**
  27:HAL/Src/queue.c ****  * @brief 
  28:HAL/Src/queue.c ****  * @param  self             My Param doc
  29:HAL/Src/queue.c ****  * @param  item             My Param doc
  30:HAL/Src/queue.c ****  * @return int 
  31:HAL/Src/queue.c ****  */
  32:HAL/Src/queue.c **** int queue_insert(Queue_HandleTypeDef *self,int item){
  66              		.loc 1 32 53 is_stmt 1 view -0
  67              		.cfi_startproc
  68              		@ args = 0, pretend = 0, frame = 0
  69              		@ frame_needed = 0, uses_anonymous_args = 0
  33:HAL/Src/queue.c ****     if(self->block  == 0){
  70              		.loc 1 33 5 view .LVU13
  71              		.loc 1 33 12 is_stmt 0 view .LVU14
  72 0000 0378     		ldrb	r3, [r0]	@ zero_extendqisi2
  73              		.loc 1 33 7 view .LVU15
  74 0002 13B1     		cbz	r3, .L10
  34:HAL/Src/queue.c ****         self->block = 1;
  35:HAL/Src/queue.c **** 
  36:HAL/Src/queue.c ****         //先判断队列是否满了
  37:HAL/Src/queue.c ****         if((self->tail + 1) % self->capacity == self->head){
  38:HAL/Src/queue.c ****             //如果满了，需要把现在的队列头删了，然后再进行插入,
  39:HAL/Src/queue.c ****             //这里会牺牲一个单元的空间，用于区分队列空和队列满
  40:HAL/Src/queue.c ****             self->head = (self->head + 1) % self->capacity;
  41:HAL/Src/queue.c ****         }
  42:HAL/Src/queue.c **** 
  43:HAL/Src/queue.c ****         *(self->buff + self->tail) = item;
ARM GAS  C:\Users\CL\AppData\Local\Temp\cc0LHTSq.s 			page 3


  44:HAL/Src/queue.c ****         self->tail = (self->tail +1) % self->capacity;
  45:HAL/Src/queue.c ****         self->block = 0;
  46:HAL/Src/queue.c ****         return 1;
  47:HAL/Src/queue.c ****     }
  48:HAL/Src/queue.c **** 
  49:HAL/Src/queue.c ****     return -1;
  75              		.loc 1 49 12 view .LVU16
  76 0004 4FF0FF30 		mov	r0, #-1
  77              	.LVL2:
  50:HAL/Src/queue.c **** }
  78              		.loc 1 50 1 view .LVU17
  79 0008 7047     		bx	lr
  80              	.LVL3:
  81              	.L10:
  32:HAL/Src/queue.c ****     if(self->block  == 0){
  82              		.loc 1 32 53 view .LVU18
  83 000a 00B5     		push	{lr}
  84              	.LCFI0:
  85              		.cfi_def_cfa_offset 4
  86              		.cfi_offset 14, -4
  34:HAL/Src/queue.c ****         self->block = 1;
  87              		.loc 1 34 9 is_stmt 1 view .LVU19
  34:HAL/Src/queue.c ****         self->block = 1;
  88              		.loc 1 34 21 is_stmt 0 view .LVU20
  89 000c 0123     		movs	r3, #1
  90 000e 0370     		strb	r3, [r0]
  37:HAL/Src/queue.c ****             //如果满了，需要把现在的队列头删了，然后再进行插入,
  91              		.loc 1 37 9 is_stmt 1 view .LVU21
  37:HAL/Src/queue.c ****             //如果满了，需要把现在的队列头删了，然后再进行插入,
  92              		.loc 1 37 17 is_stmt 0 view .LVU22
  93 0010 B0F804E0 		ldrh	lr, [r0, #4]
  37:HAL/Src/queue.c ****             //如果满了，需要把现在的队列头删了，然后再进行插入,
  94              		.loc 1 37 24 view .LVU23
  95 0014 7344     		add	r3, lr, r3
  37:HAL/Src/queue.c ****             //如果满了，需要把现在的队列头删了，然后再进行插入,
  96              		.loc 1 37 35 view .LVU24
  97 0016 B0F80CC0 		ldrh	ip, [r0, #12]
  37:HAL/Src/queue.c ****             //如果满了，需要把现在的队列头删了，然后再进行插入,
  98              		.loc 1 37 29 view .LVU25
  99 001a 93FBFCF2 		sdiv	r2, r3, ip
 100 001e 0CFB1233 		mls	r3, ip, r2, r3
  37:HAL/Src/queue.c ****             //如果满了，需要把现在的队列头删了，然后再进行插入,
 101              		.loc 1 37 53 view .LVU26
 102 0022 4288     		ldrh	r2, [r0, #2]
  37:HAL/Src/queue.c ****             //如果满了，需要把现在的队列头删了，然后再进行插入,
 103              		.loc 1 37 11 view .LVU27
 104 0024 9342     		cmp	r3, r2
 105 0026 0FD0     		beq	.L11
 106              	.L4:
  43:HAL/Src/queue.c ****         self->tail = (self->tail +1) % self->capacity;
 107              		.loc 1 43 9 is_stmt 1 view .LVU28
  43:HAL/Src/queue.c ****         self->tail = (self->tail +1) % self->capacity;
 108              		.loc 1 43 15 is_stmt 0 view .LVU29
 109 0028 8368     		ldr	r3, [r0, #8]
  43:HAL/Src/queue.c ****         self->tail = (self->tail +1) % self->capacity;
 110              		.loc 1 43 36 view .LVU30
 111 002a 43F82E10 		str	r1, [r3, lr, lsl #2]
ARM GAS  C:\Users\CL\AppData\Local\Temp\cc0LHTSq.s 			page 4


  44:HAL/Src/queue.c ****         self->block = 0;
 112              		.loc 1 44 9 is_stmt 1 view .LVU31
  44:HAL/Src/queue.c ****         self->block = 0;
 113              		.loc 1 44 27 is_stmt 0 view .LVU32
 114 002e 8388     		ldrh	r3, [r0, #4]
  44:HAL/Src/queue.c ****         self->block = 0;
 115              		.loc 1 44 34 view .LVU33
 116 0030 0133     		adds	r3, r3, #1
  44:HAL/Src/queue.c ****         self->block = 0;
 117              		.loc 1 44 44 view .LVU34
 118 0032 8289     		ldrh	r2, [r0, #12]
  44:HAL/Src/queue.c ****         self->block = 0;
 119              		.loc 1 44 38 view .LVU35
 120 0034 93FBF2F1 		sdiv	r1, r3, r2
 121              	.LVL4:
  44:HAL/Src/queue.c ****         self->block = 0;
 122              		.loc 1 44 38 view .LVU36
 123 0038 02FB1133 		mls	r3, r2, r1, r3
  44:HAL/Src/queue.c ****         self->block = 0;
 124              		.loc 1 44 20 view .LVU37
 125 003c 8380     		strh	r3, [r0, #4]	@ movhi
  45:HAL/Src/queue.c ****         return 1;
 126              		.loc 1 45 9 is_stmt 1 view .LVU38
  45:HAL/Src/queue.c ****         return 1;
 127              		.loc 1 45 21 is_stmt 0 view .LVU39
 128 003e 0023     		movs	r3, #0
 129 0040 0370     		strb	r3, [r0]
  46:HAL/Src/queue.c ****     }
 130              		.loc 1 46 9 is_stmt 1 view .LVU40
  46:HAL/Src/queue.c ****     }
 131              		.loc 1 46 16 is_stmt 0 view .LVU41
 132 0042 0120     		movs	r0, #1
 133              	.LVL5:
 134              		.loc 1 50 1 view .LVU42
 135 0044 5DF804FB 		ldr	pc, [sp], #4
 136              	.LVL6:
 137              	.L11:
  40:HAL/Src/queue.c ****         }
 138              		.loc 1 40 13 is_stmt 1 view .LVU43
  40:HAL/Src/queue.c ****         }
 139              		.loc 1 40 38 is_stmt 0 view .LVU44
 140 0048 0132     		adds	r2, r2, #1
  40:HAL/Src/queue.c ****         }
 141              		.loc 1 40 43 view .LVU45
 142 004a 92FBFCF3 		sdiv	r3, r2, ip
 143 004e 0CFB1322 		mls	r2, ip, r3, r2
  40:HAL/Src/queue.c ****         }
 144              		.loc 1 40 24 view .LVU46
 145 0052 4280     		strh	r2, [r0, #2]	@ movhi
 146 0054 E8E7     		b	.L4
 147              		.cfi_endproc
 148              	.LFE289:
 150              		.section	.text.queue_pull,"ax",%progbits
 151              		.align	1
 152              		.global	queue_pull
 153              		.syntax unified
 154              		.thumb
ARM GAS  C:\Users\CL\AppData\Local\Temp\cc0LHTSq.s 			page 5


 155              		.thumb_func
 157              	queue_pull:
 158              	.LVL7:
 159              	.LFB290:
  51:HAL/Src/queue.c **** /**
  52:HAL/Src/queue.c ****  * @brief 拉取队列len个元素（不从队列中删除）
  53:HAL/Src/queue.c ****  * @param  self             My Param doc
  54:HAL/Src/queue.c ****  * @param  temp             My Param doc
  55:HAL/Src/queue.c ****  * @param  len              My Param doc
  56:HAL/Src/queue.c ****  * @return int 
  57:HAL/Src/queue.c ****  */
  58:HAL/Src/queue.c **** int queue_pull(Queue_HandleTypeDef *self,int *temp,uint16_t len){
 160              		.loc 1 58 65 is_stmt 1 view -0
 161              		.cfi_startproc
 162              		@ args = 0, pretend = 0, frame = 0
 163              		@ frame_needed = 0, uses_anonymous_args = 0
 164              		.loc 1 58 65 is_stmt 0 view .LVU48
 165 0000 38B5     		push	{r3, r4, r5, lr}
 166              	.LCFI1:
 167              		.cfi_def_cfa_offset 16
 168              		.cfi_offset 3, -16
 169              		.cfi_offset 4, -12
 170              		.cfi_offset 5, -8
 171              		.cfi_offset 14, -4
 172 0002 0446     		mov	r4, r0
 173 0004 1546     		mov	r5, r2
  59:HAL/Src/queue.c ****     uint16_t j = 0 ;
 174              		.loc 1 59 5 is_stmt 1 view .LVU49
 175              	.LVL8:
  60:HAL/Src/queue.c ****     //如果队列被上锁了，则等待100ms
  61:HAL/Src/queue.c ****     if(self->block == 1)
 176              		.loc 1 61 5 view .LVU50
 177              		.loc 1 61 12 is_stmt 0 view .LVU51
 178 0006 0378     		ldrb	r3, [r0]	@ zero_extendqisi2
 179              		.loc 1 61 7 view .LVU52
 180 0008 012B     		cmp	r3, #1
 181 000a 0CD0     		beq	.L23
 182              	.LBB2:
  62:HAL/Src/queue.c ****     {
  63:HAL/Src/queue.c ****         HAL_Delay(100);
  64:HAL/Src/queue.c ****         if(self->block == 1)
  65:HAL/Src/queue.c ****             return -1;
  66:HAL/Src/queue.c ****     }
  67:HAL/Src/queue.c ****     else{
  68:HAL/Src/queue.c ****         self->block = 1;
 183              		.loc 1 68 9 is_stmt 1 view .LVU53
 184              		.loc 1 68 21 is_stmt 0 view .LVU54
 185 000c 0123     		movs	r3, #1
 186 000e 0370     		strb	r3, [r0]
  69:HAL/Src/queue.c ****         uint16_t size  = 0;
 187              		.loc 1 69 9 is_stmt 1 view .LVU55
 188              	.LVL9:
  70:HAL/Src/queue.c ****         size = self->tail >= self->head ? (self->tail - self->head):(self->tail + self->capacity - 
 189              		.loc 1 70 9 view .LVU56
 190              		.loc 1 70 20 is_stmt 0 view .LVU57
 191 0010 8088     		ldrh	r0, [r0, #4]
 192              	.LVL10:
ARM GAS  C:\Users\CL\AppData\Local\Temp\cc0LHTSq.s 			page 6


 193              		.loc 1 70 34 view .LVU58
 194 0012 6388     		ldrh	r3, [r4, #2]
 195              		.loc 1 70 14 view .LVU59
 196 0014 9842     		cmp	r0, r3
 197 0016 0ED3     		bcc	.L16
 198              		.loc 1 70 14 discriminator 1 view .LVU60
 199 0018 C01A     		subs	r0, r0, r3
 200 001a 80B2     		uxth	r0, r0
 201              	.LVL11:
 202              	.L17:
  71:HAL/Src/queue.c ****         if(len > size)
 203              		.loc 1 71 9 is_stmt 1 discriminator 4 view .LVU61
 204              		.loc 1 71 11 is_stmt 0 discriminator 4 view .LVU62
 205 001c A842     		cmp	r0, r5
 206 001e 00D3     		bcc	.L18
 207              		.loc 1 71 11 view .LVU63
 208 0020 2846     		mov	r0, r5
 209              	.LVL12:
 210              	.L18:
  72:HAL/Src/queue.c ****             len = size;
  73:HAL/Src/queue.c ****         for(j = 0 ; j < len; j++){
 211              		.loc 1 73 9 is_stmt 1 view .LVU64
 212              		.loc 1 73 15 is_stmt 0 view .LVU65
 213 0022 0023     		movs	r3, #0
 214              		.loc 1 73 9 view .LVU66
 215 0024 1CE0     		b	.L19
 216              	.LVL13:
 217              	.L23:
 218              		.loc 1 73 9 view .LVU67
 219              	.LBE2:
  63:HAL/Src/queue.c ****         if(self->block == 1)
 220              		.loc 1 63 9 is_stmt 1 view .LVU68
 221 0026 6420     		movs	r0, #100
 222              	.LVL14:
  63:HAL/Src/queue.c ****         if(self->block == 1)
 223              		.loc 1 63 9 is_stmt 0 view .LVU69
 224 0028 FFF7FEFF 		bl	HAL_Delay
 225              	.LVL15:
  64:HAL/Src/queue.c ****             return -1;
 226              		.loc 1 64 9 is_stmt 1 view .LVU70
  64:HAL/Src/queue.c ****             return -1;
 227              		.loc 1 64 16 is_stmt 0 view .LVU71
 228 002c 2378     		ldrb	r3, [r4]	@ zero_extendqisi2
  64:HAL/Src/queue.c ****             return -1;
 229              		.loc 1 64 11 view .LVU72
 230 002e 012B     		cmp	r3, #1
 231 0030 1BD0     		beq	.L21
 232 0032 2846     		mov	r0, r5
 233 0034 18E0     		b	.L12
 234              	.LVL16:
 235              	.L16:
 236              	.LBB3:
  70:HAL/Src/queue.c ****         if(len > size)
 237              		.loc 1 70 87 discriminator 2 view .LVU73
 238 0036 A289     		ldrh	r2, [r4, #12]
 239              	.LVL17:
  70:HAL/Src/queue.c ****         if(len > size)
ARM GAS  C:\Users\CL\AppData\Local\Temp\cc0LHTSq.s 			page 7


 240              		.loc 1 70 81 discriminator 2 view .LVU74
 241 0038 1044     		add	r0, r0, r2
 242 003a 80B2     		uxth	r0, r0
  70:HAL/Src/queue.c ****         if(len > size)
 243              		.loc 1 70 14 discriminator 2 view .LVU75
 244 003c C01A     		subs	r0, r0, r3
 245 003e 80B2     		uxth	r0, r0
 246 0040 ECE7     		b	.L17
 247              	.LVL18:
 248              	.L20:
  74:HAL/Src/queue.c ****             temp[j] = self->buff[(self->head+j)% self->capacity];
 249              		.loc 1 74 13 is_stmt 1 discriminator 3 view .LVU76
 250              		.loc 1 74 27 is_stmt 0 discriminator 3 view .LVU77
 251 0042 A568     		ldr	r5, [r4, #8]
 252              		.loc 1 74 39 discriminator 3 view .LVU78
 253 0044 6288     		ldrh	r2, [r4, #2]
 254              		.loc 1 74 45 discriminator 3 view .LVU79
 255 0046 1A44     		add	r2, r2, r3
 256              		.loc 1 74 54 discriminator 3 view .LVU80
 257 0048 B4F80CC0 		ldrh	ip, [r4, #12]
 258              		.loc 1 74 48 discriminator 3 view .LVU81
 259 004c 92FBFCFE 		sdiv	lr, r2, ip
 260 0050 0CFB1E22 		mls	r2, ip, lr, r2
 261              		.loc 1 74 33 discriminator 3 view .LVU82
 262 0054 55F82220 		ldr	r2, [r5, r2, lsl #2]
 263              		.loc 1 74 21 discriminator 3 view .LVU83
 264 0058 41F82320 		str	r2, [r1, r3, lsl #2]
  73:HAL/Src/queue.c ****             temp[j] = self->buff[(self->head+j)% self->capacity];
 265              		.loc 1 73 30 is_stmt 1 discriminator 3 view .LVU84
  73:HAL/Src/queue.c ****             temp[j] = self->buff[(self->head+j)% self->capacity];
 266              		.loc 1 73 31 is_stmt 0 discriminator 3 view .LVU85
 267 005c 0133     		adds	r3, r3, #1
 268              	.LVL19:
  73:HAL/Src/queue.c ****             temp[j] = self->buff[(self->head+j)% self->capacity];
 269              		.loc 1 73 31 discriminator 3 view .LVU86
 270 005e 9BB2     		uxth	r3, r3
 271              	.LVL20:
 272              	.L19:
  73:HAL/Src/queue.c ****             temp[j] = self->buff[(self->head+j)% self->capacity];
 273              		.loc 1 73 21 is_stmt 1 discriminator 1 view .LVU87
  73:HAL/Src/queue.c ****             temp[j] = self->buff[(self->head+j)% self->capacity];
 274              		.loc 1 73 9 is_stmt 0 discriminator 1 view .LVU88
 275 0060 9842     		cmp	r0, r3
 276 0062 EED8     		bhi	.L20
  75:HAL/Src/queue.c ****         }
  76:HAL/Src/queue.c ****         self->block = 0;
 277              		.loc 1 76 9 is_stmt 1 view .LVU89
 278              		.loc 1 76 21 is_stmt 0 view .LVU90
 279 0064 0023     		movs	r3, #0
 280              	.LVL21:
 281              		.loc 1 76 21 view .LVU91
 282 0066 2370     		strb	r3, [r4]
 283              		.loc 1 76 21 view .LVU92
 284              	.LBE3:
  77:HAL/Src/queue.c ****     }
  78:HAL/Src/queue.c ****     return len;
 285              		.loc 1 78 5 is_stmt 1 view .LVU93
ARM GAS  C:\Users\CL\AppData\Local\Temp\cc0LHTSq.s 			page 8


 286              	.LVL22:
 287              	.L12:
  79:HAL/Src/queue.c **** }
 288              		.loc 1 79 1 is_stmt 0 view .LVU94
 289 0068 38BD     		pop	{r3, r4, r5, pc}
 290              	.LVL23:
 291              	.L21:
  65:HAL/Src/queue.c ****     }
 292              		.loc 1 65 20 view .LVU95
 293 006a 4FF0FF30 		mov	r0, #-1
 294 006e FBE7     		b	.L12
 295              		.cfi_endproc
 296              	.LFE290:
 298              		.section	.text.queue_pop,"ax",%progbits
 299              		.align	1
 300              		.global	queue_pop
 301              		.syntax unified
 302              		.thumb
 303              		.thumb_func
 305              	queue_pop:
 306              	.LVL24:
 307              	.LFB291:
  80:HAL/Src/queue.c **** 
  81:HAL/Src/queue.c **** /**
  82:HAL/Src/queue.c ****  * @brief  弹出队列len个元素（要从队列中删除）
  83:HAL/Src/queue.c ****  * @param  self             My Param doc
  84:HAL/Src/queue.c ****  * @param  temp             My Param doc
  85:HAL/Src/queue.c ****  * @param  len              My Param doc
  86:HAL/Src/queue.c ****  * @return int 
  87:HAL/Src/queue.c ****  *          -1: 队列无法访问
  88:HAL/Src/queue.c ****  *          len： 弹出元素数量
  89:HAL/Src/queue.c ****  */
  90:HAL/Src/queue.c **** int queue_pop(Queue_HandleTypeDef *self,int *temp,uint16_t len){
 308              		.loc 1 90 64 is_stmt 1 view -0
 309              		.cfi_startproc
 310              		@ args = 0, pretend = 0, frame = 0
 311              		@ frame_needed = 0, uses_anonymous_args = 0
 312              		.loc 1 90 64 is_stmt 0 view .LVU97
 313 0000 38B5     		push	{r3, r4, r5, lr}
 314              	.LCFI2:
 315              		.cfi_def_cfa_offset 16
 316              		.cfi_offset 3, -16
 317              		.cfi_offset 4, -12
 318              		.cfi_offset 5, -8
 319              		.cfi_offset 14, -4
 320 0002 0446     		mov	r4, r0
 321 0004 1546     		mov	r5, r2
  91:HAL/Src/queue.c ****     uint16_t j = 0 ;
 322              		.loc 1 91 5 is_stmt 1 view .LVU98
 323              	.LVL25:
  92:HAL/Src/queue.c ****     //如果队列被上锁了，则等待100ms
  93:HAL/Src/queue.c ****     if(self->block == 1)
 324              		.loc 1 93 5 view .LVU99
 325              		.loc 1 93 12 is_stmt 0 view .LVU100
 326 0006 0378     		ldrb	r3, [r0]	@ zero_extendqisi2
 327              		.loc 1 93 7 view .LVU101
 328 0008 012B     		cmp	r3, #1
ARM GAS  C:\Users\CL\AppData\Local\Temp\cc0LHTSq.s 			page 9


 329 000a 0CD0     		beq	.L35
 330              	.LBB4:
  94:HAL/Src/queue.c ****     {
  95:HAL/Src/queue.c ****         HAL_Delay(100);
  96:HAL/Src/queue.c ****         if(self->block == 1)
  97:HAL/Src/queue.c ****             return -1;
  98:HAL/Src/queue.c ****     }
  99:HAL/Src/queue.c ****     else{
 100:HAL/Src/queue.c ****         self->block = 1;
 331              		.loc 1 100 9 is_stmt 1 view .LVU102
 332              		.loc 1 100 21 is_stmt 0 view .LVU103
 333 000c 0123     		movs	r3, #1
 334 000e 0370     		strb	r3, [r0]
 101:HAL/Src/queue.c ****         uint16_t size  = self->tail >= self->head ? (self->tail - self->head):(self->tail + self->c
 335              		.loc 1 101 9 is_stmt 1 view .LVU104
 336              		.loc 1 101 30 is_stmt 0 view .LVU105
 337 0010 8088     		ldrh	r0, [r0, #4]
 338              	.LVL26:
 339              		.loc 1 101 44 view .LVU106
 340 0012 6388     		ldrh	r3, [r4, #2]
 341              		.loc 1 101 18 view .LVU107
 342 0014 9842     		cmp	r0, r3
 343 0016 0ED3     		bcc	.L28
 344              		.loc 1 101 18 discriminator 1 view .LVU108
 345 0018 C01A     		subs	r0, r0, r3
 346 001a 80B2     		uxth	r0, r0
 347              	.LVL27:
 348              	.L29:
 102:HAL/Src/queue.c ****         if(len > size)
 349              		.loc 1 102 9 is_stmt 1 discriminator 4 view .LVU109
 350              		.loc 1 102 11 is_stmt 0 discriminator 4 view .LVU110
 351 001c A842     		cmp	r0, r5
 352 001e 00D3     		bcc	.L30
 353              		.loc 1 102 11 view .LVU111
 354 0020 2846     		mov	r0, r5
 355              	.LVL28:
 356              	.L30:
 103:HAL/Src/queue.c ****             len = size;
 104:HAL/Src/queue.c ****         for(j = 0 ; j < len; j++){
 357              		.loc 1 104 9 is_stmt 1 view .LVU112
 358              		.loc 1 104 15 is_stmt 0 view .LVU113
 359 0022 0022     		movs	r2, #0
 360              		.loc 1 104 9 view .LVU114
 361 0024 1FE0     		b	.L31
 362              	.LVL29:
 363              	.L35:
 364              		.loc 1 104 9 view .LVU115
 365              	.LBE4:
  95:HAL/Src/queue.c ****         if(self->block == 1)
 366              		.loc 1 95 9 is_stmt 1 view .LVU116
 367 0026 6420     		movs	r0, #100
 368              	.LVL30:
  95:HAL/Src/queue.c ****         if(self->block == 1)
 369              		.loc 1 95 9 is_stmt 0 view .LVU117
 370 0028 FFF7FEFF 		bl	HAL_Delay
 371              	.LVL31:
  96:HAL/Src/queue.c ****             return -1;
ARM GAS  C:\Users\CL\AppData\Local\Temp\cc0LHTSq.s 			page 10


 372              		.loc 1 96 9 is_stmt 1 view .LVU118
  96:HAL/Src/queue.c ****             return -1;
 373              		.loc 1 96 16 is_stmt 0 view .LVU119
 374 002c 2378     		ldrb	r3, [r4]	@ zero_extendqisi2
  96:HAL/Src/queue.c ****             return -1;
 375              		.loc 1 96 11 view .LVU120
 376 002e 012B     		cmp	r3, #1
 377 0030 1ED0     		beq	.L33
 378 0032 2846     		mov	r0, r5
 379 0034 1BE0     		b	.L24
 380              	.LVL32:
 381              	.L28:
 382              	.LBB5:
 101:HAL/Src/queue.c ****         if(len > size)
 383              		.loc 1 101 97 discriminator 2 view .LVU121
 384 0036 A289     		ldrh	r2, [r4, #12]
 385              	.LVL33:
 101:HAL/Src/queue.c ****         if(len > size)
 386              		.loc 1 101 91 discriminator 2 view .LVU122
 387 0038 1044     		add	r0, r0, r2
 388 003a 80B2     		uxth	r0, r0
 101:HAL/Src/queue.c ****         if(len > size)
 389              		.loc 1 101 18 discriminator 2 view .LVU123
 390 003c C01A     		subs	r0, r0, r3
 391 003e 80B2     		uxth	r0, r0
 392 0040 ECE7     		b	.L29
 393              	.LVL34:
 394              	.L32:
 105:HAL/Src/queue.c ****             temp[j] = self->buff[self->head];
 395              		.loc 1 105 13 is_stmt 1 discriminator 3 view .LVU124
 396              		.loc 1 105 27 is_stmt 0 discriminator 3 view .LVU125
 397 0042 A368     		ldr	r3, [r4, #8]
 398              		.loc 1 105 38 discriminator 3 view .LVU126
 399 0044 B4F802C0 		ldrh	ip, [r4, #2]
 400              		.loc 1 105 33 discriminator 3 view .LVU127
 401 0048 53F82C30 		ldr	r3, [r3, ip, lsl #2]
 402              		.loc 1 105 21 discriminator 3 view .LVU128
 403 004c 41F82230 		str	r3, [r1, r2, lsl #2]
 106:HAL/Src/queue.c ****             self->head = (self->head + 1) % self->capacity;
 404              		.loc 1 106 13 is_stmt 1 discriminator 3 view .LVU129
 405              		.loc 1 106 31 is_stmt 0 discriminator 3 view .LVU130
 406 0050 6388     		ldrh	r3, [r4, #2]
 407              		.loc 1 106 38 discriminator 3 view .LVU131
 408 0052 0133     		adds	r3, r3, #1
 409              		.loc 1 106 49 discriminator 3 view .LVU132
 410 0054 B4F80CC0 		ldrh	ip, [r4, #12]
 411              		.loc 1 106 43 discriminator 3 view .LVU133
 412 0058 93FBFCFE 		sdiv	lr, r3, ip
 413 005c 0CFB1E33 		mls	r3, ip, lr, r3
 414              		.loc 1 106 24 discriminator 3 view .LVU134
 415 0060 6380     		strh	r3, [r4, #2]	@ movhi
 104:HAL/Src/queue.c ****             temp[j] = self->buff[self->head];
 416              		.loc 1 104 30 is_stmt 1 discriminator 3 view .LVU135
 104:HAL/Src/queue.c ****             temp[j] = self->buff[self->head];
 417              		.loc 1 104 31 is_stmt 0 discriminator 3 view .LVU136
 418 0062 0132     		adds	r2, r2, #1
 419              	.LVL35:
ARM GAS  C:\Users\CL\AppData\Local\Temp\cc0LHTSq.s 			page 11


 104:HAL/Src/queue.c ****             temp[j] = self->buff[self->head];
 420              		.loc 1 104 31 discriminator 3 view .LVU137
 421 0064 92B2     		uxth	r2, r2
 422              	.LVL36:
 423              	.L31:
 104:HAL/Src/queue.c ****             temp[j] = self->buff[self->head];
 424              		.loc 1 104 21 is_stmt 1 discriminator 1 view .LVU138
 104:HAL/Src/queue.c ****             temp[j] = self->buff[self->head];
 425              		.loc 1 104 9 is_stmt 0 discriminator 1 view .LVU139
 426 0066 9042     		cmp	r0, r2
 427 0068 EBD8     		bhi	.L32
 107:HAL/Src/queue.c ****         }
 108:HAL/Src/queue.c ****         self->block = 0;
 428              		.loc 1 108 9 is_stmt 1 view .LVU140
 429              		.loc 1 108 21 is_stmt 0 view .LVU141
 430 006a 0023     		movs	r3, #0
 431 006c 2370     		strb	r3, [r4]
 432              		.loc 1 108 21 view .LVU142
 433              	.LBE5:
 109:HAL/Src/queue.c ****     }
 110:HAL/Src/queue.c ****     return len;
 434              		.loc 1 110 5 is_stmt 1 view .LVU143
 435              	.LVL37:
 436              	.L24:
 111:HAL/Src/queue.c **** }
 437              		.loc 1 111 1 is_stmt 0 view .LVU144
 438 006e 38BD     		pop	{r3, r4, r5, pc}
 439              	.LVL38:
 440              	.L33:
  97:HAL/Src/queue.c ****     }
 441              		.loc 1 97 20 view .LVU145
 442 0070 4FF0FF30 		mov	r0, #-1
 443 0074 FBE7     		b	.L24
 444              		.cfi_endproc
 445              	.LFE291:
 447              		.section	.text.queue_is_full,"ax",%progbits
 448              		.align	1
 449              		.global	queue_is_full
 450              		.syntax unified
 451              		.thumb
 452              		.thumb_func
 454              	queue_is_full:
 455              	.LVL39:
 456              	.LFB292:
 112:HAL/Src/queue.c **** 
 113:HAL/Src/queue.c **** /**
 114:HAL/Src/queue.c ****  * @brief 判断队列是否满
 115:HAL/Src/queue.c ****  * @param  self             My Param doc
 116:HAL/Src/queue.c ****  * @return int 
 117:HAL/Src/queue.c ****  *  *       -1: 队列无法访问
 118:HAL/Src/queue.c ****  *          1: 队列满
 119:HAL/Src/queue.c ****  *          0: 队列未满
 120:HAL/Src/queue.c ****  */
 121:HAL/Src/queue.c **** 
 122:HAL/Src/queue.c **** int queue_is_full(Queue_HandleTypeDef *self){
 457              		.loc 1 122 45 is_stmt 1 view -0
 458              		.cfi_startproc
ARM GAS  C:\Users\CL\AppData\Local\Temp\cc0LHTSq.s 			page 12


 459              		@ args = 0, pretend = 0, frame = 0
 460              		@ frame_needed = 0, uses_anonymous_args = 0
 461              		.loc 1 122 45 is_stmt 0 view .LVU147
 462 0000 08B5     		push	{r3, lr}
 463              	.LCFI3:
 464              		.cfi_def_cfa_offset 8
 465              		.cfi_offset 3, -8
 466              		.cfi_offset 14, -4
 123:HAL/Src/queue.c ****     int re_code = -1;
 467              		.loc 1 123 5 is_stmt 1 view .LVU148
 468              	.LVL40:
 124:HAL/Src/queue.c ****     if(self->block == 1)
 469              		.loc 1 124 5 view .LVU149
 470              		.loc 1 124 12 is_stmt 0 view .LVU150
 471 0002 0278     		ldrb	r2, [r0]	@ zero_extendqisi2
 472              		.loc 1 124 7 view .LVU151
 473 0004 012A     		cmp	r2, #1
 474 0006 10D0     		beq	.L42
 475 0008 0346     		mov	r3, r0
 125:HAL/Src/queue.c ****     {
 126:HAL/Src/queue.c ****         HAL_Delay(100);
 127:HAL/Src/queue.c ****         if(self->block == 1)
 128:HAL/Src/queue.c ****             re_code = -1;
 129:HAL/Src/queue.c ****     }
 130:HAL/Src/queue.c ****     else{
 131:HAL/Src/queue.c ****         self->block = 1;
 476              		.loc 1 131 9 is_stmt 1 view .LVU152
 477              		.loc 1 131 21 is_stmt 0 view .LVU153
 478 000a 0122     		movs	r2, #1
 479 000c 0270     		strb	r2, [r0]
 132:HAL/Src/queue.c ****        if(self->head == ((self->tail + 1) % self->capacity))
 480              		.loc 1 132 8 is_stmt 1 view .LVU154
 481              		.loc 1 132 15 is_stmt 0 view .LVU155
 482 000e 4088     		ldrh	r0, [r0, #2]
 483              	.LVL41:
 484              		.loc 1 132 31 view .LVU156
 485 0010 9A88     		ldrh	r2, [r3, #4]
 486              		.loc 1 132 38 view .LVU157
 487 0012 0132     		adds	r2, r2, #1
 488              		.loc 1 132 49 view .LVU158
 489 0014 9989     		ldrh	r1, [r3, #12]
 490              		.loc 1 132 43 view .LVU159
 491 0016 92FBF1FC 		sdiv	ip, r2, r1
 492 001a 01FB1C22 		mls	r2, r1, ip, r2
 493              		.loc 1 132 10 view .LVU160
 494 001e 9042     		cmp	r0, r2
 495 0020 09D0     		beq	.L43
 133:HAL/Src/queue.c ****         re_code = 1;
 134:HAL/Src/queue.c ****         else
 135:HAL/Src/queue.c ****         re_code = 0;
 496              		.loc 1 135 17 view .LVU161
 497 0022 0020     		movs	r0, #0
 498              	.L39:
 499              	.LVL42:
 136:HAL/Src/queue.c ****         self->block = 0;
 500              		.loc 1 136 9 is_stmt 1 view .LVU162
 501              		.loc 1 136 21 is_stmt 0 view .LVU163
ARM GAS  C:\Users\CL\AppData\Local\Temp\cc0LHTSq.s 			page 13


 502 0024 0022     		movs	r2, #0
 503 0026 1A70     		strb	r2, [r3]
 137:HAL/Src/queue.c ****     }
 138:HAL/Src/queue.c ****     return re_code;
 504              		.loc 1 138 5 is_stmt 1 view .LVU164
 505              	.LVL43:
 506              	.L36:
 139:HAL/Src/queue.c **** }
 507              		.loc 1 139 1 is_stmt 0 view .LVU165
 508 0028 08BD     		pop	{r3, pc}
 509              	.LVL44:
 510              	.L42:
 126:HAL/Src/queue.c ****         if(self->block == 1)
 511              		.loc 1 126 9 is_stmt 1 view .LVU166
 512 002a 6420     		movs	r0, #100
 513              	.LVL45:
 126:HAL/Src/queue.c ****         if(self->block == 1)
 514              		.loc 1 126 9 is_stmt 0 view .LVU167
 515 002c FFF7FEFF 		bl	HAL_Delay
 516              	.LVL46:
 127:HAL/Src/queue.c ****             re_code = -1;
 517              		.loc 1 127 9 is_stmt 1 view .LVU168
 123:HAL/Src/queue.c ****     if(self->block == 1)
 518              		.loc 1 123 9 is_stmt 0 view .LVU169
 519 0030 4FF0FF30 		mov	r0, #-1
 520 0034 F8E7     		b	.L36
 521              	.LVL47:
 522              	.L43:
 133:HAL/Src/queue.c ****         else
 523              		.loc 1 133 17 view .LVU170
 524 0036 0120     		movs	r0, #1
 525 0038 F4E7     		b	.L39
 526              		.cfi_endproc
 527              	.LFE292:
 529              		.section	.text.queue_is_empty,"ax",%progbits
 530              		.align	1
 531              		.global	queue_is_empty
 532              		.syntax unified
 533              		.thumb
 534              		.thumb_func
 536              	queue_is_empty:
 537              	.LVL48:
 538              	.LFB293:
 140:HAL/Src/queue.c **** 
 141:HAL/Src/queue.c **** /**
 142:HAL/Src/queue.c ****  * @brief 判断队列是否为空
 143:HAL/Src/queue.c ****  * @param  self             My Param doc
 144:HAL/Src/queue.c ****  * @return int 
 145:HAL/Src/queue.c ****  *         -1: 队列无法访问
 146:HAL/Src/queue.c ****  *          1: 队列为空
 147:HAL/Src/queue.c ****  *          0: 队列非空
 148:HAL/Src/queue.c ****  */
 149:HAL/Src/queue.c **** 
 150:HAL/Src/queue.c **** int queue_is_empty(Queue_HandleTypeDef *self){
 539              		.loc 1 150 46 is_stmt 1 view -0
 540              		.cfi_startproc
 541              		@ args = 0, pretend = 0, frame = 0
ARM GAS  C:\Users\CL\AppData\Local\Temp\cc0LHTSq.s 			page 14


 542              		@ frame_needed = 0, uses_anonymous_args = 0
 543              		.loc 1 150 46 is_stmt 0 view .LVU172
 544 0000 08B5     		push	{r3, lr}
 545              	.LCFI4:
 546              		.cfi_def_cfa_offset 8
 547              		.cfi_offset 3, -8
 548              		.cfi_offset 14, -4
 151:HAL/Src/queue.c ****     int re_code = -1;
 549              		.loc 1 151 5 is_stmt 1 view .LVU173
 550              	.LVL49:
 152:HAL/Src/queue.c ****     if(self->block == 1)
 551              		.loc 1 152 5 view .LVU174
 552              		.loc 1 152 12 is_stmt 0 view .LVU175
 553 0002 0278     		ldrb	r2, [r0]	@ zero_extendqisi2
 554              		.loc 1 152 7 view .LVU176
 555 0004 012A     		cmp	r2, #1
 556 0006 0AD0     		beq	.L50
 557 0008 0346     		mov	r3, r0
 153:HAL/Src/queue.c ****     {
 154:HAL/Src/queue.c ****         HAL_Delay(100);
 155:HAL/Src/queue.c ****         if(self->block == 1)
 156:HAL/Src/queue.c ****             re_code = -1;
 157:HAL/Src/queue.c ****     }
 158:HAL/Src/queue.c ****     else{
 159:HAL/Src/queue.c ****         self->block = 1;
 558              		.loc 1 159 9 is_stmt 1 view .LVU177
 559              		.loc 1 159 21 is_stmt 0 view .LVU178
 560 000a 0122     		movs	r2, #1
 561 000c 0270     		strb	r2, [r0]
 160:HAL/Src/queue.c ****        if(self->head == self->tail)
 562              		.loc 1 160 8 is_stmt 1 view .LVU179
 563              		.loc 1 160 15 is_stmt 0 view .LVU180
 564 000e 4188     		ldrh	r1, [r0, #2]
 565              		.loc 1 160 29 view .LVU181
 566 0010 8288     		ldrh	r2, [r0, #4]
 567              		.loc 1 160 10 view .LVU182
 568 0012 9142     		cmp	r1, r2
 569 0014 09D0     		beq	.L51
 161:HAL/Src/queue.c ****         re_code = 1;
 162:HAL/Src/queue.c ****         else
 163:HAL/Src/queue.c ****         re_code = 0;
 570              		.loc 1 163 17 view .LVU183
 571 0016 0020     		movs	r0, #0
 572              	.LVL50:
 573              	.L47:
 164:HAL/Src/queue.c ****         self->block = 0;
 574              		.loc 1 164 9 is_stmt 1 view .LVU184
 575              		.loc 1 164 21 is_stmt 0 view .LVU185
 576 0018 0022     		movs	r2, #0
 577 001a 1A70     		strb	r2, [r3]
 165:HAL/Src/queue.c ****     }
 166:HAL/Src/queue.c ****     return re_code;
 578              		.loc 1 166 5 is_stmt 1 view .LVU186
 579              	.LVL51:
 580              	.L44:
 167:HAL/Src/queue.c **** }...
 581              		.loc 1 167 1 is_stmt 0 view .LVU187
ARM GAS  C:\Users\CL\AppData\Local\Temp\cc0LHTSq.s 			page 15


 582 001c 08BD     		pop	{r3, pc}
 583              	.LVL52:
 584              	.L50:
 154:HAL/Src/queue.c ****         HAL_Delay(100);
 585              		.loc 1 154 9 is_stmt 1 view .LVU188
 586 001e 6420     		movs	r0, #100
 587              	.LVL53:
 154:HAL/Src/queue.c ****         HAL_Delay(100);
 588              		.loc 1 154 9 is_stmt 0 view .LVU189
 589 0020 FFF7FEFF 		bl	HAL_Delay
 590              	.LVL54:
 155:HAL/Src/queue.c ****         if(self->block == 1)
 591              		.loc 1 155 9 is_stmt 1 view .LVU190
 151:HAL/Src/queue.c ****     int re_code = -1;
 592              		.loc 1 151 9 is_stmt 0 view .LVU191
 593 0024 4FF0FF30 		mov	r0, #-1
 594 0028 F8E7     		b	.L44
 595              	.LVL55:
 596              	.L51:
 161:HAL/Src/queue.c ****         re_code = 1;
 597              		.loc 1 161 17 view .LVU192
 598 002a 0120     		movs	r0, #1
 599              	.LVL56:
 161:HAL/Src/queue.c ****         re_code = 1;
 600              		.loc 1 161 17 view .LVU193
 601 002c F4E7     		b	.L47
 602              		.cfi_endproc
 603              	.LFE293:
 605              		.text
 606              	.Letext0:
 607              		.file 2 "e:\\gcc-arm-none-eabi-10.3-2021.10-win32\\gcc-arm-none-eabi-10.3-2021.10\\arm-none-eabi\\
 608              		.file 3 "e:\\gcc-arm-none-eabi-10.3-2021.10-win32\\gcc-arm-none-eabi-10.3-2021.10\\arm-none-eabi\\
 609              		.file 4 "HAL/Inc/queue.h"
 610              		.file 5 "Drivers/STM32L4xx_HAL_Driver/Inc/stm32l4xx_hal.h"
ARM GAS  C:\Users\CL\AppData\Local\Temp\cc0LHTSq.s 			page 16


DEFINED SYMBOLS
                            *ABS*:00000000 queue.c
C:\Users\CL\AppData\Local\Temp\cc0LHTSq.s:20     .text.queue_init:00000000 $t
C:\Users\CL\AppData\Local\Temp\cc0LHTSq.s:26     .text.queue_init:00000000 queue_init
C:\Users\CL\AppData\Local\Temp\cc0LHTSq.s:57     .text.queue_insert:00000000 $t
C:\Users\CL\AppData\Local\Temp\cc0LHTSq.s:63     .text.queue_insert:00000000 queue_insert
C:\Users\CL\AppData\Local\Temp\cc0LHTSq.s:151    .text.queue_pull:00000000 $t
C:\Users\CL\AppData\Local\Temp\cc0LHTSq.s:157    .text.queue_pull:00000000 queue_pull
C:\Users\CL\AppData\Local\Temp\cc0LHTSq.s:299    .text.queue_pop:00000000 $t
C:\Users\CL\AppData\Local\Temp\cc0LHTSq.s:305    .text.queue_pop:00000000 queue_pop
C:\Users\CL\AppData\Local\Temp\cc0LHTSq.s:448    .text.queue_is_full:00000000 $t
C:\Users\CL\AppData\Local\Temp\cc0LHTSq.s:454    .text.queue_is_full:00000000 queue_is_full
C:\Users\CL\AppData\Local\Temp\cc0LHTSq.s:530    .text.queue_is_empty:00000000 $t
C:\Users\CL\AppData\Local\Temp\cc0LHTSq.s:536    .text.queue_is_empty:00000000 queue_is_empty

UNDEFINED SYMBOLS
HAL_Delay
