ARM GAS  C:\Users\CL\AppData\Local\Temp\ccjSxRrH.s 			page 1


   1              		.cpu cortex-m4
   2              		.arch armv7e-m
   3              		.fpu fpv4-sp-d16
   4              		.eabi_attribute 27, 1
   5              		.eabi_attribute 28, 1
   6              		.eabi_attribute 20, 1
   7              		.eabi_attribute 21, 1
   8              		.eabi_attribute 23, 3
   9              		.eabi_attribute 24, 1
  10              		.eabi_attribute 25, 1
  11              		.eabi_attribute 26, 1
  12              		.eabi_attribute 30, 1
  13              		.eabi_attribute 34, 1
  14              		.eabi_attribute 18, 4
  15              		.file	"rs485.c"
  16              		.text
  17              	.Ltext0:
  18              		.cfi_sections	.debug_frame
  19              		.section	.text.RS485_Init,"ax",%progbits
  20              		.align	1
  21              		.global	RS485_Init
  22              		.syntax unified
  23              		.thumb
  24              		.thumb_func
  26              	RS485_Init:
  27              	.LVL0:
  28              	.LFB288:
  29              		.file 1 "FML/Src/rs485.c"
   1:FML/Src/rs485.c **** /*----------------------------------include-----------------------------------*/
   2:FML/Src/rs485.c **** #include "rs485.h"
   3:FML/Src/rs485.c **** #include "usart.h"
   4:FML/Src/rs485.c **** /*-----------------------------------macro------------------------------------*/
   5:FML/Src/rs485.c **** 
   6:FML/Src/rs485.c **** /*----------------------------------typedef-----------------------------------*/
   7:FML/Src/rs485.c **** 
   8:FML/Src/rs485.c **** /*----------------------------------variable----------------------------------*/
   9:FML/Src/rs485.c **** 
  10:FML/Src/rs485.c **** RS485_HandleTypeDef dev_rs485[] ={
  11:FML/Src/rs485.c ****     {
  12:FML/Src/rs485.c ****         &huart3,
  13:FML/Src/rs485.c ****         GPIOB,
  14:FML/Src/rs485.c ****         GPIO_PIN_2
  15:FML/Src/rs485.c ****     }
  16:FML/Src/rs485.c **** };
  17:FML/Src/rs485.c **** /*-------------------------------------os-------------------------------------*/
  18:FML/Src/rs485.c **** 
  19:FML/Src/rs485.c **** /*----------------------------------function----------------------------------*/
  20:FML/Src/rs485.c **** void RS485_Init(RS485_HandleTypeDef *rs485) {
  30              		.loc 1 20 45 view -0
  31              		.cfi_startproc
  32              		@ args = 0, pretend = 0, frame = 24
  33              		@ frame_needed = 0, uses_anonymous_args = 0
  34              		.loc 1 20 45 is_stmt 0 view .LVU1
  35 0000 30B5     		push	{r4, r5, lr}
  36              	.LCFI0:
  37              		.cfi_def_cfa_offset 12
  38              		.cfi_offset 4, -12
ARM GAS  C:\Users\CL\AppData\Local\Temp\ccjSxRrH.s 			page 2


  39              		.cfi_offset 5, -8
  40              		.cfi_offset 14, -4
  41 0002 87B0     		sub	sp, sp, #28
  42              	.LCFI1:
  43              		.cfi_def_cfa_offset 40
  44 0004 0446     		mov	r4, r0
  21:FML/Src/rs485.c ****     GPIO_InitTypeDef GPIO_InitStruct = {0};
  45              		.loc 1 21 5 is_stmt 1 view .LVU2
  46              		.loc 1 21 22 is_stmt 0 view .LVU3
  47 0006 0025     		movs	r5, #0
  48 0008 0195     		str	r5, [sp, #4]
  49 000a 0295     		str	r5, [sp, #8]
  50 000c 0395     		str	r5, [sp, #12]
  51 000e 0495     		str	r5, [sp, #16]
  52 0010 0595     		str	r5, [sp, #20]
  22:FML/Src/rs485.c ****     
  23:FML/Src/rs485.c ****     // 使能UART和GPIO时钟
  24:FML/Src/rs485.c ****     //__HAL_RCC_UARTX_CLK_ENABLE(); // 替换为实际的UART时钟
  25:FML/Src/rs485.c ****     __HAL_RCC_GPIOB_CLK_ENABLE(); // 替换为实际的GPIO时钟
  53              		.loc 1 25 5 is_stmt 1 view .LVU4
  54              	.LBB2:
  55              		.loc 1 25 5 view .LVU5
  56              		.loc 1 25 5 view .LVU6
  57 0012 0C4B     		ldr	r3, .L3
  58 0014 DA6C     		ldr	r2, [r3, #76]
  59 0016 42F00202 		orr	r2, r2, #2
  60 001a DA64     		str	r2, [r3, #76]
  61              		.loc 1 25 5 view .LVU7
  62 001c DB6C     		ldr	r3, [r3, #76]
  63 001e 03F00203 		and	r3, r3, #2
  64 0022 0093     		str	r3, [sp]
  65              		.loc 1 25 5 view .LVU8
  66 0024 009B     		ldr	r3, [sp]
  67              	.LBE2:
  68              		.loc 1 25 5 view .LVU9
  26:FML/Src/rs485.c ****     
  27:FML/Src/rs485.c ****     // 配置GPIO引脚
  28:FML/Src/rs485.c ****     GPIO_InitStruct.Pin = rs485->de_pin;
  69              		.loc 1 28 5 view .LVU10
  70              		.loc 1 28 32 is_stmt 0 view .LVU11
  71 0026 0389     		ldrh	r3, [r0, #8]
  72              		.loc 1 28 25 view .LVU12
  73 0028 0193     		str	r3, [sp, #4]
  29:FML/Src/rs485.c ****     GPIO_InitStruct.Mode = GPIO_MODE_OUTPUT_PP;
  74              		.loc 1 29 5 is_stmt 1 view .LVU13
  75              		.loc 1 29 26 is_stmt 0 view .LVU14
  76 002a 0123     		movs	r3, #1
  77 002c 0293     		str	r3, [sp, #8]
  30:FML/Src/rs485.c ****     GPIO_InitStruct.Pull = GPIO_NOPULL;
  78              		.loc 1 30 5 is_stmt 1 view .LVU15
  31:FML/Src/rs485.c ****     GPIO_InitStruct.Speed = GPIO_SPEED_FREQ_LOW;
  79              		.loc 1 31 5 view .LVU16
  32:FML/Src/rs485.c ****     HAL_GPIO_Init(rs485->de_port, &GPIO_InitStruct);
  80              		.loc 1 32 5 view .LVU17
  81 002e 01A9     		add	r1, sp, #4
  82 0030 4068     		ldr	r0, [r0, #4]
  83              	.LVL1:
ARM GAS  C:\Users\CL\AppData\Local\Temp\ccjSxRrH.s 			page 3


  84              		.loc 1 32 5 is_stmt 0 view .LVU18
  85 0032 FFF7FEFF 		bl	HAL_GPIO_Init
  86              	.LVL2:
  33:FML/Src/rs485.c ****     
  34:FML/Src/rs485.c ****     // 初始化UART
  35:FML/Src/rs485.c ****     // rs485->huart.Instance = USART3;
  36:FML/Src/rs485.c ****     // rs485->huart.Init.BaudRate = 115200;
  37:FML/Src/rs485.c ****     // rs485->huart.Init.WordLength = UART_WORDLENGTH_8B;
  38:FML/Src/rs485.c ****     // rs485->huart.Init.StopBits = UART_STOPBITS_1;
  39:FML/Src/rs485.c ****     // rs485->huart.Init.Parity = UART_PARITY_NONE;
  40:FML/Src/rs485.c ****     // rs485->huart.Init.Mode = UART_MODE_TX_RX;
  41:FML/Src/rs485.c ****     // rs485->huart.Init.HwFlowCtl = UART_HWCONTROL_NONE;
  42:FML/Src/rs485.c ****     // rs485->huart.Init.OverSampling = UART_OVERSAMPLING_16;
  43:FML/Src/rs485.c ****     // rs485->huart.Init.OneBitSampling = UART_ONE_BIT_SAMPLE_DISABLE;
  44:FML/Src/rs485.c ****     // rs485->huart.AdvancedInit.AdvFeatureInit = UART_ADVFEATURE_NO_INIT;
  45:FML/Src/rs485.c ****     // HAL_UART_Init(rs485->huart);
  46:FML/Src/rs485.c ****     
  47:FML/Src/rs485.c ****     // 初始化DE引脚为发送模式
  48:FML/Src/rs485.c ****     HAL_GPIO_WritePin(rs485->de_port, rs485->de_pin, GPIO_PIN_RESET);
  87              		.loc 1 48 5 is_stmt 1 view .LVU19
  88 0036 2A46     		mov	r2, r5
  89 0038 2189     		ldrh	r1, [r4, #8]
  90 003a 6068     		ldr	r0, [r4, #4]
  91 003c FFF7FEFF 		bl	HAL_GPIO_WritePin
  92              	.LVL3:
  49:FML/Src/rs485.c **** }
  93              		.loc 1 49 1 is_stmt 0 view .LVU20
  94 0040 07B0     		add	sp, sp, #28
  95              	.LCFI2:
  96              		.cfi_def_cfa_offset 12
  97              		@ sp needed
  98 0042 30BD     		pop	{r4, r5, pc}
  99              	.LVL4:
 100              	.L4:
 101              		.loc 1 49 1 view .LVU21
 102              		.align	2
 103              	.L3:
 104 0044 00100240 		.word	1073876992
 105              		.cfi_endproc
 106              	.LFE288:
 108              		.section	.text.RS485_SendData,"ax",%progbits
 109              		.align	1
 110              		.global	RS485_SendData
 111              		.syntax unified
 112              		.thumb
 113              		.thumb_func
 115              	RS485_SendData:
 116              	.LVL5:
 117              	.LFB289:
  50:FML/Src/rs485.c **** 
  51:FML/Src/rs485.c **** void RS485_SendData(RS485_HandleTypeDef *rs485, uint8_t *data, uint16_t size) {
 118              		.loc 1 51 79 is_stmt 1 view -0
 119              		.cfi_startproc
 120              		@ args = 0, pretend = 0, frame = 0
 121              		@ frame_needed = 0, uses_anonymous_args = 0
 122              		.loc 1 51 79 is_stmt 0 view .LVU23
 123 0000 70B5     		push	{r4, r5, r6, lr}
ARM GAS  C:\Users\CL\AppData\Local\Temp\ccjSxRrH.s 			page 4


 124              	.LCFI3:
 125              		.cfi_def_cfa_offset 16
 126              		.cfi_offset 4, -16
 127              		.cfi_offset 5, -12
 128              		.cfi_offset 6, -8
 129              		.cfi_offset 14, -4
 130 0002 0446     		mov	r4, r0
 131 0004 0D46     		mov	r5, r1
 132 0006 1646     		mov	r6, r2
  52:FML/Src/rs485.c ****     // 切换到发送模式
  53:FML/Src/rs485.c ****     HAL_GPIO_WritePin(rs485->de_port, rs485->de_pin, GPIO_PIN_SET);
 133              		.loc 1 53 5 is_stmt 1 view .LVU24
 134 0008 0122     		movs	r2, #1
 135              	.LVL6:
 136              		.loc 1 53 5 is_stmt 0 view .LVU25
 137 000a 0189     		ldrh	r1, [r0, #8]
 138              	.LVL7:
 139              		.loc 1 53 5 view .LVU26
 140 000c 4068     		ldr	r0, [r0, #4]
 141              	.LVL8:
 142              		.loc 1 53 5 view .LVU27
 143 000e FFF7FEFF 		bl	HAL_GPIO_WritePin
 144              	.LVL9:
  54:FML/Src/rs485.c ****     
  55:FML/Src/rs485.c ****     // 发送数据
  56:FML/Src/rs485.c ****     HAL_UART_Transmit(rs485->huart, data, size, HAL_MAX_DELAY);
 145              		.loc 1 56 5 is_stmt 1 view .LVU28
 146 0012 4FF0FF33 		mov	r3, #-1
 147 0016 3246     		mov	r2, r6
 148 0018 2946     		mov	r1, r5
 149 001a 2068     		ldr	r0, [r4]
 150 001c FFF7FEFF 		bl	HAL_UART_Transmit
 151              	.LVL10:
  57:FML/Src/rs485.c ****     
  58:FML/Src/rs485.c ****     // 切换到接收模式
  59:FML/Src/rs485.c ****     HAL_GPIO_WritePin(rs485->de_port, rs485->de_pin, GPIO_PIN_RESET);
 152              		.loc 1 59 5 view .LVU29
 153 0020 0022     		movs	r2, #0
 154 0022 2189     		ldrh	r1, [r4, #8]
 155 0024 6068     		ldr	r0, [r4, #4]
 156 0026 FFF7FEFF 		bl	HAL_GPIO_WritePin
 157              	.LVL11:
  60:FML/Src/rs485.c **** }
 158              		.loc 1 60 1 is_stmt 0 view .LVU30
 159 002a 70BD     		pop	{r4, r5, r6, pc}
 160              		.loc 1 60 1 view .LVU31
 161              		.cfi_endproc
 162              	.LFE289:
 164              		.section	.text.RS485_ReceiveData,"ax",%progbits
 165              		.align	1
 166              		.global	RS485_ReceiveData
 167              		.syntax unified
 168              		.thumb
 169              		.thumb_func
 171              	RS485_ReceiveData:
 172              	.LVL12:
 173              	.LFB290:
ARM GAS  C:\Users\CL\AppData\Local\Temp\ccjSxRrH.s 			page 5


  61:FML/Src/rs485.c **** 
  62:FML/Src/rs485.c **** void RS485_ReceiveData(RS485_HandleTypeDef *rs485, uint8_t *data, uint16_t size) {
 174              		.loc 1 62 82 is_stmt 1 view -0
 175              		.cfi_startproc
 176              		@ args = 0, pretend = 0, frame = 0
 177              		@ frame_needed = 0, uses_anonymous_args = 0
 178              		.loc 1 62 82 is_stmt 0 view .LVU33
 179 0000 70B5     		push	{r4, r5, r6, lr}
 180              	.LCFI4:
 181              		.cfi_def_cfa_offset 16
 182              		.cfi_offset 4, -16
 183              		.cfi_offset 5, -12
 184              		.cfi_offset 6, -8
 185              		.cfi_offset 14, -4
 186 0002 0446     		mov	r4, r0
 187 0004 0D46     		mov	r5, r1
 188 0006 1646     		mov	r6, r2
  63:FML/Src/rs485.c ****     // 切换到接收模式
  64:FML/Src/rs485.c ****     HAL_GPIO_WritePin(rs485->de_port, rs485->de_pin, GPIO_PIN_RESET);
 189              		.loc 1 64 5 is_stmt 1 view .LVU34
 190 0008 0022     		movs	r2, #0
 191              	.LVL13:
 192              		.loc 1 64 5 is_stmt 0 view .LVU35
 193 000a 0189     		ldrh	r1, [r0, #8]
 194              	.LVL14:
 195              		.loc 1 64 5 view .LVU36
 196 000c 4068     		ldr	r0, [r0, #4]
 197              	.LVL15:
 198              		.loc 1 64 5 view .LVU37
 199 000e FFF7FEFF 		bl	HAL_GPIO_WritePin
 200              	.LVL16:
  65:FML/Src/rs485.c ****     
  66:FML/Src/rs485.c ****     // 接收数据
  67:FML/Src/rs485.c ****     HAL_UART_Receive(rs485->huart, data, size, HAL_MAX_DELAY);
 201              		.loc 1 67 5 is_stmt 1 view .LVU38
 202 0012 4FF0FF33 		mov	r3, #-1
 203 0016 3246     		mov	r2, r6
 204 0018 2946     		mov	r1, r5
 205 001a 2068     		ldr	r0, [r4]
 206 001c FFF7FEFF 		bl	HAL_UART_Receive
 207              	.LVL17:
  68:FML/Src/rs485.c **** }
 208              		.loc 1 68 1 is_stmt 0 view .LVU39
 209 0020 70BD     		pop	{r4, r5, r6, pc}
 210              		.loc 1 68 1 view .LVU40
 211              		.cfi_endproc
 212              	.LFE290:
 214              		.global	dev_rs485
 215              		.section	.data.dev_rs485,"aw"
 216              		.align	2
 219              	dev_rs485:
 220 0000 00000000 		.word	huart3
 221 0004 00040048 		.word	1207960576
 222 0008 0400     		.short	4
 223 000a 0000     		.space	2
 224              		.text
 225              	.Letext0:
ARM GAS  C:\Users\CL\AppData\Local\Temp\ccjSxRrH.s 			page 6


 226              		.file 2 "e:\\gcc-arm-none-eabi-10.3-2021.10-win32\\gcc-arm-none-eabi-10.3-2021.10\\arm-none-eabi\\
 227              		.file 3 "e:\\gcc-arm-none-eabi-10.3-2021.10-win32\\gcc-arm-none-eabi-10.3-2021.10\\arm-none-eabi\\
 228              		.file 4 "Drivers/CMSIS/Device/ST/STM32L4xx/Include/stm32l431xx.h"
 229              		.file 5 "Drivers/STM32L4xx_HAL_Driver/Inc/stm32l4xx_hal_def.h"
 230              		.file 6 "Drivers/STM32L4xx_HAL_Driver/Inc/stm32l4xx_hal_gpio.h"
 231              		.file 7 "Drivers/STM32L4xx_HAL_Driver/Inc/stm32l4xx_hal_dma.h"
 232              		.file 8 "Drivers/STM32L4xx_HAL_Driver/Inc/stm32l4xx_hal_uart.h"
 233              		.file 9 "FML/Inc/rs485.h"
 234              		.file 10 "HAL/Inc/usart.h"
ARM GAS  C:\Users\CL\AppData\Local\Temp\ccjSxRrH.s 			page 7


DEFINED SYMBOLS
                            *ABS*:00000000 rs485.c
C:\Users\CL\AppData\Local\Temp\ccjSxRrH.s:20     .text.RS485_Init:00000000 $t
C:\Users\CL\AppData\Local\Temp\ccjSxRrH.s:26     .text.RS485_Init:00000000 RS485_Init
C:\Users\CL\AppData\Local\Temp\ccjSxRrH.s:104    .text.RS485_Init:00000044 $d
C:\Users\CL\AppData\Local\Temp\ccjSxRrH.s:109    .text.RS485_SendData:00000000 $t
C:\Users\CL\AppData\Local\Temp\ccjSxRrH.s:115    .text.RS485_SendData:00000000 RS485_SendData
C:\Users\CL\AppData\Local\Temp\ccjSxRrH.s:165    .text.RS485_ReceiveData:00000000 $t
C:\Users\CL\AppData\Local\Temp\ccjSxRrH.s:171    .text.RS485_ReceiveData:00000000 RS485_ReceiveData
C:\Users\CL\AppData\Local\Temp\ccjSxRrH.s:219    .data.dev_rs485:00000000 dev_rs485
C:\Users\CL\AppData\Local\Temp\ccjSxRrH.s:216    .data.dev_rs485:00000000 $d

UNDEFINED SYMBOLS
HAL_GPIO_Init
HAL_GPIO_WritePin
HAL_UART_Transmit
HAL_UART_Receive
huart3
