ARM GAS  C:\Users\CL\AppData\Local\Temp\cc41uYxG.s 			page 1


   1              		.cpu cortex-m4
   2              		.arch armv7e-m
   3              		.fpu fpv4-sp-d16
   4              		.eabi_attribute 27, 1
   5              		.eabi_attribute 28, 1
   6              		.eabi_attribute 20, 1
   7              		.eabi_attribute 21, 1
   8              		.eabi_attribute 23, 3
   9              		.eabi_attribute 24, 1
  10              		.eabi_attribute 25, 1
  11              		.eabi_attribute 26, 1
  12              		.eabi_attribute 30, 4
  13              		.eabi_attribute 34, 1
  14              		.eabi_attribute 18, 4
  15              		.file	"rs485.c"
  16              		.text
  17              		.section	.text.RS485_Init,"ax",%progbits
  18              		.align	1
  19              		.global	RS485_Init
  20              		.syntax unified
  21              		.thumb
  22              		.thumb_func
  24              	RS485_Init:
  25              		@ args = 0, pretend = 0, frame = 24
  26              		@ frame_needed = 0, uses_anonymous_args = 0
  27 0000 30B5     		push	{r4, r5, lr}
  28 0002 0025     		movs	r5, #0
  29 0004 87B0     		sub	sp, sp, #28
  30 0006 CDE90355 		strd	r5, r5, [sp, #12]
  31 000a 0D4B     		ldr	r3, .L2
  32 000c 0595     		str	r5, [sp, #20]
  33 000e DA6C     		ldr	r2, [r3, #76]
  34 0010 42F00202 		orr	r2, r2, #2
  35 0014 DA64     		str	r2, [r3, #76]
  36 0016 DB6C     		ldr	r3, [r3, #76]
  37 0018 03F00203 		and	r3, r3, #2
  38 001c 0093     		str	r3, [sp]
  39 001e 0446     		mov	r4, r0
  40 0020 009B     		ldr	r3, [sp]
  41 0022 0389     		ldrh	r3, [r0, #8]
  42 0024 0193     		str	r3, [sp, #4]
  43 0026 01A9     		add	r1, sp, #4
  44 0028 0123     		movs	r3, #1
  45 002a 4068     		ldr	r0, [r0, #4]
  46 002c 0293     		str	r3, [sp, #8]
  47 002e FFF7FEFF 		bl	HAL_GPIO_Init
  48 0032 2189     		ldrh	r1, [r4, #8]
  49 0034 6068     		ldr	r0, [r4, #4]
  50 0036 2A46     		mov	r2, r5
  51 0038 FFF7FEFF 		bl	HAL_GPIO_WritePin
  52 003c 07B0     		add	sp, sp, #28
  53              		@ sp needed
  54 003e 30BD     		pop	{r4, r5, pc}
  55              	.L3:
  56              		.align	2
  57              	.L2:
  58 0040 00100240 		.word	1073876992
ARM GAS  C:\Users\CL\AppData\Local\Temp\cc41uYxG.s 			page 2


  60              		.section	.text.RS485_SendData,"ax",%progbits
  61              		.align	1
  62              		.global	RS485_SendData
  63              		.syntax unified
  64              		.thumb
  65              		.thumb_func
  67              	RS485_SendData:
  68              		@ args = 0, pretend = 0, frame = 0
  69              		@ frame_needed = 0, uses_anonymous_args = 0
  70 0000 70B5     		push	{r4, r5, r6, lr}
  71 0002 0446     		mov	r4, r0
  72 0004 0D46     		mov	r5, r1
  73 0006 1646     		mov	r6, r2
  74 0008 0189     		ldrh	r1, [r0, #8]
  75 000a 4068     		ldr	r0, [r0, #4]
  76 000c 0122     		movs	r2, #1
  77 000e FFF7FEFF 		bl	HAL_GPIO_WritePin
  78 0012 3246     		mov	r2, r6
  79 0014 2946     		mov	r1, r5
  80 0016 2068     		ldr	r0, [r4]
  81 0018 4FF0FF33 		mov	r3, #-1
  82 001c FFF7FEFF 		bl	HAL_UART_Transmit
  83 0020 2189     		ldrh	r1, [r4, #8]
  84 0022 6068     		ldr	r0, [r4, #4]
  85 0024 0022     		movs	r2, #0
  86 0026 BDE87040 		pop	{r4, r5, r6, lr}
  87 002a FFF7FEBF 		b	HAL_GPIO_WritePin
  89              		.section	.text.RS485_Test,"ax",%progbits
  90              		.align	1
  91              		.global	RS485_Test
  92              		.syntax unified
  93              		.thumb
  94              		.thumb_func
  96              	RS485_Test:
  97              		@ args = 0, pretend = 0, frame = 8
  98              		@ frame_needed = 0, uses_anonymous_args = 0
  99 0000 07B5     		push	{r0, r1, r2, lr}
 100 0002 0190     		str	r0, [sp, #4]
 101 0004 FFF7FEFF 		bl	strlen
 102 0008 0199     		ldr	r1, [sp, #4]
 103 000a 82B2     		uxth	r2, r0
 104 000c 0448     		ldr	r0, .L6
 105 000e FFF7FEFF 		bl	RS485_SendData
 106 0012 044A     		ldr	r2, .L6+4
 107 0014 1378     		ldrb	r3, [r2]	@ zero_extendqisi2
 108 0016 0133     		adds	r3, r3, #1
 109 0018 1370     		strb	r3, [r2]
 110 001a 03B0     		add	sp, sp, #12
 111              		@ sp needed
 112 001c 5DF804FB 		ldr	pc, [sp], #4
 113              	.L7:
 114              		.align	2
 115              	.L6:
 116 0020 00000000 		.word	.LANCHOR0
 117 0024 00000000 		.word	test_ok_cnt
 119              		.section	.text.RS485_ReceiveData,"ax",%progbits
 120              		.align	1
ARM GAS  C:\Users\CL\AppData\Local\Temp\cc41uYxG.s 			page 3


 121              		.global	RS485_ReceiveData
 122              		.syntax unified
 123              		.thumb
 124              		.thumb_func
 126              	RS485_ReceiveData:
 127              		@ args = 0, pretend = 0, frame = 0
 128              		@ frame_needed = 0, uses_anonymous_args = 0
 129 0000 70B5     		push	{r4, r5, r6, lr}
 130 0002 0446     		mov	r4, r0
 131 0004 0D46     		mov	r5, r1
 132 0006 1646     		mov	r6, r2
 133 0008 0189     		ldrh	r1, [r0, #8]
 134 000a 4068     		ldr	r0, [r0, #4]
 135 000c 0022     		movs	r2, #0
 136 000e FFF7FEFF 		bl	HAL_GPIO_WritePin
 137 0012 2068     		ldr	r0, [r4]
 138 0014 3246     		mov	r2, r6
 139 0016 2946     		mov	r1, r5
 140 0018 4FF0FF33 		mov	r3, #-1
 141 001c BDE87040 		pop	{r4, r5, r6, lr}
 142 0020 FFF7FEBF 		b	HAL_UART_Receive
 144              		.global	shellCommandrs485_test
 145              		.global	shellDescrs485_test
 146              		.global	shellCmdrs485_test
 147              		.global	dev_rs485
 148              		.section	.data.dev_rs485,"aw"
 149              		.align	2
 150              		.set	.LANCHOR0,. + 0
 153              	dev_rs485:
 154 0000 00000000 		.word	huart3
 155 0004 00040048 		.word	1207960576
 156 0008 0400     		.short	4
 157 000a 0000     		.space	2
 158              		.section	.rodata.shellCmdrs485_test,"a"
 161              	shellCmdrs485_test:
 162 0000 72733438 		.ascii	"rs485_test\000"
 162      355F7465 
 162      737400
 163              		.section	.rodata.shellDescrs485_test,"a"
 166              	shellDescrs485_test:
 167 0000 72733438 		.ascii	"rs485 send test\000"
 167      35207365 
 167      6E642074 
 167      65737400 
 168              		.section	shellCommand,"a"
 171              	shellCommandrs485_test:
 172 0000 00210000 		.4byte	8448
 173 0004 00000000 		.4byte	shellCmdrs485_test
 174 0008 00000000 		.4byte	RS485_Test
 175 000c 00000000 		.4byte	shellDescrs485_test
 176              		.ident	"GCC: (GNU Arm Embedded Toolchain 10.3-2021.10) 10.3.1 20210824 (release)"
ARM GAS  C:\Users\CL\AppData\Local\Temp\cc41uYxG.s 			page 4


DEFINED SYMBOLS
                            *ABS*:00000000 rs485.c
C:\Users\CL\AppData\Local\Temp\cc41uYxG.s:18     .text.RS485_Init:00000000 $t
C:\Users\CL\AppData\Local\Temp\cc41uYxG.s:24     .text.RS485_Init:00000000 RS485_Init
C:\Users\CL\AppData\Local\Temp\cc41uYxG.s:58     .text.RS485_Init:00000040 $d
C:\Users\CL\AppData\Local\Temp\cc41uYxG.s:61     .text.RS485_SendData:00000000 $t
C:\Users\CL\AppData\Local\Temp\cc41uYxG.s:67     .text.RS485_SendData:00000000 RS485_SendData
C:\Users\CL\AppData\Local\Temp\cc41uYxG.s:90     .text.RS485_Test:00000000 $t
C:\Users\CL\AppData\Local\Temp\cc41uYxG.s:96     .text.RS485_Test:00000000 RS485_Test
C:\Users\CL\AppData\Local\Temp\cc41uYxG.s:116    .text.RS485_Test:00000020 $d
C:\Users\CL\AppData\Local\Temp\cc41uYxG.s:120    .text.RS485_ReceiveData:00000000 $t
C:\Users\CL\AppData\Local\Temp\cc41uYxG.s:126    .text.RS485_ReceiveData:00000000 RS485_ReceiveData
C:\Users\CL\AppData\Local\Temp\cc41uYxG.s:171    shellCommand:00000000 shellCommandrs485_test
C:\Users\CL\AppData\Local\Temp\cc41uYxG.s:166    .rodata.shellDescrs485_test:00000000 shellDescrs485_test
C:\Users\CL\AppData\Local\Temp\cc41uYxG.s:161    .rodata.shellCmdrs485_test:00000000 shellCmdrs485_test
C:\Users\CL\AppData\Local\Temp\cc41uYxG.s:153    .data.dev_rs485:00000000 dev_rs485
C:\Users\CL\AppData\Local\Temp\cc41uYxG.s:149    .data.dev_rs485:00000000 $d

UNDEFINED SYMBOLS
HAL_GPIO_Init
HAL_GPIO_WritePin
HAL_UART_Transmit
strlen
test_ok_cnt
HAL_UART_Receive
huart3
