ARM GAS  C:\Users\CL\AppData\Local\Temp\ccoMTeCk.s 			page 1


   1              		.cpu cortex-m4
   2              		.arch armv7e-m
   3              		.fpu fpv4-sp-d16
   4              		.eabi_attribute 27, 1
   5              		.eabi_attribute 28, 1
   6              		.eabi_attribute 20, 1
   7              		.eabi_attribute 21, 1
   8              		.eabi_attribute 23, 3
   9              		.eabi_attribute 24, 1
  10              		.eabi_attribute 25, 1
  11              		.eabi_attribute 26, 1
  12              		.eabi_attribute 30, 4
  13              		.eabi_attribute 34, 1
  14              		.eabi_attribute 18, 4
  15              		.file	"shell.c"
  16              		.text
  17              	.Ltext0:
  18              		.cfi_sections	.debug_frame
  19              		.section	.text.shellStringCopy,"ax",%progbits
  20              		.align	1
  21              		.syntax unified
  22              		.thumb
  23              		.thumb_func
  25              	shellStringCopy:
  26              	.LVL0:
  27              	.LFB15:
  28              		.file 1 "ThirdParty/Letter-shell/Src/shell.c"
   1:ThirdParty/Letter-shell/Src/shell.c **** /**
   2:ThirdParty/Letter-shell/Src/shell.c ****  * @file shell.c
   3:ThirdParty/Letter-shell/Src/shell.c ****  * @author Letter (NevermindZZT@gmail.com)
   4:ThirdParty/Letter-shell/Src/shell.c ****  * @version 3.0.0
   5:ThirdParty/Letter-shell/Src/shell.c ****  * @date 2019-12-30
   6:ThirdParty/Letter-shell/Src/shell.c ****  * 
   7:ThirdParty/Letter-shell/Src/shell.c ****  * @copyright (c) 2020 Letter
   8:ThirdParty/Letter-shell/Src/shell.c ****  * 
   9:ThirdParty/Letter-shell/Src/shell.c ****  */
  10:ThirdParty/Letter-shell/Src/shell.c **** 
  11:ThirdParty/Letter-shell/Src/shell.c **** #include "shell.h"
  12:ThirdParty/Letter-shell/Src/shell.c **** #include "string.h"
  13:ThirdParty/Letter-shell/Src/shell.c **** #include "stdio.h"
  14:ThirdParty/Letter-shell/Src/shell.c **** #include "stdarg.h"
  15:ThirdParty/Letter-shell/Src/shell.c **** #include "shell_ext.h"
  16:ThirdParty/Letter-shell/Src/shell.c **** uint16_t shellidle_cnt = 0;
  17:ThirdParty/Letter-shell/Src/shell.c **** 
  18:ThirdParty/Letter-shell/Src/shell.c **** #if SHELL_USING_CMD_EXPORT == 1
  19:ThirdParty/Letter-shell/Src/shell.c **** /**
  20:ThirdParty/Letter-shell/Src/shell.c ****  * @brief 默认用户
  21:ThirdParty/Letter-shell/Src/shell.c ****  */
  22:ThirdParty/Letter-shell/Src/shell.c **** const char shellCmdDefaultUser[] = SHELL_DEFAULT_USER;
  23:ThirdParty/Letter-shell/Src/shell.c **** const char shellPasswordDefaultUser[] = SHELL_DEFAULT_USER_PASSWORD;
  24:ThirdParty/Letter-shell/Src/shell.c **** const char shellDesDefaultUser[] = "default user";
  25:ThirdParty/Letter-shell/Src/shell.c **** SHELL_USED const ShellCommand shellUserDefault SHELL_SECTION("shellCommand") =
  26:ThirdParty/Letter-shell/Src/shell.c **** {
  27:ThirdParty/Letter-shell/Src/shell.c ****     .attr.value = SHELL_CMD_PERMISSION(0)|SHELL_CMD_TYPE(SHELL_TYPE_USER),
  28:ThirdParty/Letter-shell/Src/shell.c ****     .data.user.name = shellCmdDefaultUser,
  29:ThirdParty/Letter-shell/Src/shell.c ****     .data.user.password = shellPasswordDefaultUser,
  30:ThirdParty/Letter-shell/Src/shell.c ****     .data.user.desc = shellDesDefaultUser
ARM GAS  C:\Users\CL\AppData\Local\Temp\ccoMTeCk.s 			page 2


  31:ThirdParty/Letter-shell/Src/shell.c **** };
  32:ThirdParty/Letter-shell/Src/shell.c **** #endif
  33:ThirdParty/Letter-shell/Src/shell.c **** 
  34:ThirdParty/Letter-shell/Src/shell.c **** #if SHELL_USING_CMD_EXPORT == 1
  35:ThirdParty/Letter-shell/Src/shell.c ****     #if defined(__CC_ARM) || (defined(__ARMCC_VERSION) && __ARMCC_VERSION >= 6000000)
  36:ThirdParty/Letter-shell/Src/shell.c ****         extern const unsigned int shellCommand$$Base;
  37:ThirdParty/Letter-shell/Src/shell.c ****         extern const unsigned int shellCommand$$Limit;
  38:ThirdParty/Letter-shell/Src/shell.c ****     #elif defined(__ICCARM__) || defined(__ICCRX__)
  39:ThirdParty/Letter-shell/Src/shell.c ****         #pragma section="shellCommand"
  40:ThirdParty/Letter-shell/Src/shell.c ****     #elif defined(__GNUC__)
  41:ThirdParty/Letter-shell/Src/shell.c ****         extern const unsigned int _shell_command_start;
  42:ThirdParty/Letter-shell/Src/shell.c ****         extern const unsigned int _shell_command_end;
  43:ThirdParty/Letter-shell/Src/shell.c ****     #endif
  44:ThirdParty/Letter-shell/Src/shell.c **** #else
  45:ThirdParty/Letter-shell/Src/shell.c ****     extern const ShellCommand shellCommandList[];
  46:ThirdParty/Letter-shell/Src/shell.c ****     extern const unsigned short shellCommandCount;
  47:ThirdParty/Letter-shell/Src/shell.c **** #endif
  48:ThirdParty/Letter-shell/Src/shell.c **** 
  49:ThirdParty/Letter-shell/Src/shell.c **** 
  50:ThirdParty/Letter-shell/Src/shell.c **** /**
  51:ThirdParty/Letter-shell/Src/shell.c ****  * @brief shell 常量文本索引
  52:ThirdParty/Letter-shell/Src/shell.c ****  */
  53:ThirdParty/Letter-shell/Src/shell.c **** enum
  54:ThirdParty/Letter-shell/Src/shell.c **** {
  55:ThirdParty/Letter-shell/Src/shell.c **** #if SHELL_SHOW_INFO == 1
  56:ThirdParty/Letter-shell/Src/shell.c ****     SHELL_TEXT_INFO,                                    /**< shell信息 */
  57:ThirdParty/Letter-shell/Src/shell.c **** #endif
  58:ThirdParty/Letter-shell/Src/shell.c ****     SHELL_TEXT_CMD_TOO_LONG,                            /**< 命令过长 */
  59:ThirdParty/Letter-shell/Src/shell.c ****     SHELL_TEXT_CMD_LIST,                                /**< 可执行命令列表标题 */
  60:ThirdParty/Letter-shell/Src/shell.c ****     SHELL_TEXT_VAR_LIST,                                /**< 变量列表标题 */
  61:ThirdParty/Letter-shell/Src/shell.c ****     SHELL_TEXT_USER_LIST,                               /**< 用户列表标题 */
  62:ThirdParty/Letter-shell/Src/shell.c ****     SHELL_TEXT_KEY_LIST,                                /**< 按键列表标题 */
  63:ThirdParty/Letter-shell/Src/shell.c ****     SHELL_TEXT_CMD_NOT_FOUND,                           /**< 命令未找到 */
  64:ThirdParty/Letter-shell/Src/shell.c ****     SHELL_TEXT_POINT_CANNOT_MODIFY,                     /**< 指针变量不允许修改 */
  65:ThirdParty/Letter-shell/Src/shell.c ****     SHELL_TEXT_VAR_READ_ONLY_CANNOT_MODIFY,             /**< 只读变量不允许修改 */
  66:ThirdParty/Letter-shell/Src/shell.c ****     SHELL_TEXT_NOT_VAR,                                 /**< 命令不是变量 */
  67:ThirdParty/Letter-shell/Src/shell.c ****     SHELL_TEXT_VAR_NOT_FOUND,                           /**< 变量未找到 */
  68:ThirdParty/Letter-shell/Src/shell.c ****     SHELL_TEXT_HELP_HEADER,                             /**< help头 */
  69:ThirdParty/Letter-shell/Src/shell.c ****     SHELL_TEXT_PASSWORD_HINT,                           /**< 密码输入提示 */
  70:ThirdParty/Letter-shell/Src/shell.c ****     SHELL_TEXT_PASSWORD_ERROR,                          /**< 密码错误 */
  71:ThirdParty/Letter-shell/Src/shell.c ****     SHELL_TEXT_CLEAR_CONSOLE,                           /**< 清空控制台 */
  72:ThirdParty/Letter-shell/Src/shell.c ****     SHELL_TEXT_CLEAR_LINE,                              /**< 清空当前行 */
  73:ThirdParty/Letter-shell/Src/shell.c ****     SHELL_TEXT_TYPE_CMD,                                /**< 命令类型 */
  74:ThirdParty/Letter-shell/Src/shell.c ****     SHELL_TEXT_TYPE_VAR,                                /**< 变量类型 */
  75:ThirdParty/Letter-shell/Src/shell.c ****     SHELL_TEXT_TYPE_USER,                               /**< 用户类型 */
  76:ThirdParty/Letter-shell/Src/shell.c ****     SHELL_TEXT_TYPE_KEY,                                /**< 按键类型 */
  77:ThirdParty/Letter-shell/Src/shell.c ****     SHELL_TEXT_TYPE_NONE,                               /**< 非法类型 */
  78:ThirdParty/Letter-shell/Src/shell.c **** #if SHELL_EXEC_UNDEF_FUNC == 1
  79:ThirdParty/Letter-shell/Src/shell.c ****     SHELL_TEXT_PARAM_ERROR,                             /**< 参数错误 */
  80:ThirdParty/Letter-shell/Src/shell.c **** #endif
  81:ThirdParty/Letter-shell/Src/shell.c **** };
  82:ThirdParty/Letter-shell/Src/shell.c **** 
  83:ThirdParty/Letter-shell/Src/shell.c **** 
  84:ThirdParty/Letter-shell/Src/shell.c **** static const char *shellText[] =
  85:ThirdParty/Letter-shell/Src/shell.c **** {
  86:ThirdParty/Letter-shell/Src/shell.c **** #if SHELL_SHOW_INFO == 1
  87:ThirdParty/Letter-shell/Src/shell.c ****     [SHELL_TEXT_INFO] =
ARM GAS  C:\Users\CL\AppData\Local\Temp\ccoMTeCk.s 			page 3


  88:ThirdParty/Letter-shell/Src/shell.c ****         "\r\n"
  89:ThirdParty/Letter-shell/Src/shell.c ****         " _         _   _                  _          _ _ \r\n"
  90:ThirdParty/Letter-shell/Src/shell.c ****         "| |    ___| |_| |_ ___ _ __   ___| |__   ___| | |\r\n"
  91:ThirdParty/Letter-shell/Src/shell.c ****         "| |   / _ \\ __| __/ _ \\ '__| / __| '_ \\ / _ \\ | |\r\n"
  92:ThirdParty/Letter-shell/Src/shell.c ****         "| |__|  __/ |_| ||  __/ |    \\__ \\ | | |  __/ | |\r\n"
  93:ThirdParty/Letter-shell/Src/shell.c ****         "|_____\\___|\\__|\\__\\___|_|    |___/_| |_|\\___|_|_|\r\n"
  94:ThirdParty/Letter-shell/Src/shell.c ****         "\r\n"
  95:ThirdParty/Letter-shell/Src/shell.c ****         "Build:       "__DATE__" "__TIME__"\r\n"
  96:ThirdParty/Letter-shell/Src/shell.c ****         "Version:     "SHELL_VERSION"\r\n"
  97:ThirdParty/Letter-shell/Src/shell.c ****         "Copyright:   (c) 2020 Letter\r\n",
  98:ThirdParty/Letter-shell/Src/shell.c **** #endif
  99:ThirdParty/Letter-shell/Src/shell.c ****     [SHELL_TEXT_CMD_TOO_LONG] = 
 100:ThirdParty/Letter-shell/Src/shell.c ****         "\r\nWarning: Command is too long\r\n",
 101:ThirdParty/Letter-shell/Src/shell.c ****     [SHELL_TEXT_CMD_LIST] = 
 102:ThirdParty/Letter-shell/Src/shell.c ****         "\r\nCommand List:\r\n",
 103:ThirdParty/Letter-shell/Src/shell.c ****     [SHELL_TEXT_VAR_LIST] = 
 104:ThirdParty/Letter-shell/Src/shell.c ****         "\r\nVar List:\r\n",
 105:ThirdParty/Letter-shell/Src/shell.c ****     [SHELL_TEXT_USER_LIST] = 
 106:ThirdParty/Letter-shell/Src/shell.c ****         "\r\nUser List:\r\n",
 107:ThirdParty/Letter-shell/Src/shell.c ****     [SHELL_TEXT_KEY_LIST] =
 108:ThirdParty/Letter-shell/Src/shell.c ****         "\r\nKey List:\r\n",
 109:ThirdParty/Letter-shell/Src/shell.c ****     [SHELL_TEXT_CMD_NOT_FOUND] = 
 110:ThirdParty/Letter-shell/Src/shell.c ****         "Command not Found\r\n",
 111:ThirdParty/Letter-shell/Src/shell.c ****     [SHELL_TEXT_POINT_CANNOT_MODIFY] = 
 112:ThirdParty/Letter-shell/Src/shell.c ****         "can't set pointer\r\n",
 113:ThirdParty/Letter-shell/Src/shell.c ****     [SHELL_TEXT_VAR_READ_ONLY_CANNOT_MODIFY] = 
 114:ThirdParty/Letter-shell/Src/shell.c ****         "can't set read only var\r\n",
 115:ThirdParty/Letter-shell/Src/shell.c ****     [SHELL_TEXT_NOT_VAR] =
 116:ThirdParty/Letter-shell/Src/shell.c ****         " is not a var\r\n",
 117:ThirdParty/Letter-shell/Src/shell.c ****     [SHELL_TEXT_VAR_NOT_FOUND] = 
 118:ThirdParty/Letter-shell/Src/shell.c ****         "Var not Fount\r\n",
 119:ThirdParty/Letter-shell/Src/shell.c ****     [SHELL_TEXT_HELP_HEADER] =
 120:ThirdParty/Letter-shell/Src/shell.c ****         "command help of ",
 121:ThirdParty/Letter-shell/Src/shell.c ****     [SHELL_TEXT_PASSWORD_HINT] = 
 122:ThirdParty/Letter-shell/Src/shell.c ****         "Please input password:",
 123:ThirdParty/Letter-shell/Src/shell.c ****     [SHELL_TEXT_PASSWORD_ERROR] = 
 124:ThirdParty/Letter-shell/Src/shell.c ****         "\r\npassword error\r\n",
 125:ThirdParty/Letter-shell/Src/shell.c ****     [SHELL_TEXT_CLEAR_CONSOLE] = 
 126:ThirdParty/Letter-shell/Src/shell.c ****         "\033[2J\033[1H",
 127:ThirdParty/Letter-shell/Src/shell.c ****     [SHELL_TEXT_CLEAR_LINE] = 
 128:ThirdParty/Letter-shell/Src/shell.c ****         "\033[2K\r",
 129:ThirdParty/Letter-shell/Src/shell.c ****     [SHELL_TEXT_TYPE_CMD] = 
 130:ThirdParty/Letter-shell/Src/shell.c ****         "CMD ",
 131:ThirdParty/Letter-shell/Src/shell.c ****     [SHELL_TEXT_TYPE_VAR] = 
 132:ThirdParty/Letter-shell/Src/shell.c ****         "VAR ",
 133:ThirdParty/Letter-shell/Src/shell.c ****     [SHELL_TEXT_TYPE_USER] = 
 134:ThirdParty/Letter-shell/Src/shell.c ****         "USER",
 135:ThirdParty/Letter-shell/Src/shell.c ****     [SHELL_TEXT_TYPE_KEY] = 
 136:ThirdParty/Letter-shell/Src/shell.c ****         "KEY ",
 137:ThirdParty/Letter-shell/Src/shell.c ****     [SHELL_TEXT_TYPE_NONE] = 
 138:ThirdParty/Letter-shell/Src/shell.c ****         "NONE",
 139:ThirdParty/Letter-shell/Src/shell.c **** #if SHELL_EXEC_UNDEF_FUNC == 1
 140:ThirdParty/Letter-shell/Src/shell.c ****     [SHELL_TEXT_PARAM_ERROR] = 
 141:ThirdParty/Letter-shell/Src/shell.c ****         "Parameter error\r\n",
 142:ThirdParty/Letter-shell/Src/shell.c **** #endif
 143:ThirdParty/Letter-shell/Src/shell.c **** };
 144:ThirdParty/Letter-shell/Src/shell.c **** 
ARM GAS  C:\Users\CL\AppData\Local\Temp\ccoMTeCk.s 			page 4


 145:ThirdParty/Letter-shell/Src/shell.c **** 
 146:ThirdParty/Letter-shell/Src/shell.c **** /**
 147:ThirdParty/Letter-shell/Src/shell.c ****  * @brief shell对象表
 148:ThirdParty/Letter-shell/Src/shell.c ****  */
 149:ThirdParty/Letter-shell/Src/shell.c **** static Shell *shellList[SHELL_MAX_NUMBER] = {NULL};
 150:ThirdParty/Letter-shell/Src/shell.c **** 
 151:ThirdParty/Letter-shell/Src/shell.c **** 
 152:ThirdParty/Letter-shell/Src/shell.c **** static void shellAdd(Shell *shell);
 153:ThirdParty/Letter-shell/Src/shell.c **** static void shellWritePrompt(Shell *shell, unsigned char newline);
 154:ThirdParty/Letter-shell/Src/shell.c **** static void shellWriteReturnValue(Shell *shell, int value);
 155:ThirdParty/Letter-shell/Src/shell.c **** static int shellShowVar(Shell *shell, ShellCommand *command);
 156:ThirdParty/Letter-shell/Src/shell.c **** void shellSetUser(Shell *shell, const ShellCommand *user);
 157:ThirdParty/Letter-shell/Src/shell.c **** ShellCommand* shellSeekCommand(Shell *shell,
 158:ThirdParty/Letter-shell/Src/shell.c ****                                const char *cmd,
 159:ThirdParty/Letter-shell/Src/shell.c ****                                ShellCommand *base,
 160:ThirdParty/Letter-shell/Src/shell.c ****                                unsigned short compareLength);
 161:ThirdParty/Letter-shell/Src/shell.c **** static void shellWriteCommandHelp(Shell *shell, char *cmd);
 162:ThirdParty/Letter-shell/Src/shell.c **** 
 163:ThirdParty/Letter-shell/Src/shell.c **** /**
 164:ThirdParty/Letter-shell/Src/shell.c ****  * @brief shell 初始化
 165:ThirdParty/Letter-shell/Src/shell.c ****  * 
 166:ThirdParty/Letter-shell/Src/shell.c ****  * @param shell shell对象
 167:ThirdParty/Letter-shell/Src/shell.c ****  */
 168:ThirdParty/Letter-shell/Src/shell.c **** void shellInit(Shell *shell, char *buffer, unsigned short size)
 169:ThirdParty/Letter-shell/Src/shell.c **** {
 170:ThirdParty/Letter-shell/Src/shell.c ****     shell->parser.length = 0;
 171:ThirdParty/Letter-shell/Src/shell.c ****     shell->parser.cursor = 0;
 172:ThirdParty/Letter-shell/Src/shell.c ****     shell->info.user = NULL;
 173:ThirdParty/Letter-shell/Src/shell.c ****     shell->status.isChecked = 1;
 174:ThirdParty/Letter-shell/Src/shell.c **** 
 175:ThirdParty/Letter-shell/Src/shell.c ****     shell->parser.buffer = buffer;
 176:ThirdParty/Letter-shell/Src/shell.c ****     shell->parser.bufferSize = size / (SHELL_HISTORY_MAX_NUMBER + 1);
 177:ThirdParty/Letter-shell/Src/shell.c ****     
 178:ThirdParty/Letter-shell/Src/shell.c **** #if SHELL_HISTORY_MAX_NUMBER > 0
 179:ThirdParty/Letter-shell/Src/shell.c ****     shell->history.offset = 0;
 180:ThirdParty/Letter-shell/Src/shell.c ****     shell->history.number = 0;
 181:ThirdParty/Letter-shell/Src/shell.c ****     shell->history.record = 0;
 182:ThirdParty/Letter-shell/Src/shell.c ****     for (short i = 0; i < SHELL_HISTORY_MAX_NUMBER; i++)
 183:ThirdParty/Letter-shell/Src/shell.c ****     {
 184:ThirdParty/Letter-shell/Src/shell.c ****         shell->history.item[i] = buffer + shell->parser.bufferSize * (i + 1);
 185:ThirdParty/Letter-shell/Src/shell.c ****     }
 186:ThirdParty/Letter-shell/Src/shell.c **** #endif /** SHELL_HISTORY_MAX_NUMBER > 0 */
 187:ThirdParty/Letter-shell/Src/shell.c **** 
 188:ThirdParty/Letter-shell/Src/shell.c **** #if SHELL_USING_CMD_EXPORT == 1
 189:ThirdParty/Letter-shell/Src/shell.c ****     #if defined(__CC_ARM) || (defined(__ARMCC_VERSION) && __ARMCC_VERSION >= 6000000)
 190:ThirdParty/Letter-shell/Src/shell.c ****         shell->commandList.base = (ShellCommand *)(&shellCommand$$Base);
 191:ThirdParty/Letter-shell/Src/shell.c ****         shell->commandList.count = ((unsigned int)(&shellCommand$$Limit)
 192:ThirdParty/Letter-shell/Src/shell.c ****                                 - (unsigned int)(&shellCommand$$Base))
 193:ThirdParty/Letter-shell/Src/shell.c ****                                 / sizeof(ShellCommand);
 194:ThirdParty/Letter-shell/Src/shell.c **** 
 195:ThirdParty/Letter-shell/Src/shell.c ****     #elif defined(__ICCARM__) || defined(__ICCRX__)
 196:ThirdParty/Letter-shell/Src/shell.c ****         shell->commandList.base = (ShellCommand *)(__section_begin("shellCommand"));
 197:ThirdParty/Letter-shell/Src/shell.c ****         shell->commandList.count = ((unsigned int)(__section_end("shellCommand"))
 198:ThirdParty/Letter-shell/Src/shell.c ****                                 - (unsigned int)(__section_begin("shellCommand")))
 199:ThirdParty/Letter-shell/Src/shell.c ****                                 / sizeof(ShellCommand);
 200:ThirdParty/Letter-shell/Src/shell.c ****     #elif defined(__GNUC__)
 201:ThirdParty/Letter-shell/Src/shell.c ****         shell->commandList.base = (ShellCommand *)(&_shell_command_start);
ARM GAS  C:\Users\CL\AppData\Local\Temp\ccoMTeCk.s 			page 5


 202:ThirdParty/Letter-shell/Src/shell.c ****         shell->commandList.count = ((unsigned int)(&_shell_command_end)
 203:ThirdParty/Letter-shell/Src/shell.c ****                                 - (unsigned int)(&_shell_command_start))
 204:ThirdParty/Letter-shell/Src/shell.c ****                                 / sizeof(ShellCommand);
 205:ThirdParty/Letter-shell/Src/shell.c ****     #else
 206:ThirdParty/Letter-shell/Src/shell.c ****         #error not supported compiler, please use command table mode
 207:ThirdParty/Letter-shell/Src/shell.c ****     #endif
 208:ThirdParty/Letter-shell/Src/shell.c **** #else
 209:ThirdParty/Letter-shell/Src/shell.c ****     shell->commandList.base = (ShellCommand *)shellCommandList;
 210:ThirdParty/Letter-shell/Src/shell.c ****     shell->commandList.count = shellCommandCount;
 211:ThirdParty/Letter-shell/Src/shell.c **** #endif
 212:ThirdParty/Letter-shell/Src/shell.c **** 
 213:ThirdParty/Letter-shell/Src/shell.c ****     shellAdd(shell);
 214:ThirdParty/Letter-shell/Src/shell.c **** 
 215:ThirdParty/Letter-shell/Src/shell.c ****     shellSetUser(shell, shellSeekCommand(shell,
 216:ThirdParty/Letter-shell/Src/shell.c ****                                          SHELL_DEFAULT_USER,
 217:ThirdParty/Letter-shell/Src/shell.c ****                                          shell->commandList.base,
 218:ThirdParty/Letter-shell/Src/shell.c ****                                          0));
 219:ThirdParty/Letter-shell/Src/shell.c ****     shellWritePrompt(shell, 1);
 220:ThirdParty/Letter-shell/Src/shell.c **** }
 221:ThirdParty/Letter-shell/Src/shell.c **** 
 222:ThirdParty/Letter-shell/Src/shell.c **** 
 223:ThirdParty/Letter-shell/Src/shell.c **** /**
 224:ThirdParty/Letter-shell/Src/shell.c ****  * @brief 添加shell
 225:ThirdParty/Letter-shell/Src/shell.c ****  * 
 226:ThirdParty/Letter-shell/Src/shell.c ****  * @param shell shell对象
 227:ThirdParty/Letter-shell/Src/shell.c ****  */
 228:ThirdParty/Letter-shell/Src/shell.c **** static void shellAdd(Shell *shell)
 229:ThirdParty/Letter-shell/Src/shell.c **** {
 230:ThirdParty/Letter-shell/Src/shell.c ****     for (short i = 0; i < SHELL_MAX_NUMBER; i++)
 231:ThirdParty/Letter-shell/Src/shell.c ****     {
 232:ThirdParty/Letter-shell/Src/shell.c ****         if (shellList[i] == NULL)
 233:ThirdParty/Letter-shell/Src/shell.c ****         {
 234:ThirdParty/Letter-shell/Src/shell.c ****             shellList[i] = shell;
 235:ThirdParty/Letter-shell/Src/shell.c ****             return;
 236:ThirdParty/Letter-shell/Src/shell.c ****         }
 237:ThirdParty/Letter-shell/Src/shell.c ****     }
 238:ThirdParty/Letter-shell/Src/shell.c **** }
 239:ThirdParty/Letter-shell/Src/shell.c **** 
 240:ThirdParty/Letter-shell/Src/shell.c **** /**
 241:ThirdParty/Letter-shell/Src/shell.c ****  * @brief 移除shell
 242:ThirdParty/Letter-shell/Src/shell.c ****  * 
 243:ThirdParty/Letter-shell/Src/shell.c ****  * @param shell shell对象
 244:ThirdParty/Letter-shell/Src/shell.c ****  * 
 245:ThirdParty/Letter-shell/Src/shell.c ****  */
 246:ThirdParty/Letter-shell/Src/shell.c **** void shellRemove(Shell *shell)
 247:ThirdParty/Letter-shell/Src/shell.c **** {
 248:ThirdParty/Letter-shell/Src/shell.c ****     for (short i = 0; i < SHELL_MAX_NUMBER; i++)
 249:ThirdParty/Letter-shell/Src/shell.c ****     {
 250:ThirdParty/Letter-shell/Src/shell.c ****         if (shellList[i] == shell)
 251:ThirdParty/Letter-shell/Src/shell.c ****         {
 252:ThirdParty/Letter-shell/Src/shell.c ****             shellList[i] = NULL;
 253:ThirdParty/Letter-shell/Src/shell.c ****             return;
 254:ThirdParty/Letter-shell/Src/shell.c ****         }
 255:ThirdParty/Letter-shell/Src/shell.c ****     }
 256:ThirdParty/Letter-shell/Src/shell.c **** }
 257:ThirdParty/Letter-shell/Src/shell.c **** 
 258:ThirdParty/Letter-shell/Src/shell.c **** /**
ARM GAS  C:\Users\CL\AppData\Local\Temp\ccoMTeCk.s 			page 6


 259:ThirdParty/Letter-shell/Src/shell.c ****  * @brief 获取当前活动shell
 260:ThirdParty/Letter-shell/Src/shell.c ****  * 
 261:ThirdParty/Letter-shell/Src/shell.c ****  * @return Shell* 当前活动shell对象
 262:ThirdParty/Letter-shell/Src/shell.c ****  */
 263:ThirdParty/Letter-shell/Src/shell.c **** Shell* shellGetCurrent(void)
 264:ThirdParty/Letter-shell/Src/shell.c **** {
 265:ThirdParty/Letter-shell/Src/shell.c ****     for (short i = 0; i < SHELL_MAX_NUMBER; i++)
 266:ThirdParty/Letter-shell/Src/shell.c ****     {
 267:ThirdParty/Letter-shell/Src/shell.c ****         if (shellList[i] && shellList[i]->status.isActive)
 268:ThirdParty/Letter-shell/Src/shell.c ****         {
 269:ThirdParty/Letter-shell/Src/shell.c ****             return shellList[i];
 270:ThirdParty/Letter-shell/Src/shell.c ****         }
 271:ThirdParty/Letter-shell/Src/shell.c ****     }
 272:ThirdParty/Letter-shell/Src/shell.c ****     return NULL;
 273:ThirdParty/Letter-shell/Src/shell.c **** }
 274:ThirdParty/Letter-shell/Src/shell.c **** 
 275:ThirdParty/Letter-shell/Src/shell.c **** 
 276:ThirdParty/Letter-shell/Src/shell.c **** /**
 277:ThirdParty/Letter-shell/Src/shell.c ****  * @brief shell写字符
 278:ThirdParty/Letter-shell/Src/shell.c ****  * 
 279:ThirdParty/Letter-shell/Src/shell.c ****  * @param shell shell对象
 280:ThirdParty/Letter-shell/Src/shell.c ****  * @param data 字符数据
 281:ThirdParty/Letter-shell/Src/shell.c ****  */
 282:ThirdParty/Letter-shell/Src/shell.c **** static void shellWriteByte(Shell *shell, char data)
 283:ThirdParty/Letter-shell/Src/shell.c **** {
 284:ThirdParty/Letter-shell/Src/shell.c ****     shell->write(&data, 1);
 285:ThirdParty/Letter-shell/Src/shell.c **** }
 286:ThirdParty/Letter-shell/Src/shell.c **** 
 287:ThirdParty/Letter-shell/Src/shell.c **** 
 288:ThirdParty/Letter-shell/Src/shell.c **** /**
 289:ThirdParty/Letter-shell/Src/shell.c ****  * @brief shell 写字符串
 290:ThirdParty/Letter-shell/Src/shell.c ****  * 
 291:ThirdParty/Letter-shell/Src/shell.c ****  * @param shell shell对象
 292:ThirdParty/Letter-shell/Src/shell.c ****  * @param string 字符串数据
 293:ThirdParty/Letter-shell/Src/shell.c ****  * 
 294:ThirdParty/Letter-shell/Src/shell.c ****  * @return unsigned short 写入字符的数量
 295:ThirdParty/Letter-shell/Src/shell.c ****  */
 296:ThirdParty/Letter-shell/Src/shell.c **** unsigned short shellWriteString(Shell *shell, const char *string)
 297:ThirdParty/Letter-shell/Src/shell.c **** {
 298:ThirdParty/Letter-shell/Src/shell.c ****     unsigned short count = 0;
 299:ThirdParty/Letter-shell/Src/shell.c ****     const char *p = string;
 300:ThirdParty/Letter-shell/Src/shell.c ****     SHELL_ASSERT(shell->write, return 0);
 301:ThirdParty/Letter-shell/Src/shell.c ****     while(*p++)
 302:ThirdParty/Letter-shell/Src/shell.c ****     {
 303:ThirdParty/Letter-shell/Src/shell.c ****         count ++;
 304:ThirdParty/Letter-shell/Src/shell.c ****     }
 305:ThirdParty/Letter-shell/Src/shell.c ****     return shell->write((char *)string, count);
 306:ThirdParty/Letter-shell/Src/shell.c **** }
 307:ThirdParty/Letter-shell/Src/shell.c **** 
 308:ThirdParty/Letter-shell/Src/shell.c **** 
 309:ThirdParty/Letter-shell/Src/shell.c **** /**
 310:ThirdParty/Letter-shell/Src/shell.c ****  * @brief shell 写命令描述字符串
 311:ThirdParty/Letter-shell/Src/shell.c ****  * 
 312:ThirdParty/Letter-shell/Src/shell.c ****  * @param shell shell对象
 313:ThirdParty/Letter-shell/Src/shell.c ****  * @param string 字符串数据
 314:ThirdParty/Letter-shell/Src/shell.c ****  * 
 315:ThirdParty/Letter-shell/Src/shell.c ****  * @return unsigned short 写入字符的数量
ARM GAS  C:\Users\CL\AppData\Local\Temp\ccoMTeCk.s 			page 7


 316:ThirdParty/Letter-shell/Src/shell.c ****  */
 317:ThirdParty/Letter-shell/Src/shell.c **** static unsigned short shellWriteCommandDesc(Shell *shell, const char *string)
 318:ThirdParty/Letter-shell/Src/shell.c **** {
 319:ThirdParty/Letter-shell/Src/shell.c ****     unsigned short count = 0;
 320:ThirdParty/Letter-shell/Src/shell.c ****     const char *p = string;
 321:ThirdParty/Letter-shell/Src/shell.c ****     SHELL_ASSERT(shell->write, return 0);
 322:ThirdParty/Letter-shell/Src/shell.c ****     while (*p && *p != '\r' && *p != '\n')
 323:ThirdParty/Letter-shell/Src/shell.c ****     {
 324:ThirdParty/Letter-shell/Src/shell.c ****         p++;
 325:ThirdParty/Letter-shell/Src/shell.c ****         count++;
 326:ThirdParty/Letter-shell/Src/shell.c ****     }
 327:ThirdParty/Letter-shell/Src/shell.c ****     
 328:ThirdParty/Letter-shell/Src/shell.c ****     if (count > 36)
 329:ThirdParty/Letter-shell/Src/shell.c ****     {
 330:ThirdParty/Letter-shell/Src/shell.c ****         shell->write((char *)string, 36);
 331:ThirdParty/Letter-shell/Src/shell.c ****         shell->write("...", 3);
 332:ThirdParty/Letter-shell/Src/shell.c ****     }
 333:ThirdParty/Letter-shell/Src/shell.c ****     else
 334:ThirdParty/Letter-shell/Src/shell.c ****     {
 335:ThirdParty/Letter-shell/Src/shell.c ****         shell->write((char *)string, count);
 336:ThirdParty/Letter-shell/Src/shell.c ****     }
 337:ThirdParty/Letter-shell/Src/shell.c ****     return count > 36 ? 36 : 39;
 338:ThirdParty/Letter-shell/Src/shell.c **** }
 339:ThirdParty/Letter-shell/Src/shell.c **** 
 340:ThirdParty/Letter-shell/Src/shell.c **** 
 341:ThirdParty/Letter-shell/Src/shell.c **** /**
 342:ThirdParty/Letter-shell/Src/shell.c ****  * @brief shell写命令提示符
 343:ThirdParty/Letter-shell/Src/shell.c ****  * 
 344:ThirdParty/Letter-shell/Src/shell.c ****  * @param shell shell对象
 345:ThirdParty/Letter-shell/Src/shell.c ****  * @param newline 新行
 346:ThirdParty/Letter-shell/Src/shell.c ****  * 
 347:ThirdParty/Letter-shell/Src/shell.c ****  */
 348:ThirdParty/Letter-shell/Src/shell.c **** static void shellWritePrompt(Shell *shell, unsigned char newline)
 349:ThirdParty/Letter-shell/Src/shell.c **** {
 350:ThirdParty/Letter-shell/Src/shell.c ****     if (shell->status.isChecked)
 351:ThirdParty/Letter-shell/Src/shell.c ****     {
 352:ThirdParty/Letter-shell/Src/shell.c ****         if (newline)
 353:ThirdParty/Letter-shell/Src/shell.c ****         {
 354:ThirdParty/Letter-shell/Src/shell.c ****             shellWriteString(shell, "\r\n");
 355:ThirdParty/Letter-shell/Src/shell.c ****         }
 356:ThirdParty/Letter-shell/Src/shell.c ****         shellWriteString(shell, shell->info.user->data.user.name);
 357:ThirdParty/Letter-shell/Src/shell.c ****         shellWriteString(shell, ":");
 358:ThirdParty/Letter-shell/Src/shell.c ****         shellWriteString(shell, shell->info.path ? shell->info.path : "/");
 359:ThirdParty/Letter-shell/Src/shell.c ****         shellWriteString(shell, "$ ");
 360:ThirdParty/Letter-shell/Src/shell.c ****     }
 361:ThirdParty/Letter-shell/Src/shell.c ****     else
 362:ThirdParty/Letter-shell/Src/shell.c ****     {
 363:ThirdParty/Letter-shell/Src/shell.c ****         shellWriteString(shell, shellText[SHELL_TEXT_PASSWORD_HINT]);
 364:ThirdParty/Letter-shell/Src/shell.c ****     }
 365:ThirdParty/Letter-shell/Src/shell.c **** }
 366:ThirdParty/Letter-shell/Src/shell.c **** 
 367:ThirdParty/Letter-shell/Src/shell.c **** 
 368:ThirdParty/Letter-shell/Src/shell.c **** #if SHELL_PRINT_BUFFER > 0
 369:ThirdParty/Letter-shell/Src/shell.c **** /**
 370:ThirdParty/Letter-shell/Src/shell.c ****  * @brief shell格式化输出
 371:ThirdParty/Letter-shell/Src/shell.c ****  * 
 372:ThirdParty/Letter-shell/Src/shell.c ****  * @param shell shell对象
ARM GAS  C:\Users\CL\AppData\Local\Temp\ccoMTeCk.s 			page 8


 373:ThirdParty/Letter-shell/Src/shell.c ****  * @param fmt 格式化字符串
 374:ThirdParty/Letter-shell/Src/shell.c ****  * @param ... 参数
 375:ThirdParty/Letter-shell/Src/shell.c ****  */
 376:ThirdParty/Letter-shell/Src/shell.c **** void shellPrint(Shell *shell, const char *fmt, ...)
 377:ThirdParty/Letter-shell/Src/shell.c **** {
 378:ThirdParty/Letter-shell/Src/shell.c ****     char buffer[SHELL_PRINT_BUFFER];
 379:ThirdParty/Letter-shell/Src/shell.c ****     va_list vargs;
 380:ThirdParty/Letter-shell/Src/shell.c ****     int len;
 381:ThirdParty/Letter-shell/Src/shell.c **** 
 382:ThirdParty/Letter-shell/Src/shell.c ****     SHELL_ASSERT(shell, return);
 383:ThirdParty/Letter-shell/Src/shell.c **** 
 384:ThirdParty/Letter-shell/Src/shell.c ****     va_start(vargs, fmt);
 385:ThirdParty/Letter-shell/Src/shell.c ****     len = vsnprintf(buffer, SHELL_PRINT_BUFFER, fmt, vargs);
 386:ThirdParty/Letter-shell/Src/shell.c ****     va_end(vargs);
 387:ThirdParty/Letter-shell/Src/shell.c ****     if (len > SHELL_PRINT_BUFFER)
 388:ThirdParty/Letter-shell/Src/shell.c ****     {
 389:ThirdParty/Letter-shell/Src/shell.c ****         len = SHELL_PRINT_BUFFER;
 390:ThirdParty/Letter-shell/Src/shell.c ****     }
 391:ThirdParty/Letter-shell/Src/shell.c ****     shell->write(buffer, len);
 392:ThirdParty/Letter-shell/Src/shell.c **** }
 393:ThirdParty/Letter-shell/Src/shell.c **** #endif
 394:ThirdParty/Letter-shell/Src/shell.c **** 
 395:ThirdParty/Letter-shell/Src/shell.c **** 
 396:ThirdParty/Letter-shell/Src/shell.c **** #if SHELL_SCAN_BUFFER > 0
 397:ThirdParty/Letter-shell/Src/shell.c **** /**
 398:ThirdParty/Letter-shell/Src/shell.c ****  * @brief shell格式化输入
 399:ThirdParty/Letter-shell/Src/shell.c ****  * 
 400:ThirdParty/Letter-shell/Src/shell.c ****  * @param shell shell对象
 401:ThirdParty/Letter-shell/Src/shell.c ****  * @param fmt 格式化字符串
 402:ThirdParty/Letter-shell/Src/shell.c ****  * @param ... 参数
 403:ThirdParty/Letter-shell/Src/shell.c ****  */
 404:ThirdParty/Letter-shell/Src/shell.c **** void shellScan(Shell *shell, char *fmt, ...)
 405:ThirdParty/Letter-shell/Src/shell.c **** {
 406:ThirdParty/Letter-shell/Src/shell.c ****     char buffer[SHELL_SCAN_BUFFER];
 407:ThirdParty/Letter-shell/Src/shell.c ****     va_list vargs;
 408:ThirdParty/Letter-shell/Src/shell.c ****     short index = 0;
 409:ThirdParty/Letter-shell/Src/shell.c **** 
 410:ThirdParty/Letter-shell/Src/shell.c ****     SHELL_ASSERT(shell, return);
 411:ThirdParty/Letter-shell/Src/shell.c **** 
 412:ThirdParty/Letter-shell/Src/shell.c ****     if (shell->read)
 413:ThirdParty/Letter-shell/Src/shell.c ****     {
 414:ThirdParty/Letter-shell/Src/shell.c ****         do {
 415:ThirdParty/Letter-shell/Src/shell.c ****             if (shell->read(&buffer[index], 1) == 1)
 416:ThirdParty/Letter-shell/Src/shell.c ****             {
 417:ThirdParty/Letter-shell/Src/shell.c ****                 shell->write(&buffer[index], 1);
 418:ThirdParty/Letter-shell/Src/shell.c ****                 index++;
 419:ThirdParty/Letter-shell/Src/shell.c ****             }
 420:ThirdParty/Letter-shell/Src/shell.c ****         } while (buffer[index -1] != '\r' && buffer[index -1] != '\n' && index < SHELL_SCAN_BUFFER)
 421:ThirdParty/Letter-shell/Src/shell.c ****         shellWriteString(shell, "\r\n");
 422:ThirdParty/Letter-shell/Src/shell.c ****         buffer[index] = '\0';
 423:ThirdParty/Letter-shell/Src/shell.c ****     }
 424:ThirdParty/Letter-shell/Src/shell.c **** 
 425:ThirdParty/Letter-shell/Src/shell.c ****     va_start(vargs, fmt);
 426:ThirdParty/Letter-shell/Src/shell.c ****     vsscanf(buffer, fmt, vargs);
 427:ThirdParty/Letter-shell/Src/shell.c ****     va_end(vargs);
 428:ThirdParty/Letter-shell/Src/shell.c **** }
 429:ThirdParty/Letter-shell/Src/shell.c **** #endif
ARM GAS  C:\Users\CL\AppData\Local\Temp\ccoMTeCk.s 			page 9


 430:ThirdParty/Letter-shell/Src/shell.c **** 
 431:ThirdParty/Letter-shell/Src/shell.c **** 
 432:ThirdParty/Letter-shell/Src/shell.c **** /**
 433:ThirdParty/Letter-shell/Src/shell.c ****  * @brief shell 检查命令权限
 434:ThirdParty/Letter-shell/Src/shell.c ****  * 
 435:ThirdParty/Letter-shell/Src/shell.c ****  * @param shell shell对象
 436:ThirdParty/Letter-shell/Src/shell.c ****  * @param command ShellCommand
 437:ThirdParty/Letter-shell/Src/shell.c ****  * 
 438:ThirdParty/Letter-shell/Src/shell.c ****  * @return signed char 0 当前用户具有该命令权限
 439:ThirdParty/Letter-shell/Src/shell.c ****  * @return signec char -1 当前用户不具有该命令权限
 440:ThirdParty/Letter-shell/Src/shell.c ****  */
 441:ThirdParty/Letter-shell/Src/shell.c **** signed char shellCheckPermission(Shell *shell, ShellCommand *command)
 442:ThirdParty/Letter-shell/Src/shell.c **** {
 443:ThirdParty/Letter-shell/Src/shell.c ****     return ((!command->attr.attrs.permission
 444:ThirdParty/Letter-shell/Src/shell.c ****                 || command->attr.attrs.type == SHELL_TYPE_USER
 445:ThirdParty/Letter-shell/Src/shell.c ****                 || (shell->info.user
 446:ThirdParty/Letter-shell/Src/shell.c ****                     && (command->attr.attrs.permission 
 447:ThirdParty/Letter-shell/Src/shell.c ****                         & shell->info.user->attr.attrs.permission)))
 448:ThirdParty/Letter-shell/Src/shell.c ****             && (shell->status.isChecked
 449:ThirdParty/Letter-shell/Src/shell.c ****                 || command->attr.attrs.enableUnchecked))
 450:ThirdParty/Letter-shell/Src/shell.c ****             ? 0 : -1;
 451:ThirdParty/Letter-shell/Src/shell.c **** }
 452:ThirdParty/Letter-shell/Src/shell.c **** 
 453:ThirdParty/Letter-shell/Src/shell.c **** 
 454:ThirdParty/Letter-shell/Src/shell.c **** /**
 455:ThirdParty/Letter-shell/Src/shell.c ****  * @brief int转16进制字符串
 456:ThirdParty/Letter-shell/Src/shell.c ****  * 
 457:ThirdParty/Letter-shell/Src/shell.c ****  * @param value 数值
 458:ThirdParty/Letter-shell/Src/shell.c ****  * @param buffer 缓冲
 459:ThirdParty/Letter-shell/Src/shell.c ****  * 
 460:ThirdParty/Letter-shell/Src/shell.c ****  * @return signed char 转换后有效数据长度
 461:ThirdParty/Letter-shell/Src/shell.c ****  */
 462:ThirdParty/Letter-shell/Src/shell.c **** signed char shellToHex(unsigned int value, char *buffer)
 463:ThirdParty/Letter-shell/Src/shell.c **** {
 464:ThirdParty/Letter-shell/Src/shell.c ****     char byte;
 465:ThirdParty/Letter-shell/Src/shell.c ****     unsigned char i = 8;
 466:ThirdParty/Letter-shell/Src/shell.c ****     buffer[8] = 0;
 467:ThirdParty/Letter-shell/Src/shell.c ****     while (value)
 468:ThirdParty/Letter-shell/Src/shell.c ****     {
 469:ThirdParty/Letter-shell/Src/shell.c ****         byte = value & 0x0000000F;
 470:ThirdParty/Letter-shell/Src/shell.c ****         buffer[--i] = (byte > 9) ? (byte + 87) : (byte + 48);
 471:ThirdParty/Letter-shell/Src/shell.c ****         value >>= 4;
 472:ThirdParty/Letter-shell/Src/shell.c ****     }
 473:ThirdParty/Letter-shell/Src/shell.c ****     return 8 - i;
 474:ThirdParty/Letter-shell/Src/shell.c **** }
 475:ThirdParty/Letter-shell/Src/shell.c **** 
 476:ThirdParty/Letter-shell/Src/shell.c **** 
 477:ThirdParty/Letter-shell/Src/shell.c **** /**
 478:ThirdParty/Letter-shell/Src/shell.c **** * @brief int转10进制字符串
 479:ThirdParty/Letter-shell/Src/shell.c ****  * 
 480:ThirdParty/Letter-shell/Src/shell.c ****  * @param value 数值
 481:ThirdParty/Letter-shell/Src/shell.c ****  * @param buffer 缓冲
 482:ThirdParty/Letter-shell/Src/shell.c ****  * 
 483:ThirdParty/Letter-shell/Src/shell.c ****  * @return signed char 转换后有效数据长度
 484:ThirdParty/Letter-shell/Src/shell.c ****  */
 485:ThirdParty/Letter-shell/Src/shell.c **** signed char shellToDec(int value, char *buffer)
 486:ThirdParty/Letter-shell/Src/shell.c **** {
ARM GAS  C:\Users\CL\AppData\Local\Temp\ccoMTeCk.s 			page 10


 487:ThirdParty/Letter-shell/Src/shell.c ****     unsigned char i = 11;
 488:ThirdParty/Letter-shell/Src/shell.c ****     int v = value;
 489:ThirdParty/Letter-shell/Src/shell.c ****     if (value < 0)
 490:ThirdParty/Letter-shell/Src/shell.c ****     {
 491:ThirdParty/Letter-shell/Src/shell.c ****         v = -value;
 492:ThirdParty/Letter-shell/Src/shell.c ****     }
 493:ThirdParty/Letter-shell/Src/shell.c ****     buffer[11] = 0;
 494:ThirdParty/Letter-shell/Src/shell.c ****     while (v)
 495:ThirdParty/Letter-shell/Src/shell.c ****     {
 496:ThirdParty/Letter-shell/Src/shell.c ****         buffer[--i] = v % 10 + 48;
 497:ThirdParty/Letter-shell/Src/shell.c ****         v /= 10;
 498:ThirdParty/Letter-shell/Src/shell.c ****     }
 499:ThirdParty/Letter-shell/Src/shell.c ****     if (value < 0)
 500:ThirdParty/Letter-shell/Src/shell.c ****     {
 501:ThirdParty/Letter-shell/Src/shell.c ****         buffer[--i] = '-';
 502:ThirdParty/Letter-shell/Src/shell.c ****     }
 503:ThirdParty/Letter-shell/Src/shell.c ****     if (value == 0) {
 504:ThirdParty/Letter-shell/Src/shell.c ****         buffer[--i] = '0';
 505:ThirdParty/Letter-shell/Src/shell.c ****     }
 506:ThirdParty/Letter-shell/Src/shell.c ****     return 11 - i;
 507:ThirdParty/Letter-shell/Src/shell.c **** }
 508:ThirdParty/Letter-shell/Src/shell.c **** 
 509:ThirdParty/Letter-shell/Src/shell.c **** 
 510:ThirdParty/Letter-shell/Src/shell.c **** /**
 511:ThirdParty/Letter-shell/Src/shell.c ****  * @brief shell字符串复制
 512:ThirdParty/Letter-shell/Src/shell.c ****  * 
 513:ThirdParty/Letter-shell/Src/shell.c ****  * @param dest 目标字符串
 514:ThirdParty/Letter-shell/Src/shell.c ****  * @param src 源字符串
 515:ThirdParty/Letter-shell/Src/shell.c ****  * @return unsigned short 字符串长度
 516:ThirdParty/Letter-shell/Src/shell.c ****  */
 517:ThirdParty/Letter-shell/Src/shell.c **** static unsigned short shellStringCopy(char *dest, char* src)
 518:ThirdParty/Letter-shell/Src/shell.c **** {
  29              		.loc 1 518 1 view -0
  30              		.cfi_startproc
  31              		@ args = 0, pretend = 0, frame = 0
  32              		@ frame_needed = 0, uses_anonymous_args = 0
 519:ThirdParty/Letter-shell/Src/shell.c ****     unsigned short count = 0;
  33              		.loc 1 519 5 view .LVU1
 520:ThirdParty/Letter-shell/Src/shell.c ****     while (*(src + count))
  34              		.loc 1 520 5 view .LVU2
 518:ThirdParty/Letter-shell/Src/shell.c ****     unsigned short count = 0;
  35              		.loc 1 518 1 is_stmt 0 view .LVU3
  36 0000 70B5     		push	{r4, r5, r6, lr}
  37              	.LCFI0:
  38              		.cfi_def_cfa_offset 16
  39              		.cfi_offset 4, -16
  40              		.cfi_offset 5, -12
  41              		.cfi_offset 6, -8
  42              		.cfi_offset 14, -4
 518:ThirdParty/Letter-shell/Src/shell.c ****     unsigned short count = 0;
  43              		.loc 1 518 1 view .LVU4
  44 0002 0246     		mov	r2, r0
  45              		.loc 1 520 11 view .LVU5
  46 0004 0023     		movs	r3, #0
  47              	.LVL1:
  48              	.L2:
  49              		.loc 1 520 11 view .LVU6
ARM GAS  C:\Users\CL\AppData\Local\Temp\ccoMTeCk.s 			page 11


  50 0006 98B2     		uxth	r0, r3
  51              	.LVL2:
  52              		.loc 1 520 11 is_stmt 1 view .LVU7
  53 0008 0546     		mov	r5, r0
  54              		.loc 1 520 12 is_stmt 0 view .LVU8
  55 000a 0C5C     		ldrb	r4, [r1, r0]	@ zero_extendqisi2
 521:ThirdParty/Letter-shell/Src/shell.c ****     {
 522:ThirdParty/Letter-shell/Src/shell.c ****         *(dest + count) = *(src + count);
  56              		.loc 1 522 16 view .LVU9
  57 000c 1618     		adds	r6, r2, r0
 520:ThirdParty/Letter-shell/Src/shell.c ****     {
  58              		.loc 1 520 11 view .LVU10
  59 000e 0133     		adds	r3, r3, #1
  60 0010 0CB9     		cbnz	r4, .L3
 523:ThirdParty/Letter-shell/Src/shell.c ****         count++;
 524:ThirdParty/Letter-shell/Src/shell.c ****     }
 525:ThirdParty/Letter-shell/Src/shell.c ****     *(dest + count) = 0;
  61              		.loc 1 525 5 is_stmt 1 view .LVU11
  62              		.loc 1 525 21 is_stmt 0 view .LVU12
  63 0012 3470     		strb	r4, [r6]
 526:ThirdParty/Letter-shell/Src/shell.c ****     return count;
  64              		.loc 1 526 5 is_stmt 1 view .LVU13
 527:ThirdParty/Letter-shell/Src/shell.c **** }
  65              		.loc 1 527 1 is_stmt 0 view .LVU14
  66 0014 70BD     		pop	{r4, r5, r6, pc}
  67              	.L3:
 522:ThirdParty/Letter-shell/Src/shell.c ****         count++;
  68              		.loc 1 522 9 is_stmt 1 view .LVU15
 522:ThirdParty/Letter-shell/Src/shell.c ****         count++;
  69              		.loc 1 522 25 is_stmt 0 view .LVU16
  70 0016 5455     		strb	r4, [r2, r5]
 523:ThirdParty/Letter-shell/Src/shell.c ****     }
  71              		.loc 1 523 9 is_stmt 1 view .LVU17
  72              	.LVL3:
 523:ThirdParty/Letter-shell/Src/shell.c ****     }
  73              		.loc 1 523 9 is_stmt 0 view .LVU18
  74 0018 F5E7     		b	.L2
  75              		.cfi_endproc
  76              	.LFE15:
  78              		.section	.text.shellWriteByte.isra.0,"ax",%progbits
  79              		.align	1
  80              		.syntax unified
  81              		.thumb
  82              		.thumb_func
  84              	shellWriteByte.isra.0:
  85              	.LVL4:
  86              	.LFB68:
 282:ThirdParty/Letter-shell/Src/shell.c **** {
  87              		.loc 1 282 13 is_stmt 1 view -0
  88              		.cfi_startproc
  89              		@ args = 0, pretend = 0, frame = 8
  90              		@ frame_needed = 0, uses_anonymous_args = 0
 284:ThirdParty/Letter-shell/Src/shell.c **** }
  91              		.loc 1 284 5 view .LVU20
 282:ThirdParty/Letter-shell/Src/shell.c **** {
  92              		.loc 1 282 13 is_stmt 0 view .LVU21
  93 0000 07B5     		push	{r0, r1, r2, lr}
ARM GAS  C:\Users\CL\AppData\Local\Temp\ccoMTeCk.s 			page 12


  94              	.LCFI1:
  95              		.cfi_def_cfa_offset 16
  96              		.cfi_offset 14, -4
 282:ThirdParty/Letter-shell/Src/shell.c **** {
  97              		.loc 1 282 13 view .LVU22
  98 0002 0346     		mov	r3, r0
  99 0004 8DF80710 		strb	r1, [sp, #7]
 284:ThirdParty/Letter-shell/Src/shell.c **** }
 100              		.loc 1 284 5 view .LVU23
 101 0008 0DF10700 		add	r0, sp, #7
 102 000c 0121     		movs	r1, #1
 103              	.LVL5:
 284:ThirdParty/Letter-shell/Src/shell.c **** }
 104              		.loc 1 284 5 view .LVU24
 105 000e 9847     		blx	r3
 106              	.LVL6:
 285:ThirdParty/Letter-shell/Src/shell.c **** 
 107              		.loc 1 285 1 view .LVU25
 108 0010 03B0     		add	sp, sp, #12
 109              	.LCFI2:
 110              		.cfi_def_cfa_offset 4
 111              		@ sp needed
 112 0012 5DF804FB 		ldr	pc, [sp], #4
 113              		.cfi_endproc
 114              	.LFE68:
 116              		.section	.text.shellLeft,"ax",%progbits
 117              		.align	1
 118              		.global	shellLeft
 119              		.syntax unified
 120              		.thumb
 121              		.thumb_func
 123              	shellLeft:
 124              	.LVL7:
 125              	.LFB47:
 528:ThirdParty/Letter-shell/Src/shell.c **** 
 529:ThirdParty/Letter-shell/Src/shell.c **** 
 530:ThirdParty/Letter-shell/Src/shell.c **** /**
 531:ThirdParty/Letter-shell/Src/shell.c ****  * @brief shell字符串比较
 532:ThirdParty/Letter-shell/Src/shell.c ****  * 
 533:ThirdParty/Letter-shell/Src/shell.c ****  * @param dest 目标字符串
 534:ThirdParty/Letter-shell/Src/shell.c ****  * @param src 源字符串
 535:ThirdParty/Letter-shell/Src/shell.c ****  * @return unsigned short 匹配长度
 536:ThirdParty/Letter-shell/Src/shell.c ****  */
 537:ThirdParty/Letter-shell/Src/shell.c **** static unsigned short shellStringCompare(char* dest, char *src)
 538:ThirdParty/Letter-shell/Src/shell.c **** {
 539:ThirdParty/Letter-shell/Src/shell.c ****     unsigned short match = 0;
 540:ThirdParty/Letter-shell/Src/shell.c ****     unsigned short i = 0;
 541:ThirdParty/Letter-shell/Src/shell.c **** 
 542:ThirdParty/Letter-shell/Src/shell.c ****     while (*(dest +i) && *(src + i))
 543:ThirdParty/Letter-shell/Src/shell.c ****     {
 544:ThirdParty/Letter-shell/Src/shell.c ****         if (*(dest + i) != *(src +i))
 545:ThirdParty/Letter-shell/Src/shell.c ****         {
 546:ThirdParty/Letter-shell/Src/shell.c ****             break;
 547:ThirdParty/Letter-shell/Src/shell.c ****         }
 548:ThirdParty/Letter-shell/Src/shell.c ****         match ++;
 549:ThirdParty/Letter-shell/Src/shell.c ****         i++;
 550:ThirdParty/Letter-shell/Src/shell.c ****     }
ARM GAS  C:\Users\CL\AppData\Local\Temp\ccoMTeCk.s 			page 13


 551:ThirdParty/Letter-shell/Src/shell.c ****     return match;
 552:ThirdParty/Letter-shell/Src/shell.c **** }
 553:ThirdParty/Letter-shell/Src/shell.c **** 
 554:ThirdParty/Letter-shell/Src/shell.c **** 
 555:ThirdParty/Letter-shell/Src/shell.c **** /**
 556:ThirdParty/Letter-shell/Src/shell.c ****  * @brief shell获取命令名
 557:ThirdParty/Letter-shell/Src/shell.c ****  * 
 558:ThirdParty/Letter-shell/Src/shell.c ****  * @param command 命令
 559:ThirdParty/Letter-shell/Src/shell.c ****  * @return const char* 命令名
 560:ThirdParty/Letter-shell/Src/shell.c ****  */
 561:ThirdParty/Letter-shell/Src/shell.c **** static const char* shellGetCommandName(ShellCommand *command)
 562:ThirdParty/Letter-shell/Src/shell.c **** {
 563:ThirdParty/Letter-shell/Src/shell.c ****     static char buffer[9];
 564:ThirdParty/Letter-shell/Src/shell.c ****     for (unsigned char i = 0; i < 9; i++)
 565:ThirdParty/Letter-shell/Src/shell.c ****     {
 566:ThirdParty/Letter-shell/Src/shell.c ****         buffer[i] = '0';
 567:ThirdParty/Letter-shell/Src/shell.c ****     }
 568:ThirdParty/Letter-shell/Src/shell.c ****     if (command->attr.attrs.type <= SHELL_TYPE_CMD_FUNC)
 569:ThirdParty/Letter-shell/Src/shell.c ****     {
 570:ThirdParty/Letter-shell/Src/shell.c ****         return command->data.cmd.name;
 571:ThirdParty/Letter-shell/Src/shell.c ****     }
 572:ThirdParty/Letter-shell/Src/shell.c ****     else if (command->attr.attrs.type <= SHELL_TYPE_VAR_NODE)
 573:ThirdParty/Letter-shell/Src/shell.c ****     {
 574:ThirdParty/Letter-shell/Src/shell.c ****         return command->data.var.name;
 575:ThirdParty/Letter-shell/Src/shell.c ****     }
 576:ThirdParty/Letter-shell/Src/shell.c ****     else if (command->attr.attrs.type <= SHELL_TYPE_USER)
 577:ThirdParty/Letter-shell/Src/shell.c ****     {
 578:ThirdParty/Letter-shell/Src/shell.c ****         return command->data.user.name;
 579:ThirdParty/Letter-shell/Src/shell.c ****     }
 580:ThirdParty/Letter-shell/Src/shell.c **** #if SHELL_USING_FUNC_SIGNATURE == 1
 581:ThirdParty/Letter-shell/Src/shell.c ****     else if (command->attr.attrs.type == SHELL_TYPE_PARAM_PARSER)
 582:ThirdParty/Letter-shell/Src/shell.c ****     {
 583:ThirdParty/Letter-shell/Src/shell.c ****         return command->data.paramParser.type;
 584:ThirdParty/Letter-shell/Src/shell.c ****     }
 585:ThirdParty/Letter-shell/Src/shell.c **** #endif
 586:ThirdParty/Letter-shell/Src/shell.c ****     else
 587:ThirdParty/Letter-shell/Src/shell.c ****     {
 588:ThirdParty/Letter-shell/Src/shell.c ****         shellToHex(command->data.key.value, buffer);
 589:ThirdParty/Letter-shell/Src/shell.c ****         return buffer;
 590:ThirdParty/Letter-shell/Src/shell.c ****     }
 591:ThirdParty/Letter-shell/Src/shell.c **** }
 592:ThirdParty/Letter-shell/Src/shell.c **** 
 593:ThirdParty/Letter-shell/Src/shell.c **** 
 594:ThirdParty/Letter-shell/Src/shell.c **** /**
 595:ThirdParty/Letter-shell/Src/shell.c ****  * @brief shell获取命令描述
 596:ThirdParty/Letter-shell/Src/shell.c ****  * 
 597:ThirdParty/Letter-shell/Src/shell.c ****  * @param command 命令
 598:ThirdParty/Letter-shell/Src/shell.c ****  * @return const char* 命令描述
 599:ThirdParty/Letter-shell/Src/shell.c ****  */
 600:ThirdParty/Letter-shell/Src/shell.c **** static const char* shellGetCommandDesc(ShellCommand *command)
 601:ThirdParty/Letter-shell/Src/shell.c **** {
 602:ThirdParty/Letter-shell/Src/shell.c ****     if (command->attr.attrs.type <= SHELL_TYPE_CMD_FUNC)
 603:ThirdParty/Letter-shell/Src/shell.c ****     {
 604:ThirdParty/Letter-shell/Src/shell.c ****         return command->data.cmd.desc;
 605:ThirdParty/Letter-shell/Src/shell.c ****     }
 606:ThirdParty/Letter-shell/Src/shell.c ****     else if (command->attr.attrs.type <= SHELL_TYPE_VAR_NODE)
 607:ThirdParty/Letter-shell/Src/shell.c ****     {
ARM GAS  C:\Users\CL\AppData\Local\Temp\ccoMTeCk.s 			page 14


 608:ThirdParty/Letter-shell/Src/shell.c ****         return command->data.var.desc;
 609:ThirdParty/Letter-shell/Src/shell.c ****     }
 610:ThirdParty/Letter-shell/Src/shell.c ****     else if (command->attr.attrs.type <= SHELL_TYPE_USER)
 611:ThirdParty/Letter-shell/Src/shell.c ****     {
 612:ThirdParty/Letter-shell/Src/shell.c ****         return command->data.user.desc;
 613:ThirdParty/Letter-shell/Src/shell.c ****     }
 614:ThirdParty/Letter-shell/Src/shell.c ****     else
 615:ThirdParty/Letter-shell/Src/shell.c ****     {
 616:ThirdParty/Letter-shell/Src/shell.c ****         return command->data.key.desc;
 617:ThirdParty/Letter-shell/Src/shell.c ****     }
 618:ThirdParty/Letter-shell/Src/shell.c **** }
 619:ThirdParty/Letter-shell/Src/shell.c **** 
 620:ThirdParty/Letter-shell/Src/shell.c **** /**
 621:ThirdParty/Letter-shell/Src/shell.c ****  * @brief shell 列出命令条目
 622:ThirdParty/Letter-shell/Src/shell.c ****  * 
 623:ThirdParty/Letter-shell/Src/shell.c ****  * @param shell shell对象
 624:ThirdParty/Letter-shell/Src/shell.c ****  * @param item 命令条目
 625:ThirdParty/Letter-shell/Src/shell.c ****  */
 626:ThirdParty/Letter-shell/Src/shell.c **** void shellListItem(Shell *shell, ShellCommand *item)
 627:ThirdParty/Letter-shell/Src/shell.c **** {
 628:ThirdParty/Letter-shell/Src/shell.c ****     short spaceLength;
 629:ThirdParty/Letter-shell/Src/shell.c **** 
 630:ThirdParty/Letter-shell/Src/shell.c ****     spaceLength = 22 - shellWriteString(shell, shellGetCommandName(item));
 631:ThirdParty/Letter-shell/Src/shell.c ****     spaceLength = (spaceLength > 0) ? spaceLength : 4;
 632:ThirdParty/Letter-shell/Src/shell.c ****     do {
 633:ThirdParty/Letter-shell/Src/shell.c ****         shellWriteByte(shell, ' ');
 634:ThirdParty/Letter-shell/Src/shell.c ****     } while (--spaceLength);
 635:ThirdParty/Letter-shell/Src/shell.c ****     if (item->attr.attrs.type <= SHELL_TYPE_CMD_FUNC)
 636:ThirdParty/Letter-shell/Src/shell.c ****     {
 637:ThirdParty/Letter-shell/Src/shell.c ****         shellWriteString(shell, shellText[SHELL_TEXT_TYPE_CMD]);
 638:ThirdParty/Letter-shell/Src/shell.c ****     }
 639:ThirdParty/Letter-shell/Src/shell.c ****     else if (item->attr.attrs.type <= SHELL_TYPE_VAR_NODE)
 640:ThirdParty/Letter-shell/Src/shell.c ****     {
 641:ThirdParty/Letter-shell/Src/shell.c ****         shellWriteString(shell, shellText[SHELL_TEXT_TYPE_VAR]);
 642:ThirdParty/Letter-shell/Src/shell.c ****     }
 643:ThirdParty/Letter-shell/Src/shell.c ****     else if (item->attr.attrs.type <= SHELL_TYPE_USER)
 644:ThirdParty/Letter-shell/Src/shell.c ****     {
 645:ThirdParty/Letter-shell/Src/shell.c ****         shellWriteString(shell, shellText[SHELL_TEXT_TYPE_USER]);
 646:ThirdParty/Letter-shell/Src/shell.c ****     }
 647:ThirdParty/Letter-shell/Src/shell.c ****     else if (item->attr.attrs.type <= SHELL_TYPE_KEY)
 648:ThirdParty/Letter-shell/Src/shell.c ****     {
 649:ThirdParty/Letter-shell/Src/shell.c ****         shellWriteString(shell, shellText[SHELL_TEXT_TYPE_KEY]);
 650:ThirdParty/Letter-shell/Src/shell.c ****     }
 651:ThirdParty/Letter-shell/Src/shell.c ****     else
 652:ThirdParty/Letter-shell/Src/shell.c ****     {
 653:ThirdParty/Letter-shell/Src/shell.c ****         shellWriteString(shell, shellText[SHELL_TEXT_TYPE_NONE]);
 654:ThirdParty/Letter-shell/Src/shell.c ****     }
 655:ThirdParty/Letter-shell/Src/shell.c **** #if SHELL_HELP_SHOW_PERMISSION == 1
 656:ThirdParty/Letter-shell/Src/shell.c ****     shellWriteString(shell, "  ");
 657:ThirdParty/Letter-shell/Src/shell.c ****     for (signed char i = 7; i >= 0; i--)
 658:ThirdParty/Letter-shell/Src/shell.c ****     {
 659:ThirdParty/Letter-shell/Src/shell.c ****         shellWriteByte(shell, item->attr.attrs.permission & (1 << i) ? 'x' : '-');
 660:ThirdParty/Letter-shell/Src/shell.c ****     }
 661:ThirdParty/Letter-shell/Src/shell.c **** #endif
 662:ThirdParty/Letter-shell/Src/shell.c ****     shellWriteString(shell, "  ");
 663:ThirdParty/Letter-shell/Src/shell.c ****     shellWriteCommandDesc(shell, shellGetCommandDesc(item));
 664:ThirdParty/Letter-shell/Src/shell.c ****     shellWriteString(shell, "\r\n");
ARM GAS  C:\Users\CL\AppData\Local\Temp\ccoMTeCk.s 			page 15


 665:ThirdParty/Letter-shell/Src/shell.c **** }
 666:ThirdParty/Letter-shell/Src/shell.c **** 
 667:ThirdParty/Letter-shell/Src/shell.c **** 
 668:ThirdParty/Letter-shell/Src/shell.c **** /**
 669:ThirdParty/Letter-shell/Src/shell.c ****  * @brief shell列出可执行命令
 670:ThirdParty/Letter-shell/Src/shell.c ****  * 
 671:ThirdParty/Letter-shell/Src/shell.c ****  * @param shell shell对象
 672:ThirdParty/Letter-shell/Src/shell.c ****  */
 673:ThirdParty/Letter-shell/Src/shell.c **** void shellListCommand(Shell *shell)
 674:ThirdParty/Letter-shell/Src/shell.c **** {
 675:ThirdParty/Letter-shell/Src/shell.c ****     ShellCommand *base = (ShellCommand *)shell->commandList.base;
 676:ThirdParty/Letter-shell/Src/shell.c ****     shellWriteString(shell, shellText[SHELL_TEXT_CMD_LIST]);
 677:ThirdParty/Letter-shell/Src/shell.c ****     for (short i = 0; i < shell->commandList.count; i++)
 678:ThirdParty/Letter-shell/Src/shell.c ****     {
 679:ThirdParty/Letter-shell/Src/shell.c ****         if (base[i].attr.attrs.type <= SHELL_TYPE_CMD_FUNC
 680:ThirdParty/Letter-shell/Src/shell.c ****             && shellCheckPermission(shell, &base[i]) == 0)
 681:ThirdParty/Letter-shell/Src/shell.c ****         {
 682:ThirdParty/Letter-shell/Src/shell.c ****             shellListItem(shell, &base[i]);
 683:ThirdParty/Letter-shell/Src/shell.c ****         }
 684:ThirdParty/Letter-shell/Src/shell.c ****     }
 685:ThirdParty/Letter-shell/Src/shell.c **** }
 686:ThirdParty/Letter-shell/Src/shell.c **** 
 687:ThirdParty/Letter-shell/Src/shell.c **** 
 688:ThirdParty/Letter-shell/Src/shell.c **** /**
 689:ThirdParty/Letter-shell/Src/shell.c ****  * @brief shell列出变量
 690:ThirdParty/Letter-shell/Src/shell.c ****  * 
 691:ThirdParty/Letter-shell/Src/shell.c ****  * @param shell shell对象
 692:ThirdParty/Letter-shell/Src/shell.c ****  */
 693:ThirdParty/Letter-shell/Src/shell.c **** void shellListVar(Shell *shell)
 694:ThirdParty/Letter-shell/Src/shell.c **** {
 695:ThirdParty/Letter-shell/Src/shell.c ****     ShellCommand *base = (ShellCommand *)shell->commandList.base;
 696:ThirdParty/Letter-shell/Src/shell.c ****     shellWriteString(shell, shellText[SHELL_TEXT_VAR_LIST]);
 697:ThirdParty/Letter-shell/Src/shell.c ****     for (short i = 0; i < shell->commandList.count; i++)
 698:ThirdParty/Letter-shell/Src/shell.c ****     {
 699:ThirdParty/Letter-shell/Src/shell.c ****         if (base[i].attr.attrs.type > SHELL_TYPE_CMD_FUNC
 700:ThirdParty/Letter-shell/Src/shell.c ****             && base[i].attr.attrs.type <= SHELL_TYPE_VAR_NODE
 701:ThirdParty/Letter-shell/Src/shell.c ****             && shellCheckPermission(shell, &base[i]) == 0)
 702:ThirdParty/Letter-shell/Src/shell.c ****         {
 703:ThirdParty/Letter-shell/Src/shell.c ****             shellListItem(shell, &base[i]);
 704:ThirdParty/Letter-shell/Src/shell.c ****         }
 705:ThirdParty/Letter-shell/Src/shell.c ****     }
 706:ThirdParty/Letter-shell/Src/shell.c **** }
 707:ThirdParty/Letter-shell/Src/shell.c **** 
 708:ThirdParty/Letter-shell/Src/shell.c **** 
 709:ThirdParty/Letter-shell/Src/shell.c **** /**
 710:ThirdParty/Letter-shell/Src/shell.c ****  * @brief shell列出用户
 711:ThirdParty/Letter-shell/Src/shell.c ****  * 
 712:ThirdParty/Letter-shell/Src/shell.c ****  * @param shell shell对象
 713:ThirdParty/Letter-shell/Src/shell.c ****  */
 714:ThirdParty/Letter-shell/Src/shell.c **** void shellListUser(Shell *shell)
 715:ThirdParty/Letter-shell/Src/shell.c **** {
 716:ThirdParty/Letter-shell/Src/shell.c ****     ShellCommand *base = (ShellCommand *)shell->commandList.base;
 717:ThirdParty/Letter-shell/Src/shell.c ****     shellWriteString(shell, shellText[SHELL_TEXT_USER_LIST]);
 718:ThirdParty/Letter-shell/Src/shell.c ****     for (short i = 0; i < shell->commandList.count; i++)
 719:ThirdParty/Letter-shell/Src/shell.c ****     {
 720:ThirdParty/Letter-shell/Src/shell.c ****         if (base[i].attr.attrs.type > SHELL_TYPE_VAR_NODE
 721:ThirdParty/Letter-shell/Src/shell.c ****             && base[i].attr.attrs.type <= SHELL_TYPE_USER
ARM GAS  C:\Users\CL\AppData\Local\Temp\ccoMTeCk.s 			page 16


 722:ThirdParty/Letter-shell/Src/shell.c ****             && shellCheckPermission(shell, &base[i]) == 0)
 723:ThirdParty/Letter-shell/Src/shell.c ****         {
 724:ThirdParty/Letter-shell/Src/shell.c ****             shellListItem(shell, &base[i]);
 725:ThirdParty/Letter-shell/Src/shell.c ****         }
 726:ThirdParty/Letter-shell/Src/shell.c ****     }
 727:ThirdParty/Letter-shell/Src/shell.c **** }
 728:ThirdParty/Letter-shell/Src/shell.c **** 
 729:ThirdParty/Letter-shell/Src/shell.c **** 
 730:ThirdParty/Letter-shell/Src/shell.c **** /**
 731:ThirdParty/Letter-shell/Src/shell.c ****  * @brief shell列出按键
 732:ThirdParty/Letter-shell/Src/shell.c ****  * 
 733:ThirdParty/Letter-shell/Src/shell.c ****  * @param shell shell对象
 734:ThirdParty/Letter-shell/Src/shell.c ****  */
 735:ThirdParty/Letter-shell/Src/shell.c **** void shellListKey(Shell *shell)
 736:ThirdParty/Letter-shell/Src/shell.c **** {
 737:ThirdParty/Letter-shell/Src/shell.c ****     ShellCommand *base = (ShellCommand *)shell->commandList.base;
 738:ThirdParty/Letter-shell/Src/shell.c ****     shellWriteString(shell, shellText[SHELL_TEXT_KEY_LIST]);
 739:ThirdParty/Letter-shell/Src/shell.c ****     for (short i = 0; i < shell->commandList.count; i++)
 740:ThirdParty/Letter-shell/Src/shell.c ****     {
 741:ThirdParty/Letter-shell/Src/shell.c ****         if (base[i].attr.attrs.type > SHELL_TYPE_USER
 742:ThirdParty/Letter-shell/Src/shell.c ****             && base[i].attr.attrs.type <= SHELL_TYPE_KEY
 743:ThirdParty/Letter-shell/Src/shell.c ****             && shellCheckPermission(shell, &base[i]) == 0)
 744:ThirdParty/Letter-shell/Src/shell.c ****         {
 745:ThirdParty/Letter-shell/Src/shell.c ****             shellListItem(shell, &base[i]);
 746:ThirdParty/Letter-shell/Src/shell.c ****         }
 747:ThirdParty/Letter-shell/Src/shell.c ****     }
 748:ThirdParty/Letter-shell/Src/shell.c **** }
 749:ThirdParty/Letter-shell/Src/shell.c **** 
 750:ThirdParty/Letter-shell/Src/shell.c **** 
 751:ThirdParty/Letter-shell/Src/shell.c **** /**
 752:ThirdParty/Letter-shell/Src/shell.c ****  * @brief shell列出所有命令
 753:ThirdParty/Letter-shell/Src/shell.c ****  * 
 754:ThirdParty/Letter-shell/Src/shell.c ****  * @param shell shell对象
 755:ThirdParty/Letter-shell/Src/shell.c ****  */
 756:ThirdParty/Letter-shell/Src/shell.c **** void shellListAll(Shell *shell)
 757:ThirdParty/Letter-shell/Src/shell.c **** {
 758:ThirdParty/Letter-shell/Src/shell.c **** #if SHELL_HELP_LIST_USER == 1
 759:ThirdParty/Letter-shell/Src/shell.c ****     shellListUser(shell);
 760:ThirdParty/Letter-shell/Src/shell.c **** #endif
 761:ThirdParty/Letter-shell/Src/shell.c ****     shellListCommand(shell);
 762:ThirdParty/Letter-shell/Src/shell.c **** #if SHELL_HELP_LIST_VAR == 1
 763:ThirdParty/Letter-shell/Src/shell.c ****     shellListVar(shell);
 764:ThirdParty/Letter-shell/Src/shell.c **** #endif
 765:ThirdParty/Letter-shell/Src/shell.c **** #if SHELL_HELP_LIST_KEY == 1
 766:ThirdParty/Letter-shell/Src/shell.c ****     shellListKey(shell);
 767:ThirdParty/Letter-shell/Src/shell.c **** #endif
 768:ThirdParty/Letter-shell/Src/shell.c **** }
 769:ThirdParty/Letter-shell/Src/shell.c **** 
 770:ThirdParty/Letter-shell/Src/shell.c **** 
 771:ThirdParty/Letter-shell/Src/shell.c **** /**
 772:ThirdParty/Letter-shell/Src/shell.c ****  * @brief shell删除命令行数据
 773:ThirdParty/Letter-shell/Src/shell.c ****  * 
 774:ThirdParty/Letter-shell/Src/shell.c ****  * @param shell shell对象
 775:ThirdParty/Letter-shell/Src/shell.c ****  * @param length 删除长度
 776:ThirdParty/Letter-shell/Src/shell.c ****  */
 777:ThirdParty/Letter-shell/Src/shell.c **** void shellDeleteCommandLine(Shell *shell, unsigned char length)
 778:ThirdParty/Letter-shell/Src/shell.c **** {
ARM GAS  C:\Users\CL\AppData\Local\Temp\ccoMTeCk.s 			page 17


 779:ThirdParty/Letter-shell/Src/shell.c ****     while (length--)
 780:ThirdParty/Letter-shell/Src/shell.c ****     {
 781:ThirdParty/Letter-shell/Src/shell.c ****         shellWriteString(shell, "\b \b");
 782:ThirdParty/Letter-shell/Src/shell.c ****     }
 783:ThirdParty/Letter-shell/Src/shell.c **** }
 784:ThirdParty/Letter-shell/Src/shell.c **** 
 785:ThirdParty/Letter-shell/Src/shell.c **** 
 786:ThirdParty/Letter-shell/Src/shell.c **** /**
 787:ThirdParty/Letter-shell/Src/shell.c ****  * @brief shell 清空命令行输入
 788:ThirdParty/Letter-shell/Src/shell.c ****  * 
 789:ThirdParty/Letter-shell/Src/shell.c ****  * @param shell shell对象
 790:ThirdParty/Letter-shell/Src/shell.c ****  */
 791:ThirdParty/Letter-shell/Src/shell.c **** void shellClearCommandLine(Shell *shell)
 792:ThirdParty/Letter-shell/Src/shell.c **** {
 793:ThirdParty/Letter-shell/Src/shell.c ****     for (short i = shell->parser.length - shell->parser.cursor; i > 0; i--)
 794:ThirdParty/Letter-shell/Src/shell.c ****     {
 795:ThirdParty/Letter-shell/Src/shell.c ****         shellWriteByte(shell, ' ');
 796:ThirdParty/Letter-shell/Src/shell.c ****     }
 797:ThirdParty/Letter-shell/Src/shell.c ****     shellDeleteCommandLine(shell, shell->parser.length);
 798:ThirdParty/Letter-shell/Src/shell.c **** }
 799:ThirdParty/Letter-shell/Src/shell.c **** 
 800:ThirdParty/Letter-shell/Src/shell.c **** 
 801:ThirdParty/Letter-shell/Src/shell.c **** /**
 802:ThirdParty/Letter-shell/Src/shell.c ****  * @brief shell插入一个字符到光标位置
 803:ThirdParty/Letter-shell/Src/shell.c ****  * 
 804:ThirdParty/Letter-shell/Src/shell.c ****  * @param shell shell对象
 805:ThirdParty/Letter-shell/Src/shell.c ****  * @param data 字符数据
 806:ThirdParty/Letter-shell/Src/shell.c ****  */
 807:ThirdParty/Letter-shell/Src/shell.c **** void shellInsertByte(Shell *shell, char data)
 808:ThirdParty/Letter-shell/Src/shell.c **** {
 809:ThirdParty/Letter-shell/Src/shell.c ****     /* 判断输入数据是否过长 */
 810:ThirdParty/Letter-shell/Src/shell.c ****     if (shell->parser.length >= shell->parser.bufferSize - 1)
 811:ThirdParty/Letter-shell/Src/shell.c ****     {
 812:ThirdParty/Letter-shell/Src/shell.c ****         shellWriteString(shell, shellText[SHELL_TEXT_CMD_TOO_LONG]);
 813:ThirdParty/Letter-shell/Src/shell.c ****         shellWritePrompt(shell, 1);
 814:ThirdParty/Letter-shell/Src/shell.c ****         shellWriteString(shell, shell->parser.buffer);
 815:ThirdParty/Letter-shell/Src/shell.c ****         return;
 816:ThirdParty/Letter-shell/Src/shell.c ****     }
 817:ThirdParty/Letter-shell/Src/shell.c **** 
 818:ThirdParty/Letter-shell/Src/shell.c ****     /* 插入数据 */
 819:ThirdParty/Letter-shell/Src/shell.c ****     if (shell->parser.cursor == shell->parser.length)
 820:ThirdParty/Letter-shell/Src/shell.c ****     {
 821:ThirdParty/Letter-shell/Src/shell.c ****         shell->parser.buffer[shell->parser.length++] = data;
 822:ThirdParty/Letter-shell/Src/shell.c ****         shell->parser.buffer[shell->parser.length] = 0;
 823:ThirdParty/Letter-shell/Src/shell.c ****         shell->parser.cursor++;
 824:ThirdParty/Letter-shell/Src/shell.c ****         shellWriteByte(shell, data);
 825:ThirdParty/Letter-shell/Src/shell.c ****     }
 826:ThirdParty/Letter-shell/Src/shell.c ****     else if (shell->parser.cursor < shell->parser.length)
 827:ThirdParty/Letter-shell/Src/shell.c ****     {
 828:ThirdParty/Letter-shell/Src/shell.c ****         for (short i = shell->parser.length - shell->parser.cursor; i > 0; i--)
 829:ThirdParty/Letter-shell/Src/shell.c ****         {
 830:ThirdParty/Letter-shell/Src/shell.c ****             shell->parser.buffer[shell->parser.cursor + i] = 
 831:ThirdParty/Letter-shell/Src/shell.c ****                 shell->parser.buffer[shell->parser.cursor + i - 1];
 832:ThirdParty/Letter-shell/Src/shell.c ****         }
 833:ThirdParty/Letter-shell/Src/shell.c ****         shell->parser.buffer[shell->parser.cursor++] = data;
 834:ThirdParty/Letter-shell/Src/shell.c ****         shell->parser.buffer[++shell->parser.length] = 0;
 835:ThirdParty/Letter-shell/Src/shell.c ****         for (short i = shell->parser.cursor - 1; i < shell->parser.length; i++)
ARM GAS  C:\Users\CL\AppData\Local\Temp\ccoMTeCk.s 			page 18


 836:ThirdParty/Letter-shell/Src/shell.c ****         {
 837:ThirdParty/Letter-shell/Src/shell.c ****             shellWriteByte(shell, shell->parser.buffer[i]);
 838:ThirdParty/Letter-shell/Src/shell.c ****         }
 839:ThirdParty/Letter-shell/Src/shell.c ****         for (short i = shell->parser.length - shell->parser.cursor; i > 0; i--)
 840:ThirdParty/Letter-shell/Src/shell.c ****         {
 841:ThirdParty/Letter-shell/Src/shell.c ****             shellWriteByte(shell, '\b');
 842:ThirdParty/Letter-shell/Src/shell.c ****         }
 843:ThirdParty/Letter-shell/Src/shell.c ****     }
 844:ThirdParty/Letter-shell/Src/shell.c **** }
 845:ThirdParty/Letter-shell/Src/shell.c **** 
 846:ThirdParty/Letter-shell/Src/shell.c **** 
 847:ThirdParty/Letter-shell/Src/shell.c **** /**
 848:ThirdParty/Letter-shell/Src/shell.c ****  * @brief shell 删除字节
 849:ThirdParty/Letter-shell/Src/shell.c ****  * 
 850:ThirdParty/Letter-shell/Src/shell.c ****  * @param shell shell对象
 851:ThirdParty/Letter-shell/Src/shell.c ****  * @param direction 删除方向 {@code 1}删除光标前字符 {@code -1}删除光标处字符
 852:ThirdParty/Letter-shell/Src/shell.c ****  */
 853:ThirdParty/Letter-shell/Src/shell.c **** void shellDeleteByte(Shell *shell, signed char direction)
 854:ThirdParty/Letter-shell/Src/shell.c **** {
 855:ThirdParty/Letter-shell/Src/shell.c ****     char offset = (direction == -1) ? 1 : 0;
 856:ThirdParty/Letter-shell/Src/shell.c **** 
 857:ThirdParty/Letter-shell/Src/shell.c ****     if ((shell->parser.cursor == 0 && direction == 1)
 858:ThirdParty/Letter-shell/Src/shell.c ****         || (shell->parser.cursor == shell->parser.length && direction == -1))
 859:ThirdParty/Letter-shell/Src/shell.c ****     {
 860:ThirdParty/Letter-shell/Src/shell.c ****         return;
 861:ThirdParty/Letter-shell/Src/shell.c ****     }
 862:ThirdParty/Letter-shell/Src/shell.c ****     if (shell->parser.cursor == shell->parser.length && direction == 1)
 863:ThirdParty/Letter-shell/Src/shell.c ****     {
 864:ThirdParty/Letter-shell/Src/shell.c ****         shell->parser.cursor--;
 865:ThirdParty/Letter-shell/Src/shell.c ****         shell->parser.length--;
 866:ThirdParty/Letter-shell/Src/shell.c ****         shell->parser.buffer[shell->parser.length] = 0;
 867:ThirdParty/Letter-shell/Src/shell.c ****         shellDeleteCommandLine(shell, 1);
 868:ThirdParty/Letter-shell/Src/shell.c ****     }
 869:ThirdParty/Letter-shell/Src/shell.c ****     else
 870:ThirdParty/Letter-shell/Src/shell.c ****     {
 871:ThirdParty/Letter-shell/Src/shell.c ****         for (short i = offset; i < shell->parser.length - shell->parser.cursor; i++)
 872:ThirdParty/Letter-shell/Src/shell.c ****         {
 873:ThirdParty/Letter-shell/Src/shell.c ****             shell->parser.buffer[shell->parser.cursor + i - 1] = 
 874:ThirdParty/Letter-shell/Src/shell.c ****                 shell->parser.buffer[shell->parser.cursor + i];
 875:ThirdParty/Letter-shell/Src/shell.c ****         }
 876:ThirdParty/Letter-shell/Src/shell.c ****         shell->parser.length--;
 877:ThirdParty/Letter-shell/Src/shell.c ****         if (!offset)
 878:ThirdParty/Letter-shell/Src/shell.c ****         {
 879:ThirdParty/Letter-shell/Src/shell.c ****             shell->parser.cursor--;
 880:ThirdParty/Letter-shell/Src/shell.c ****             shellWriteByte(shell, '\b');
 881:ThirdParty/Letter-shell/Src/shell.c ****         }
 882:ThirdParty/Letter-shell/Src/shell.c ****         shell->parser.buffer[shell->parser.length] = 0;
 883:ThirdParty/Letter-shell/Src/shell.c ****         for (short i = shell->parser.cursor; i < shell->parser.length; i++)
 884:ThirdParty/Letter-shell/Src/shell.c ****         {
 885:ThirdParty/Letter-shell/Src/shell.c ****             shellWriteByte(shell, shell->parser.buffer[i]);
 886:ThirdParty/Letter-shell/Src/shell.c ****         }
 887:ThirdParty/Letter-shell/Src/shell.c ****         shellWriteByte(shell, ' ');
 888:ThirdParty/Letter-shell/Src/shell.c ****         for (short i = shell->parser.length - shell->parser.cursor + 1; i > 0; i--)
 889:ThirdParty/Letter-shell/Src/shell.c ****         {
 890:ThirdParty/Letter-shell/Src/shell.c ****             shellWriteByte(shell, '\b');
 891:ThirdParty/Letter-shell/Src/shell.c ****         }
 892:ThirdParty/Letter-shell/Src/shell.c ****     }
ARM GAS  C:\Users\CL\AppData\Local\Temp\ccoMTeCk.s 			page 19


 893:ThirdParty/Letter-shell/Src/shell.c **** }
 894:ThirdParty/Letter-shell/Src/shell.c **** 
 895:ThirdParty/Letter-shell/Src/shell.c **** 
 896:ThirdParty/Letter-shell/Src/shell.c **** /**
 897:ThirdParty/Letter-shell/Src/shell.c ****  * @brief shell 解析参数
 898:ThirdParty/Letter-shell/Src/shell.c ****  * 
 899:ThirdParty/Letter-shell/Src/shell.c ****  * @param shell shell对象
 900:ThirdParty/Letter-shell/Src/shell.c ****  */
 901:ThirdParty/Letter-shell/Src/shell.c **** static void shellParserParam(Shell *shell)
 902:ThirdParty/Letter-shell/Src/shell.c **** {
 903:ThirdParty/Letter-shell/Src/shell.c ****     unsigned char quotes = 0;
 904:ThirdParty/Letter-shell/Src/shell.c ****     unsigned char record = 1;
 905:ThirdParty/Letter-shell/Src/shell.c **** 
 906:ThirdParty/Letter-shell/Src/shell.c ****     for (short i = 0; i < SHELL_PARAMETER_MAX_NUMBER; i++)
 907:ThirdParty/Letter-shell/Src/shell.c ****     {
 908:ThirdParty/Letter-shell/Src/shell.c ****         shell->parser.param[i] = NULL;
 909:ThirdParty/Letter-shell/Src/shell.c ****     }
 910:ThirdParty/Letter-shell/Src/shell.c **** 
 911:ThirdParty/Letter-shell/Src/shell.c ****     shell->parser.paramCount = 0;
 912:ThirdParty/Letter-shell/Src/shell.c ****     for (unsigned short i = 0; i < shell->parser.length; i++)
 913:ThirdParty/Letter-shell/Src/shell.c ****     {
 914:ThirdParty/Letter-shell/Src/shell.c ****         if (quotes != 0
 915:ThirdParty/Letter-shell/Src/shell.c ****             || (shell->parser.buffer[i] != ' '
 916:ThirdParty/Letter-shell/Src/shell.c ****                 && shell->parser.buffer[i] != 0))
 917:ThirdParty/Letter-shell/Src/shell.c ****         {
 918:ThirdParty/Letter-shell/Src/shell.c ****             if (shell->parser.buffer[i] == '\"')
 919:ThirdParty/Letter-shell/Src/shell.c ****             {
 920:ThirdParty/Letter-shell/Src/shell.c ****                 quotes = quotes ? 0 : 1;
 921:ThirdParty/Letter-shell/Src/shell.c ****             }
 922:ThirdParty/Letter-shell/Src/shell.c ****             if (record == 1)
 923:ThirdParty/Letter-shell/Src/shell.c ****             {
 924:ThirdParty/Letter-shell/Src/shell.c ****                 if (shell->parser.paramCount < SHELL_PARAMETER_MAX_NUMBER)
 925:ThirdParty/Letter-shell/Src/shell.c ****                 {
 926:ThirdParty/Letter-shell/Src/shell.c ****                     shell->parser.param[shell->parser.paramCount++] =
 927:ThirdParty/Letter-shell/Src/shell.c ****                         &(shell->parser.buffer[i]);
 928:ThirdParty/Letter-shell/Src/shell.c ****                 }
 929:ThirdParty/Letter-shell/Src/shell.c ****                 record = 0;
 930:ThirdParty/Letter-shell/Src/shell.c ****             }
 931:ThirdParty/Letter-shell/Src/shell.c ****             if (shell->parser.buffer[i] == '\\'
 932:ThirdParty/Letter-shell/Src/shell.c ****                 && shell->parser.buffer[i + 1] != 0)
 933:ThirdParty/Letter-shell/Src/shell.c ****             {
 934:ThirdParty/Letter-shell/Src/shell.c ****                 i++;
 935:ThirdParty/Letter-shell/Src/shell.c ****             }
 936:ThirdParty/Letter-shell/Src/shell.c ****         }
 937:ThirdParty/Letter-shell/Src/shell.c ****         else
 938:ThirdParty/Letter-shell/Src/shell.c ****         {
 939:ThirdParty/Letter-shell/Src/shell.c ****             shell->parser.buffer[i] = 0;
 940:ThirdParty/Letter-shell/Src/shell.c ****             record = 1;
 941:ThirdParty/Letter-shell/Src/shell.c ****         }
 942:ThirdParty/Letter-shell/Src/shell.c ****     }
 943:ThirdParty/Letter-shell/Src/shell.c **** }
 944:ThirdParty/Letter-shell/Src/shell.c **** 
 945:ThirdParty/Letter-shell/Src/shell.c **** 
 946:ThirdParty/Letter-shell/Src/shell.c **** /**
 947:ThirdParty/Letter-shell/Src/shell.c ****  * @brief shell去除字符串参数头尾的双引号
 948:ThirdParty/Letter-shell/Src/shell.c ****  * 
 949:ThirdParty/Letter-shell/Src/shell.c ****  * @param shell shell对象
ARM GAS  C:\Users\CL\AppData\Local\Temp\ccoMTeCk.s 			page 20


 950:ThirdParty/Letter-shell/Src/shell.c ****  */
 951:ThirdParty/Letter-shell/Src/shell.c **** static void shellRemoveParamQuotes(Shell *shell)
 952:ThirdParty/Letter-shell/Src/shell.c **** {
 953:ThirdParty/Letter-shell/Src/shell.c ****     unsigned short paramLength;
 954:ThirdParty/Letter-shell/Src/shell.c ****     for (unsigned short i = 0; i < shell->parser.paramCount; i++)
 955:ThirdParty/Letter-shell/Src/shell.c ****     {
 956:ThirdParty/Letter-shell/Src/shell.c ****         if (shell->parser.param[i][0] == '\"')
 957:ThirdParty/Letter-shell/Src/shell.c ****         {
 958:ThirdParty/Letter-shell/Src/shell.c ****             shell->parser.param[i][0] = 0;
 959:ThirdParty/Letter-shell/Src/shell.c ****             shell->parser.param[i] = &shell->parser.param[i][1];
 960:ThirdParty/Letter-shell/Src/shell.c ****         }
 961:ThirdParty/Letter-shell/Src/shell.c ****         paramLength = strlen(shell->parser.param[i]);
 962:ThirdParty/Letter-shell/Src/shell.c ****         if (shell->parser.param[i][paramLength - 1] == '\"')
 963:ThirdParty/Letter-shell/Src/shell.c ****         {
 964:ThirdParty/Letter-shell/Src/shell.c ****             shell->parser.param[i][paramLength - 1] = 0;
 965:ThirdParty/Letter-shell/Src/shell.c ****         }
 966:ThirdParty/Letter-shell/Src/shell.c ****     }
 967:ThirdParty/Letter-shell/Src/shell.c **** }
 968:ThirdParty/Letter-shell/Src/shell.c **** 
 969:ThirdParty/Letter-shell/Src/shell.c **** 
 970:ThirdParty/Letter-shell/Src/shell.c **** /**
 971:ThirdParty/Letter-shell/Src/shell.c ****  * @brief shell匹配命令
 972:ThirdParty/Letter-shell/Src/shell.c ****  * 
 973:ThirdParty/Letter-shell/Src/shell.c ****  * @param shell shell对象
 974:ThirdParty/Letter-shell/Src/shell.c ****  * @param cmd 命令
 975:ThirdParty/Letter-shell/Src/shell.c ****  * @param base 匹配命令表基址
 976:ThirdParty/Letter-shell/Src/shell.c ****  * @param compareLength 匹配字符串长度
 977:ThirdParty/Letter-shell/Src/shell.c ****  * @return ShellCommand* 匹配到的命令
 978:ThirdParty/Letter-shell/Src/shell.c ****  */
 979:ThirdParty/Letter-shell/Src/shell.c **** ShellCommand* shellSeekCommand(Shell *shell,
 980:ThirdParty/Letter-shell/Src/shell.c ****                                const char *cmd,
 981:ThirdParty/Letter-shell/Src/shell.c ****                                ShellCommand *base,
 982:ThirdParty/Letter-shell/Src/shell.c ****                                unsigned short compareLength)
 983:ThirdParty/Letter-shell/Src/shell.c **** {
 984:ThirdParty/Letter-shell/Src/shell.c ****     const char *name;
 985:ThirdParty/Letter-shell/Src/shell.c ****     unsigned short count = shell->commandList.count -
 986:ThirdParty/Letter-shell/Src/shell.c ****         ((int)base - (int)shell->commandList.base) / sizeof(ShellCommand);
 987:ThirdParty/Letter-shell/Src/shell.c ****     for (unsigned short i = 0; i < count; i++)
 988:ThirdParty/Letter-shell/Src/shell.c ****     {
 989:ThirdParty/Letter-shell/Src/shell.c ****         if (base[i].attr.attrs.type == SHELL_TYPE_KEY
 990:ThirdParty/Letter-shell/Src/shell.c ****             || shellCheckPermission(shell, &base[i]) != 0)
 991:ThirdParty/Letter-shell/Src/shell.c ****         {
 992:ThirdParty/Letter-shell/Src/shell.c ****             continue;
 993:ThirdParty/Letter-shell/Src/shell.c ****         }
 994:ThirdParty/Letter-shell/Src/shell.c ****         name = shellGetCommandName(&base[i]);
 995:ThirdParty/Letter-shell/Src/shell.c ****         if (!compareLength)
 996:ThirdParty/Letter-shell/Src/shell.c ****         {
 997:ThirdParty/Letter-shell/Src/shell.c ****             if (strcmp(cmd, name) == 0)
 998:ThirdParty/Letter-shell/Src/shell.c ****             {
 999:ThirdParty/Letter-shell/Src/shell.c ****                 return &base[i];
1000:ThirdParty/Letter-shell/Src/shell.c ****             }
1001:ThirdParty/Letter-shell/Src/shell.c ****         }
1002:ThirdParty/Letter-shell/Src/shell.c ****         else
1003:ThirdParty/Letter-shell/Src/shell.c ****         {
1004:ThirdParty/Letter-shell/Src/shell.c ****             if (strncmp(cmd, name, compareLength) == 0)
1005:ThirdParty/Letter-shell/Src/shell.c ****             {
1006:ThirdParty/Letter-shell/Src/shell.c ****                 return &base[i];
ARM GAS  C:\Users\CL\AppData\Local\Temp\ccoMTeCk.s 			page 21


1007:ThirdParty/Letter-shell/Src/shell.c ****             }
1008:ThirdParty/Letter-shell/Src/shell.c ****         }
1009:ThirdParty/Letter-shell/Src/shell.c ****     }
1010:ThirdParty/Letter-shell/Src/shell.c ****     return NULL;
1011:ThirdParty/Letter-shell/Src/shell.c **** }
1012:ThirdParty/Letter-shell/Src/shell.c **** 
1013:ThirdParty/Letter-shell/Src/shell.c **** 
1014:ThirdParty/Letter-shell/Src/shell.c **** /**
1015:ThirdParty/Letter-shell/Src/shell.c ****  * @brief shell 获取变量值
1016:ThirdParty/Letter-shell/Src/shell.c ****  * 
1017:ThirdParty/Letter-shell/Src/shell.c ****  * @param shell shell对象
1018:ThirdParty/Letter-shell/Src/shell.c ****  * @param command 命令
1019:ThirdParty/Letter-shell/Src/shell.c ****  * @return int 变量值
1020:ThirdParty/Letter-shell/Src/shell.c ****  */
1021:ThirdParty/Letter-shell/Src/shell.c **** int shellGetVarValue(Shell *shell, ShellCommand *command)
1022:ThirdParty/Letter-shell/Src/shell.c **** {
1023:ThirdParty/Letter-shell/Src/shell.c ****     int value = 0;
1024:ThirdParty/Letter-shell/Src/shell.c ****     switch (command->attr.attrs.type)
1025:ThirdParty/Letter-shell/Src/shell.c ****     {
1026:ThirdParty/Letter-shell/Src/shell.c ****     case SHELL_TYPE_VAR_INT:
1027:ThirdParty/Letter-shell/Src/shell.c ****         value = *((int *)(command->data.var.value));
1028:ThirdParty/Letter-shell/Src/shell.c ****         break;
1029:ThirdParty/Letter-shell/Src/shell.c ****     case SHELL_TYPE_VAR_SHORT:
1030:ThirdParty/Letter-shell/Src/shell.c ****         value = *((short *)(command->data.var.value));
1031:ThirdParty/Letter-shell/Src/shell.c ****         break;
1032:ThirdParty/Letter-shell/Src/shell.c ****     case SHELL_TYPE_VAR_CHAR:
1033:ThirdParty/Letter-shell/Src/shell.c ****         value = *((char *)(command->data.var.value));
1034:ThirdParty/Letter-shell/Src/shell.c ****         break;
1035:ThirdParty/Letter-shell/Src/shell.c ****     case SHELL_TYPE_VAR_STRING:
1036:ThirdParty/Letter-shell/Src/shell.c ****     case SHELL_TYPE_VAR_POINT:
1037:ThirdParty/Letter-shell/Src/shell.c ****         value = (int)(command->data.var.value);
1038:ThirdParty/Letter-shell/Src/shell.c ****         break;
1039:ThirdParty/Letter-shell/Src/shell.c ****     case SHELL_TYPE_VAR_NODE:
1040:ThirdParty/Letter-shell/Src/shell.c ****         value = ((ShellNodeVarAttr *)command->data.var.value)->get ?
1041:ThirdParty/Letter-shell/Src/shell.c ****                     ((ShellNodeVarAttr *)command->data.var.value)
1042:ThirdParty/Letter-shell/Src/shell.c ****                         ->get(((ShellNodeVarAttr *)command->data.var.value)->var) : 0;
1043:ThirdParty/Letter-shell/Src/shell.c ****         break;
1044:ThirdParty/Letter-shell/Src/shell.c ****     default:
1045:ThirdParty/Letter-shell/Src/shell.c ****         break;
1046:ThirdParty/Letter-shell/Src/shell.c ****     }
1047:ThirdParty/Letter-shell/Src/shell.c ****     return value;
1048:ThirdParty/Letter-shell/Src/shell.c **** }
1049:ThirdParty/Letter-shell/Src/shell.c **** 
1050:ThirdParty/Letter-shell/Src/shell.c **** 
1051:ThirdParty/Letter-shell/Src/shell.c **** /**
1052:ThirdParty/Letter-shell/Src/shell.c ****  * @brief shell设置变量值
1053:ThirdParty/Letter-shell/Src/shell.c ****  * 
1054:ThirdParty/Letter-shell/Src/shell.c ****  * @param shell shell对象
1055:ThirdParty/Letter-shell/Src/shell.c ****  * @param command 命令
1056:ThirdParty/Letter-shell/Src/shell.c ****  * @param value 值
1057:ThirdParty/Letter-shell/Src/shell.c ****  * @return int 返回变量值
1058:ThirdParty/Letter-shell/Src/shell.c ****  */
1059:ThirdParty/Letter-shell/Src/shell.c **** int shellSetVarValue(Shell *shell, ShellCommand *command, int value)
1060:ThirdParty/Letter-shell/Src/shell.c **** {
1061:ThirdParty/Letter-shell/Src/shell.c ****     if (command->attr.attrs.readOnly)
1062:ThirdParty/Letter-shell/Src/shell.c ****     {
1063:ThirdParty/Letter-shell/Src/shell.c ****         shellWriteString(shell, shellText[SHELL_TEXT_VAR_READ_ONLY_CANNOT_MODIFY]);
ARM GAS  C:\Users\CL\AppData\Local\Temp\ccoMTeCk.s 			page 22


1064:ThirdParty/Letter-shell/Src/shell.c ****     }
1065:ThirdParty/Letter-shell/Src/shell.c ****     else
1066:ThirdParty/Letter-shell/Src/shell.c ****     {
1067:ThirdParty/Letter-shell/Src/shell.c ****         switch (command->attr.attrs.type)
1068:ThirdParty/Letter-shell/Src/shell.c ****         {
1069:ThirdParty/Letter-shell/Src/shell.c ****         case SHELL_TYPE_VAR_INT:
1070:ThirdParty/Letter-shell/Src/shell.c ****             *((int *)(command->data.var.value)) = value;
1071:ThirdParty/Letter-shell/Src/shell.c ****             break;
1072:ThirdParty/Letter-shell/Src/shell.c ****         case SHELL_TYPE_VAR_SHORT:
1073:ThirdParty/Letter-shell/Src/shell.c ****             *((short *)(command->data.var.value)) = value;
1074:ThirdParty/Letter-shell/Src/shell.c ****             break;
1075:ThirdParty/Letter-shell/Src/shell.c ****         case SHELL_TYPE_VAR_CHAR:
1076:ThirdParty/Letter-shell/Src/shell.c ****             *((char *)(command->data.var.value)) = value;
1077:ThirdParty/Letter-shell/Src/shell.c ****             break;
1078:ThirdParty/Letter-shell/Src/shell.c ****         case SHELL_TYPE_VAR_STRING:
1079:ThirdParty/Letter-shell/Src/shell.c ****             shellStringCopy(((char *)(command->data.var.value)), (char *)value);
1080:ThirdParty/Letter-shell/Src/shell.c ****             break;
1081:ThirdParty/Letter-shell/Src/shell.c ****         case SHELL_TYPE_VAR_POINT:
1082:ThirdParty/Letter-shell/Src/shell.c ****             shellWriteString(shell, shellText[SHELL_TEXT_POINT_CANNOT_MODIFY]);
1083:ThirdParty/Letter-shell/Src/shell.c ****             break;
1084:ThirdParty/Letter-shell/Src/shell.c ****         case SHELL_TYPE_VAR_NODE:
1085:ThirdParty/Letter-shell/Src/shell.c ****             if (((ShellNodeVarAttr *)command->data.var.value)->set)
1086:ThirdParty/Letter-shell/Src/shell.c ****             {
1087:ThirdParty/Letter-shell/Src/shell.c ****                 if (((ShellNodeVarAttr *)command->data.var.value)->var)
1088:ThirdParty/Letter-shell/Src/shell.c ****                 {
1089:ThirdParty/Letter-shell/Src/shell.c ****                     ((ShellNodeVarAttr *)command->data.var.value)
1090:ThirdParty/Letter-shell/Src/shell.c ****                         ->set(((ShellNodeVarAttr *)command->data.var.value)->var, value);
1091:ThirdParty/Letter-shell/Src/shell.c ****                 }
1092:ThirdParty/Letter-shell/Src/shell.c ****                 else
1093:ThirdParty/Letter-shell/Src/shell.c ****                 {
1094:ThirdParty/Letter-shell/Src/shell.c ****                     ((ShellNodeVarAttr *)command->data.var.value)->set(value);
1095:ThirdParty/Letter-shell/Src/shell.c ****                 }
1096:ThirdParty/Letter-shell/Src/shell.c ****             }
1097:ThirdParty/Letter-shell/Src/shell.c ****             break;
1098:ThirdParty/Letter-shell/Src/shell.c ****         default:
1099:ThirdParty/Letter-shell/Src/shell.c ****             break;
1100:ThirdParty/Letter-shell/Src/shell.c ****         }
1101:ThirdParty/Letter-shell/Src/shell.c ****     }
1102:ThirdParty/Letter-shell/Src/shell.c ****     return shellShowVar(shell, command);
1103:ThirdParty/Letter-shell/Src/shell.c **** }
1104:ThirdParty/Letter-shell/Src/shell.c **** 
1105:ThirdParty/Letter-shell/Src/shell.c **** 
1106:ThirdParty/Letter-shell/Src/shell.c **** /**
1107:ThirdParty/Letter-shell/Src/shell.c ****  * @brief shell变量输出
1108:ThirdParty/Letter-shell/Src/shell.c ****  * 
1109:ThirdParty/Letter-shell/Src/shell.c ****  * @param shell shell对象
1110:ThirdParty/Letter-shell/Src/shell.c ****  * @param command 命令
1111:ThirdParty/Letter-shell/Src/shell.c ****  * @return int 返回变量值
1112:ThirdParty/Letter-shell/Src/shell.c ****  */
1113:ThirdParty/Letter-shell/Src/shell.c **** static int shellShowVar(Shell *shell, ShellCommand *command)
1114:ThirdParty/Letter-shell/Src/shell.c **** {
1115:ThirdParty/Letter-shell/Src/shell.c ****     char buffer[12] = "00000000000";
1116:ThirdParty/Letter-shell/Src/shell.c ****     int value = shellGetVarValue(shell, command);
1117:ThirdParty/Letter-shell/Src/shell.c ****     
1118:ThirdParty/Letter-shell/Src/shell.c ****     shellWriteString(shell, command->data.var.name);
1119:ThirdParty/Letter-shell/Src/shell.c ****     shellWriteString(shell, " = ");
1120:ThirdParty/Letter-shell/Src/shell.c **** 
ARM GAS  C:\Users\CL\AppData\Local\Temp\ccoMTeCk.s 			page 23


1121:ThirdParty/Letter-shell/Src/shell.c ****     switch (command->attr.attrs.type)
1122:ThirdParty/Letter-shell/Src/shell.c ****     {
1123:ThirdParty/Letter-shell/Src/shell.c ****     case SHELL_TYPE_VAR_STRING:
1124:ThirdParty/Letter-shell/Src/shell.c ****         shellWriteString(shell, "\"");
1125:ThirdParty/Letter-shell/Src/shell.c ****         shellWriteString(shell, (char *)value);
1126:ThirdParty/Letter-shell/Src/shell.c ****         shellWriteString(shell, "\"");
1127:ThirdParty/Letter-shell/Src/shell.c ****         break;
1128:ThirdParty/Letter-shell/Src/shell.c ****     // case SHELL_TYPE_VAR_INT:
1129:ThirdParty/Letter-shell/Src/shell.c ****     // case SHELL_TYPE_VAR_SHORT:
1130:ThirdParty/Letter-shell/Src/shell.c ****     // case SHELL_TYPE_VAR_CHAR:
1131:ThirdParty/Letter-shell/Src/shell.c ****     // case SHELL_TYPE_VAR_POINT:
1132:ThirdParty/Letter-shell/Src/shell.c ****     default:
1133:ThirdParty/Letter-shell/Src/shell.c ****         shellWriteString(shell, &buffer[11 - shellToDec(value, buffer)]);
1134:ThirdParty/Letter-shell/Src/shell.c ****         shellWriteString(shell, ", 0x");
1135:ThirdParty/Letter-shell/Src/shell.c ****         for (short i = 0; i < 11; i++)
1136:ThirdParty/Letter-shell/Src/shell.c ****         {
1137:ThirdParty/Letter-shell/Src/shell.c ****             buffer[i] = '0';
1138:ThirdParty/Letter-shell/Src/shell.c ****         }
1139:ThirdParty/Letter-shell/Src/shell.c ****         shellToHex(value, buffer);
1140:ThirdParty/Letter-shell/Src/shell.c ****         shellWriteString(shell, buffer);
1141:ThirdParty/Letter-shell/Src/shell.c ****         break;
1142:ThirdParty/Letter-shell/Src/shell.c ****     }
1143:ThirdParty/Letter-shell/Src/shell.c **** 
1144:ThirdParty/Letter-shell/Src/shell.c ****     shellWriteString(shell, "\r\n");
1145:ThirdParty/Letter-shell/Src/shell.c ****     return value;
1146:ThirdParty/Letter-shell/Src/shell.c **** }
1147:ThirdParty/Letter-shell/Src/shell.c **** 
1148:ThirdParty/Letter-shell/Src/shell.c **** 
1149:ThirdParty/Letter-shell/Src/shell.c **** /**
1150:ThirdParty/Letter-shell/Src/shell.c ****  * @brief shell设置变量
1151:ThirdParty/Letter-shell/Src/shell.c ****  * 
1152:ThirdParty/Letter-shell/Src/shell.c ****  * @param name 变量名
1153:ThirdParty/Letter-shell/Src/shell.c ****  * @param value 变量值
1154:ThirdParty/Letter-shell/Src/shell.c ****  * @return int 返回变量值
1155:ThirdParty/Letter-shell/Src/shell.c ****  */
1156:ThirdParty/Letter-shell/Src/shell.c **** int shellSetVar(char *name, int value)
1157:ThirdParty/Letter-shell/Src/shell.c **** {
1158:ThirdParty/Letter-shell/Src/shell.c ****     Shell *shell = shellGetCurrent();
1159:ThirdParty/Letter-shell/Src/shell.c ****     if (shell == NULL)
1160:ThirdParty/Letter-shell/Src/shell.c ****     {
1161:ThirdParty/Letter-shell/Src/shell.c ****         return 0;
1162:ThirdParty/Letter-shell/Src/shell.c ****     }
1163:ThirdParty/Letter-shell/Src/shell.c ****     ShellCommand *command = shellSeekCommand(shell,
1164:ThirdParty/Letter-shell/Src/shell.c ****                                              name,
1165:ThirdParty/Letter-shell/Src/shell.c ****                                              shell->commandList.base,
1166:ThirdParty/Letter-shell/Src/shell.c ****                                              0);
1167:ThirdParty/Letter-shell/Src/shell.c ****     if (!command)
1168:ThirdParty/Letter-shell/Src/shell.c ****     {
1169:ThirdParty/Letter-shell/Src/shell.c ****         shellWriteString(shell, shellText[SHELL_TEXT_VAR_NOT_FOUND]);
1170:ThirdParty/Letter-shell/Src/shell.c ****         return 0;
1171:ThirdParty/Letter-shell/Src/shell.c ****     }
1172:ThirdParty/Letter-shell/Src/shell.c ****     if (command->attr.attrs.type < SHELL_TYPE_VAR_INT
1173:ThirdParty/Letter-shell/Src/shell.c ****         || command->attr.attrs.type > SHELL_TYPE_VAR_NODE)
1174:ThirdParty/Letter-shell/Src/shell.c ****     {
1175:ThirdParty/Letter-shell/Src/shell.c ****         shellWriteString(shell, name);
1176:ThirdParty/Letter-shell/Src/shell.c ****         shellWriteString(shell, shellText[SHELL_TEXT_NOT_VAR]);
1177:ThirdParty/Letter-shell/Src/shell.c ****         return 0;
ARM GAS  C:\Users\CL\AppData\Local\Temp\ccoMTeCk.s 			page 24


1178:ThirdParty/Letter-shell/Src/shell.c ****     }
1179:ThirdParty/Letter-shell/Src/shell.c ****     return shellSetVarValue(shell, command, value);
1180:ThirdParty/Letter-shell/Src/shell.c **** }
1181:ThirdParty/Letter-shell/Src/shell.c **** SHELL_EXPORT_CMD(
1182:ThirdParty/Letter-shell/Src/shell.c **** SHELL_CMD_PERMISSION(0)|SHELL_CMD_TYPE(SHELL_TYPE_CMD_FUNC)|SHELL_CMD_DISABLE_RETURN,
1183:ThirdParty/Letter-shell/Src/shell.c **** setVar, shellSetVar, set var);
1184:ThirdParty/Letter-shell/Src/shell.c **** 
1185:ThirdParty/Letter-shell/Src/shell.c **** 
1186:ThirdParty/Letter-shell/Src/shell.c **** /**
1187:ThirdParty/Letter-shell/Src/shell.c ****  * @brief shell运行命令
1188:ThirdParty/Letter-shell/Src/shell.c ****  * 
1189:ThirdParty/Letter-shell/Src/shell.c ****  * @param shell shell对象
1190:ThirdParty/Letter-shell/Src/shell.c ****  * @param command 命令
1191:ThirdParty/Letter-shell/Src/shell.c ****  * 
1192:ThirdParty/Letter-shell/Src/shell.c ****  * @return unsigned int 命令返回值
1193:ThirdParty/Letter-shell/Src/shell.c ****  */
1194:ThirdParty/Letter-shell/Src/shell.c **** unsigned int shellRunCommand(Shell *shell, ShellCommand *command)
1195:ThirdParty/Letter-shell/Src/shell.c **** {
1196:ThirdParty/Letter-shell/Src/shell.c ****     int returnValue = 0;
1197:ThirdParty/Letter-shell/Src/shell.c ****     shell->status.isActive = 1;
1198:ThirdParty/Letter-shell/Src/shell.c ****     if (command->attr.attrs.type == SHELL_TYPE_CMD_MAIN)
1199:ThirdParty/Letter-shell/Src/shell.c ****     {
1200:ThirdParty/Letter-shell/Src/shell.c ****         shellRemoveParamQuotes(shell);
1201:ThirdParty/Letter-shell/Src/shell.c ****         returnValue = command->data.cmd.function(shell->parser.paramCount,
1202:ThirdParty/Letter-shell/Src/shell.c ****                                                  shell->parser.param);
1203:ThirdParty/Letter-shell/Src/shell.c ****         if (!command->attr.attrs.disableReturn)
1204:ThirdParty/Letter-shell/Src/shell.c ****         {
1205:ThirdParty/Letter-shell/Src/shell.c ****             shellWriteReturnValue(shell, returnValue);
1206:ThirdParty/Letter-shell/Src/shell.c ****         }
1207:ThirdParty/Letter-shell/Src/shell.c ****     }
1208:ThirdParty/Letter-shell/Src/shell.c ****     else if (command->attr.attrs.type == SHELL_TYPE_CMD_FUNC)
1209:ThirdParty/Letter-shell/Src/shell.c ****     {
1210:ThirdParty/Letter-shell/Src/shell.c ****         returnValue = shellExtRun(shell,
1211:ThirdParty/Letter-shell/Src/shell.c ****                                   command,
1212:ThirdParty/Letter-shell/Src/shell.c ****                                   shell->parser.paramCount,
1213:ThirdParty/Letter-shell/Src/shell.c ****                                   shell->parser.param);
1214:ThirdParty/Letter-shell/Src/shell.c ****         if (!command->attr.attrs.disableReturn)
1215:ThirdParty/Letter-shell/Src/shell.c ****         {
1216:ThirdParty/Letter-shell/Src/shell.c ****             shellWriteReturnValue(shell, returnValue);
1217:ThirdParty/Letter-shell/Src/shell.c ****         }
1218:ThirdParty/Letter-shell/Src/shell.c ****     }
1219:ThirdParty/Letter-shell/Src/shell.c ****     else if (command->attr.attrs.type >= SHELL_TYPE_VAR_INT
1220:ThirdParty/Letter-shell/Src/shell.c ****         && command->attr.attrs.type <= SHELL_TYPE_VAR_NODE)
1221:ThirdParty/Letter-shell/Src/shell.c ****     {
1222:ThirdParty/Letter-shell/Src/shell.c ****         shellShowVar(shell, command);
1223:ThirdParty/Letter-shell/Src/shell.c ****     }
1224:ThirdParty/Letter-shell/Src/shell.c ****     else if (command->attr.attrs.type == SHELL_TYPE_USER)
1225:ThirdParty/Letter-shell/Src/shell.c ****     {
1226:ThirdParty/Letter-shell/Src/shell.c ****         shellSetUser(shell, command);
1227:ThirdParty/Letter-shell/Src/shell.c ****     }
1228:ThirdParty/Letter-shell/Src/shell.c ****     shell->status.isActive = 0;
1229:ThirdParty/Letter-shell/Src/shell.c **** 
1230:ThirdParty/Letter-shell/Src/shell.c ****     return returnValue;
1231:ThirdParty/Letter-shell/Src/shell.c **** }
1232:ThirdParty/Letter-shell/Src/shell.c **** 
1233:ThirdParty/Letter-shell/Src/shell.c **** 
1234:ThirdParty/Letter-shell/Src/shell.c **** /**
ARM GAS  C:\Users\CL\AppData\Local\Temp\ccoMTeCk.s 			page 25


1235:ThirdParty/Letter-shell/Src/shell.c ****  * @brief shell校验密码
1236:ThirdParty/Letter-shell/Src/shell.c ****  * 
1237:ThirdParty/Letter-shell/Src/shell.c ****  * @param shell shell对象
1238:ThirdParty/Letter-shell/Src/shell.c ****  */
1239:ThirdParty/Letter-shell/Src/shell.c **** static void shellCheckPassword(Shell *shell)
1240:ThirdParty/Letter-shell/Src/shell.c **** {
1241:ThirdParty/Letter-shell/Src/shell.c ****     if (strcmp(shell->parser.buffer, shell->info.user->data.user.password) == 0)
1242:ThirdParty/Letter-shell/Src/shell.c ****     {
1243:ThirdParty/Letter-shell/Src/shell.c ****         shell->status.isChecked = 1;
1244:ThirdParty/Letter-shell/Src/shell.c ****     #if SHELL_SHOW_INFO == 1
1245:ThirdParty/Letter-shell/Src/shell.c ****         shellWriteString(shell, shellText[SHELL_TEXT_INFO]);
1246:ThirdParty/Letter-shell/Src/shell.c ****     #endif
1247:ThirdParty/Letter-shell/Src/shell.c ****     }
1248:ThirdParty/Letter-shell/Src/shell.c ****     else
1249:ThirdParty/Letter-shell/Src/shell.c ****     {
1250:ThirdParty/Letter-shell/Src/shell.c ****         shellWriteString(shell, shellText[SHELL_TEXT_PASSWORD_ERROR]);
1251:ThirdParty/Letter-shell/Src/shell.c ****     }
1252:ThirdParty/Letter-shell/Src/shell.c ****     shell->parser.length = 0;
1253:ThirdParty/Letter-shell/Src/shell.c ****     shell->parser.cursor = 0;
1254:ThirdParty/Letter-shell/Src/shell.c **** }
1255:ThirdParty/Letter-shell/Src/shell.c **** 
1256:ThirdParty/Letter-shell/Src/shell.c **** 
1257:ThirdParty/Letter-shell/Src/shell.c **** /**
1258:ThirdParty/Letter-shell/Src/shell.c ****  * @brief shell设置用户
1259:ThirdParty/Letter-shell/Src/shell.c ****  * 
1260:ThirdParty/Letter-shell/Src/shell.c ****  * @param shell shell对象
1261:ThirdParty/Letter-shell/Src/shell.c ****  * @param user 用户
1262:ThirdParty/Letter-shell/Src/shell.c ****  */
1263:ThirdParty/Letter-shell/Src/shell.c **** void shellSetUser(Shell *shell, const ShellCommand *user)
1264:ThirdParty/Letter-shell/Src/shell.c **** {
1265:ThirdParty/Letter-shell/Src/shell.c ****     shell->info.user = user;
1266:ThirdParty/Letter-shell/Src/shell.c ****     shell->status.isChecked = 
1267:ThirdParty/Letter-shell/Src/shell.c ****         ((user->data.user.password && strlen(user->data.user.password) != 0)
1268:ThirdParty/Letter-shell/Src/shell.c ****             && (shell->parser.paramCount < 2
1269:ThirdParty/Letter-shell/Src/shell.c ****                 || strcmp(user->data.user.password, shell->parser.param[1]) != 0))
1270:ThirdParty/Letter-shell/Src/shell.c ****          ? 0 : 1;
1271:ThirdParty/Letter-shell/Src/shell.c ****         
1272:ThirdParty/Letter-shell/Src/shell.c **** #if SHELL_CLS_WHEN_LOGIN == 1
1273:ThirdParty/Letter-shell/Src/shell.c ****     shellWriteString(shell, shellText[SHELL_TEXT_CLEAR_CONSOLE]);
1274:ThirdParty/Letter-shell/Src/shell.c **** #endif
1275:ThirdParty/Letter-shell/Src/shell.c **** #if SHELL_SHOW_INFO == 1
1276:ThirdParty/Letter-shell/Src/shell.c ****     if (shell->status.isChecked)
1277:ThirdParty/Letter-shell/Src/shell.c ****     {
1278:ThirdParty/Letter-shell/Src/shell.c ****         shellWriteString(shell, shellText[SHELL_TEXT_INFO]);
1279:ThirdParty/Letter-shell/Src/shell.c ****     }
1280:ThirdParty/Letter-shell/Src/shell.c **** #endif
1281:ThirdParty/Letter-shell/Src/shell.c **** }
1282:ThirdParty/Letter-shell/Src/shell.c **** 
1283:ThirdParty/Letter-shell/Src/shell.c **** 
1284:ThirdParty/Letter-shell/Src/shell.c **** /**
1285:ThirdParty/Letter-shell/Src/shell.c ****  * @brief shell写返回值
1286:ThirdParty/Letter-shell/Src/shell.c ****  * 
1287:ThirdParty/Letter-shell/Src/shell.c ****  * @param shell shell对象
1288:ThirdParty/Letter-shell/Src/shell.c ****  * @param value 返回值
1289:ThirdParty/Letter-shell/Src/shell.c ****  */
1290:ThirdParty/Letter-shell/Src/shell.c **** static void shellWriteReturnValue(Shell *shell, int value)
1291:ThirdParty/Letter-shell/Src/shell.c **** {
ARM GAS  C:\Users\CL\AppData\Local\Temp\ccoMTeCk.s 			page 26


1292:ThirdParty/Letter-shell/Src/shell.c ****     char buffer[12] = "00000000000";
1293:ThirdParty/Letter-shell/Src/shell.c ****     shellWriteString(shell, "Return: ");
1294:ThirdParty/Letter-shell/Src/shell.c ****     shellWriteString(shell, &buffer[11 - shellToDec(value, buffer)]);
1295:ThirdParty/Letter-shell/Src/shell.c ****     shellWriteString(shell, ", 0x");
1296:ThirdParty/Letter-shell/Src/shell.c ****     for (short i = 0; i < 11; i++)
1297:ThirdParty/Letter-shell/Src/shell.c ****     {
1298:ThirdParty/Letter-shell/Src/shell.c ****         buffer[i] = '0';
1299:ThirdParty/Letter-shell/Src/shell.c ****     }
1300:ThirdParty/Letter-shell/Src/shell.c ****     shellToHex(value, buffer);
1301:ThirdParty/Letter-shell/Src/shell.c ****     shellWriteString(shell, buffer);
1302:ThirdParty/Letter-shell/Src/shell.c ****     shellWriteString(shell, "\r\n");
1303:ThirdParty/Letter-shell/Src/shell.c **** #if SHELL_KEEP_RETURN_VALUE == 1
1304:ThirdParty/Letter-shell/Src/shell.c ****     shell->info.retVal = value;
1305:ThirdParty/Letter-shell/Src/shell.c **** #endif
1306:ThirdParty/Letter-shell/Src/shell.c **** }
1307:ThirdParty/Letter-shell/Src/shell.c **** 
1308:ThirdParty/Letter-shell/Src/shell.c **** 
1309:ThirdParty/Letter-shell/Src/shell.c **** #if SHELL_HISTORY_MAX_NUMBER > 0
1310:ThirdParty/Letter-shell/Src/shell.c **** /**
1311:ThirdParty/Letter-shell/Src/shell.c ****  * @brief shell历史记录添加
1312:ThirdParty/Letter-shell/Src/shell.c ****  * 
1313:ThirdParty/Letter-shell/Src/shell.c ****  * @param shell shell对象
1314:ThirdParty/Letter-shell/Src/shell.c ****  */
1315:ThirdParty/Letter-shell/Src/shell.c **** static void shellHistoryAdd(Shell *shell)
1316:ThirdParty/Letter-shell/Src/shell.c **** {
1317:ThirdParty/Letter-shell/Src/shell.c ****     shell->history.offset = 0;
1318:ThirdParty/Letter-shell/Src/shell.c ****     if (shell->history.number > 0
1319:ThirdParty/Letter-shell/Src/shell.c ****         && strcmp(shell->history.item[(shell->history.record == 0 ? 
1320:ThirdParty/Letter-shell/Src/shell.c ****                 SHELL_HISTORY_MAX_NUMBER : shell->history.record) - 1],
1321:ThirdParty/Letter-shell/Src/shell.c ****                 shell->parser.buffer) == 0)
1322:ThirdParty/Letter-shell/Src/shell.c ****     {
1323:ThirdParty/Letter-shell/Src/shell.c ****         return;
1324:ThirdParty/Letter-shell/Src/shell.c ****     }
1325:ThirdParty/Letter-shell/Src/shell.c ****     if (shellStringCopy(shell->history.item[shell->history.record],
1326:ThirdParty/Letter-shell/Src/shell.c ****                         shell->parser.buffer) != 0)
1327:ThirdParty/Letter-shell/Src/shell.c ****     {
1328:ThirdParty/Letter-shell/Src/shell.c ****         shell->history.record++;
1329:ThirdParty/Letter-shell/Src/shell.c ****     }
1330:ThirdParty/Letter-shell/Src/shell.c ****     if (++shell->history.number > SHELL_HISTORY_MAX_NUMBER)
1331:ThirdParty/Letter-shell/Src/shell.c ****     {
1332:ThirdParty/Letter-shell/Src/shell.c ****         shell->history.number = SHELL_HISTORY_MAX_NUMBER;
1333:ThirdParty/Letter-shell/Src/shell.c ****     }
1334:ThirdParty/Letter-shell/Src/shell.c ****     if (shell->history.record >= SHELL_HISTORY_MAX_NUMBER)
1335:ThirdParty/Letter-shell/Src/shell.c ****     {
1336:ThirdParty/Letter-shell/Src/shell.c ****         shell->history.record = 0;
1337:ThirdParty/Letter-shell/Src/shell.c ****     }
1338:ThirdParty/Letter-shell/Src/shell.c **** }
1339:ThirdParty/Letter-shell/Src/shell.c **** 
1340:ThirdParty/Letter-shell/Src/shell.c **** 
1341:ThirdParty/Letter-shell/Src/shell.c **** /**
1342:ThirdParty/Letter-shell/Src/shell.c ****  * @brief shell历史记录查找
1343:ThirdParty/Letter-shell/Src/shell.c ****  * 
1344:ThirdParty/Letter-shell/Src/shell.c ****  * @param shell shell对象
1345:ThirdParty/Letter-shell/Src/shell.c ****  * @param dir 方向 {@code <0}往上查找 {@code >0}往下查找
1346:ThirdParty/Letter-shell/Src/shell.c ****  */
1347:ThirdParty/Letter-shell/Src/shell.c **** static void shellHistory(Shell *shell, signed char dir)
1348:ThirdParty/Letter-shell/Src/shell.c **** {
ARM GAS  C:\Users\CL\AppData\Local\Temp\ccoMTeCk.s 			page 27


1349:ThirdParty/Letter-shell/Src/shell.c ****     if (dir > 0)
1350:ThirdParty/Letter-shell/Src/shell.c ****     {
1351:ThirdParty/Letter-shell/Src/shell.c ****         if (shell->history.offset-- <= 
1352:ThirdParty/Letter-shell/Src/shell.c ****             -((shell->history.number > shell->history.record) ?
1353:ThirdParty/Letter-shell/Src/shell.c ****                 shell->history.number : shell->history.record))
1354:ThirdParty/Letter-shell/Src/shell.c ****         {
1355:ThirdParty/Letter-shell/Src/shell.c ****             shell->history.offset = -((shell->history.number > shell->history.record)
1356:ThirdParty/Letter-shell/Src/shell.c ****                                     ? shell->history.number : shell->history.record);
1357:ThirdParty/Letter-shell/Src/shell.c ****         }
1358:ThirdParty/Letter-shell/Src/shell.c ****     }
1359:ThirdParty/Letter-shell/Src/shell.c ****     else if (dir < 0)
1360:ThirdParty/Letter-shell/Src/shell.c ****     {
1361:ThirdParty/Letter-shell/Src/shell.c ****         if (++shell->history.offset > 0)
1362:ThirdParty/Letter-shell/Src/shell.c ****         {
1363:ThirdParty/Letter-shell/Src/shell.c ****             shell->history.offset = 0;
1364:ThirdParty/Letter-shell/Src/shell.c ****             return;
1365:ThirdParty/Letter-shell/Src/shell.c ****         }
1366:ThirdParty/Letter-shell/Src/shell.c ****     }
1367:ThirdParty/Letter-shell/Src/shell.c ****     else
1368:ThirdParty/Letter-shell/Src/shell.c ****     {
1369:ThirdParty/Letter-shell/Src/shell.c ****         return;
1370:ThirdParty/Letter-shell/Src/shell.c ****     }
1371:ThirdParty/Letter-shell/Src/shell.c ****     shellClearCommandLine(shell);
1372:ThirdParty/Letter-shell/Src/shell.c ****     if (shell->history.offset == 0)
1373:ThirdParty/Letter-shell/Src/shell.c ****     {
1374:ThirdParty/Letter-shell/Src/shell.c ****         shell->parser.cursor = shell->parser.length = 0;
1375:ThirdParty/Letter-shell/Src/shell.c ****     }
1376:ThirdParty/Letter-shell/Src/shell.c ****     else
1377:ThirdParty/Letter-shell/Src/shell.c ****     {
1378:ThirdParty/Letter-shell/Src/shell.c ****         if ((shell->parser.length = shellStringCopy(shell->parser.buffer,
1379:ThirdParty/Letter-shell/Src/shell.c ****                 shell->history.item[(shell->history.record + SHELL_HISTORY_MAX_NUMBER
1380:ThirdParty/Letter-shell/Src/shell.c ****                     + shell->history.offset) % SHELL_HISTORY_MAX_NUMBER])) == 0)
1381:ThirdParty/Letter-shell/Src/shell.c ****         {
1382:ThirdParty/Letter-shell/Src/shell.c ****             return;
1383:ThirdParty/Letter-shell/Src/shell.c ****         }
1384:ThirdParty/Letter-shell/Src/shell.c ****         shell->parser.cursor = shell->parser.length;
1385:ThirdParty/Letter-shell/Src/shell.c ****         shellWriteString(shell, shell->parser.buffer);
1386:ThirdParty/Letter-shell/Src/shell.c ****     }
1387:ThirdParty/Letter-shell/Src/shell.c ****     
1388:ThirdParty/Letter-shell/Src/shell.c **** }
1389:ThirdParty/Letter-shell/Src/shell.c **** #endif /** SHELL_HISTORY_MAX_NUMBER > 0 */
1390:ThirdParty/Letter-shell/Src/shell.c **** 
1391:ThirdParty/Letter-shell/Src/shell.c **** 
1392:ThirdParty/Letter-shell/Src/shell.c **** /**
1393:ThirdParty/Letter-shell/Src/shell.c ****  * @brief shell 常规输入
1394:ThirdParty/Letter-shell/Src/shell.c ****  * 
1395:ThirdParty/Letter-shell/Src/shell.c ****  * @param shell shell 对象
1396:ThirdParty/Letter-shell/Src/shell.c ****  * @param data 输入字符
1397:ThirdParty/Letter-shell/Src/shell.c ****  */
1398:ThirdParty/Letter-shell/Src/shell.c **** void shellNormalInput(Shell *shell, char data)
1399:ThirdParty/Letter-shell/Src/shell.c **** {
1400:ThirdParty/Letter-shell/Src/shell.c ****     shell->status.tabFlag = 0;
1401:ThirdParty/Letter-shell/Src/shell.c ****     shellInsertByte(shell, data);
1402:ThirdParty/Letter-shell/Src/shell.c **** }
1403:ThirdParty/Letter-shell/Src/shell.c **** 
1404:ThirdParty/Letter-shell/Src/shell.c **** 
1405:ThirdParty/Letter-shell/Src/shell.c **** /**
ARM GAS  C:\Users\CL\AppData\Local\Temp\ccoMTeCk.s 			page 28


1406:ThirdParty/Letter-shell/Src/shell.c ****  * @brief shell运行命令
1407:ThirdParty/Letter-shell/Src/shell.c ****  * 
1408:ThirdParty/Letter-shell/Src/shell.c ****  * @param shell shell对象
1409:ThirdParty/Letter-shell/Src/shell.c ****  */
1410:ThirdParty/Letter-shell/Src/shell.c **** void shellExec(Shell *shell)
1411:ThirdParty/Letter-shell/Src/shell.c **** {
1412:ThirdParty/Letter-shell/Src/shell.c ****     
1413:ThirdParty/Letter-shell/Src/shell.c ****     if (shell->parser.length == 0)
1414:ThirdParty/Letter-shell/Src/shell.c ****     {
1415:ThirdParty/Letter-shell/Src/shell.c ****         return;
1416:ThirdParty/Letter-shell/Src/shell.c ****     }
1417:ThirdParty/Letter-shell/Src/shell.c **** 
1418:ThirdParty/Letter-shell/Src/shell.c ****     shell->parser.buffer[shell->parser.length] = 0;
1419:ThirdParty/Letter-shell/Src/shell.c **** 
1420:ThirdParty/Letter-shell/Src/shell.c ****     if (shell->status.isChecked)
1421:ThirdParty/Letter-shell/Src/shell.c ****     {
1422:ThirdParty/Letter-shell/Src/shell.c ****     #if SHELL_HISTORY_MAX_NUMBER > 0
1423:ThirdParty/Letter-shell/Src/shell.c ****         shellHistoryAdd(shell);
1424:ThirdParty/Letter-shell/Src/shell.c ****     #endif /** SHELL_HISTORY_MAX_NUMBER > 0 */
1425:ThirdParty/Letter-shell/Src/shell.c ****         shellParserParam(shell);
1426:ThirdParty/Letter-shell/Src/shell.c ****         shell->parser.length = shell->parser.cursor = 0;
1427:ThirdParty/Letter-shell/Src/shell.c ****         if (shell->parser.paramCount == 0)
1428:ThirdParty/Letter-shell/Src/shell.c ****         {
1429:ThirdParty/Letter-shell/Src/shell.c ****             return;
1430:ThirdParty/Letter-shell/Src/shell.c ****         }
1431:ThirdParty/Letter-shell/Src/shell.c ****         shellWriteString(shell, "\r\n");
1432:ThirdParty/Letter-shell/Src/shell.c **** 
1433:ThirdParty/Letter-shell/Src/shell.c ****         ShellCommand *command = shellSeekCommand(shell,
1434:ThirdParty/Letter-shell/Src/shell.c ****                                                  shell->parser.param[0],
1435:ThirdParty/Letter-shell/Src/shell.c ****                                                  shell->commandList.base,
1436:ThirdParty/Letter-shell/Src/shell.c ****                                                  0);
1437:ThirdParty/Letter-shell/Src/shell.c ****         if (command != NULL)
1438:ThirdParty/Letter-shell/Src/shell.c ****         {
1439:ThirdParty/Letter-shell/Src/shell.c ****             shellRunCommand(shell, command);
1440:ThirdParty/Letter-shell/Src/shell.c ****         }
1441:ThirdParty/Letter-shell/Src/shell.c ****         else
1442:ThirdParty/Letter-shell/Src/shell.c ****         {
1443:ThirdParty/Letter-shell/Src/shell.c ****             shellWriteString(shell, shellText[SHELL_TEXT_CMD_NOT_FOUND]);
1444:ThirdParty/Letter-shell/Src/shell.c ****         }
1445:ThirdParty/Letter-shell/Src/shell.c ****     }
1446:ThirdParty/Letter-shell/Src/shell.c ****     else
1447:ThirdParty/Letter-shell/Src/shell.c ****     {
1448:ThirdParty/Letter-shell/Src/shell.c ****         shellCheckPassword(shell);
1449:ThirdParty/Letter-shell/Src/shell.c ****     }
1450:ThirdParty/Letter-shell/Src/shell.c **** }
1451:ThirdParty/Letter-shell/Src/shell.c **** 
1452:ThirdParty/Letter-shell/Src/shell.c **** 
1453:ThirdParty/Letter-shell/Src/shell.c **** #if SHELL_HISTORY_MAX_NUMBER > 0
1454:ThirdParty/Letter-shell/Src/shell.c **** /**
1455:ThirdParty/Letter-shell/Src/shell.c ****  * @brief shell上方向键输入
1456:ThirdParty/Letter-shell/Src/shell.c ****  * 
1457:ThirdParty/Letter-shell/Src/shell.c ****  * @param shell shell对象
1458:ThirdParty/Letter-shell/Src/shell.c ****  */
1459:ThirdParty/Letter-shell/Src/shell.c **** void shellUp(Shell *shell)
1460:ThirdParty/Letter-shell/Src/shell.c **** {
1461:ThirdParty/Letter-shell/Src/shell.c ****     shellHistory(shell, 1);
1462:ThirdParty/Letter-shell/Src/shell.c **** }
ARM GAS  C:\Users\CL\AppData\Local\Temp\ccoMTeCk.s 			page 29


1463:ThirdParty/Letter-shell/Src/shell.c **** SHELL_EXPORT_KEY(SHELL_CMD_PERMISSION(0), 0x1B5B4100, shellUp, up);
1464:ThirdParty/Letter-shell/Src/shell.c **** 
1465:ThirdParty/Letter-shell/Src/shell.c **** 
1466:ThirdParty/Letter-shell/Src/shell.c **** /**
1467:ThirdParty/Letter-shell/Src/shell.c ****  * @brief shell下方向键输入
1468:ThirdParty/Letter-shell/Src/shell.c ****  * 
1469:ThirdParty/Letter-shell/Src/shell.c ****  * @param shell shell对象
1470:ThirdParty/Letter-shell/Src/shell.c ****  */
1471:ThirdParty/Letter-shell/Src/shell.c **** void shellDown(Shell *shell)
1472:ThirdParty/Letter-shell/Src/shell.c **** {
1473:ThirdParty/Letter-shell/Src/shell.c ****     shellHistory(shell, -1);
1474:ThirdParty/Letter-shell/Src/shell.c **** }
1475:ThirdParty/Letter-shell/Src/shell.c **** SHELL_EXPORT_KEY(SHELL_CMD_PERMISSION(0), 0x1B5B4200, shellDown, down);
1476:ThirdParty/Letter-shell/Src/shell.c **** #endif /** SHELL_HISTORY_MAX_NUMBER > 0 */
1477:ThirdParty/Letter-shell/Src/shell.c **** 
1478:ThirdParty/Letter-shell/Src/shell.c **** 
1479:ThirdParty/Letter-shell/Src/shell.c **** /**
1480:ThirdParty/Letter-shell/Src/shell.c ****  * @brief shell右方向键输入
1481:ThirdParty/Letter-shell/Src/shell.c ****  * 
1482:ThirdParty/Letter-shell/Src/shell.c ****  * @param shell shell对象
1483:ThirdParty/Letter-shell/Src/shell.c ****  */
1484:ThirdParty/Letter-shell/Src/shell.c **** void shellRight(Shell *shell)
1485:ThirdParty/Letter-shell/Src/shell.c **** {
1486:ThirdParty/Letter-shell/Src/shell.c ****     if (shell->parser.cursor < shell->parser.length)
1487:ThirdParty/Letter-shell/Src/shell.c ****     {
1488:ThirdParty/Letter-shell/Src/shell.c ****         shellWriteByte(shell, shell->parser.buffer[shell->parser.cursor++]);
1489:ThirdParty/Letter-shell/Src/shell.c ****     }
1490:ThirdParty/Letter-shell/Src/shell.c **** }
1491:ThirdParty/Letter-shell/Src/shell.c **** SHELL_EXPORT_KEY(SHELL_CMD_PERMISSION(0)|SHELL_CMD_ENABLE_UNCHECKED,
1492:ThirdParty/Letter-shell/Src/shell.c **** 0x1B5B4300, shellRight, right);
1493:ThirdParty/Letter-shell/Src/shell.c **** 
1494:ThirdParty/Letter-shell/Src/shell.c **** 
1495:ThirdParty/Letter-shell/Src/shell.c **** /**
1496:ThirdParty/Letter-shell/Src/shell.c ****  * @brief shell左方向键输入
1497:ThirdParty/Letter-shell/Src/shell.c ****  * 
1498:ThirdParty/Letter-shell/Src/shell.c ****  * @param shell shell对象
1499:ThirdParty/Letter-shell/Src/shell.c ****  */
1500:ThirdParty/Letter-shell/Src/shell.c **** void shellLeft(Shell *shell)
1501:ThirdParty/Letter-shell/Src/shell.c **** {
 126              		.loc 1 1501 1 is_stmt 1 view -0
 127              		.cfi_startproc
 128              		@ args = 0, pretend = 0, frame = 0
 129              		@ frame_needed = 0, uses_anonymous_args = 0
1502:ThirdParty/Letter-shell/Src/shell.c ****     if (shell->parser.cursor > 0)
 130              		.loc 1 1502 5 view .LVU27
 131              		.loc 1 1502 8 is_stmt 0 view .LVU28
 132 0000 C389     		ldrh	r3, [r0, #14]
1501:ThirdParty/Letter-shell/Src/shell.c ****     if (shell->parser.cursor > 0)
 133              		.loc 1 1501 1 view .LVU29
 134 0002 10B5     		push	{r4, lr}
 135              	.LCFI3:
 136              		.cfi_def_cfa_offset 8
 137              		.cfi_offset 4, -8
 138              		.cfi_offset 14, -4
1501:ThirdParty/Letter-shell/Src/shell.c ****     if (shell->parser.cursor > 0)
 139              		.loc 1 1501 1 view .LVU30
 140 0004 0446     		mov	r4, r0
ARM GAS  C:\Users\CL\AppData\Local\Temp\ccoMTeCk.s 			page 30


 141              		.loc 1 1502 8 view .LVU31
 142 0006 33B1     		cbz	r3, .L5
 143              	.LVL8:
 144              	.LBB14:
 145              	.LBI14:
1500:ThirdParty/Letter-shell/Src/shell.c **** {
 146              		.loc 1 1500 6 is_stmt 1 view .LVU32
 147              	.LBB15:
1503:ThirdParty/Letter-shell/Src/shell.c ****     {
1504:ThirdParty/Letter-shell/Src/shell.c ****         shellWriteByte(shell, '\b');
 148              		.loc 1 1504 9 view .LVU33
 149 0008 806E     		ldr	r0, [r0, #104]
 150              	.LVL9:
 151              		.loc 1 1504 9 is_stmt 0 view .LVU34
 152 000a 0821     		movs	r1, #8
 153 000c FFF7FEFF 		bl	shellWriteByte.isra.0
 154              	.LVL10:
1505:ThirdParty/Letter-shell/Src/shell.c ****         shell->parser.cursor--;
 155              		.loc 1 1505 9 is_stmt 1 view .LVU35
 156              		.loc 1 1505 29 is_stmt 0 view .LVU36
 157 0010 E389     		ldrh	r3, [r4, #14]
 158 0012 013B     		subs	r3, r3, #1
 159 0014 E381     		strh	r3, [r4, #14]	@ movhi
 160              	.LVL11:
 161              	.L5:
 162              		.loc 1 1505 29 view .LVU37
 163              	.LBE15:
 164              	.LBE14:
1506:ThirdParty/Letter-shell/Src/shell.c ****     }
1507:ThirdParty/Letter-shell/Src/shell.c **** }
 165              		.loc 1 1507 1 view .LVU38
 166 0016 10BD     		pop	{r4, pc}
 167              		.loc 1 1507 1 view .LVU39
 168              		.cfi_endproc
 169              	.LFE47:
 171              		.section	.text.shellRight,"ax",%progbits
 172              		.align	1
 173              		.global	shellRight
 174              		.syntax unified
 175              		.thumb
 176              		.thumb_func
 178              	shellRight:
 179              	.LVL12:
 180              	.LFB46:
1485:ThirdParty/Letter-shell/Src/shell.c ****     if (shell->parser.cursor < shell->parser.length)
 181              		.loc 1 1485 1 is_stmt 1 view -0
 182              		.cfi_startproc
 183              		@ args = 0, pretend = 0, frame = 0
 184              		@ frame_needed = 0, uses_anonymous_args = 0
 185              		@ link register save eliminated.
1486:ThirdParty/Letter-shell/Src/shell.c ****     {
 186              		.loc 1 1486 5 view .LVU41
1486:ThirdParty/Letter-shell/Src/shell.c ****     {
 187              		.loc 1 1486 22 is_stmt 0 view .LVU42
 188 0000 C389     		ldrh	r3, [r0, #14]
1486:ThirdParty/Letter-shell/Src/shell.c ****     {
 189              		.loc 1 1486 8 view .LVU43
ARM GAS  C:\Users\CL\AppData\Local\Temp\ccoMTeCk.s 			page 31


 190 0002 8289     		ldrh	r2, [r0, #12]
 191 0004 9A42     		cmp	r2, r3
 192 0006 06D9     		bls	.L10
1488:ThirdParty/Letter-shell/Src/shell.c ****     }
 193              		.loc 1 1488 9 is_stmt 1 view .LVU44
1488:ThirdParty/Letter-shell/Src/shell.c ****     }
 194              		.loc 1 1488 44 is_stmt 0 view .LVU45
 195 0008 0269     		ldr	r2, [r0, #16]
1488:ThirdParty/Letter-shell/Src/shell.c ****     }
 196              		.loc 1 1488 72 view .LVU46
 197 000a 591C     		adds	r1, r3, #1
 198 000c C181     		strh	r1, [r0, #14]	@ movhi
1488:ThirdParty/Letter-shell/Src/shell.c ****     }
 199              		.loc 1 1488 9 view .LVU47
 200 000e D15C     		ldrb	r1, [r2, r3]	@ zero_extendqisi2
 201 0010 806E     		ldr	r0, [r0, #104]
 202              	.LVL13:
1488:ThirdParty/Letter-shell/Src/shell.c ****     }
 203              		.loc 1 1488 9 view .LVU48
 204 0012 FFF7FEBF 		b	shellWriteByte.isra.0
 205              	.LVL14:
 206              	.L10:
1490:ThirdParty/Letter-shell/Src/shell.c **** SHELL_EXPORT_KEY(SHELL_CMD_PERMISSION(0)|SHELL_CMD_ENABLE_UNCHECKED,
 207              		.loc 1 1490 1 view .LVU49
 208 0016 7047     		bx	lr
 209              		.cfi_endproc
 210              	.LFE46:
 212              		.section	.text.shellRemove,"ax",%progbits
 213              		.align	1
 214              		.global	shellRemove
 215              		.syntax unified
 216              		.thumb
 217              		.thumb_func
 219              	shellRemove:
 220              	.LVL15:
 221              	.LFB5:
 247:ThirdParty/Letter-shell/Src/shell.c ****     for (short i = 0; i < SHELL_MAX_NUMBER; i++)
 222              		.loc 1 247 1 is_stmt 1 view -0
 223              		.cfi_startproc
 224              		@ args = 0, pretend = 0, frame = 0
 225              		@ frame_needed = 0, uses_anonymous_args = 0
 248:ThirdParty/Letter-shell/Src/shell.c ****     {
 226              		.loc 1 248 5 view .LVU51
 227              	.LBB16:
 248:ThirdParty/Letter-shell/Src/shell.c ****     {
 228              		.loc 1 248 10 view .LVU52
 248:ThirdParty/Letter-shell/Src/shell.c ****     {
 229              		.loc 1 248 23 view .LVU53
 230              	.LBE16:
 247:ThirdParty/Letter-shell/Src/shell.c ****     for (short i = 0; i < SHELL_MAX_NUMBER; i++)
 231              		.loc 1 247 1 is_stmt 0 view .LVU54
 232 0000 10B5     		push	{r4, lr}
 233              	.LCFI4:
 234              		.cfi_def_cfa_offset 8
 235              		.cfi_offset 4, -8
 236              		.cfi_offset 14, -4
 237 0002 074A     		ldr	r2, .L17
ARM GAS  C:\Users\CL\AppData\Local\Temp\ccoMTeCk.s 			page 32


 247:ThirdParty/Letter-shell/Src/shell.c ****     for (short i = 0; i < SHELL_MAX_NUMBER; i++)
 238              		.loc 1 247 1 view .LVU55
 239 0004 0023     		movs	r3, #0
 240 0006 1146     		mov	r1, r2
 241              	.LVL16:
 242              	.L15:
 243              	.LBB17:
 250:ThirdParty/Letter-shell/Src/shell.c ****         {
 244              		.loc 1 250 9 is_stmt 1 view .LVU56
 250:ThirdParty/Letter-shell/Src/shell.c ****         {
 245              		.loc 1 250 22 is_stmt 0 view .LVU57
 246 0008 52F8044B 		ldr	r4, [r2], #4
 250:ThirdParty/Letter-shell/Src/shell.c ****         {
 247              		.loc 1 250 12 view .LVU58
 248 000c 8442     		cmp	r4, r0
 249 000e 03D1     		bne	.L13
 252:ThirdParty/Letter-shell/Src/shell.c ****             return;
 250              		.loc 1 252 13 is_stmt 1 view .LVU59
 252:ThirdParty/Letter-shell/Src/shell.c ****             return;
 251              		.loc 1 252 26 is_stmt 0 view .LVU60
 252 0010 0022     		movs	r2, #0
 253 0012 41F82320 		str	r2, [r1, r3, lsl #2]
 253:ThirdParty/Letter-shell/Src/shell.c ****         }
 254              		.loc 1 253 13 is_stmt 1 view .LVU61
 255              	.LVL17:
 256              	.L12:
 253:ThirdParty/Letter-shell/Src/shell.c ****         }
 257              		.loc 1 253 13 is_stmt 0 view .LVU62
 258              	.LBE17:
 256:ThirdParty/Letter-shell/Src/shell.c **** 
 259              		.loc 1 256 1 view .LVU63
 260 0016 10BD     		pop	{r4, pc}
 261              	.LVL18:
 262              	.L13:
 263              	.LBB18:
 248:ThirdParty/Letter-shell/Src/shell.c ****     {
 264              		.loc 1 248 45 is_stmt 1 discriminator 2 view .LVU64
 248:ThirdParty/Letter-shell/Src/shell.c ****     {
 265              		.loc 1 248 23 discriminator 2 view .LVU65
 248:ThirdParty/Letter-shell/Src/shell.c ****     {
 266              		.loc 1 248 5 is_stmt 0 discriminator 2 view .LVU66
 267 0018 0133     		adds	r3, r3, #1
 268              	.LVL19:
 248:ThirdParty/Letter-shell/Src/shell.c ****     {
 269              		.loc 1 248 5 discriminator 2 view .LVU67
 270 001a 052B     		cmp	r3, #5
 271 001c F4D1     		bne	.L15
 272 001e FAE7     		b	.L12
 273              	.L18:
 274              		.align	2
 275              	.L17:
 276 0020 00000000 		.word	.LANCHOR0
 277              	.LBE18:
 278              		.cfi_endproc
 279              	.LFE5:
 281              		.section	.text.shellGetCurrent,"ax",%progbits
 282              		.align	1
ARM GAS  C:\Users\CL\AppData\Local\Temp\ccoMTeCk.s 			page 33


 283              		.global	shellGetCurrent
 284              		.syntax unified
 285              		.thumb
 286              		.thumb_func
 288              	shellGetCurrent:
 289              	.LFB6:
 264:ThirdParty/Letter-shell/Src/shell.c ****     for (short i = 0; i < SHELL_MAX_NUMBER; i++)
 290              		.loc 1 264 1 is_stmt 1 view -0
 291              		.cfi_startproc
 292              		@ args = 0, pretend = 0, frame = 0
 293              		@ frame_needed = 0, uses_anonymous_args = 0
 294              		@ link register save eliminated.
 265:ThirdParty/Letter-shell/Src/shell.c ****     {
 295              		.loc 1 265 5 view .LVU69
 296              	.LBB19:
 265:ThirdParty/Letter-shell/Src/shell.c ****     {
 297              		.loc 1 265 10 view .LVU70
 298              	.LVL20:
 265:ThirdParty/Letter-shell/Src/shell.c ****     {
 299              		.loc 1 265 23 view .LVU71
 300 0000 074A     		ldr	r2, .L27
 301              	.LBE19:
 264:ThirdParty/Letter-shell/Src/shell.c ****     for (short i = 0; i < SHELL_MAX_NUMBER; i++)
 302              		.loc 1 264 1 is_stmt 0 view .LVU72
 303 0002 0523     		movs	r3, #5
 304              	.LVL21:
 305              	.L22:
 306              	.LBB20:
 267:ThirdParty/Letter-shell/Src/shell.c ****         {
 307              		.loc 1 267 9 is_stmt 1 view .LVU73
 267:ThirdParty/Letter-shell/Src/shell.c ****         {
 308              		.loc 1 267 22 is_stmt 0 view .LVU74
 309 0004 52F8040B 		ldr	r0, [r2], #4
 267:ThirdParty/Letter-shell/Src/shell.c ****         {
 310              		.loc 1 267 12 view .LVU75
 311 0008 18B1     		cbz	r0, .L20
 267:ThirdParty/Letter-shell/Src/shell.c ****         {
 312              		.loc 1 267 26 discriminator 1 view .LVU76
 313 000a 90F86010 		ldrb	r1, [r0, #96]	@ zero_extendqisi2
 314 000e 8907     		lsls	r1, r1, #30
 315 0010 04D4     		bmi	.L19
 316              	.L20:
 265:ThirdParty/Letter-shell/Src/shell.c ****     {
 317              		.loc 1 265 45 is_stmt 1 discriminator 2 view .LVU77
 318              	.LVL22:
 265:ThirdParty/Letter-shell/Src/shell.c ****     {
 319              		.loc 1 265 23 discriminator 2 view .LVU78
 265:ThirdParty/Letter-shell/Src/shell.c ****     {
 320              		.loc 1 265 5 is_stmt 0 discriminator 2 view .LVU79
 321 0012 013B     		subs	r3, r3, #1
 322              	.LVL23:
 265:ThirdParty/Letter-shell/Src/shell.c ****     {
 323              		.loc 1 265 5 discriminator 2 view .LVU80
 324 0014 9BB2     		uxth	r3, r3
 325 0016 002B     		cmp	r3, #0
 326 0018 F4D1     		bne	.L22
 327              	.LBE20:
ARM GAS  C:\Users\CL\AppData\Local\Temp\ccoMTeCk.s 			page 34


 272:ThirdParty/Letter-shell/Src/shell.c **** }
 328              		.loc 1 272 12 view .LVU81
 329 001a 1846     		mov	r0, r3
 330              	.L19:
 273:ThirdParty/Letter-shell/Src/shell.c **** 
 331              		.loc 1 273 1 view .LVU82
 332 001c 7047     		bx	lr
 333              	.L28:
 334 001e 00BF     		.align	2
 335              	.L27:
 336 0020 00000000 		.word	.LANCHOR0
 337              		.cfi_endproc
 338              	.LFE6:
 340              		.section	.text.shellWriteString,"ax",%progbits
 341              		.align	1
 342              		.global	shellWriteString
 343              		.syntax unified
 344              		.thumb
 345              		.thumb_func
 347              	shellWriteString:
 348              	.LVL24:
 349              	.LFB8:
 297:ThirdParty/Letter-shell/Src/shell.c ****     unsigned short count = 0;
 350              		.loc 1 297 1 is_stmt 1 view -0
 351              		.cfi_startproc
 352              		@ args = 0, pretend = 0, frame = 0
 353              		@ frame_needed = 0, uses_anonymous_args = 0
 298:ThirdParty/Letter-shell/Src/shell.c ****     const char *p = string;
 354              		.loc 1 298 5 view .LVU84
 299:ThirdParty/Letter-shell/Src/shell.c ****     SHELL_ASSERT(shell->write, return 0);
 355              		.loc 1 299 5 view .LVU85
 300:ThirdParty/Letter-shell/Src/shell.c ****     while(*p++)
 356              		.loc 1 300 5 view .LVU86
 297:ThirdParty/Letter-shell/Src/shell.c ****     unsigned short count = 0;
 357              		.loc 1 297 1 is_stmt 0 view .LVU87
 358 0000 38B5     		push	{r3, r4, r5, lr}
 359              	.LCFI5:
 360              		.cfi_def_cfa_offset 16
 361              		.cfi_offset 3, -16
 362              		.cfi_offset 4, -12
 363              		.cfi_offset 5, -8
 364              		.cfi_offset 14, -4
 300:ThirdParty/Letter-shell/Src/shell.c ****     while(*p++)
 365              		.loc 1 300 5 view .LVU88
 366 0002 836E     		ldr	r3, [r0, #104]
 297:ThirdParty/Letter-shell/Src/shell.c ****     unsigned short count = 0;
 367              		.loc 1 297 1 view .LVU89
 368 0004 0A46     		mov	r2, r1
 300:ThirdParty/Letter-shell/Src/shell.c ****     while(*p++)
 369              		.loc 1 300 5 view .LVU90
 370 0006 53B1     		cbz	r3, .L32
 371 0008 0020     		movs	r0, #0
 372              	.LVL25:
 301:ThirdParty/Letter-shell/Src/shell.c ****     {
 373              		.loc 1 301 11 view .LVU91
 374 000a 4D1E     		subs	r5, r1, #1
 375              	.LVL26:
ARM GAS  C:\Users\CL\AppData\Local\Temp\ccoMTeCk.s 			page 35


 376              	.L31:
 301:ThirdParty/Letter-shell/Src/shell.c ****     {
 377              		.loc 1 301 11 view .LVU92
 378 000c 81B2     		uxth	r1, r0
 379              	.LVL27:
 301:ThirdParty/Letter-shell/Src/shell.c ****     {
 380              		.loc 1 301 10 is_stmt 1 view .LVU93
 381 000e 0130     		adds	r0, r0, #1
 382 0010 2C5C     		ldrb	r4, [r5, r0]	@ zero_extendqisi2
 383 0012 002C     		cmp	r4, #0
 384 0014 FAD1     		bne	.L31
 305:ThirdParty/Letter-shell/Src/shell.c **** }
 385              		.loc 1 305 5 view .LVU94
 305:ThirdParty/Letter-shell/Src/shell.c **** }
 386              		.loc 1 305 12 is_stmt 0 view .LVU95
 387 0016 1046     		mov	r0, r2
 388 0018 9847     		blx	r3
 389              	.LVL28:
 305:ThirdParty/Letter-shell/Src/shell.c **** }
 390              		.loc 1 305 12 view .LVU96
 391 001a 80B2     		uxth	r0, r0
 392              	.LVL29:
 393              	.L30:
 306:ThirdParty/Letter-shell/Src/shell.c **** 
 394              		.loc 1 306 1 view .LVU97
 395 001c 38BD     		pop	{r3, r4, r5, pc}
 396              	.LVL30:
 397              	.L32:
 300:ThirdParty/Letter-shell/Src/shell.c ****     while(*p++)
 398              		.loc 1 300 5 view .LVU98
 399 001e 1846     		mov	r0, r3
 400              	.LVL31:
 300:ThirdParty/Letter-shell/Src/shell.c ****     while(*p++)
 401              		.loc 1 300 5 view .LVU99
 402 0020 FCE7     		b	.L30
 403              		.cfi_endproc
 404              	.LFE8:
 406              		.section	.rodata.shellClear.str1.1,"aMS",%progbits,1
 407              	.LC0:
 408 0000 1B5B324A 		.ascii	"\033[2J\033[1H\000"
 408      1B5B3148 
 408      00
 409              		.section	.text.shellClear,"ax",%progbits
 410              		.align	1
 411              		.global	shellClear
 412              		.syntax unified
 413              		.thumb
 414              		.thumb_func
 416              	shellClear:
 417              	.LFB60:
1508:ThirdParty/Letter-shell/Src/shell.c **** SHELL_EXPORT_KEY(SHELL_CMD_PERMISSION(0)|SHELL_CMD_ENABLE_UNCHECKED,
1509:ThirdParty/Letter-shell/Src/shell.c **** 0x1B5B4400, shellLeft, left);
1510:ThirdParty/Letter-shell/Src/shell.c **** 
1511:ThirdParty/Letter-shell/Src/shell.c **** 
1512:ThirdParty/Letter-shell/Src/shell.c **** /**
1513:ThirdParty/Letter-shell/Src/shell.c ****  * @brief shell Tab按键处理
1514:ThirdParty/Letter-shell/Src/shell.c ****  * 
ARM GAS  C:\Users\CL\AppData\Local\Temp\ccoMTeCk.s 			page 36


1515:ThirdParty/Letter-shell/Src/shell.c ****  * @param shell shell对象
1516:ThirdParty/Letter-shell/Src/shell.c ****  */
1517:ThirdParty/Letter-shell/Src/shell.c **** void shellTab(Shell *shell)
1518:ThirdParty/Letter-shell/Src/shell.c **** {
1519:ThirdParty/Letter-shell/Src/shell.c ****     unsigned short maxMatch = shell->parser.bufferSize;
1520:ThirdParty/Letter-shell/Src/shell.c ****     unsigned short lastMatchIndex = 0;
1521:ThirdParty/Letter-shell/Src/shell.c ****     unsigned short matchNum = 0;
1522:ThirdParty/Letter-shell/Src/shell.c ****     unsigned short length;
1523:ThirdParty/Letter-shell/Src/shell.c **** 
1524:ThirdParty/Letter-shell/Src/shell.c ****     if (shell->parser.length == 0)
1525:ThirdParty/Letter-shell/Src/shell.c ****     {
1526:ThirdParty/Letter-shell/Src/shell.c ****         shellListAll(shell);
1527:ThirdParty/Letter-shell/Src/shell.c ****         shellWritePrompt(shell, 1);
1528:ThirdParty/Letter-shell/Src/shell.c ****     }
1529:ThirdParty/Letter-shell/Src/shell.c ****     else if (shell->parser.length > 0)
1530:ThirdParty/Letter-shell/Src/shell.c ****     {
1531:ThirdParty/Letter-shell/Src/shell.c ****         shell->parser.buffer[shell->parser.length] = 0;
1532:ThirdParty/Letter-shell/Src/shell.c ****         ShellCommand *base = (ShellCommand *)shell->commandList.base;
1533:ThirdParty/Letter-shell/Src/shell.c ****         for (short i = 0; i < shell->commandList.count; i++)
1534:ThirdParty/Letter-shell/Src/shell.c ****         {
1535:ThirdParty/Letter-shell/Src/shell.c ****             if (shellCheckPermission(shell, &base[i]) == 0
1536:ThirdParty/Letter-shell/Src/shell.c ****                 && shellStringCompare(shell->parser.buffer,
1537:ThirdParty/Letter-shell/Src/shell.c ****                                    (char *)shellGetCommandName(&base[i]))
1538:ThirdParty/Letter-shell/Src/shell.c ****                         == shell->parser.length)
1539:ThirdParty/Letter-shell/Src/shell.c ****             {
1540:ThirdParty/Letter-shell/Src/shell.c ****                 if (matchNum != 0)
1541:ThirdParty/Letter-shell/Src/shell.c ****                 {
1542:ThirdParty/Letter-shell/Src/shell.c ****                     if (matchNum == 1)
1543:ThirdParty/Letter-shell/Src/shell.c ****                     {
1544:ThirdParty/Letter-shell/Src/shell.c ****                         shellWriteString(shell, "\r\n");
1545:ThirdParty/Letter-shell/Src/shell.c ****                     }
1546:ThirdParty/Letter-shell/Src/shell.c ****                     shellListItem(shell, &base[lastMatchIndex]);
1547:ThirdParty/Letter-shell/Src/shell.c ****                     length = 
1548:ThirdParty/Letter-shell/Src/shell.c ****                         shellStringCompare((char *)shellGetCommandName(&base[lastMatchIndex]),
1549:ThirdParty/Letter-shell/Src/shell.c ****                                            (char *)shellGetCommandName(&base[i]));
1550:ThirdParty/Letter-shell/Src/shell.c ****                     maxMatch = (maxMatch > length) ? length : maxMatch;
1551:ThirdParty/Letter-shell/Src/shell.c ****                 }
1552:ThirdParty/Letter-shell/Src/shell.c ****                 lastMatchIndex = i;
1553:ThirdParty/Letter-shell/Src/shell.c ****                 matchNum++;
1554:ThirdParty/Letter-shell/Src/shell.c ****             }
1555:ThirdParty/Letter-shell/Src/shell.c ****         }
1556:ThirdParty/Letter-shell/Src/shell.c ****         if (matchNum == 0)
1557:ThirdParty/Letter-shell/Src/shell.c ****         {
1558:ThirdParty/Letter-shell/Src/shell.c ****             return;
1559:ThirdParty/Letter-shell/Src/shell.c ****         }
1560:ThirdParty/Letter-shell/Src/shell.c ****         if (matchNum == 1)
1561:ThirdParty/Letter-shell/Src/shell.c ****         {
1562:ThirdParty/Letter-shell/Src/shell.c ****             shellClearCommandLine(shell);
1563:ThirdParty/Letter-shell/Src/shell.c ****         }
1564:ThirdParty/Letter-shell/Src/shell.c ****         if (matchNum != 0)
1565:ThirdParty/Letter-shell/Src/shell.c ****         {
1566:ThirdParty/Letter-shell/Src/shell.c ****             shell->parser.length = 
1567:ThirdParty/Letter-shell/Src/shell.c ****                 shellStringCopy(shell->parser.buffer,
1568:ThirdParty/Letter-shell/Src/shell.c ****                                 (char *)shellGetCommandName(&base[lastMatchIndex]));
1569:ThirdParty/Letter-shell/Src/shell.c ****         }
1570:ThirdParty/Letter-shell/Src/shell.c ****         if (matchNum > 1)
1571:ThirdParty/Letter-shell/Src/shell.c ****         {
ARM GAS  C:\Users\CL\AppData\Local\Temp\ccoMTeCk.s 			page 37


1572:ThirdParty/Letter-shell/Src/shell.c ****             shellListItem(shell, &base[lastMatchIndex]);
1573:ThirdParty/Letter-shell/Src/shell.c ****             shellWritePrompt(shell, 1);
1574:ThirdParty/Letter-shell/Src/shell.c ****             shell->parser.length = maxMatch;
1575:ThirdParty/Letter-shell/Src/shell.c ****         }
1576:ThirdParty/Letter-shell/Src/shell.c ****         shell->parser.buffer[shell->parser.length] = 0;
1577:ThirdParty/Letter-shell/Src/shell.c ****         shell->parser.cursor = shell->parser.length;
1578:ThirdParty/Letter-shell/Src/shell.c ****         shellWriteString(shell, shell->parser.buffer);
1579:ThirdParty/Letter-shell/Src/shell.c ****     }
1580:ThirdParty/Letter-shell/Src/shell.c **** 
1581:ThirdParty/Letter-shell/Src/shell.c ****     if (SHELL_GET_TICK())
1582:ThirdParty/Letter-shell/Src/shell.c ****     {
1583:ThirdParty/Letter-shell/Src/shell.c ****         if (matchNum == 1
1584:ThirdParty/Letter-shell/Src/shell.c ****             && shell->status.tabFlag
1585:ThirdParty/Letter-shell/Src/shell.c ****             && SHELL_GET_TICK() - shell->info.activeTime < SHELL_DOUBLE_CLICK_TIME)
1586:ThirdParty/Letter-shell/Src/shell.c ****         {
1587:ThirdParty/Letter-shell/Src/shell.c ****         #if SHELL_QUICK_HELP == 1
1588:ThirdParty/Letter-shell/Src/shell.c ****             shellWriteString(shell, "\r\n");
1589:ThirdParty/Letter-shell/Src/shell.c ****             shellWriteCommandHelp(shell, shell->parser.buffer);
1590:ThirdParty/Letter-shell/Src/shell.c ****             shellWritePrompt(shell, 1);
1591:ThirdParty/Letter-shell/Src/shell.c ****             shellWriteString(shell, shell->parser.buffer);
1592:ThirdParty/Letter-shell/Src/shell.c ****         #else
1593:ThirdParty/Letter-shell/Src/shell.c ****             shellClearCommandLine(shell);
1594:ThirdParty/Letter-shell/Src/shell.c ****             for (short i = shell->parser.length; i >= 0; i--)
1595:ThirdParty/Letter-shell/Src/shell.c ****             {
1596:ThirdParty/Letter-shell/Src/shell.c ****                 shell->parser.buffer[i + 5] = shell->parser.buffer[i];
1597:ThirdParty/Letter-shell/Src/shell.c ****             }
1598:ThirdParty/Letter-shell/Src/shell.c ****             shellStringCopy(shell->parser.buffer, "help");
1599:ThirdParty/Letter-shell/Src/shell.c ****             shell->parser.buffer[4] = ' ';
1600:ThirdParty/Letter-shell/Src/shell.c ****             shell->parser.length += 5;
1601:ThirdParty/Letter-shell/Src/shell.c ****             shell->parser.cursor = shell->parser.length;
1602:ThirdParty/Letter-shell/Src/shell.c ****             shellWriteString(shell, shell->parser.buffer);
1603:ThirdParty/Letter-shell/Src/shell.c ****         #endif
1604:ThirdParty/Letter-shell/Src/shell.c ****         }
1605:ThirdParty/Letter-shell/Src/shell.c ****         else
1606:ThirdParty/Letter-shell/Src/shell.c ****         {
1607:ThirdParty/Letter-shell/Src/shell.c ****             shell->status.tabFlag = 1;
1608:ThirdParty/Letter-shell/Src/shell.c ****         }
1609:ThirdParty/Letter-shell/Src/shell.c ****     }
1610:ThirdParty/Letter-shell/Src/shell.c **** }
1611:ThirdParty/Letter-shell/Src/shell.c **** SHELL_EXPORT_KEY(SHELL_CMD_PERMISSION(0), 0x09000000, shellTab, tab);
1612:ThirdParty/Letter-shell/Src/shell.c **** 
1613:ThirdParty/Letter-shell/Src/shell.c **** 
1614:ThirdParty/Letter-shell/Src/shell.c **** /**
1615:ThirdParty/Letter-shell/Src/shell.c ****  * @brief shell 退格
1616:ThirdParty/Letter-shell/Src/shell.c ****  * 
1617:ThirdParty/Letter-shell/Src/shell.c ****  * @param shell shell对象
1618:ThirdParty/Letter-shell/Src/shell.c ****  */
1619:ThirdParty/Letter-shell/Src/shell.c **** void shellBackspace(Shell *shell)
1620:ThirdParty/Letter-shell/Src/shell.c **** {
1621:ThirdParty/Letter-shell/Src/shell.c ****     shellDeleteByte(shell, 1);
1622:ThirdParty/Letter-shell/Src/shell.c **** }
1623:ThirdParty/Letter-shell/Src/shell.c **** SHELL_EXPORT_KEY(SHELL_CMD_PERMISSION(0)|SHELL_CMD_ENABLE_UNCHECKED,
1624:ThirdParty/Letter-shell/Src/shell.c **** 0x08000000, shellBackspace, backspace);
1625:ThirdParty/Letter-shell/Src/shell.c **** SHELL_EXPORT_KEY(SHELL_CMD_PERMISSION(0)|SHELL_CMD_ENABLE_UNCHECKED,
1626:ThirdParty/Letter-shell/Src/shell.c **** 0x7F000000, shellBackspace, backspace);
1627:ThirdParty/Letter-shell/Src/shell.c **** 
1628:ThirdParty/Letter-shell/Src/shell.c **** 
ARM GAS  C:\Users\CL\AppData\Local\Temp\ccoMTeCk.s 			page 38


1629:ThirdParty/Letter-shell/Src/shell.c **** /**
1630:ThirdParty/Letter-shell/Src/shell.c ****  * @brief shell 删除
1631:ThirdParty/Letter-shell/Src/shell.c ****  * 
1632:ThirdParty/Letter-shell/Src/shell.c ****  * @param shell shell对象
1633:ThirdParty/Letter-shell/Src/shell.c ****  */
1634:ThirdParty/Letter-shell/Src/shell.c **** void shellDelete(Shell *shell)
1635:ThirdParty/Letter-shell/Src/shell.c **** {
1636:ThirdParty/Letter-shell/Src/shell.c ****     shellDeleteByte(shell, -1);
1637:ThirdParty/Letter-shell/Src/shell.c **** }
1638:ThirdParty/Letter-shell/Src/shell.c **** SHELL_EXPORT_KEY(SHELL_CMD_PERMISSION(0)|SHELL_CMD_ENABLE_UNCHECKED,
1639:ThirdParty/Letter-shell/Src/shell.c **** 0x1B5B337E, shellDelete, delete);
1640:ThirdParty/Letter-shell/Src/shell.c **** 
1641:ThirdParty/Letter-shell/Src/shell.c **** 
1642:ThirdParty/Letter-shell/Src/shell.c **** /**
1643:ThirdParty/Letter-shell/Src/shell.c ****  * @brief shell 回车处理
1644:ThirdParty/Letter-shell/Src/shell.c ****  * 
1645:ThirdParty/Letter-shell/Src/shell.c ****  * @param shell shell对象
1646:ThirdParty/Letter-shell/Src/shell.c ****  */
1647:ThirdParty/Letter-shell/Src/shell.c **** void shellEnter(Shell *shell)
1648:ThirdParty/Letter-shell/Src/shell.c **** {
1649:ThirdParty/Letter-shell/Src/shell.c ****     shellExec(shell);
1650:ThirdParty/Letter-shell/Src/shell.c ****     shellWritePrompt(shell, 1);
1651:ThirdParty/Letter-shell/Src/shell.c **** }
1652:ThirdParty/Letter-shell/Src/shell.c **** #if SHELL_ENTER_LF == 1
1653:ThirdParty/Letter-shell/Src/shell.c **** SHELL_EXPORT_KEY(SHELL_CMD_PERMISSION(0)|SHELL_CMD_ENABLE_UNCHECKED,
1654:ThirdParty/Letter-shell/Src/shell.c **** 0x0A000000, shellEnter, enter);
1655:ThirdParty/Letter-shell/Src/shell.c **** #endif
1656:ThirdParty/Letter-shell/Src/shell.c **** #if SHELL_ENTER_CR == 1
1657:ThirdParty/Letter-shell/Src/shell.c **** SHELL_EXPORT_KEY(SHELL_CMD_PERMISSION(0)|SHELL_CMD_ENABLE_UNCHECKED,
1658:ThirdParty/Letter-shell/Src/shell.c **** 0x0D000000, shellEnter, enter);
1659:ThirdParty/Letter-shell/Src/shell.c **** #endif
1660:ThirdParty/Letter-shell/Src/shell.c **** #if SHELL_ENTER_CRLF == 1
1661:ThirdParty/Letter-shell/Src/shell.c **** SHELL_EXPORT_KEY(SHELL_CMD_PERMISSION(0)|SHELL_CMD_ENABLE_UNCHECKED,
1662:ThirdParty/Letter-shell/Src/shell.c **** 0x0D0A0000, shellEnter, enter);
1663:ThirdParty/Letter-shell/Src/shell.c **** #endif
1664:ThirdParty/Letter-shell/Src/shell.c **** 
1665:ThirdParty/Letter-shell/Src/shell.c **** /**
1666:ThirdParty/Letter-shell/Src/shell.c ****  * @brief shell 写命令帮助信息
1667:ThirdParty/Letter-shell/Src/shell.c ****  * 
1668:ThirdParty/Letter-shell/Src/shell.c ****  * @param shell shell对象
1669:ThirdParty/Letter-shell/Src/shell.c ****  * @param cmd 命令字符串
1670:ThirdParty/Letter-shell/Src/shell.c ****  */
1671:ThirdParty/Letter-shell/Src/shell.c **** static void shellWriteCommandHelp(Shell *shell, char *cmd)
1672:ThirdParty/Letter-shell/Src/shell.c **** {
1673:ThirdParty/Letter-shell/Src/shell.c ****     ShellCommand *command = shellSeekCommand(shell,
1674:ThirdParty/Letter-shell/Src/shell.c ****                                              cmd,
1675:ThirdParty/Letter-shell/Src/shell.c ****                                              shell->commandList.base,
1676:ThirdParty/Letter-shell/Src/shell.c ****                                              0);
1677:ThirdParty/Letter-shell/Src/shell.c ****     if (command)
1678:ThirdParty/Letter-shell/Src/shell.c ****     {
1679:ThirdParty/Letter-shell/Src/shell.c ****         shellWriteString(shell, shellText[SHELL_TEXT_HELP_HEADER]);
1680:ThirdParty/Letter-shell/Src/shell.c ****         shellWriteString(shell, shellGetCommandName(command));
1681:ThirdParty/Letter-shell/Src/shell.c ****         shellWriteString(shell, "\r\n");
1682:ThirdParty/Letter-shell/Src/shell.c ****         shellWriteString(shell, shellGetCommandDesc(command));
1683:ThirdParty/Letter-shell/Src/shell.c ****         shellWriteString(shell, "\r\n");
1684:ThirdParty/Letter-shell/Src/shell.c ****     }
1685:ThirdParty/Letter-shell/Src/shell.c ****     else
ARM GAS  C:\Users\CL\AppData\Local\Temp\ccoMTeCk.s 			page 39


1686:ThirdParty/Letter-shell/Src/shell.c ****     {
1687:ThirdParty/Letter-shell/Src/shell.c ****         shellWriteString(shell, shellText[SHELL_TEXT_CMD_NOT_FOUND]);
1688:ThirdParty/Letter-shell/Src/shell.c ****     }
1689:ThirdParty/Letter-shell/Src/shell.c **** }
1690:ThirdParty/Letter-shell/Src/shell.c **** 
1691:ThirdParty/Letter-shell/Src/shell.c **** /**
1692:ThirdParty/Letter-shell/Src/shell.c ****  * @brief shell help
1693:ThirdParty/Letter-shell/Src/shell.c ****  * 
1694:ThirdParty/Letter-shell/Src/shell.c ****  * @param argc 参数个数
1695:ThirdParty/Letter-shell/Src/shell.c ****  * @param argv 参数
1696:ThirdParty/Letter-shell/Src/shell.c ****  */
1697:ThirdParty/Letter-shell/Src/shell.c **** void shellHelp(int argc, char *argv[])
1698:ThirdParty/Letter-shell/Src/shell.c **** {
1699:ThirdParty/Letter-shell/Src/shell.c ****     Shell *shell = shellGetCurrent();
1700:ThirdParty/Letter-shell/Src/shell.c ****     SHELL_ASSERT(shell, return);
1701:ThirdParty/Letter-shell/Src/shell.c ****     if (argc == 1)
1702:ThirdParty/Letter-shell/Src/shell.c ****     {
1703:ThirdParty/Letter-shell/Src/shell.c ****         shellListAll(shell);
1704:ThirdParty/Letter-shell/Src/shell.c ****     }
1705:ThirdParty/Letter-shell/Src/shell.c ****     else if (argc > 1)
1706:ThirdParty/Letter-shell/Src/shell.c ****     {
1707:ThirdParty/Letter-shell/Src/shell.c ****         shellWriteCommandHelp(shell, argv[1]);
1708:ThirdParty/Letter-shell/Src/shell.c ****     }
1709:ThirdParty/Letter-shell/Src/shell.c **** }
1710:ThirdParty/Letter-shell/Src/shell.c **** SHELL_EXPORT_CMD(
1711:ThirdParty/Letter-shell/Src/shell.c **** SHELL_CMD_PERMISSION(0)|SHELL_CMD_TYPE(SHELL_TYPE_CMD_MAIN)|SHELL_CMD_DISABLE_RETURN,
1712:ThirdParty/Letter-shell/Src/shell.c **** help, shellHelp, show command info\r\nhelp [cmd]);
1713:ThirdParty/Letter-shell/Src/shell.c **** 
1714:ThirdParty/Letter-shell/Src/shell.c **** /**
1715:ThirdParty/Letter-shell/Src/shell.c ****  * @brief shell 输入处理
1716:ThirdParty/Letter-shell/Src/shell.c ****  * 
1717:ThirdParty/Letter-shell/Src/shell.c ****  * @param shell shell对象
1718:ThirdParty/Letter-shell/Src/shell.c ****  * @param data 输入数据
1719:ThirdParty/Letter-shell/Src/shell.c ****  */
1720:ThirdParty/Letter-shell/Src/shell.c **** void shellHandler(Shell *shell, char data)
1721:ThirdParty/Letter-shell/Src/shell.c **** {
1722:ThirdParty/Letter-shell/Src/shell.c ****     SHELL_ASSERT(data, return);
1723:ThirdParty/Letter-shell/Src/shell.c ****     SHELL_LOCK(shell);
1724:ThirdParty/Letter-shell/Src/shell.c **** 
1725:ThirdParty/Letter-shell/Src/shell.c **** #if SHELL_LOCK_TIMEOUT > 0
1726:ThirdParty/Letter-shell/Src/shell.c ****     if (shell->info.user->data.user.password
1727:ThirdParty/Letter-shell/Src/shell.c ****         && strlen(shell->info.user->data.user.password) != 0
1728:ThirdParty/Letter-shell/Src/shell.c ****         && SHELL_GET_TICK())
1729:ThirdParty/Letter-shell/Src/shell.c ****     {
1730:ThirdParty/Letter-shell/Src/shell.c ****         if (SHELL_GET_TICK() - shell->info.activeTime > SHELL_LOCK_TIMEOUT)
1731:ThirdParty/Letter-shell/Src/shell.c ****         {
1732:ThirdParty/Letter-shell/Src/shell.c ****             shell->status.isChecked = 0;
1733:ThirdParty/Letter-shell/Src/shell.c ****         }
1734:ThirdParty/Letter-shell/Src/shell.c ****     }
1735:ThirdParty/Letter-shell/Src/shell.c **** #endif
1736:ThirdParty/Letter-shell/Src/shell.c **** 
1737:ThirdParty/Letter-shell/Src/shell.c ****     /* 根据记录的按键键值计算当前字节在按键键值中的偏移 */
1738:ThirdParty/Letter-shell/Src/shell.c ****     char keyByteOffset = 24;
1739:ThirdParty/Letter-shell/Src/shell.c ****     int keyFilter = 0x00000000;
1740:ThirdParty/Letter-shell/Src/shell.c ****     if ((shell->parser.keyValue & 0x0000FF00) != 0x00000000)
1741:ThirdParty/Letter-shell/Src/shell.c ****     {
1742:ThirdParty/Letter-shell/Src/shell.c ****         keyByteOffset = 0;
ARM GAS  C:\Users\CL\AppData\Local\Temp\ccoMTeCk.s 			page 40


1743:ThirdParty/Letter-shell/Src/shell.c ****         keyFilter = 0xFFFFFF00;
1744:ThirdParty/Letter-shell/Src/shell.c ****     }
1745:ThirdParty/Letter-shell/Src/shell.c ****     else if ((shell->parser.keyValue & 0x00FF0000) != 0x00000000)
1746:ThirdParty/Letter-shell/Src/shell.c ****     {
1747:ThirdParty/Letter-shell/Src/shell.c ****         keyByteOffset = 8;
1748:ThirdParty/Letter-shell/Src/shell.c ****         keyFilter = 0xFFFF0000;
1749:ThirdParty/Letter-shell/Src/shell.c ****     }
1750:ThirdParty/Letter-shell/Src/shell.c ****     else if ((shell->parser.keyValue & 0xFF000000) != 0x00000000)
1751:ThirdParty/Letter-shell/Src/shell.c ****     {
1752:ThirdParty/Letter-shell/Src/shell.c ****         keyByteOffset = 16;
1753:ThirdParty/Letter-shell/Src/shell.c ****         keyFilter = 0xFF000000;
1754:ThirdParty/Letter-shell/Src/shell.c ****     }
1755:ThirdParty/Letter-shell/Src/shell.c **** 
1756:ThirdParty/Letter-shell/Src/shell.c ****     /* 遍历ShellCommand列表，尝试进行按键键值匹配 */
1757:ThirdParty/Letter-shell/Src/shell.c ****     ShellCommand *base = (ShellCommand *)shell->commandList.base;
1758:ThirdParty/Letter-shell/Src/shell.c ****     for (short i = 0; i < shell->commandList.count; i++)
1759:ThirdParty/Letter-shell/Src/shell.c ****     {
1760:ThirdParty/Letter-shell/Src/shell.c ****         /* 判断是否是按键定义并验证权限 */
1761:ThirdParty/Letter-shell/Src/shell.c ****         if (base[i].attr.attrs.type == SHELL_TYPE_KEY
1762:ThirdParty/Letter-shell/Src/shell.c ****             && shellCheckPermission(shell, &(base[i])) == 0)
1763:ThirdParty/Letter-shell/Src/shell.c ****         {
1764:ThirdParty/Letter-shell/Src/shell.c ****             /* 对输入的字节同按键键值进行匹配 */
1765:ThirdParty/Letter-shell/Src/shell.c ****             if ((base[i].data.key.value & keyFilter) == shell->parser.keyValue
1766:ThirdParty/Letter-shell/Src/shell.c ****                 && (base[i].data.key.value & (0xFF << keyByteOffset))
1767:ThirdParty/Letter-shell/Src/shell.c ****                     == (data << keyByteOffset))
1768:ThirdParty/Letter-shell/Src/shell.c ****             {
1769:ThirdParty/Letter-shell/Src/shell.c ****                 shell->parser.keyValue |= data << keyByteOffset;
1770:ThirdParty/Letter-shell/Src/shell.c ****                 data = 0x00;
1771:ThirdParty/Letter-shell/Src/shell.c ****                 if (keyByteOffset == 0 
1772:ThirdParty/Letter-shell/Src/shell.c ****                     || (base[i].data.key.value & (0xFF << (keyByteOffset - 8)))
1773:ThirdParty/Letter-shell/Src/shell.c ****                         == 0x00000000)
1774:ThirdParty/Letter-shell/Src/shell.c ****                 {
1775:ThirdParty/Letter-shell/Src/shell.c ****                     if (base[i].data.key.function)
1776:ThirdParty/Letter-shell/Src/shell.c ****                     {
1777:ThirdParty/Letter-shell/Src/shell.c ****                         shellidle_cnt = 0;
1778:ThirdParty/Letter-shell/Src/shell.c ****                         base[i].data.key.function(shell);
1779:ThirdParty/Letter-shell/Src/shell.c ****                     }
1780:ThirdParty/Letter-shell/Src/shell.c ****                     shell->parser.keyValue = 0x00000000;
1781:ThirdParty/Letter-shell/Src/shell.c ****                     break;
1782:ThirdParty/Letter-shell/Src/shell.c ****                 }
1783:ThirdParty/Letter-shell/Src/shell.c ****             }
1784:ThirdParty/Letter-shell/Src/shell.c ****         }
1785:ThirdParty/Letter-shell/Src/shell.c ****     }
1786:ThirdParty/Letter-shell/Src/shell.c **** 
1787:ThirdParty/Letter-shell/Src/shell.c ****     if (data != 0x00)
1788:ThirdParty/Letter-shell/Src/shell.c ****     {
1789:ThirdParty/Letter-shell/Src/shell.c ****         shell->parser.keyValue = 0x00000000;
1790:ThirdParty/Letter-shell/Src/shell.c ****         shellNormalInput(shell, data);
1791:ThirdParty/Letter-shell/Src/shell.c ****     }
1792:ThirdParty/Letter-shell/Src/shell.c **** 
1793:ThirdParty/Letter-shell/Src/shell.c ****     if (SHELL_GET_TICK())
1794:ThirdParty/Letter-shell/Src/shell.c ****     {
1795:ThirdParty/Letter-shell/Src/shell.c ****         shell->info.activeTime = SHELL_GET_TICK();
1796:ThirdParty/Letter-shell/Src/shell.c ****     }
1797:ThirdParty/Letter-shell/Src/shell.c ****     SHELL_UNLOCK(shell);
1798:ThirdParty/Letter-shell/Src/shell.c **** }
1799:ThirdParty/Letter-shell/Src/shell.c **** 
ARM GAS  C:\Users\CL\AppData\Local\Temp\ccoMTeCk.s 			page 41


1800:ThirdParty/Letter-shell/Src/shell.c **** 
1801:ThirdParty/Letter-shell/Src/shell.c **** #if SHELL_SUPPORT_END_LINE == 1
1802:ThirdParty/Letter-shell/Src/shell.c **** void shellWriteEndLine(Shell *shell, char *buffer, int len)
1803:ThirdParty/Letter-shell/Src/shell.c **** {
1804:ThirdParty/Letter-shell/Src/shell.c ****     SHELL_LOCK(shell);
1805:ThirdParty/Letter-shell/Src/shell.c ****     if (!shell->status.isActive)
1806:ThirdParty/Letter-shell/Src/shell.c ****     {
1807:ThirdParty/Letter-shell/Src/shell.c ****         shellWriteString(shell, shellText[SHELL_TEXT_CLEAR_LINE]);
1808:ThirdParty/Letter-shell/Src/shell.c ****     }
1809:ThirdParty/Letter-shell/Src/shell.c ****     shell->write(buffer, len);
1810:ThirdParty/Letter-shell/Src/shell.c **** 
1811:ThirdParty/Letter-shell/Src/shell.c ****     if (!shell->status.isActive)
1812:ThirdParty/Letter-shell/Src/shell.c ****     {
1813:ThirdParty/Letter-shell/Src/shell.c ****         shellWritePrompt(shell, 0);
1814:ThirdParty/Letter-shell/Src/shell.c ****         if (shell->parser.length > 0)
1815:ThirdParty/Letter-shell/Src/shell.c ****         {
1816:ThirdParty/Letter-shell/Src/shell.c ****             shellWriteString(shell, shell->parser.buffer);
1817:ThirdParty/Letter-shell/Src/shell.c ****             for (short i = 0; i < shell->parser.length - shell->parser.cursor; i++)
1818:ThirdParty/Letter-shell/Src/shell.c ****             {
1819:ThirdParty/Letter-shell/Src/shell.c ****                 shellWriteByte(shell, '\b');
1820:ThirdParty/Letter-shell/Src/shell.c ****             }
1821:ThirdParty/Letter-shell/Src/shell.c ****         }
1822:ThirdParty/Letter-shell/Src/shell.c ****     }
1823:ThirdParty/Letter-shell/Src/shell.c ****     SHELL_UNLOCK(shell);
1824:ThirdParty/Letter-shell/Src/shell.c **** }
1825:ThirdParty/Letter-shell/Src/shell.c **** #endif /** SHELL_SUPPORT_END_LINE == 1 */
1826:ThirdParty/Letter-shell/Src/shell.c **** 
1827:ThirdParty/Letter-shell/Src/shell.c **** 
1828:ThirdParty/Letter-shell/Src/shell.c **** /**
1829:ThirdParty/Letter-shell/Src/shell.c ****  * @brief shell 任务
1830:ThirdParty/Letter-shell/Src/shell.c ****  * 
1831:ThirdParty/Letter-shell/Src/shell.c ****  * @param param 参数(shell对象)
1832:ThirdParty/Letter-shell/Src/shell.c ****  * 
1833:ThirdParty/Letter-shell/Src/shell.c ****  */
1834:ThirdParty/Letter-shell/Src/shell.c **** void shellTask(void *param)
1835:ThirdParty/Letter-shell/Src/shell.c **** {
1836:ThirdParty/Letter-shell/Src/shell.c ****     Shell *shell = (Shell *)param;
1837:ThirdParty/Letter-shell/Src/shell.c ****     char data;
1838:ThirdParty/Letter-shell/Src/shell.c **** #if SHELL_TASK_WHILE == 1
1839:ThirdParty/Letter-shell/Src/shell.c ****     while(1)
1840:ThirdParty/Letter-shell/Src/shell.c ****     {
1841:ThirdParty/Letter-shell/Src/shell.c **** #endif
1842:ThirdParty/Letter-shell/Src/shell.c ****         if (shell->read && shell->read(&data, 1) == 1)
1843:ThirdParty/Letter-shell/Src/shell.c ****         {
1844:ThirdParty/Letter-shell/Src/shell.c ****             shellHandler(shell, data);
1845:ThirdParty/Letter-shell/Src/shell.c ****         }
1846:ThirdParty/Letter-shell/Src/shell.c **** #if SHELL_TASK_WHILE == 1
1847:ThirdParty/Letter-shell/Src/shell.c ****     }
1848:ThirdParty/Letter-shell/Src/shell.c **** #endif
1849:ThirdParty/Letter-shell/Src/shell.c **** }
1850:ThirdParty/Letter-shell/Src/shell.c **** 
1851:ThirdParty/Letter-shell/Src/shell.c **** 
1852:ThirdParty/Letter-shell/Src/shell.c **** /**
1853:ThirdParty/Letter-shell/Src/shell.c ****  * @brief shell 输出用户列表(shell调用)
1854:ThirdParty/Letter-shell/Src/shell.c ****  */
1855:ThirdParty/Letter-shell/Src/shell.c **** void shellUsers(void)
1856:ThirdParty/Letter-shell/Src/shell.c **** {
ARM GAS  C:\Users\CL\AppData\Local\Temp\ccoMTeCk.s 			page 42


1857:ThirdParty/Letter-shell/Src/shell.c ****     Shell *shell = shellGetCurrent();
1858:ThirdParty/Letter-shell/Src/shell.c ****     if (shell)
1859:ThirdParty/Letter-shell/Src/shell.c ****     {
1860:ThirdParty/Letter-shell/Src/shell.c ****         shellListUser(shell);
1861:ThirdParty/Letter-shell/Src/shell.c ****     }
1862:ThirdParty/Letter-shell/Src/shell.c **** }
1863:ThirdParty/Letter-shell/Src/shell.c **** SHELL_EXPORT_CMD(
1864:ThirdParty/Letter-shell/Src/shell.c **** SHELL_CMD_PERMISSION(0)|SHELL_CMD_TYPE(SHELL_TYPE_CMD_FUNC)|SHELL_CMD_DISABLE_RETURN,
1865:ThirdParty/Letter-shell/Src/shell.c **** users, shellUsers, list all user);
1866:ThirdParty/Letter-shell/Src/shell.c **** 
1867:ThirdParty/Letter-shell/Src/shell.c **** 
1868:ThirdParty/Letter-shell/Src/shell.c **** /**
1869:ThirdParty/Letter-shell/Src/shell.c ****  * @brief shell 输出命令列表(shell调用)
1870:ThirdParty/Letter-shell/Src/shell.c ****  */
1871:ThirdParty/Letter-shell/Src/shell.c **** void shellCmds(void)
1872:ThirdParty/Letter-shell/Src/shell.c **** {
1873:ThirdParty/Letter-shell/Src/shell.c ****     Shell *shell = shellGetCurrent();
1874:ThirdParty/Letter-shell/Src/shell.c ****     if (shell)
1875:ThirdParty/Letter-shell/Src/shell.c ****     {
1876:ThirdParty/Letter-shell/Src/shell.c ****         shellListCommand(shell);
1877:ThirdParty/Letter-shell/Src/shell.c ****     }
1878:ThirdParty/Letter-shell/Src/shell.c **** }
1879:ThirdParty/Letter-shell/Src/shell.c **** SHELL_EXPORT_CMD(
1880:ThirdParty/Letter-shell/Src/shell.c **** SHELL_CMD_PERMISSION(0)|SHELL_CMD_TYPE(SHELL_TYPE_CMD_FUNC)|SHELL_CMD_DISABLE_RETURN,
1881:ThirdParty/Letter-shell/Src/shell.c **** cmds, shellCmds, list all cmd);
1882:ThirdParty/Letter-shell/Src/shell.c **** 
1883:ThirdParty/Letter-shell/Src/shell.c **** 
1884:ThirdParty/Letter-shell/Src/shell.c **** /**
1885:ThirdParty/Letter-shell/Src/shell.c ****  * @brief shell 输出变量列表(shell调用)
1886:ThirdParty/Letter-shell/Src/shell.c ****  */
1887:ThirdParty/Letter-shell/Src/shell.c **** void shellVars(void)
1888:ThirdParty/Letter-shell/Src/shell.c **** {
1889:ThirdParty/Letter-shell/Src/shell.c ****     Shell *shell = shellGetCurrent();
1890:ThirdParty/Letter-shell/Src/shell.c ****     if (shell)
1891:ThirdParty/Letter-shell/Src/shell.c ****     {
1892:ThirdParty/Letter-shell/Src/shell.c ****         shellListVar(shell);
1893:ThirdParty/Letter-shell/Src/shell.c ****     }
1894:ThirdParty/Letter-shell/Src/shell.c **** }
1895:ThirdParty/Letter-shell/Src/shell.c **** SHELL_EXPORT_CMD(
1896:ThirdParty/Letter-shell/Src/shell.c **** SHELL_CMD_PERMISSION(0)|SHELL_CMD_TYPE(SHELL_TYPE_CMD_FUNC)|SHELL_CMD_DISABLE_RETURN,
1897:ThirdParty/Letter-shell/Src/shell.c **** vars, shellVars, list all var);
1898:ThirdParty/Letter-shell/Src/shell.c **** 
1899:ThirdParty/Letter-shell/Src/shell.c **** 
1900:ThirdParty/Letter-shell/Src/shell.c **** /**
1901:ThirdParty/Letter-shell/Src/shell.c ****  * @brief shell 输出按键列表(shell调用)
1902:ThirdParty/Letter-shell/Src/shell.c ****  */
1903:ThirdParty/Letter-shell/Src/shell.c **** void shellKeys(void)
1904:ThirdParty/Letter-shell/Src/shell.c **** {
1905:ThirdParty/Letter-shell/Src/shell.c ****     Shell *shell = shellGetCurrent();
1906:ThirdParty/Letter-shell/Src/shell.c ****     if (shell)
1907:ThirdParty/Letter-shell/Src/shell.c ****     {
1908:ThirdParty/Letter-shell/Src/shell.c ****         shellListKey(shell);
1909:ThirdParty/Letter-shell/Src/shell.c ****     }
1910:ThirdParty/Letter-shell/Src/shell.c **** }
1911:ThirdParty/Letter-shell/Src/shell.c **** SHELL_EXPORT_CMD(
1912:ThirdParty/Letter-shell/Src/shell.c **** SHELL_CMD_PERMISSION(0)|SHELL_CMD_TYPE(SHELL_TYPE_CMD_FUNC)|SHELL_CMD_DISABLE_RETURN,
1913:ThirdParty/Letter-shell/Src/shell.c **** keys, shellKeys, list all key);
ARM GAS  C:\Users\CL\AppData\Local\Temp\ccoMTeCk.s 			page 43


1914:ThirdParty/Letter-shell/Src/shell.c **** 
1915:ThirdParty/Letter-shell/Src/shell.c **** 
1916:ThirdParty/Letter-shell/Src/shell.c **** /**
1917:ThirdParty/Letter-shell/Src/shell.c ****  * @brief shell 清空控制台(shell调用)
1918:ThirdParty/Letter-shell/Src/shell.c ****  */
1919:ThirdParty/Letter-shell/Src/shell.c **** void shellClear(void)
1920:ThirdParty/Letter-shell/Src/shell.c **** {
 418              		.loc 1 1920 1 is_stmt 1 view -0
 419              		.cfi_startproc
 420              		@ args = 0, pretend = 0, frame = 0
 421              		@ frame_needed = 0, uses_anonymous_args = 0
1921:ThirdParty/Letter-shell/Src/shell.c ****     Shell *shell = shellGetCurrent();
 422              		.loc 1 1921 5 view .LVU101
1920:ThirdParty/Letter-shell/Src/shell.c ****     Shell *shell = shellGetCurrent();
 423              		.loc 1 1920 1 is_stmt 0 view .LVU102
 424 0000 08B5     		push	{r3, lr}
 425              	.LCFI6:
 426              		.cfi_def_cfa_offset 8
 427              		.cfi_offset 3, -8
 428              		.cfi_offset 14, -4
 429              		.loc 1 1921 20 view .LVU103
 430 0002 FFF7FEFF 		bl	shellGetCurrent
 431              	.LVL32:
1922:ThirdParty/Letter-shell/Src/shell.c ****     if (shell)
 432              		.loc 1 1922 5 is_stmt 1 view .LVU104
 433              		.loc 1 1922 8 is_stmt 0 view .LVU105
 434 0006 20B1     		cbz	r0, .L34
1923:ThirdParty/Letter-shell/Src/shell.c ****     {
1924:ThirdParty/Letter-shell/Src/shell.c ****         shellWriteString(shell, shellText[SHELL_TEXT_CLEAR_CONSOLE]);
 435              		.loc 1 1924 9 is_stmt 1 view .LVU106
1925:ThirdParty/Letter-shell/Src/shell.c ****     }
1926:ThirdParty/Letter-shell/Src/shell.c **** }
 436              		.loc 1 1926 1 is_stmt 0 view .LVU107
 437 0008 BDE80840 		pop	{r3, lr}
 438              	.LCFI7:
 439              		.cfi_remember_state
 440              		.cfi_restore 14
 441              		.cfi_restore 3
 442              		.cfi_def_cfa_offset 0
1924:ThirdParty/Letter-shell/Src/shell.c ****     }
 443              		.loc 1 1924 9 view .LVU108
 444 000c 0149     		ldr	r1, .L36
 445 000e FFF7FEBF 		b	shellWriteString
 446              	.LVL33:
 447              	.L34:
 448              	.LCFI8:
 449              		.cfi_restore_state
 450              		.loc 1 1926 1 view .LVU109
 451 0012 08BD     		pop	{r3, pc}
 452              	.L37:
 453              		.align	2
 454              	.L36:
 455 0014 00000000 		.word	.LC0
 456              		.cfi_endproc
 457              	.LFE60:
 459              		.section	.rodata.shellWritePrompt.constprop.0.str1.1,"aMS",%progbits,1
 460              	.LC1:
ARM GAS  C:\Users\CL\AppData\Local\Temp\ccoMTeCk.s 			page 44


 461 0000 2F00     		.ascii	"/\000"
 462              	.LC2:
 463 0002 0D0A00   		.ascii	"\015\012\000"
 464              	.LC3:
 465 0005 3A00     		.ascii	":\000"
 466              	.LC4:
 467 0007 242000   		.ascii	"$ \000"
 468              	.LC5:
 469 000a 506C6561 		.ascii	"Please input password:\000"
 469      73652069 
 469      6E707574 
 469      20706173 
 469      73776F72 
 470              		.section	.text.shellWritePrompt.constprop.0,"ax",%progbits
 471              		.align	1
 472              		.syntax unified
 473              		.thumb
 474              		.thumb_func
 476              	shellWritePrompt.constprop.0:
 477              	.LVL34:
 478              	.LFB73:
 348:ThirdParty/Letter-shell/Src/shell.c **** {
 479              		.loc 1 348 13 is_stmt 1 view -0
 480              		.cfi_startproc
 481              		@ args = 0, pretend = 0, frame = 0
 482              		@ frame_needed = 0, uses_anonymous_args = 0
 350:ThirdParty/Letter-shell/Src/shell.c ****     {
 483              		.loc 1 350 5 view .LVU111
 350:ThirdParty/Letter-shell/Src/shell.c ****     {
 484              		.loc 1 350 9 is_stmt 0 view .LVU112
 485 0000 90F86030 		ldrb	r3, [r0, #96]	@ zero_extendqisi2
 350:ThirdParty/Letter-shell/Src/shell.c ****     {
 486              		.loc 1 350 8 view .LVU113
 487 0004 DB07     		lsls	r3, r3, #31
 348:ThirdParty/Letter-shell/Src/shell.c **** {
 488              		.loc 1 348 13 view .LVU114
 489 0006 10B5     		push	{r4, lr}
 490              	.LCFI9:
 491              		.cfi_def_cfa_offset 8
 492              		.cfi_offset 4, -8
 493              		.cfi_offset 14, -4
 348:ThirdParty/Letter-shell/Src/shell.c **** {
 494              		.loc 1 348 13 view .LVU115
 495 0008 0446     		mov	r4, r0
 350:ThirdParty/Letter-shell/Src/shell.c ****     {
 496              		.loc 1 350 8 view .LVU116
 497 000a 19D5     		bpl	.L39
 498              	.LVL35:
 499              	.LBB23:
 500              	.LBI23:
 348:ThirdParty/Letter-shell/Src/shell.c **** {
 501              		.loc 1 348 13 is_stmt 1 view .LVU117
 502              	.LBB24:
 352:ThirdParty/Letter-shell/Src/shell.c ****         {
 503              		.loc 1 352 9 view .LVU118
 354:ThirdParty/Letter-shell/Src/shell.c ****         }
 504              		.loc 1 354 13 view .LVU119
ARM GAS  C:\Users\CL\AppData\Local\Temp\ccoMTeCk.s 			page 45


 505 000c 0D49     		ldr	r1, .L43
 506 000e FFF7FEFF 		bl	shellWriteString
 507              	.LVL36:
 356:ThirdParty/Letter-shell/Src/shell.c ****         shellWriteString(shell, ":");
 508              		.loc 1 356 9 view .LVU120
 509 0012 2368     		ldr	r3, [r4]
 510 0014 2046     		mov	r0, r4
 511 0016 5968     		ldr	r1, [r3, #4]
 512 0018 FFF7FEFF 		bl	shellWriteString
 513              	.LVL37:
 357:ThirdParty/Letter-shell/Src/shell.c ****         shellWriteString(shell, shell->info.path ? shell->info.path : "/");
 514              		.loc 1 357 9 view .LVU121
 515 001c 0A49     		ldr	r1, .L43+4
 516 001e 2046     		mov	r0, r4
 517 0020 FFF7FEFF 		bl	shellWriteString
 518              	.LVL38:
 358:ThirdParty/Letter-shell/Src/shell.c ****         shellWriteString(shell, "$ ");
 519              		.loc 1 358 9 view .LVU122
 358:ThirdParty/Letter-shell/Src/shell.c ****         shellWriteString(shell, "$ ");
 520              		.loc 1 358 44 is_stmt 0 view .LVU123
 521 0024 A168     		ldr	r1, [r4, #8]
 358:ThirdParty/Letter-shell/Src/shell.c ****         shellWriteString(shell, "$ ");
 522              		.loc 1 358 9 view .LVU124
 523 0026 094B     		ldr	r3, .L43+8
 524 0028 2046     		mov	r0, r4
 525 002a 0029     		cmp	r1, #0
 526 002c 08BF     		it	eq
 527 002e 1946     		moveq	r1, r3
 528 0030 FFF7FEFF 		bl	shellWriteString
 529              	.LVL39:
 359:ThirdParty/Letter-shell/Src/shell.c ****     }
 530              		.loc 1 359 9 is_stmt 1 view .LVU125
 531 0034 0649     		ldr	r1, .L43+12
 532 0036 2046     		mov	r0, r4
 533              	.LVL40:
 534              	.L42:
 359:ThirdParty/Letter-shell/Src/shell.c ****     }
 535              		.loc 1 359 9 is_stmt 0 view .LVU126
 536              	.LBE24:
 537              	.LBE23:
 365:ThirdParty/Letter-shell/Src/shell.c **** 
 538              		.loc 1 365 1 view .LVU127
 539 0038 BDE81040 		pop	{r4, lr}
 540              	.LCFI10:
 541              		.cfi_remember_state
 542              		.cfi_restore 14
 543              		.cfi_restore 4
 544              		.cfi_def_cfa_offset 0
 545              	.LVL41:
 363:ThirdParty/Letter-shell/Src/shell.c ****     }
 546              		.loc 1 363 9 view .LVU128
 547 003c FFF7FEBF 		b	shellWriteString
 548              	.LVL42:
 549              	.L39:
 550              	.LCFI11:
 551              		.cfi_restore_state
 363:ThirdParty/Letter-shell/Src/shell.c ****     }
ARM GAS  C:\Users\CL\AppData\Local\Temp\ccoMTeCk.s 			page 46


 552              		.loc 1 363 9 is_stmt 1 view .LVU129
 553 0040 0449     		ldr	r1, .L43+16
 554 0042 F9E7     		b	.L42
 555              	.L44:
 556              		.align	2
 557              	.L43:
 558 0044 02000000 		.word	.LC2
 559 0048 05000000 		.word	.LC3
 560 004c 00000000 		.word	.LC1
 561 0050 07000000 		.word	.LC4
 562 0054 0A000000 		.word	.LC5
 563              		.cfi_endproc
 564              	.LFE73:
 566              		.section	.text.shellPrint,"ax",%progbits
 567              		.align	1
 568              		.global	shellPrint
 569              		.syntax unified
 570              		.thumb
 571              		.thumb_func
 573              	shellPrint:
 574              	.LVL43:
 575              	.LFB11:
 377:ThirdParty/Letter-shell/Src/shell.c ****     char buffer[SHELL_PRINT_BUFFER];
 576              		.loc 1 377 1 view -0
 577              		.cfi_startproc
 578              		@ args = 4, pretend = 12, frame = 304
 579              		@ frame_needed = 0, uses_anonymous_args = 1
 378:ThirdParty/Letter-shell/Src/shell.c ****     va_list vargs;
 580              		.loc 1 378 5 view .LVU131
 379:ThirdParty/Letter-shell/Src/shell.c ****     int len;
 581              		.loc 1 379 5 view .LVU132
 380:ThirdParty/Letter-shell/Src/shell.c **** 
 582              		.loc 1 380 5 view .LVU133
 382:ThirdParty/Letter-shell/Src/shell.c **** 
 583              		.loc 1 382 5 view .LVU134
 377:ThirdParty/Letter-shell/Src/shell.c ****     char buffer[SHELL_PRINT_BUFFER];
 584              		.loc 1 377 1 is_stmt 0 view .LVU135
 585 0000 0EB4     		push	{r1, r2, r3}
 586              	.LCFI12:
 587              		.cfi_def_cfa_offset 12
 588              		.cfi_offset 1, -12
 589              		.cfi_offset 2, -8
 590              		.cfi_offset 3, -4
 591 0002 10B5     		push	{r4, lr}
 592              	.LCFI13:
 593              		.cfi_def_cfa_offset 20
 594              		.cfi_offset 4, -20
 595              		.cfi_offset 14, -16
 382:ThirdParty/Letter-shell/Src/shell.c **** 
 596              		.loc 1 382 5 view .LVU136
 597 0004 0446     		mov	r4, r0
 377:ThirdParty/Letter-shell/Src/shell.c ****     char buffer[SHELL_PRINT_BUFFER];
 598              		.loc 1 377 1 view .LVU137
 599 0006 CDB0     		sub	sp, sp, #308
 600              	.LCFI14:
 601              		.cfi_def_cfa_offset 328
 382:ThirdParty/Letter-shell/Src/shell.c **** 
ARM GAS  C:\Users\CL\AppData\Local\Temp\ccoMTeCk.s 			page 47


 602              		.loc 1 382 5 view .LVU138
 603 0008 80B1     		cbz	r0, .L45
 382:ThirdParty/Letter-shell/Src/shell.c **** 
 604              		.loc 1 382 32 is_stmt 1 discriminator 2 view .LVU139
 384:ThirdParty/Letter-shell/Src/shell.c ****     len = vsnprintf(buffer, SHELL_PRINT_BUFFER, fmt, vargs);
 605              		.loc 1 384 5 discriminator 2 view .LVU140
 606 000a 50AB     		add	r3, sp, #320
 385:ThirdParty/Letter-shell/Src/shell.c ****     va_end(vargs);
 607              		.loc 1 385 11 is_stmt 0 discriminator 2 view .LVU141
 608 000c 4FF49671 		mov	r1, #300
 609 0010 4F9A     		ldr	r2, [sp, #316]
 384:ThirdParty/Letter-shell/Src/shell.c ****     len = vsnprintf(buffer, SHELL_PRINT_BUFFER, fmt, vargs);
 610              		.loc 1 384 5 discriminator 2 view .LVU142
 611 0012 0093     		str	r3, [sp]
 385:ThirdParty/Letter-shell/Src/shell.c ****     va_end(vargs);
 612              		.loc 1 385 5 is_stmt 1 discriminator 2 view .LVU143
 385:ThirdParty/Letter-shell/Src/shell.c ****     va_end(vargs);
 613              		.loc 1 385 11 is_stmt 0 discriminator 2 view .LVU144
 614 0014 01A8     		add	r0, sp, #4
 615 0016 FFF7FEFF 		bl	vsnprintf
 616              	.LVL44:
 386:ThirdParty/Letter-shell/Src/shell.c ****     if (len > SHELL_PRINT_BUFFER)
 617              		.loc 1 386 5 is_stmt 1 discriminator 2 view .LVU145
 387:ThirdParty/Letter-shell/Src/shell.c ****     {
 618              		.loc 1 387 5 discriminator 2 view .LVU146
 391:ThirdParty/Letter-shell/Src/shell.c **** }
 619              		.loc 1 391 5 discriminator 2 view .LVU147
 620 001a B0F5967F 		cmp	r0, #300
 621 001e A8BF     		it	ge
 622 0020 4FF49670 		movge	r0, #300
 623              	.LVL45:
 391:ThirdParty/Letter-shell/Src/shell.c **** }
 624              		.loc 1 391 5 is_stmt 0 discriminator 2 view .LVU148
 625 0024 81B2     		uxth	r1, r0
 626 0026 A36E     		ldr	r3, [r4, #104]
 627 0028 01A8     		add	r0, sp, #4
 628 002a 9847     		blx	r3
 629              	.LVL46:
 630              	.L45:
 392:ThirdParty/Letter-shell/Src/shell.c **** #endif
 631              		.loc 1 392 1 view .LVU149
 632 002c 4DB0     		add	sp, sp, #308
 633              	.LCFI15:
 634              		.cfi_def_cfa_offset 20
 635              		@ sp needed
 636 002e BDE81040 		pop	{r4, lr}
 637              	.LCFI16:
 638              		.cfi_restore 14
 639              		.cfi_restore 4
 640              		.cfi_def_cfa_offset 12
 641              	.LVL47:
 392:ThirdParty/Letter-shell/Src/shell.c **** #endif
 642              		.loc 1 392 1 view .LVU150
 643 0032 03B0     		add	sp, sp, #12
 644              	.LCFI17:
 645              		.cfi_restore 3
 646              		.cfi_restore 2
ARM GAS  C:\Users\CL\AppData\Local\Temp\ccoMTeCk.s 			page 48


 647              		.cfi_restore 1
 648              		.cfi_def_cfa_offset 0
 649 0034 7047     		bx	lr
 650              		.cfi_endproc
 651              	.LFE11:
 653              		.section	.text.shellCheckPermission,"ax",%progbits
 654              		.align	1
 655              		.global	shellCheckPermission
 656              		.syntax unified
 657              		.thumb
 658              		.thumb_func
 660              	shellCheckPermission:
 661              	.LVL48:
 662              	.LFB12:
 442:ThirdParty/Letter-shell/Src/shell.c ****     return ((!command->attr.attrs.permission
 663              		.loc 1 442 1 is_stmt 1 view -0
 664              		.cfi_startproc
 665              		@ args = 0, pretend = 0, frame = 0
 666              		@ frame_needed = 0, uses_anonymous_args = 0
 667              		@ link register save eliminated.
 443:ThirdParty/Letter-shell/Src/shell.c ****                 || command->attr.attrs.type == SHELL_TYPE_USER
 668              		.loc 1 443 5 view .LVU152
 443:ThirdParty/Letter-shell/Src/shell.c ****                 || command->attr.attrs.type == SHELL_TYPE_USER
 669              		.loc 1 443 34 is_stmt 0 view .LVU153
 670 0000 0A78     		ldrb	r2, [r1]	@ zero_extendqisi2
 450:ThirdParty/Letter-shell/Src/shell.c **** }
 671              		.loc 1 450 17 view .LVU154
 672 0002 4AB1     		cbz	r2, .L49
 444:ThirdParty/Letter-shell/Src/shell.c ****                 || (shell->info.user
 673              		.loc 1 444 45 view .LVU155
 674 0004 4B78     		ldrb	r3, [r1, #1]	@ zero_extendqisi2
 444:ThirdParty/Letter-shell/Src/shell.c ****                 || (shell->info.user
 675              		.loc 1 444 17 view .LVU156
 676 0006 03F00F03 		and	r3, r3, #15
 677 000a 082B     		cmp	r3, #8
 678 000c 04D0     		beq	.L49
 445:ThirdParty/Letter-shell/Src/shell.c ****                     && (command->attr.attrs.permission 
 679              		.loc 1 445 32 view .LVU157
 680 000e 0368     		ldr	r3, [r0]
 445:ThirdParty/Letter-shell/Src/shell.c ****                     && (command->attr.attrs.permission 
 681              		.loc 1 445 17 view .LVU158
 682 0010 63B1     		cbz	r3, .L52
 446:ThirdParty/Letter-shell/Src/shell.c ****                         & shell->info.user->attr.attrs.permission)))
 683              		.loc 1 446 21 view .LVU159
 684 0012 1B78     		ldrb	r3, [r3]	@ zero_extendqisi2
 685 0014 1A42     		tst	r2, r3
 686 0016 09D0     		beq	.L52
 687              	.L49:
 448:ThirdParty/Letter-shell/Src/shell.c ****                 || command->attr.attrs.enableUnchecked))
 688              		.loc 1 448 17 view .LVU160
 689 0018 90F86030 		ldrb	r3, [r0, #96]	@ zero_extendqisi2
 448:ThirdParty/Letter-shell/Src/shell.c ****                 || command->attr.attrs.enableUnchecked))
 690              		.loc 1 448 13 view .LVU161
 691 001c DB07     		lsls	r3, r3, #31
 692 001e 08D4     		bmi	.L53
 449:ThirdParty/Letter-shell/Src/shell.c ****             ? 0 : -1;
 693              		.loc 1 449 17 view .LVU162
ARM GAS  C:\Users\CL\AppData\Local\Temp\ccoMTeCk.s 			page 49


 694 0020 4878     		ldrb	r0, [r1, #1]	@ zero_extendqisi2
 695              	.LVL49:
 449:ThirdParty/Letter-shell/Src/shell.c ****             ? 0 : -1;
 696              		.loc 1 449 17 view .LVU163
 697 0022 80F01000 		eor	r0, r0, #16
 698 0026 40F30010 		sbfx	r0, r0, #4, #1
 699 002a 7047     		bx	lr
 700              	.LVL50:
 701              	.L52:
 450:ThirdParty/Letter-shell/Src/shell.c **** }
 702              		.loc 1 450 17 view .LVU164
 703 002c 4FF0FF30 		mov	r0, #-1
 704              	.LVL51:
 450:ThirdParty/Letter-shell/Src/shell.c **** }
 705              		.loc 1 450 17 view .LVU165
 706 0030 7047     		bx	lr
 707              	.LVL52:
 708              	.L53:
 450:ThirdParty/Letter-shell/Src/shell.c **** }
 709              		.loc 1 450 17 view .LVU166
 710 0032 0020     		movs	r0, #0
 711              	.LVL53:
 451:ThirdParty/Letter-shell/Src/shell.c **** 
 712              		.loc 1 451 1 view .LVU167
 713 0034 7047     		bx	lr
 714              		.cfi_endproc
 715              	.LFE12:
 717              		.section	.text.shellToHex,"ax",%progbits
 718              		.align	1
 719              		.global	shellToHex
 720              		.syntax unified
 721              		.thumb
 722              		.thumb_func
 724              	shellToHex:
 725              	.LVL54:
 726              	.LFB13:
 463:ThirdParty/Letter-shell/Src/shell.c ****     char byte;
 727              		.loc 1 463 1 is_stmt 1 view -0
 728              		.cfi_startproc
 729              		@ args = 0, pretend = 0, frame = 0
 730              		@ frame_needed = 0, uses_anonymous_args = 0
 731              		@ link register save eliminated.
 464:ThirdParty/Letter-shell/Src/shell.c ****     unsigned char i = 8;
 732              		.loc 1 464 5 view .LVU169
 465:ThirdParty/Letter-shell/Src/shell.c ****     buffer[8] = 0;
 733              		.loc 1 465 5 view .LVU170
 466:ThirdParty/Letter-shell/Src/shell.c ****     while (value)
 734              		.loc 1 466 5 view .LVU171
 466:ThirdParty/Letter-shell/Src/shell.c ****     while (value)
 735              		.loc 1 466 15 is_stmt 0 view .LVU172
 736 0000 0023     		movs	r3, #0
 737 0002 0B72     		strb	r3, [r1, #8]
 467:ThirdParty/Letter-shell/Src/shell.c ****     {
 738              		.loc 1 467 5 is_stmt 1 view .LVU173
 465:ThirdParty/Letter-shell/Src/shell.c ****     buffer[8] = 0;
 739              		.loc 1 465 19 is_stmt 0 view .LVU174
 740 0004 0823     		movs	r3, #8
ARM GAS  C:\Users\CL\AppData\Local\Temp\ccoMTeCk.s 			page 50


 741              	.LVL55:
 742              	.L61:
 467:ThirdParty/Letter-shell/Src/shell.c ****     {
 743              		.loc 1 467 11 is_stmt 1 view .LVU175
 744 0006 18B9     		cbnz	r0, .L64
 473:ThirdParty/Letter-shell/Src/shell.c **** }
 745              		.loc 1 473 5 view .LVU176
 473:ThirdParty/Letter-shell/Src/shell.c **** }
 746              		.loc 1 473 14 is_stmt 0 view .LVU177
 747 0008 C3F10800 		rsb	r0, r3, #8
 748              	.LVL56:
 474:ThirdParty/Letter-shell/Src/shell.c **** 
 749              		.loc 1 474 1 view .LVU178
 750 000c 40B2     		sxtb	r0, r0
 751 000e 7047     		bx	lr
 752              	.LVL57:
 753              	.L64:
 469:ThirdParty/Letter-shell/Src/shell.c ****         buffer[--i] = (byte > 9) ? (byte + 87) : (byte + 48);
 754              		.loc 1 469 9 is_stmt 1 view .LVU179
 469:ThirdParty/Letter-shell/Src/shell.c ****         buffer[--i] = (byte > 9) ? (byte + 87) : (byte + 48);
 755              		.loc 1 469 14 is_stmt 0 view .LVU180
 756 0010 00F00F02 		and	r2, r0, #15
 757              	.LVL58:
 470:ThirdParty/Letter-shell/Src/shell.c ****         value >>= 4;
 758              		.loc 1 470 9 is_stmt 1 view .LVU181
 470:ThirdParty/Letter-shell/Src/shell.c ****         value >>= 4;
 759              		.loc 1 470 21 is_stmt 0 view .LVU182
 760 0014 013B     		subs	r3, r3, #1
 761              	.LVL59:
 470:ThirdParty/Letter-shell/Src/shell.c ****         value >>= 4;
 762              		.loc 1 470 21 view .LVU183
 763 0016 092A     		cmp	r2, #9
 764 0018 DBB2     		uxtb	r3, r3
 765              	.LVL60:
 470:ThirdParty/Letter-shell/Src/shell.c ****         value >>= 4;
 766              		.loc 1 470 21 view .LVU184
 767 001a 8CBF     		ite	hi
 768 001c 5732     		addhi	r2, r2, #87
 769              	.LVL61:
 470:ThirdParty/Letter-shell/Src/shell.c ****         value >>= 4;
 770              		.loc 1 470 21 view .LVU185
 771 001e 3032     		addls	r2, r2, #48
 772 0020 CA54     		strb	r2, [r1, r3]
 471:ThirdParty/Letter-shell/Src/shell.c ****     }
 773              		.loc 1 471 9 is_stmt 1 view .LVU186
 471:ThirdParty/Letter-shell/Src/shell.c ****     }
 774              		.loc 1 471 15 is_stmt 0 view .LVU187
 775 0022 0009     		lsrs	r0, r0, #4
 776              	.LVL62:
 471:ThirdParty/Letter-shell/Src/shell.c ****     }
 777              		.loc 1 471 15 view .LVU188
 778 0024 EFE7     		b	.L61
 779              		.cfi_endproc
 780              	.LFE13:
 782              		.section	.text.shellGetCommandName,"ax",%progbits
 783              		.align	1
 784              		.syntax unified
ARM GAS  C:\Users\CL\AppData\Local\Temp\ccoMTeCk.s 			page 51


 785              		.thumb
 786              		.thumb_func
 788              	shellGetCommandName:
 789              	.LVL63:
 790              	.LFB17:
 562:ThirdParty/Letter-shell/Src/shell.c ****     static char buffer[9];
 791              		.loc 1 562 1 is_stmt 1 view -0
 792              		.cfi_startproc
 793              		@ args = 0, pretend = 0, frame = 0
 794              		@ frame_needed = 0, uses_anonymous_args = 0
 563:ThirdParty/Letter-shell/Src/shell.c ****     for (unsigned char i = 0; i < 9; i++)
 795              		.loc 1 563 5 view .LVU190
 564:ThirdParty/Letter-shell/Src/shell.c ****     {
 796              		.loc 1 564 5 view .LVU191
 797              	.LBB29:
 564:ThirdParty/Letter-shell/Src/shell.c ****     {
 798              		.loc 1 564 10 view .LVU192
 564:ThirdParty/Letter-shell/Src/shell.c ****     {
 799              		.loc 1 564 31 view .LVU193
 566:ThirdParty/Letter-shell/Src/shell.c ****     }
 800              		.loc 1 566 19 is_stmt 0 view .LVU194
 801 0000 0A49     		ldr	r1, .L70
 802              	.LBE29:
 562:ThirdParty/Letter-shell/Src/shell.c ****     static char buffer[9];
 803              		.loc 1 562 1 view .LVU195
 804 0002 08B5     		push	{r3, lr}
 805              	.LCFI18:
 806              		.cfi_def_cfa_offset 8
 807              		.cfi_offset 3, -8
 808              		.cfi_offset 14, -4
 809              	.LBB30:
 566:ThirdParty/Letter-shell/Src/shell.c ****     }
 810              		.loc 1 566 19 view .LVU196
 811 0004 4FF03033 		mov	r3, #808464432
 812 0008 0B60     		str	r3, [r1]	@ unaligned
 813 000a 4B60     		str	r3, [r1, #4]	@ unaligned
 814 000c 0B72     		strb	r3, [r1, #8]
 815              	.LVL64:
 566:ThirdParty/Letter-shell/Src/shell.c ****     }
 816              		.loc 1 566 19 view .LVU197
 817              	.LBE30:
 568:ThirdParty/Letter-shell/Src/shell.c ****     {
 818              		.loc 1 568 5 is_stmt 1 view .LVU198
 568:ThirdParty/Letter-shell/Src/shell.c ****     {
 819              		.loc 1 568 28 is_stmt 0 view .LVU199
 820 000e 4378     		ldrb	r3, [r0, #1]	@ zero_extendqisi2
 570:ThirdParty/Letter-shell/Src/shell.c ****     }
 821              		.loc 1 570 33 view .LVU200
 822 0010 4068     		ldr	r0, [r0, #4]
 823              	.LVL65:
 568:ThirdParty/Letter-shell/Src/shell.c ****     {
 824              		.loc 1 568 28 view .LVU201
 825 0012 03F00F03 		and	r3, r3, #15
 568:ThirdParty/Letter-shell/Src/shell.c ****     {
 826              		.loc 1 568 8 view .LVU202
 827 0016 012B     		cmp	r3, #1
 828 0018 06D9     		bls	.L65
ARM GAS  C:\Users\CL\AppData\Local\Temp\ccoMTeCk.s 			page 52


 572:ThirdParty/Letter-shell/Src/shell.c ****     {
 829              		.loc 1 572 10 is_stmt 1 view .LVU203
 572:ThirdParty/Letter-shell/Src/shell.c ****     {
 830              		.loc 1 572 13 is_stmt 0 view .LVU204
 831 001a 072B     		cmp	r3, #7
 832 001c 04D9     		bls	.L65
 576:ThirdParty/Letter-shell/Src/shell.c ****     {
 833              		.loc 1 576 10 is_stmt 1 view .LVU205
 576:ThirdParty/Letter-shell/Src/shell.c ****     {
 834              		.loc 1 576 13 is_stmt 0 view .LVU206
 835 001e 082B     		cmp	r3, #8
 836 0020 02D0     		beq	.L65
 837              	.LBB31:
 838              	.LBI31:
 561:ThirdParty/Letter-shell/Src/shell.c **** {
 839              		.loc 1 561 20 is_stmt 1 view .LVU207
 840              	.LVL66:
 841              	.LBB32:
 588:ThirdParty/Letter-shell/Src/shell.c ****         return buffer;
 842              		.loc 1 588 9 view .LVU208
 843 0022 FFF7FEFF 		bl	shellToHex
 844              	.LVL67:
 589:ThirdParty/Letter-shell/Src/shell.c ****     }
 845              		.loc 1 589 9 view .LVU209
 588:ThirdParty/Letter-shell/Src/shell.c ****         return buffer;
 846              		.loc 1 588 9 is_stmt 0 view .LVU210
 847 0026 0846     		mov	r0, r1
 848              	.L65:
 849              	.LBE32:
 850              	.LBE31:
 591:ThirdParty/Letter-shell/Src/shell.c **** 
 851              		.loc 1 591 1 view .LVU211
 852 0028 08BD     		pop	{r3, pc}
 853              	.L71:
 854 002a 00BF     		.align	2
 855              	.L70:
 856 002c 00000000 		.word	.LANCHOR1
 857              		.cfi_endproc
 858              	.LFE17:
 860              		.section	.text.shellToDec,"ax",%progbits
 861              		.align	1
 862              		.global	shellToDec
 863              		.syntax unified
 864              		.thumb
 865              		.thumb_func
 867              	shellToDec:
 868              	.LVL68:
 869              	.LFB14:
 486:ThirdParty/Letter-shell/Src/shell.c ****     unsigned char i = 11;
 870              		.loc 1 486 1 is_stmt 1 view -0
 871              		.cfi_startproc
 872              		@ args = 0, pretend = 0, frame = 0
 873              		@ frame_needed = 0, uses_anonymous_args = 0
 487:ThirdParty/Letter-shell/Src/shell.c ****     int v = value;
 874              		.loc 1 487 5 view .LVU213
 488:ThirdParty/Letter-shell/Src/shell.c ****     if (value < 0)
 875              		.loc 1 488 5 view .LVU214
ARM GAS  C:\Users\CL\AppData\Local\Temp\ccoMTeCk.s 			page 53


 489:ThirdParty/Letter-shell/Src/shell.c ****     {
 876              		.loc 1 489 5 view .LVU215
 493:ThirdParty/Letter-shell/Src/shell.c ****     while (v)
 877              		.loc 1 493 16 is_stmt 0 view .LVU216
 878 0000 0023     		movs	r3, #0
 879 0002 80EAE072 		eor	r2, r0, r0, asr #31
 486:ThirdParty/Letter-shell/Src/shell.c ****     unsigned char i = 11;
 880              		.loc 1 486 1 view .LVU217
 881 0006 30B5     		push	{r4, r5, lr}
 882              	.LCFI19:
 883              		.cfi_def_cfa_offset 12
 884              		.cfi_offset 4, -12
 885              		.cfi_offset 5, -8
 886              		.cfi_offset 14, -4
 493:ThirdParty/Letter-shell/Src/shell.c ****     while (v)
 887              		.loc 1 493 16 view .LVU218
 888 0008 CB72     		strb	r3, [r1, #11]
 889 000a A2EBE072 		sub	r2, r2, r0, asr #31
 890              	.LVL69:
 493:ThirdParty/Letter-shell/Src/shell.c ****     while (v)
 891              		.loc 1 493 5 is_stmt 1 view .LVU219
 494:ThirdParty/Letter-shell/Src/shell.c ****     {
 892              		.loc 1 494 5 view .LVU220
 487:ThirdParty/Letter-shell/Src/shell.c ****     int v = value;
 893              		.loc 1 487 19 is_stmt 0 view .LVU221
 894 000e 0B23     		movs	r3, #11
 496:ThirdParty/Letter-shell/Src/shell.c ****         v /= 10;
 895              		.loc 1 496 25 view .LVU222
 896 0010 0A24     		movs	r4, #10
 897              	.LVL70:
 898              	.L73:
 494:ThirdParty/Letter-shell/Src/shell.c ****     {
 899              		.loc 1 494 11 is_stmt 1 view .LVU223
 900 0012 4AB9     		cbnz	r2, .L74
 499:ThirdParty/Letter-shell/Src/shell.c ****     {
 901              		.loc 1 499 5 view .LVU224
 499:ThirdParty/Letter-shell/Src/shell.c ****     {
 902              		.loc 1 499 8 is_stmt 0 view .LVU225
 903 0014 0028     		cmp	r0, #0
 904 0016 11DA     		bge	.L75
 501:ThirdParty/Letter-shell/Src/shell.c ****     }
 905              		.loc 1 501 9 is_stmt 1 view .LVU226
 501:ThirdParty/Letter-shell/Src/shell.c ****     }
 906              		.loc 1 501 21 is_stmt 0 view .LVU227
 907 0018 013B     		subs	r3, r3, #1
 908              	.LVL71:
 501:ThirdParty/Letter-shell/Src/shell.c ****     }
 909              		.loc 1 501 21 view .LVU228
 910 001a DBB2     		uxtb	r3, r3
 911              	.LVL72:
 501:ThirdParty/Letter-shell/Src/shell.c ****     }
 912              		.loc 1 501 21 view .LVU229
 913 001c 2D22     		movs	r2, #45
 914              	.LVL73:
 915              	.L77:
 504:ThirdParty/Letter-shell/Src/shell.c ****     }
 916              		.loc 1 504 21 view .LVU230
ARM GAS  C:\Users\CL\AppData\Local\Temp\ccoMTeCk.s 			page 54


 917 001e CA54     		strb	r2, [r1, r3]
 918              	.L76:
 506:ThirdParty/Letter-shell/Src/shell.c **** }
 919              		.loc 1 506 5 is_stmt 1 view .LVU231
 506:ThirdParty/Letter-shell/Src/shell.c **** }
 920              		.loc 1 506 15 is_stmt 0 view .LVU232
 921 0020 C3F10B00 		rsb	r0, r3, #11
 922              	.LVL74:
 507:ThirdParty/Letter-shell/Src/shell.c **** 
 923              		.loc 1 507 1 view .LVU233
 924 0024 40B2     		sxtb	r0, r0
 925 0026 30BD     		pop	{r4, r5, pc}
 926              	.LVL75:
 927              	.L74:
 496:ThirdParty/Letter-shell/Src/shell.c ****         v /= 10;
 928              		.loc 1 496 9 is_stmt 1 view .LVU234
 496:ThirdParty/Letter-shell/Src/shell.c ****         v /= 10;
 929              		.loc 1 496 21 is_stmt 0 view .LVU235
 930 0028 013B     		subs	r3, r3, #1
 931              	.LVL76:
 496:ThirdParty/Letter-shell/Src/shell.c ****         v /= 10;
 932              		.loc 1 496 25 view .LVU236
 933 002a B2FBF4F5 		udiv	r5, r2, r4
 496:ThirdParty/Letter-shell/Src/shell.c ****         v /= 10;
 934              		.loc 1 496 21 view .LVU237
 935 002e DBB2     		uxtb	r3, r3
 936              	.LVL77:
 496:ThirdParty/Letter-shell/Src/shell.c ****         v /= 10;
 937              		.loc 1 496 25 view .LVU238
 938 0030 04FB1522 		mls	r2, r4, r5, r2
 939              	.LVL78:
 496:ThirdParty/Letter-shell/Src/shell.c ****         v /= 10;
 940              		.loc 1 496 30 view .LVU239
 941 0034 3032     		adds	r2, r2, #48
 496:ThirdParty/Letter-shell/Src/shell.c ****         v /= 10;
 942              		.loc 1 496 21 view .LVU240
 943 0036 CA54     		strb	r2, [r1, r3]
 497:ThirdParty/Letter-shell/Src/shell.c ****     }
 944              		.loc 1 497 9 is_stmt 1 view .LVU241
 497:ThirdParty/Letter-shell/Src/shell.c ****     }
 945              		.loc 1 497 11 is_stmt 0 view .LVU242
 946 0038 2A46     		mov	r2, r5
 947              	.LVL79:
 497:ThirdParty/Letter-shell/Src/shell.c ****     }
 948              		.loc 1 497 11 view .LVU243
 949 003a EAE7     		b	.L73
 950              	.L75:
 503:ThirdParty/Letter-shell/Src/shell.c ****         buffer[--i] = '0';
 951              		.loc 1 503 5 is_stmt 1 view .LVU244
 503:ThirdParty/Letter-shell/Src/shell.c ****         buffer[--i] = '0';
 952              		.loc 1 503 8 is_stmt 0 view .LVU245
 953 003c F0D1     		bne	.L76
 504:ThirdParty/Letter-shell/Src/shell.c ****     }
 954              		.loc 1 504 9 is_stmt 1 view .LVU246
 504:ThirdParty/Letter-shell/Src/shell.c ****     }
 955              		.loc 1 504 21 is_stmt 0 view .LVU247
 956 003e 013B     		subs	r3, r3, #1
ARM GAS  C:\Users\CL\AppData\Local\Temp\ccoMTeCk.s 			page 55


 957              	.LVL80:
 504:ThirdParty/Letter-shell/Src/shell.c ****     }
 958              		.loc 1 504 21 view .LVU248
 959 0040 DBB2     		uxtb	r3, r3
 960              	.LVL81:
 504:ThirdParty/Letter-shell/Src/shell.c ****     }
 961              		.loc 1 504 21 view .LVU249
 962 0042 3022     		movs	r2, #48
 963              	.LVL82:
 504:ThirdParty/Letter-shell/Src/shell.c ****     }
 964              		.loc 1 504 21 view .LVU250
 965 0044 EBE7     		b	.L77
 966              		.cfi_endproc
 967              	.LFE14:
 969              		.section	.rodata.shellWriteReturnValue.str1.1,"aMS",%progbits,1
 970              	.LC7:
 971 0000 52657475 		.ascii	"Return: \000"
 971      726E3A20 
 971      00
 972              	.LC8:
 973 0009 2C203078 		.ascii	", 0x\000"
 973      00
 974              	.LC6:
 975 000e 30303030 		.ascii	"00000000000\000"
 975      30303030 
 975      30303000 
 976              		.section	.text.shellWriteReturnValue,"ax",%progbits
 977              		.align	1
 978              		.syntax unified
 979              		.thumb
 980              		.thumb_func
 982              	shellWriteReturnValue:
 983              	.LVL83:
 984              	.LFB39:
1291:ThirdParty/Letter-shell/Src/shell.c ****     char buffer[12] = "00000000000";
 985              		.loc 1 1291 1 is_stmt 1 view -0
 986              		.cfi_startproc
 987              		@ args = 0, pretend = 0, frame = 16
 988              		@ frame_needed = 0, uses_anonymous_args = 0
1292:ThirdParty/Letter-shell/Src/shell.c ****     shellWriteString(shell, "Return: ");
 989              		.loc 1 1292 5 view .LVU252
1291:ThirdParty/Letter-shell/Src/shell.c ****     char buffer[12] = "00000000000";
 990              		.loc 1 1291 1 is_stmt 0 view .LVU253
 991 0000 30B5     		push	{r4, r5, lr}
 992              	.LCFI20:
 993              		.cfi_def_cfa_offset 12
 994              		.cfi_offset 4, -12
 995              		.cfi_offset 5, -8
 996              		.cfi_offset 14, -4
1292:ThirdParty/Letter-shell/Src/shell.c ****     shellWriteString(shell, "Return: ");
 997              		.loc 1 1292 10 view .LVU254
 998 0002 174A     		ldr	r2, .L79
1291:ThirdParty/Letter-shell/Src/shell.c ****     char buffer[12] = "00000000000";
 999              		.loc 1 1291 1 view .LVU255
 1000 0004 85B0     		sub	sp, sp, #20
 1001              	.LCFI21:
 1002              		.cfi_def_cfa_offset 32
ARM GAS  C:\Users\CL\AppData\Local\Temp\ccoMTeCk.s 			page 56


1291:ThirdParty/Letter-shell/Src/shell.c ****     char buffer[12] = "00000000000";
 1003              		.loc 1 1291 1 view .LVU256
 1004 0006 0446     		mov	r4, r0
 1005 0008 0D46     		mov	r5, r1
1292:ThirdParty/Letter-shell/Src/shell.c ****     shellWriteString(shell, "Return: ");
 1006              		.loc 1 1292 10 view .LVU257
 1007 000a 1068     		ldr	r0, [r2]	@ unaligned
 1008              	.LVL84:
1292:ThirdParty/Letter-shell/Src/shell.c ****     shellWriteString(shell, "Return: ");
 1009              		.loc 1 1292 10 view .LVU258
 1010 000c 5168     		ldr	r1, [r2, #4]	@ unaligned
 1011              	.LVL85:
1292:ThirdParty/Letter-shell/Src/shell.c ****     shellWriteString(shell, "Return: ");
 1012              		.loc 1 1292 10 view .LVU259
 1013 000e 01AB     		add	r3, sp, #4
 1014 0010 03C3     		stmia	r3!, {r0, r1}
 1015 0012 9068     		ldr	r0, [r2, #8]	@ unaligned
 1016 0014 1860     		str	r0, [r3]
1293:ThirdParty/Letter-shell/Src/shell.c ****     shellWriteString(shell, &buffer[11 - shellToDec(value, buffer)]);
 1017              		.loc 1 1293 5 is_stmt 1 view .LVU260
 1018 0016 1349     		ldr	r1, .L79+4
 1019 0018 2046     		mov	r0, r4
 1020 001a FFF7FEFF 		bl	shellWriteString
 1021              	.LVL86:
1294:ThirdParty/Letter-shell/Src/shell.c ****     shellWriteString(shell, ", 0x");
 1022              		.loc 1 1294 5 view .LVU261
1294:ThirdParty/Letter-shell/Src/shell.c ****     shellWriteString(shell, ", 0x");
 1023              		.loc 1 1294 42 is_stmt 0 view .LVU262
 1024 001e 01A9     		add	r1, sp, #4
 1025 0020 2846     		mov	r0, r5
 1026 0022 FFF7FEFF 		bl	shellToDec
 1027              	.LVL87:
1294:ThirdParty/Letter-shell/Src/shell.c ****     shellWriteString(shell, ", 0x");
 1028              		.loc 1 1294 40 view .LVU263
 1029 0026 C0F10B00 		rsb	r0, r0, #11
1294:ThirdParty/Letter-shell/Src/shell.c ****     shellWriteString(shell, ", 0x");
 1030              		.loc 1 1294 5 view .LVU264
 1031 002a 0144     		add	r1, r1, r0
 1032 002c 2046     		mov	r0, r4
 1033 002e FFF7FEFF 		bl	shellWriteString
 1034              	.LVL88:
1295:ThirdParty/Letter-shell/Src/shell.c ****     for (short i = 0; i < 11; i++)
 1035              		.loc 1 1295 5 is_stmt 1 view .LVU265
 1036 0032 0D49     		ldr	r1, .L79+8
 1037 0034 2046     		mov	r0, r4
 1038 0036 FFF7FEFF 		bl	shellWriteString
 1039              	.LVL89:
1296:ThirdParty/Letter-shell/Src/shell.c ****     {
 1040              		.loc 1 1296 5 view .LVU266
 1041              	.LBB33:
1296:ThirdParty/Letter-shell/Src/shell.c ****     {
 1042              		.loc 1 1296 10 view .LVU267
1296:ThirdParty/Letter-shell/Src/shell.c ****     {
 1043              		.loc 1 1296 23 view .LVU268
1298:ThirdParty/Letter-shell/Src/shell.c ****     }
 1044              		.loc 1 1298 19 is_stmt 0 view .LVU269
 1045 003a 4FF03033 		mov	r3, #808464432
ARM GAS  C:\Users\CL\AppData\Local\Temp\ccoMTeCk.s 			page 57


 1046              	.LBE33:
1300:ThirdParty/Letter-shell/Src/shell.c ****     shellWriteString(shell, buffer);
 1047              		.loc 1 1300 5 view .LVU270
 1048 003e 01A9     		add	r1, sp, #4
 1049 0040 2846     		mov	r0, r5
 1050              	.LBB34:
1298:ThirdParty/Letter-shell/Src/shell.c ****     }
 1051              		.loc 1 1298 19 view .LVU271
 1052 0042 CDE90133 		strd	r3, r3, [sp, #4]
 1053 0046 CDF80B30 		str	r3, [sp, #11]	@ unaligned
 1054              	.LVL90:
1298:ThirdParty/Letter-shell/Src/shell.c ****     }
 1055              		.loc 1 1298 19 view .LVU272
 1056              	.LBE34:
1300:ThirdParty/Letter-shell/Src/shell.c ****     shellWriteString(shell, buffer);
 1057              		.loc 1 1300 5 is_stmt 1 view .LVU273
 1058 004a FFF7FEFF 		bl	shellToHex
 1059              	.LVL91:
1301:ThirdParty/Letter-shell/Src/shell.c ****     shellWriteString(shell, "\r\n");
 1060              		.loc 1 1301 5 view .LVU274
 1061 004e 2046     		mov	r0, r4
 1062 0050 FFF7FEFF 		bl	shellWriteString
 1063              	.LVL92:
1302:ThirdParty/Letter-shell/Src/shell.c **** #if SHELL_KEEP_RETURN_VALUE == 1
 1064              		.loc 1 1302 5 view .LVU275
 1065 0054 0549     		ldr	r1, .L79+12
 1066 0056 2046     		mov	r0, r4
 1067 0058 FFF7FEFF 		bl	shellWriteString
 1068              	.LVL93:
1306:ThirdParty/Letter-shell/Src/shell.c **** 
 1069              		.loc 1 1306 1 is_stmt 0 view .LVU276
 1070 005c 05B0     		add	sp, sp, #20
 1071              	.LCFI22:
 1072              		.cfi_def_cfa_offset 12
 1073              		@ sp needed
 1074 005e 30BD     		pop	{r4, r5, pc}
 1075              	.LVL94:
 1076              	.L80:
1306:ThirdParty/Letter-shell/Src/shell.c **** 
 1077              		.loc 1 1306 1 view .LVU277
 1078              		.align	2
 1079              	.L79:
 1080 0060 0E000000 		.word	.LC6
 1081 0064 00000000 		.word	.LC7
 1082 0068 09000000 		.word	.LC8
 1083 006c 02000000 		.word	.LC2
 1084              		.cfi_endproc
 1085              	.LFE39:
 1087              		.section	.rodata.shellListItem.str1.1,"aMS",%progbits,1
 1088              	.LC9:
 1089 0000 434D4420 		.ascii	"CMD \000"
 1089      00
 1090              	.LC10:
 1091 0005 56415220 		.ascii	"VAR \000"
 1091      00
 1092              	.LC11:
 1093 000a 55534552 		.ascii	"USER\000"
ARM GAS  C:\Users\CL\AppData\Local\Temp\ccoMTeCk.s 			page 58


 1093      00
 1094              	.LC12:
 1095 000f 4B455920 		.ascii	"KEY \000"
 1095      00
 1096              	.LC13:
 1097 0014 4E4F4E45 		.ascii	"NONE\000"
 1097      00
 1098              	.LC14:
 1099 0019 202000   		.ascii	"  \000"
 1100              	.LC15:
 1101 001c 2E2E2E00 		.ascii	"...\000"
 1102              		.section	.text.shellListItem,"ax",%progbits
 1103              		.align	1
 1104              		.global	shellListItem
 1105              		.syntax unified
 1106              		.thumb
 1107              		.thumb_func
 1109              	shellListItem:
 1110              	.LVL95:
 1111              	.LFB19:
 627:ThirdParty/Letter-shell/Src/shell.c ****     short spaceLength;
 1112              		.loc 1 627 1 is_stmt 1 view -0
 1113              		.cfi_startproc
 1114              		@ args = 0, pretend = 0, frame = 0
 1115              		@ frame_needed = 0, uses_anonymous_args = 0
 628:ThirdParty/Letter-shell/Src/shell.c **** 
 1116              		.loc 1 628 5 view .LVU279
 630:ThirdParty/Letter-shell/Src/shell.c ****     spaceLength = (spaceLength > 0) ? spaceLength : 4;
 1117              		.loc 1 630 5 view .LVU280
 627:ThirdParty/Letter-shell/Src/shell.c ****     short spaceLength;
 1118              		.loc 1 627 1 is_stmt 0 view .LVU281
 1119 0000 70B5     		push	{r4, r5, r6, lr}
 1120              	.LCFI23:
 1121              		.cfi_def_cfa_offset 16
 1122              		.cfi_offset 4, -16
 1123              		.cfi_offset 5, -12
 1124              		.cfi_offset 6, -8
 1125              		.cfi_offset 14, -4
 627:ThirdParty/Letter-shell/Src/shell.c ****     short spaceLength;
 1126              		.loc 1 627 1 view .LVU282
 1127 0002 0446     		mov	r4, r0
 630:ThirdParty/Letter-shell/Src/shell.c ****     spaceLength = (spaceLength > 0) ? spaceLength : 4;
 1128              		.loc 1 630 24 view .LVU283
 1129 0004 0846     		mov	r0, r1
 1130              	.LVL96:
 627:ThirdParty/Letter-shell/Src/shell.c ****     short spaceLength;
 1131              		.loc 1 627 1 view .LVU284
 1132 0006 0E46     		mov	r6, r1
 630:ThirdParty/Letter-shell/Src/shell.c ****     spaceLength = (spaceLength > 0) ? spaceLength : 4;
 1133              		.loc 1 630 24 view .LVU285
 1134 0008 FFF7FEFF 		bl	shellGetCommandName
 1135              	.LVL97:
 630:ThirdParty/Letter-shell/Src/shell.c ****     spaceLength = (spaceLength > 0) ? spaceLength : 4;
 1136              		.loc 1 630 24 view .LVU286
 1137 000c 0146     		mov	r1, r0
 1138 000e 2046     		mov	r0, r4
 1139 0010 FFF7FEFF 		bl	shellWriteString
ARM GAS  C:\Users\CL\AppData\Local\Temp\ccoMTeCk.s 			page 59


 1140              	.LVL98:
 630:ThirdParty/Letter-shell/Src/shell.c ****     spaceLength = (spaceLength > 0) ? spaceLength : 4;
 1141              		.loc 1 630 22 view .LVU287
 1142 0014 C0F11600 		rsb	r0, r0, #22
 630:ThirdParty/Letter-shell/Src/shell.c ****     spaceLength = (spaceLength > 0) ? spaceLength : 4;
 1143              		.loc 1 630 17 view .LVU288
 1144 0018 05B2     		sxth	r5, r0
 1145              	.LVL99:
 631:ThirdParty/Letter-shell/Src/shell.c ****     do {
 1146              		.loc 1 631 5 is_stmt 1 view .LVU289
 631:ThirdParty/Letter-shell/Src/shell.c ****     do {
 1147              		.loc 1 631 17 is_stmt 0 view .LVU290
 1148 001a 002D     		cmp	r5, #0
 1149 001c D8BF     		it	le
 1150 001e 0425     		movle	r5, #4
 1151              	.LVL100:
 1152              	.L83:
 632:ThirdParty/Letter-shell/Src/shell.c ****         shellWriteByte(shell, ' ');
 1153              		.loc 1 632 5 is_stmt 1 discriminator 1 view .LVU291
 633:ThirdParty/Letter-shell/Src/shell.c ****     } while (--spaceLength);
 1154              		.loc 1 633 9 discriminator 1 view .LVU292
 1155 0020 013D     		subs	r5, r5, #1
 1156              	.LVL101:
 633:ThirdParty/Letter-shell/Src/shell.c ****     } while (--spaceLength);
 1157              		.loc 1 633 9 is_stmt 0 discriminator 1 view .LVU293
 1158 0022 A06E     		ldr	r0, [r4, #104]
 1159 0024 2021     		movs	r1, #32
 1160 0026 FFF7FEFF 		bl	shellWriteByte.isra.0
 1161              	.LVL102:
 634:ThirdParty/Letter-shell/Src/shell.c ****     if (item->attr.attrs.type <= SHELL_TYPE_CMD_FUNC)
 1162              		.loc 1 634 13 is_stmt 1 discriminator 1 view .LVU294
 1163 002a ABB2     		uxth	r3, r5
 1164 002c 2DB2     		sxth	r5, r5
 1165              	.LVL103:
 634:ThirdParty/Letter-shell/Src/shell.c ****     if (item->attr.attrs.type <= SHELL_TYPE_CMD_FUNC)
 1166              		.loc 1 634 5 is_stmt 0 discriminator 1 view .LVU295
 1167 002e 002B     		cmp	r3, #0
 1168 0030 F6D1     		bne	.L83
 635:ThirdParty/Letter-shell/Src/shell.c ****     {
 1169              		.loc 1 635 5 is_stmt 1 view .LVU296
 635:ThirdParty/Letter-shell/Src/shell.c ****     {
 1170              		.loc 1 635 25 is_stmt 0 view .LVU297
 1171 0032 7378     		ldrb	r3, [r6, #1]	@ zero_extendqisi2
 1172 0034 03F00F03 		and	r3, r3, #15
 635:ThirdParty/Letter-shell/Src/shell.c ****     {
 1173              		.loc 1 635 8 view .LVU298
 1174 0038 012B     		cmp	r3, #1
 1175 003a 36D8     		bhi	.L84
 637:ThirdParty/Letter-shell/Src/shell.c ****     }
 1176              		.loc 1 637 9 is_stmt 1 view .LVU299
 1177 003c 2249     		ldr	r1, .L106
 1178              	.L105:
 653:ThirdParty/Letter-shell/Src/shell.c ****     }
 1179              		.loc 1 653 9 is_stmt 0 view .LVU300
 1180 003e 2046     		mov	r0, r4
 1181 0040 FFF7FEFF 		bl	shellWriteString
 1182              	.LVL104:
ARM GAS  C:\Users\CL\AppData\Local\Temp\ccoMTeCk.s 			page 60


 656:ThirdParty/Letter-shell/Src/shell.c ****     for (signed char i = 7; i >= 0; i--)
 1183              		.loc 1 656 5 is_stmt 1 view .LVU301
 1184 0044 2149     		ldr	r1, .L106+4
 1185 0046 2046     		mov	r0, r4
 1186 0048 FFF7FEFF 		bl	shellWriteString
 1187              	.LVL105:
 657:ThirdParty/Letter-shell/Src/shell.c ****     {
 1188              		.loc 1 657 5 view .LVU302
 1189              	.LBB40:
 657:ThirdParty/Letter-shell/Src/shell.c ****     {
 1190              		.loc 1 657 10 view .LVU303
 657:ThirdParty/Letter-shell/Src/shell.c ****     {
 1191              		.loc 1 657 29 view .LVU304
 1192              	.LBE40:
 656:ThirdParty/Letter-shell/Src/shell.c ****     for (signed char i = 7; i >= 0; i--)
 1193              		.loc 1 656 5 is_stmt 0 view .LVU305
 1194 004c 0725     		movs	r5, #7
 1195              	.LVL106:
 1196              	.L90:
 1197              	.LBB41:
 659:ThirdParty/Letter-shell/Src/shell.c ****     }
 1198              		.loc 1 659 9 is_stmt 1 view .LVU306
 659:ThirdParty/Letter-shell/Src/shell.c ****     }
 1199              		.loc 1 659 47 is_stmt 0 view .LVU307
 1200 004e 3378     		ldrb	r3, [r6]	@ zero_extendqisi2
 659:ThirdParty/Letter-shell/Src/shell.c ****     }
 1201              		.loc 1 659 9 view .LVU308
 1202 0050 A06E     		ldr	r0, [r4, #104]
 659:ThirdParty/Letter-shell/Src/shell.c ****     }
 1203              		.loc 1 659 70 view .LVU309
 1204 0052 2B41     		asrs	r3, r3, r5
 659:ThirdParty/Letter-shell/Src/shell.c ****     }
 1205              		.loc 1 659 9 view .LVU310
 1206 0054 13F0010F 		tst	r3, #1
 1207 0058 14BF     		ite	ne
 1208 005a 7821     		movne	r1, #120
 1209 005c 2D21     		moveq	r1, #45
 1210 005e FFF7FEFF 		bl	shellWriteByte.isra.0
 1211              	.LVL107:
 657:ThirdParty/Letter-shell/Src/shell.c ****     {
 1212              		.loc 1 657 37 is_stmt 1 view .LVU311
 657:ThirdParty/Letter-shell/Src/shell.c ****     {
 1213              		.loc 1 657 29 view .LVU312
 657:ThirdParty/Letter-shell/Src/shell.c ****     {
 1214              		.loc 1 657 5 is_stmt 0 view .LVU313
 1215 0062 013D     		subs	r5, r5, #1
 1216              	.LVL108:
 657:ThirdParty/Letter-shell/Src/shell.c ****     {
 1217              		.loc 1 657 5 view .LVU314
 1218 0064 F3D2     		bcs	.L90
 1219              	.LBE41:
 662:ThirdParty/Letter-shell/Src/shell.c ****     shellWriteCommandDesc(shell, shellGetCommandDesc(item));
 1220              		.loc 1 662 5 is_stmt 1 view .LVU315
 1221 0066 1949     		ldr	r1, .L106+4
 1222 0068 2046     		mov	r0, r4
 1223 006a FFF7FEFF 		bl	shellWriteString
 1224              	.LVL109:
ARM GAS  C:\Users\CL\AppData\Local\Temp\ccoMTeCk.s 			page 61


 663:ThirdParty/Letter-shell/Src/shell.c ****     shellWriteString(shell, "\r\n");
 1225              		.loc 1 663 5 view .LVU316
 1226              	.LBB42:
 1227              	.LBI42:
 600:ThirdParty/Letter-shell/Src/shell.c **** {
 1228              		.loc 1 600 20 view .LVU317
 1229              	.LBB43:
 602:ThirdParty/Letter-shell/Src/shell.c ****     {
 1230              		.loc 1 602 5 view .LVU318
 1231              	.LBE43:
 1232              	.LBE42:
 1233              	.LBB45:
 1234              	.LBB46:
 321:ThirdParty/Letter-shell/Src/shell.c ****     while (*p && *p != '\r' && *p != '\n')
 1235              		.loc 1 321 5 is_stmt 0 view .LVU319
 1236 006e A56E     		ldr	r5, [r4, #104]
 1237              	.LBE46:
 1238              	.LBE45:
 1239              	.LBB49:
 1240              	.LBB44:
 604:ThirdParty/Letter-shell/Src/shell.c ****     }
 1241              		.loc 1 604 33 view .LVU320
 1242 0070 F068     		ldr	r0, [r6, #12]
 1243              	.LVL110:
 604:ThirdParty/Letter-shell/Src/shell.c ****     }
 1244              		.loc 1 604 33 view .LVU321
 1245              	.LBE44:
 1246              	.LBE49:
 1247              	.LBB50:
 1248              	.LBI45:
 317:ThirdParty/Letter-shell/Src/shell.c **** {
 1249              		.loc 1 317 23 is_stmt 1 view .LVU322
 1250              	.LBB47:
 319:ThirdParty/Letter-shell/Src/shell.c ****     const char *p = string;
 1251              		.loc 1 319 5 view .LVU323
 320:ThirdParty/Letter-shell/Src/shell.c ****     SHELL_ASSERT(shell->write, return 0);
 1252              		.loc 1 320 5 view .LVU324
 321:ThirdParty/Letter-shell/Src/shell.c ****     while (*p && *p != '\r' && *p != '\n')
 1253              		.loc 1 321 5 view .LVU325
 1254 0072 A5B1     		cbz	r5, .L93
 1255 0074 0023     		movs	r3, #0
 322:ThirdParty/Letter-shell/Src/shell.c ****     {
 1256              		.loc 1 322 11 is_stmt 0 view .LVU326
 1257 0076 42F20146 		movw	r6, #9217
 1258              	.LVL111:
 1259              	.L97:
 322:ThirdParty/Letter-shell/Src/shell.c ****     {
 1260              		.loc 1 322 12 view .LVU327
 1261 007a C25C     		ldrb	r2, [r0, r3]	@ zero_extendqisi2
 322:ThirdParty/Letter-shell/Src/shell.c ****     {
 1262              		.loc 1 322 11 view .LVU328
 1263 007c 0D2A     		cmp	r2, #13
 1264 007e 99B2     		uxth	r1, r3
 1265              	.LVL112:
 322:ThirdParty/Letter-shell/Src/shell.c ****     {
 1266              		.loc 1 322 11 is_stmt 1 view .LVU329
 1267 0080 03F10103 		add	r3, r3, #1
ARM GAS  C:\Users\CL\AppData\Local\Temp\ccoMTeCk.s 			page 62


 1268              	.LVL113:
 322:ThirdParty/Letter-shell/Src/shell.c ****     {
 1269              		.loc 1 322 11 is_stmt 0 view .LVU330
 1270 0084 F9D8     		bhi	.L97
 1271 0086 26FA02F2 		lsr	r2, r6, r2
 1272 008a D207     		lsls	r2, r2, #31
 1273 008c F5D5     		bpl	.L97
 328:ThirdParty/Letter-shell/Src/shell.c ****     {
 1274              		.loc 1 328 5 is_stmt 1 view .LVU331
 328:ThirdParty/Letter-shell/Src/shell.c ****     {
 1275              		.loc 1 328 8 is_stmt 0 view .LVU332
 1276 008e 2429     		cmp	r1, #36
 1277 0090 18D9     		bls	.L98
 330:ThirdParty/Letter-shell/Src/shell.c ****         shell->write("...", 3);
 1278              		.loc 1 330 9 is_stmt 1 view .LVU333
 1279 0092 2421     		movs	r1, #36
 1280              	.LVL114:
 330:ThirdParty/Letter-shell/Src/shell.c ****         shell->write("...", 3);
 1281              		.loc 1 330 9 is_stmt 0 view .LVU334
 1282 0094 A847     		blx	r5
 1283              	.LVL115:
 331:ThirdParty/Letter-shell/Src/shell.c ****     }
 1284              		.loc 1 331 9 is_stmt 1 view .LVU335
 1285 0096 A36E     		ldr	r3, [r4, #104]
 1286 0098 0D48     		ldr	r0, .L106+8
 1287 009a 0321     		movs	r1, #3
 1288 009c 9847     		blx	r3
 1289              	.LVL116:
 337:ThirdParty/Letter-shell/Src/shell.c **** }
 1290              		.loc 1 337 5 view .LVU336
 1291              	.L93:
 337:ThirdParty/Letter-shell/Src/shell.c **** }
 1292              		.loc 1 337 5 is_stmt 0 view .LVU337
 1293              	.LBE47:
 1294              	.LBE50:
 664:ThirdParty/Letter-shell/Src/shell.c **** }
 1295              		.loc 1 664 5 is_stmt 1 view .LVU338
 1296 009e 2046     		mov	r0, r4
 1297 00a0 0C49     		ldr	r1, .L106+12
 665:ThirdParty/Letter-shell/Src/shell.c **** 
 1298              		.loc 1 665 1 is_stmt 0 view .LVU339
 1299 00a2 BDE87040 		pop	{r4, r5, r6, lr}
 1300              	.LCFI24:
 1301              		.cfi_remember_state
 1302              		.cfi_restore 14
 1303              		.cfi_restore 6
 1304              		.cfi_restore 5
 1305              		.cfi_restore 4
 1306              		.cfi_def_cfa_offset 0
 1307              	.LVL117:
 664:ThirdParty/Letter-shell/Src/shell.c **** }
 1308              		.loc 1 664 5 view .LVU340
 1309 00a6 FFF7FEBF 		b	shellWriteString
 1310              	.LVL118:
 1311              	.L84:
 1312              	.LCFI25:
 1313              		.cfi_restore_state
ARM GAS  C:\Users\CL\AppData\Local\Temp\ccoMTeCk.s 			page 63


 639:ThirdParty/Letter-shell/Src/shell.c ****     {
 1314              		.loc 1 639 10 is_stmt 1 view .LVU341
 639:ThirdParty/Letter-shell/Src/shell.c ****     {
 1315              		.loc 1 639 13 is_stmt 0 view .LVU342
 1316 00aa 072B     		cmp	r3, #7
 1317 00ac 01D8     		bhi	.L86
 641:ThirdParty/Letter-shell/Src/shell.c ****     }
 1318              		.loc 1 641 9 is_stmt 1 view .LVU343
 1319 00ae 0A49     		ldr	r1, .L106+16
 1320 00b0 C5E7     		b	.L105
 1321              	.L86:
 643:ThirdParty/Letter-shell/Src/shell.c ****     {
 1322              		.loc 1 643 10 view .LVU344
 643:ThirdParty/Letter-shell/Src/shell.c ****     {
 1323              		.loc 1 643 13 is_stmt 0 view .LVU345
 1324 00b2 082B     		cmp	r3, #8
 1325 00b4 01D1     		bne	.L87
 645:ThirdParty/Letter-shell/Src/shell.c ****     }
 1326              		.loc 1 645 9 is_stmt 1 view .LVU346
 1327 00b6 0949     		ldr	r1, .L106+20
 1328 00b8 C1E7     		b	.L105
 1329              	.L87:
 647:ThirdParty/Letter-shell/Src/shell.c ****     {
 1330              		.loc 1 647 10 view .LVU347
 647:ThirdParty/Letter-shell/Src/shell.c ****     {
 1331              		.loc 1 647 13 is_stmt 0 view .LVU348
 1332 00ba 092B     		cmp	r3, #9
 649:ThirdParty/Letter-shell/Src/shell.c ****     }
 1333              		.loc 1 649 9 is_stmt 1 view .LVU349
 1334 00bc 0CBF     		ite	eq
 1335 00be 0849     		ldreq	r1, .L106+24
 653:ThirdParty/Letter-shell/Src/shell.c ****     }
 1336              		.loc 1 653 9 view .LVU350
 1337 00c0 0849     		ldrne	r1, .L106+28
 1338 00c2 BCE7     		b	.L105
 1339              	.LVL119:
 1340              	.L98:
 1341              	.LBB51:
 1342              	.LBB48:
 335:ThirdParty/Letter-shell/Src/shell.c ****     }
 1343              		.loc 1 335 9 view .LVU351
 1344 00c4 A847     		blx	r5
 1345              	.LVL120:
 337:ThirdParty/Letter-shell/Src/shell.c **** }
 1346              		.loc 1 337 5 view .LVU352
 1347 00c6 EAE7     		b	.L93
 1348              	.L107:
 1349              		.align	2
 1350              	.L106:
 1351 00c8 00000000 		.word	.LC9
 1352 00cc 19000000 		.word	.LC14
 1353 00d0 1C000000 		.word	.LC15
 1354 00d4 02000000 		.word	.LC2
 1355 00d8 05000000 		.word	.LC10
 1356 00dc 0A000000 		.word	.LC11
 1357 00e0 0F000000 		.word	.LC12
 1358 00e4 14000000 		.word	.LC13
ARM GAS  C:\Users\CL\AppData\Local\Temp\ccoMTeCk.s 			page 64


 1359              	.LBE48:
 1360              	.LBE51:
 1361              		.cfi_endproc
 1362              	.LFE19:
 1364              		.section	.rodata.shellListCommand.str1.1,"aMS",%progbits,1
 1365              	.LC16:
 1366 0000 0D0A436F 		.ascii	"\015\012Command List:\015\012\000"
 1366      6D6D616E 
 1366      64204C69 
 1366      73743A0D 
 1366      0A00
 1367              		.section	.text.shellListCommand,"ax",%progbits
 1368              		.align	1
 1369              		.global	shellListCommand
 1370              		.syntax unified
 1371              		.thumb
 1372              		.thumb_func
 1374              	shellListCommand:
 1375              	.LVL121:
 1376              	.LFB20:
 674:ThirdParty/Letter-shell/Src/shell.c ****     ShellCommand *base = (ShellCommand *)shell->commandList.base;
 1377              		.loc 1 674 1 view -0
 1378              		.cfi_startproc
 1379              		@ args = 0, pretend = 0, frame = 0
 1380              		@ frame_needed = 0, uses_anonymous_args = 0
 675:ThirdParty/Letter-shell/Src/shell.c ****     shellWriteString(shell, shellText[SHELL_TEXT_CMD_LIST]);
 1381              		.loc 1 675 5 view .LVU354
 674:ThirdParty/Letter-shell/Src/shell.c ****     ShellCommand *base = (ShellCommand *)shell->commandList.base;
 1382              		.loc 1 674 1 is_stmt 0 view .LVU355
 1383 0000 70B5     		push	{r4, r5, r6, lr}
 1384              	.LCFI26:
 1385              		.cfi_def_cfa_offset 16
 1386              		.cfi_offset 4, -16
 1387              		.cfi_offset 5, -12
 1388              		.cfi_offset 6, -8
 1389              		.cfi_offset 14, -4
 676:ThirdParty/Letter-shell/Src/shell.c ****     for (short i = 0; i < shell->commandList.count; i++)
 1390              		.loc 1 676 5 view .LVU356
 1391 0002 0E49     		ldr	r1, .L112
 675:ThirdParty/Letter-shell/Src/shell.c ****     shellWriteString(shell, shellText[SHELL_TEXT_CMD_LIST]);
 1392              		.loc 1 675 19 view .LVU357
 1393 0004 866D     		ldr	r6, [r0, #88]
 1394              	.LVL122:
 676:ThirdParty/Letter-shell/Src/shell.c ****     for (short i = 0; i < shell->commandList.count; i++)
 1395              		.loc 1 676 5 is_stmt 1 view .LVU358
 674:ThirdParty/Letter-shell/Src/shell.c ****     ShellCommand *base = (ShellCommand *)shell->commandList.base;
 1396              		.loc 1 674 1 is_stmt 0 view .LVU359
 1397 0006 0446     		mov	r4, r0
 676:ThirdParty/Letter-shell/Src/shell.c ****     for (short i = 0; i < shell->commandList.count; i++)
 1398              		.loc 1 676 5 view .LVU360
 1399 0008 FFF7FEFF 		bl	shellWriteString
 1400              	.LVL123:
 677:ThirdParty/Letter-shell/Src/shell.c ****     {
 1401              		.loc 1 677 5 is_stmt 1 view .LVU361
 1402              	.LBB52:
 677:ThirdParty/Letter-shell/Src/shell.c ****     {
 1403              		.loc 1 677 10 view .LVU362
ARM GAS  C:\Users\CL\AppData\Local\Temp\ccoMTeCk.s 			page 65


 677:ThirdParty/Letter-shell/Src/shell.c ****     {
 1404              		.loc 1 677 5 is_stmt 0 view .LVU363
 1405 000c 0025     		movs	r5, #0
 1406              	.LVL124:
 1407              	.L109:
 677:ThirdParty/Letter-shell/Src/shell.c ****     {
 1408              		.loc 1 677 45 discriminator 1 view .LVU364
 1409 000e B4F85C30 		ldrh	r3, [r4, #92]
 1410 0012 29B2     		sxth	r1, r5
 1411              	.LVL125:
 677:ThirdParty/Letter-shell/Src/shell.c ****     {
 1412              		.loc 1 677 23 is_stmt 1 discriminator 1 view .LVU365
 677:ThirdParty/Letter-shell/Src/shell.c ****     {
 1413              		.loc 1 677 5 is_stmt 0 discriminator 1 view .LVU366
 1414 0014 9942     		cmp	r1, r3
 1415 0016 00DB     		blt	.L111
 1416              	.LBE52:
 685:ThirdParty/Letter-shell/Src/shell.c **** 
 1417              		.loc 1 685 1 view .LVU367
 1418 0018 70BD     		pop	{r4, r5, r6, pc}
 1419              	.LVL126:
 1420              	.L111:
 1421              	.LBB53:
 679:ThirdParty/Letter-shell/Src/shell.c ****             && shellCheckPermission(shell, &base[i]) == 0)
 1422              		.loc 1 679 9 is_stmt 1 view .LVU368
 679:ThirdParty/Letter-shell/Src/shell.c ****             && shellCheckPermission(shell, &base[i]) == 0)
 1423              		.loc 1 679 17 is_stmt 0 view .LVU369
 1424 001a 06EB0111 		add	r1, r6, r1, lsl #4
 1425              	.LVL127:
 679:ThirdParty/Letter-shell/Src/shell.c ****             && shellCheckPermission(shell, &base[i]) == 0)
 1426              		.loc 1 679 31 view .LVU370
 1427 001e 4B78     		ldrb	r3, [r1, #1]	@ zero_extendqisi2
 679:ThirdParty/Letter-shell/Src/shell.c ****             && shellCheckPermission(shell, &base[i]) == 0)
 1428              		.loc 1 679 12 view .LVU371
 1429 0020 03F00F03 		and	r3, r3, #15
 1430 0024 012B     		cmp	r3, #1
 1431 0026 06D8     		bhi	.L110
 680:ThirdParty/Letter-shell/Src/shell.c ****         {
 1432              		.loc 1 680 16 view .LVU372
 1433 0028 2046     		mov	r0, r4
 1434 002a FFF7FEFF 		bl	shellCheckPermission
 1435              	.LVL128:
 680:ThirdParty/Letter-shell/Src/shell.c ****         {
 1436              		.loc 1 680 13 view .LVU373
 1437 002e 10B9     		cbnz	r0, .L110
 682:ThirdParty/Letter-shell/Src/shell.c ****         }
 1438              		.loc 1 682 13 is_stmt 1 view .LVU374
 1439 0030 2046     		mov	r0, r4
 1440 0032 FFF7FEFF 		bl	shellListItem
 1441              	.LVL129:
 1442              	.L110:
 677:ThirdParty/Letter-shell/Src/shell.c ****     {
 1443              		.loc 1 677 53 discriminator 2 view .LVU375
 677:ThirdParty/Letter-shell/Src/shell.c ****     {
 1444              		.loc 1 677 53 is_stmt 0 discriminator 2 view .LVU376
 1445 0036 0135     		adds	r5, r5, #1
 1446              	.LVL130:
ARM GAS  C:\Users\CL\AppData\Local\Temp\ccoMTeCk.s 			page 66


 677:ThirdParty/Letter-shell/Src/shell.c ****     {
 1447              		.loc 1 677 53 discriminator 2 view .LVU377
 1448 0038 E9E7     		b	.L109
 1449              	.L113:
 1450 003a 00BF     		.align	2
 1451              	.L112:
 1452 003c 00000000 		.word	.LC16
 1453              	.LBE53:
 1454              		.cfi_endproc
 1455              	.LFE20:
 1457              		.section	.text.shellCmds,"ax",%progbits
 1458              		.align	1
 1459              		.global	shellCmds
 1460              		.syntax unified
 1461              		.thumb
 1462              		.thumb_func
 1464              	shellCmds:
 1465              	.LFB57:
1872:ThirdParty/Letter-shell/Src/shell.c ****     Shell *shell = shellGetCurrent();
 1466              		.loc 1 1872 1 is_stmt 1 view -0
 1467              		.cfi_startproc
 1468              		@ args = 0, pretend = 0, frame = 0
 1469              		@ frame_needed = 0, uses_anonymous_args = 0
1873:ThirdParty/Letter-shell/Src/shell.c ****     if (shell)
 1470              		.loc 1 1873 5 view .LVU379
1872:ThirdParty/Letter-shell/Src/shell.c ****     Shell *shell = shellGetCurrent();
 1471              		.loc 1 1872 1 is_stmt 0 view .LVU380
 1472 0000 08B5     		push	{r3, lr}
 1473              	.LCFI27:
 1474              		.cfi_def_cfa_offset 8
 1475              		.cfi_offset 3, -8
 1476              		.cfi_offset 14, -4
1873:ThirdParty/Letter-shell/Src/shell.c ****     if (shell)
 1477              		.loc 1 1873 20 view .LVU381
 1478 0002 FFF7FEFF 		bl	shellGetCurrent
 1479              	.LVL131:
1874:ThirdParty/Letter-shell/Src/shell.c ****     {
 1480              		.loc 1 1874 5 is_stmt 1 view .LVU382
1874:ThirdParty/Letter-shell/Src/shell.c ****     {
 1481              		.loc 1 1874 8 is_stmt 0 view .LVU383
 1482 0006 18B1     		cbz	r0, .L114
1876:ThirdParty/Letter-shell/Src/shell.c ****     }
 1483              		.loc 1 1876 9 is_stmt 1 view .LVU384
1878:ThirdParty/Letter-shell/Src/shell.c **** SHELL_EXPORT_CMD(
 1484              		.loc 1 1878 1 is_stmt 0 view .LVU385
 1485 0008 BDE80840 		pop	{r3, lr}
 1486              	.LCFI28:
 1487              		.cfi_remember_state
 1488              		.cfi_restore 14
 1489              		.cfi_restore 3
 1490              		.cfi_def_cfa_offset 0
1876:ThirdParty/Letter-shell/Src/shell.c ****     }
 1491              		.loc 1 1876 9 view .LVU386
 1492 000c FFF7FEBF 		b	shellListCommand
 1493              	.LVL132:
 1494              	.L114:
 1495              	.LCFI29:
ARM GAS  C:\Users\CL\AppData\Local\Temp\ccoMTeCk.s 			page 67


 1496              		.cfi_restore_state
1878:ThirdParty/Letter-shell/Src/shell.c **** SHELL_EXPORT_CMD(
 1497              		.loc 1 1878 1 view .LVU387
 1498 0010 08BD     		pop	{r3, pc}
 1499              		.cfi_endproc
 1500              	.LFE57:
 1502              		.section	.rodata.shellListVar.str1.1,"aMS",%progbits,1
 1503              	.LC17:
 1504 0000 0D0A5661 		.ascii	"\015\012Var List:\015\012\000"
 1504      72204C69 
 1504      73743A0D 
 1504      0A00
 1505              		.section	.text.shellListVar,"ax",%progbits
 1506              		.align	1
 1507              		.global	shellListVar
 1508              		.syntax unified
 1509              		.thumb
 1510              		.thumb_func
 1512              	shellListVar:
 1513              	.LVL133:
 1514              	.LFB21:
 694:ThirdParty/Letter-shell/Src/shell.c ****     ShellCommand *base = (ShellCommand *)shell->commandList.base;
 1515              		.loc 1 694 1 is_stmt 1 view -0
 1516              		.cfi_startproc
 1517              		@ args = 0, pretend = 0, frame = 0
 1518              		@ frame_needed = 0, uses_anonymous_args = 0
 695:ThirdParty/Letter-shell/Src/shell.c ****     shellWriteString(shell, shellText[SHELL_TEXT_VAR_LIST]);
 1519              		.loc 1 695 5 view .LVU389
 694:ThirdParty/Letter-shell/Src/shell.c ****     ShellCommand *base = (ShellCommand *)shell->commandList.base;
 1520              		.loc 1 694 1 is_stmt 0 view .LVU390
 1521 0000 70B5     		push	{r4, r5, r6, lr}
 1522              	.LCFI30:
 1523              		.cfi_def_cfa_offset 16
 1524              		.cfi_offset 4, -16
 1525              		.cfi_offset 5, -12
 1526              		.cfi_offset 6, -8
 1527              		.cfi_offset 14, -4
 696:ThirdParty/Letter-shell/Src/shell.c ****     for (short i = 0; i < shell->commandList.count; i++)
 1528              		.loc 1 696 5 view .LVU391
 1529 0002 0E49     		ldr	r1, .L120
 695:ThirdParty/Letter-shell/Src/shell.c ****     shellWriteString(shell, shellText[SHELL_TEXT_VAR_LIST]);
 1530              		.loc 1 695 19 view .LVU392
 1531 0004 866D     		ldr	r6, [r0, #88]
 1532              	.LVL134:
 696:ThirdParty/Letter-shell/Src/shell.c ****     for (short i = 0; i < shell->commandList.count; i++)
 1533              		.loc 1 696 5 is_stmt 1 view .LVU393
 694:ThirdParty/Letter-shell/Src/shell.c ****     ShellCommand *base = (ShellCommand *)shell->commandList.base;
 1534              		.loc 1 694 1 is_stmt 0 view .LVU394
 1535 0006 0446     		mov	r4, r0
 696:ThirdParty/Letter-shell/Src/shell.c ****     for (short i = 0; i < shell->commandList.count; i++)
 1536              		.loc 1 696 5 view .LVU395
 1537 0008 FFF7FEFF 		bl	shellWriteString
 1538              	.LVL135:
 697:ThirdParty/Letter-shell/Src/shell.c ****     {
 1539              		.loc 1 697 5 is_stmt 1 view .LVU396
 1540              	.LBB54:
 697:ThirdParty/Letter-shell/Src/shell.c ****     {
ARM GAS  C:\Users\CL\AppData\Local\Temp\ccoMTeCk.s 			page 68


 1541              		.loc 1 697 10 view .LVU397
 697:ThirdParty/Letter-shell/Src/shell.c ****     {
 1542              		.loc 1 697 5 is_stmt 0 view .LVU398
 1543 000c 0025     		movs	r5, #0
 1544              	.LVL136:
 1545              	.L117:
 697:ThirdParty/Letter-shell/Src/shell.c ****     {
 1546              		.loc 1 697 45 discriminator 1 view .LVU399
 1547 000e B4F85C30 		ldrh	r3, [r4, #92]
 1548 0012 29B2     		sxth	r1, r5
 1549              	.LVL137:
 697:ThirdParty/Letter-shell/Src/shell.c ****     {
 1550              		.loc 1 697 23 is_stmt 1 discriminator 1 view .LVU400
 697:ThirdParty/Letter-shell/Src/shell.c ****     {
 1551              		.loc 1 697 5 is_stmt 0 discriminator 1 view .LVU401
 1552 0014 9942     		cmp	r1, r3
 1553 0016 00DB     		blt	.L119
 1554              	.LBE54:
 706:ThirdParty/Letter-shell/Src/shell.c **** 
 1555              		.loc 1 706 1 view .LVU402
 1556 0018 70BD     		pop	{r4, r5, r6, pc}
 1557              	.LVL138:
 1558              	.L119:
 1559              	.LBB55:
 699:ThirdParty/Letter-shell/Src/shell.c ****             && base[i].attr.attrs.type <= SHELL_TYPE_VAR_NODE
 1560              		.loc 1 699 9 is_stmt 1 view .LVU403
 699:ThirdParty/Letter-shell/Src/shell.c ****             && base[i].attr.attrs.type <= SHELL_TYPE_VAR_NODE
 1561              		.loc 1 699 17 is_stmt 0 view .LVU404
 1562 001a 06EB0111 		add	r1, r6, r1, lsl #4
 1563              	.LVL139:
 699:ThirdParty/Letter-shell/Src/shell.c ****             && base[i].attr.attrs.type <= SHELL_TYPE_VAR_NODE
 1564              		.loc 1 699 31 view .LVU405
 1565 001e 4B78     		ldrb	r3, [r1, #1]	@ zero_extendqisi2
 700:ThirdParty/Letter-shell/Src/shell.c ****             && shellCheckPermission(shell, &base[i]) == 0)
 1566              		.loc 1 700 13 view .LVU406
 1567 0020 0E33     		adds	r3, r3, #14
 699:ThirdParty/Letter-shell/Src/shell.c ****             && base[i].attr.attrs.type <= SHELL_TYPE_VAR_NODE
 1568              		.loc 1 699 12 view .LVU407
 1569 0022 03F00F03 		and	r3, r3, #15
 1570 0026 052B     		cmp	r3, #5
 1571 0028 06D8     		bhi	.L118
 701:ThirdParty/Letter-shell/Src/shell.c ****         {
 1572              		.loc 1 701 16 view .LVU408
 1573 002a 2046     		mov	r0, r4
 1574 002c FFF7FEFF 		bl	shellCheckPermission
 1575              	.LVL140:
 701:ThirdParty/Letter-shell/Src/shell.c ****         {
 1576              		.loc 1 701 13 view .LVU409
 1577 0030 10B9     		cbnz	r0, .L118
 703:ThirdParty/Letter-shell/Src/shell.c ****         }
 1578              		.loc 1 703 13 is_stmt 1 view .LVU410
 1579 0032 2046     		mov	r0, r4
 1580 0034 FFF7FEFF 		bl	shellListItem
 1581              	.LVL141:
 1582              	.L118:
 697:ThirdParty/Letter-shell/Src/shell.c ****     {
 1583              		.loc 1 697 53 discriminator 2 view .LVU411
ARM GAS  C:\Users\CL\AppData\Local\Temp\ccoMTeCk.s 			page 69


 697:ThirdParty/Letter-shell/Src/shell.c ****     {
 1584              		.loc 1 697 53 is_stmt 0 discriminator 2 view .LVU412
 1585 0038 0135     		adds	r5, r5, #1
 1586              	.LVL142:
 697:ThirdParty/Letter-shell/Src/shell.c ****     {
 1587              		.loc 1 697 53 discriminator 2 view .LVU413
 1588 003a E8E7     		b	.L117
 1589              	.L121:
 1590              		.align	2
 1591              	.L120:
 1592 003c 00000000 		.word	.LC17
 1593              	.LBE55:
 1594              		.cfi_endproc
 1595              	.LFE21:
 1597              		.section	.text.shellVars,"ax",%progbits
 1598              		.align	1
 1599              		.global	shellVars
 1600              		.syntax unified
 1601              		.thumb
 1602              		.thumb_func
 1604              	shellVars:
 1605              	.LFB58:
1888:ThirdParty/Letter-shell/Src/shell.c ****     Shell *shell = shellGetCurrent();
 1606              		.loc 1 1888 1 is_stmt 1 view -0
 1607              		.cfi_startproc
 1608              		@ args = 0, pretend = 0, frame = 0
 1609              		@ frame_needed = 0, uses_anonymous_args = 0
1889:ThirdParty/Letter-shell/Src/shell.c ****     if (shell)
 1610              		.loc 1 1889 5 view .LVU415
1888:ThirdParty/Letter-shell/Src/shell.c ****     Shell *shell = shellGetCurrent();
 1611              		.loc 1 1888 1 is_stmt 0 view .LVU416
 1612 0000 08B5     		push	{r3, lr}
 1613              	.LCFI31:
 1614              		.cfi_def_cfa_offset 8
 1615              		.cfi_offset 3, -8
 1616              		.cfi_offset 14, -4
1889:ThirdParty/Letter-shell/Src/shell.c ****     if (shell)
 1617              		.loc 1 1889 20 view .LVU417
 1618 0002 FFF7FEFF 		bl	shellGetCurrent
 1619              	.LVL143:
1890:ThirdParty/Letter-shell/Src/shell.c ****     {
 1620              		.loc 1 1890 5 is_stmt 1 view .LVU418
1890:ThirdParty/Letter-shell/Src/shell.c ****     {
 1621              		.loc 1 1890 8 is_stmt 0 view .LVU419
 1622 0006 18B1     		cbz	r0, .L122
1892:ThirdParty/Letter-shell/Src/shell.c ****     }
 1623              		.loc 1 1892 9 is_stmt 1 view .LVU420
1894:ThirdParty/Letter-shell/Src/shell.c **** SHELL_EXPORT_CMD(
 1624              		.loc 1 1894 1 is_stmt 0 view .LVU421
 1625 0008 BDE80840 		pop	{r3, lr}
 1626              	.LCFI32:
 1627              		.cfi_remember_state
 1628              		.cfi_restore 14
 1629              		.cfi_restore 3
 1630              		.cfi_def_cfa_offset 0
1892:ThirdParty/Letter-shell/Src/shell.c ****     }
 1631              		.loc 1 1892 9 view .LVU422
ARM GAS  C:\Users\CL\AppData\Local\Temp\ccoMTeCk.s 			page 70


 1632 000c FFF7FEBF 		b	shellListVar
 1633              	.LVL144:
 1634              	.L122:
 1635              	.LCFI33:
 1636              		.cfi_restore_state
1894:ThirdParty/Letter-shell/Src/shell.c **** SHELL_EXPORT_CMD(
 1637              		.loc 1 1894 1 view .LVU423
 1638 0010 08BD     		pop	{r3, pc}
 1639              		.cfi_endproc
 1640              	.LFE58:
 1642              		.section	.rodata.shellListUser.str1.1,"aMS",%progbits,1
 1643              	.LC18:
 1644 0000 0D0A5573 		.ascii	"\015\012User List:\015\012\000"
 1644      6572204C 
 1644      6973743A 
 1644      0D0A00
 1645              		.section	.text.shellListUser,"ax",%progbits
 1646              		.align	1
 1647              		.global	shellListUser
 1648              		.syntax unified
 1649              		.thumb
 1650              		.thumb_func
 1652              	shellListUser:
 1653              	.LVL145:
 1654              	.LFB22:
 715:ThirdParty/Letter-shell/Src/shell.c ****     ShellCommand *base = (ShellCommand *)shell->commandList.base;
 1655              		.loc 1 715 1 is_stmt 1 view -0
 1656              		.cfi_startproc
 1657              		@ args = 0, pretend = 0, frame = 0
 1658              		@ frame_needed = 0, uses_anonymous_args = 0
 716:ThirdParty/Letter-shell/Src/shell.c ****     shellWriteString(shell, shellText[SHELL_TEXT_USER_LIST]);
 1659              		.loc 1 716 5 view .LVU425
 715:ThirdParty/Letter-shell/Src/shell.c ****     ShellCommand *base = (ShellCommand *)shell->commandList.base;
 1660              		.loc 1 715 1 is_stmt 0 view .LVU426
 1661 0000 70B5     		push	{r4, r5, r6, lr}
 1662              	.LCFI34:
 1663              		.cfi_def_cfa_offset 16
 1664              		.cfi_offset 4, -16
 1665              		.cfi_offset 5, -12
 1666              		.cfi_offset 6, -8
 1667              		.cfi_offset 14, -4
 717:ThirdParty/Letter-shell/Src/shell.c ****     for (short i = 0; i < shell->commandList.count; i++)
 1668              		.loc 1 717 5 view .LVU427
 1669 0002 0E49     		ldr	r1, .L128
 716:ThirdParty/Letter-shell/Src/shell.c ****     shellWriteString(shell, shellText[SHELL_TEXT_USER_LIST]);
 1670              		.loc 1 716 19 view .LVU428
 1671 0004 866D     		ldr	r6, [r0, #88]
 1672              	.LVL146:
 717:ThirdParty/Letter-shell/Src/shell.c ****     for (short i = 0; i < shell->commandList.count; i++)
 1673              		.loc 1 717 5 is_stmt 1 view .LVU429
 715:ThirdParty/Letter-shell/Src/shell.c ****     ShellCommand *base = (ShellCommand *)shell->commandList.base;
 1674              		.loc 1 715 1 is_stmt 0 view .LVU430
 1675 0006 0446     		mov	r4, r0
 717:ThirdParty/Letter-shell/Src/shell.c ****     for (short i = 0; i < shell->commandList.count; i++)
 1676              		.loc 1 717 5 view .LVU431
 1677 0008 FFF7FEFF 		bl	shellWriteString
 1678              	.LVL147:
ARM GAS  C:\Users\CL\AppData\Local\Temp\ccoMTeCk.s 			page 71


 718:ThirdParty/Letter-shell/Src/shell.c ****     {
 1679              		.loc 1 718 5 is_stmt 1 view .LVU432
 1680              	.LBB56:
 718:ThirdParty/Letter-shell/Src/shell.c ****     {
 1681              		.loc 1 718 10 view .LVU433
 718:ThirdParty/Letter-shell/Src/shell.c ****     {
 1682              		.loc 1 718 5 is_stmt 0 view .LVU434
 1683 000c 0025     		movs	r5, #0
 1684              	.LVL148:
 1685              	.L125:
 718:ThirdParty/Letter-shell/Src/shell.c ****     {
 1686              		.loc 1 718 45 discriminator 1 view .LVU435
 1687 000e B4F85C30 		ldrh	r3, [r4, #92]
 1688 0012 29B2     		sxth	r1, r5
 1689              	.LVL149:
 718:ThirdParty/Letter-shell/Src/shell.c ****     {
 1690              		.loc 1 718 23 is_stmt 1 discriminator 1 view .LVU436
 718:ThirdParty/Letter-shell/Src/shell.c ****     {
 1691              		.loc 1 718 5 is_stmt 0 discriminator 1 view .LVU437
 1692 0014 9942     		cmp	r1, r3
 1693 0016 00DB     		blt	.L127
 1694              	.LBE56:
 727:ThirdParty/Letter-shell/Src/shell.c **** 
 1695              		.loc 1 727 1 view .LVU438
 1696 0018 70BD     		pop	{r4, r5, r6, pc}
 1697              	.LVL150:
 1698              	.L127:
 1699              	.LBB57:
 720:ThirdParty/Letter-shell/Src/shell.c ****             && base[i].attr.attrs.type <= SHELL_TYPE_USER
 1700              		.loc 1 720 9 is_stmt 1 view .LVU439
 720:ThirdParty/Letter-shell/Src/shell.c ****             && base[i].attr.attrs.type <= SHELL_TYPE_USER
 1701              		.loc 1 720 17 is_stmt 0 view .LVU440
 1702 001a 06EB0111 		add	r1, r6, r1, lsl #4
 1703              	.LVL151:
 721:ThirdParty/Letter-shell/Src/shell.c ****             && shellCheckPermission(shell, &base[i]) == 0)
 1704              		.loc 1 721 13 view .LVU441
 1705 001e 4B78     		ldrb	r3, [r1, #1]	@ zero_extendqisi2
 720:ThirdParty/Letter-shell/Src/shell.c ****             && base[i].attr.attrs.type <= SHELL_TYPE_USER
 1706              		.loc 1 720 12 view .LVU442
 1707 0020 03F00F03 		and	r3, r3, #15
 1708 0024 082B     		cmp	r3, #8
 1709 0026 06D1     		bne	.L126
 722:ThirdParty/Letter-shell/Src/shell.c ****         {
 1710              		.loc 1 722 16 view .LVU443
 1711 0028 2046     		mov	r0, r4
 1712 002a FFF7FEFF 		bl	shellCheckPermission
 1713              	.LVL152:
 722:ThirdParty/Letter-shell/Src/shell.c ****         {
 1714              		.loc 1 722 13 view .LVU444
 1715 002e 10B9     		cbnz	r0, .L126
 724:ThirdParty/Letter-shell/Src/shell.c ****         }
 1716              		.loc 1 724 13 is_stmt 1 view .LVU445
 1717 0030 2046     		mov	r0, r4
 1718 0032 FFF7FEFF 		bl	shellListItem
 1719              	.LVL153:
 1720              	.L126:
 718:ThirdParty/Letter-shell/Src/shell.c ****     {
ARM GAS  C:\Users\CL\AppData\Local\Temp\ccoMTeCk.s 			page 72


 1721              		.loc 1 718 53 discriminator 2 view .LVU446
 718:ThirdParty/Letter-shell/Src/shell.c ****     {
 1722              		.loc 1 718 53 is_stmt 0 discriminator 2 view .LVU447
 1723 0036 0135     		adds	r5, r5, #1
 1724              	.LVL154:
 718:ThirdParty/Letter-shell/Src/shell.c ****     {
 1725              		.loc 1 718 53 discriminator 2 view .LVU448
 1726 0038 E9E7     		b	.L125
 1727              	.L129:
 1728 003a 00BF     		.align	2
 1729              	.L128:
 1730 003c 00000000 		.word	.LC18
 1731              	.LBE57:
 1732              		.cfi_endproc
 1733              	.LFE22:
 1735              		.section	.text.shellUsers,"ax",%progbits
 1736              		.align	1
 1737              		.global	shellUsers
 1738              		.syntax unified
 1739              		.thumb
 1740              		.thumb_func
 1742              	shellUsers:
 1743              	.LFB56:
1856:ThirdParty/Letter-shell/Src/shell.c ****     Shell *shell = shellGetCurrent();
 1744              		.loc 1 1856 1 is_stmt 1 view -0
 1745              		.cfi_startproc
 1746              		@ args = 0, pretend = 0, frame = 0
 1747              		@ frame_needed = 0, uses_anonymous_args = 0
1857:ThirdParty/Letter-shell/Src/shell.c ****     if (shell)
 1748              		.loc 1 1857 5 view .LVU450
1856:ThirdParty/Letter-shell/Src/shell.c ****     Shell *shell = shellGetCurrent();
 1749              		.loc 1 1856 1 is_stmt 0 view .LVU451
 1750 0000 08B5     		push	{r3, lr}
 1751              	.LCFI35:
 1752              		.cfi_def_cfa_offset 8
 1753              		.cfi_offset 3, -8
 1754              		.cfi_offset 14, -4
1857:ThirdParty/Letter-shell/Src/shell.c ****     if (shell)
 1755              		.loc 1 1857 20 view .LVU452
 1756 0002 FFF7FEFF 		bl	shellGetCurrent
 1757              	.LVL155:
1858:ThirdParty/Letter-shell/Src/shell.c ****     {
 1758              		.loc 1 1858 5 is_stmt 1 view .LVU453
1858:ThirdParty/Letter-shell/Src/shell.c ****     {
 1759              		.loc 1 1858 8 is_stmt 0 view .LVU454
 1760 0006 18B1     		cbz	r0, .L130
1860:ThirdParty/Letter-shell/Src/shell.c ****     }
 1761              		.loc 1 1860 9 is_stmt 1 view .LVU455
1862:ThirdParty/Letter-shell/Src/shell.c **** SHELL_EXPORT_CMD(
 1762              		.loc 1 1862 1 is_stmt 0 view .LVU456
 1763 0008 BDE80840 		pop	{r3, lr}
 1764              	.LCFI36:
 1765              		.cfi_remember_state
 1766              		.cfi_restore 14
 1767              		.cfi_restore 3
 1768              		.cfi_def_cfa_offset 0
1860:ThirdParty/Letter-shell/Src/shell.c ****     }
ARM GAS  C:\Users\CL\AppData\Local\Temp\ccoMTeCk.s 			page 73


 1769              		.loc 1 1860 9 view .LVU457
 1770 000c FFF7FEBF 		b	shellListUser
 1771              	.LVL156:
 1772              	.L130:
 1773              	.LCFI37:
 1774              		.cfi_restore_state
1862:ThirdParty/Letter-shell/Src/shell.c **** SHELL_EXPORT_CMD(
 1775              		.loc 1 1862 1 view .LVU458
 1776 0010 08BD     		pop	{r3, pc}
 1777              		.cfi_endproc
 1778              	.LFE56:
 1780              		.section	.rodata.shellListKey.str1.1,"aMS",%progbits,1
 1781              	.LC19:
 1782 0000 0D0A4B65 		.ascii	"\015\012Key List:\015\012\000"
 1782      79204C69 
 1782      73743A0D 
 1782      0A00
 1783              		.section	.text.shellListKey,"ax",%progbits
 1784              		.align	1
 1785              		.global	shellListKey
 1786              		.syntax unified
 1787              		.thumb
 1788              		.thumb_func
 1790              	shellListKey:
 1791              	.LVL157:
 1792              	.LFB23:
 736:ThirdParty/Letter-shell/Src/shell.c ****     ShellCommand *base = (ShellCommand *)shell->commandList.base;
 1793              		.loc 1 736 1 is_stmt 1 view -0
 1794              		.cfi_startproc
 1795              		@ args = 0, pretend = 0, frame = 0
 1796              		@ frame_needed = 0, uses_anonymous_args = 0
 737:ThirdParty/Letter-shell/Src/shell.c ****     shellWriteString(shell, shellText[SHELL_TEXT_KEY_LIST]);
 1797              		.loc 1 737 5 view .LVU460
 736:ThirdParty/Letter-shell/Src/shell.c ****     ShellCommand *base = (ShellCommand *)shell->commandList.base;
 1798              		.loc 1 736 1 is_stmt 0 view .LVU461
 1799 0000 70B5     		push	{r4, r5, r6, lr}
 1800              	.LCFI38:
 1801              		.cfi_def_cfa_offset 16
 1802              		.cfi_offset 4, -16
 1803              		.cfi_offset 5, -12
 1804              		.cfi_offset 6, -8
 1805              		.cfi_offset 14, -4
 738:ThirdParty/Letter-shell/Src/shell.c ****     for (short i = 0; i < shell->commandList.count; i++)
 1806              		.loc 1 738 5 view .LVU462
 1807 0002 0E49     		ldr	r1, .L136
 737:ThirdParty/Letter-shell/Src/shell.c ****     shellWriteString(shell, shellText[SHELL_TEXT_KEY_LIST]);
 1808              		.loc 1 737 19 view .LVU463
 1809 0004 866D     		ldr	r6, [r0, #88]
 1810              	.LVL158:
 738:ThirdParty/Letter-shell/Src/shell.c ****     for (short i = 0; i < shell->commandList.count; i++)
 1811              		.loc 1 738 5 is_stmt 1 view .LVU464
 736:ThirdParty/Letter-shell/Src/shell.c ****     ShellCommand *base = (ShellCommand *)shell->commandList.base;
 1812              		.loc 1 736 1 is_stmt 0 view .LVU465
 1813 0006 0446     		mov	r4, r0
 738:ThirdParty/Letter-shell/Src/shell.c ****     for (short i = 0; i < shell->commandList.count; i++)
 1814              		.loc 1 738 5 view .LVU466
 1815 0008 FFF7FEFF 		bl	shellWriteString
ARM GAS  C:\Users\CL\AppData\Local\Temp\ccoMTeCk.s 			page 74


 1816              	.LVL159:
 739:ThirdParty/Letter-shell/Src/shell.c ****     {
 1817              		.loc 1 739 5 is_stmt 1 view .LVU467
 1818              	.LBB58:
 739:ThirdParty/Letter-shell/Src/shell.c ****     {
 1819              		.loc 1 739 10 view .LVU468
 739:ThirdParty/Letter-shell/Src/shell.c ****     {
 1820              		.loc 1 739 5 is_stmt 0 view .LVU469
 1821 000c 0025     		movs	r5, #0
 1822              	.LVL160:
 1823              	.L133:
 739:ThirdParty/Letter-shell/Src/shell.c ****     {
 1824              		.loc 1 739 45 discriminator 1 view .LVU470
 1825 000e B4F85C30 		ldrh	r3, [r4, #92]
 1826 0012 29B2     		sxth	r1, r5
 1827              	.LVL161:
 739:ThirdParty/Letter-shell/Src/shell.c ****     {
 1828              		.loc 1 739 23 is_stmt 1 discriminator 1 view .LVU471
 739:ThirdParty/Letter-shell/Src/shell.c ****     {
 1829              		.loc 1 739 5 is_stmt 0 discriminator 1 view .LVU472
 1830 0014 9942     		cmp	r1, r3
 1831 0016 00DB     		blt	.L135
 1832              	.LBE58:
 748:ThirdParty/Letter-shell/Src/shell.c **** 
 1833              		.loc 1 748 1 view .LVU473
 1834 0018 70BD     		pop	{r4, r5, r6, pc}
 1835              	.LVL162:
 1836              	.L135:
 1837              	.LBB59:
 741:ThirdParty/Letter-shell/Src/shell.c ****             && base[i].attr.attrs.type <= SHELL_TYPE_KEY
 1838              		.loc 1 741 9 is_stmt 1 view .LVU474
 741:ThirdParty/Letter-shell/Src/shell.c ****             && base[i].attr.attrs.type <= SHELL_TYPE_KEY
 1839              		.loc 1 741 17 is_stmt 0 view .LVU475
 1840 001a 06EB0111 		add	r1, r6, r1, lsl #4
 1841              	.LVL163:
 742:ThirdParty/Letter-shell/Src/shell.c ****             && shellCheckPermission(shell, &base[i]) == 0)
 1842              		.loc 1 742 13 view .LVU476
 1843 001e 4B78     		ldrb	r3, [r1, #1]	@ zero_extendqisi2
 741:ThirdParty/Letter-shell/Src/shell.c ****             && base[i].attr.attrs.type <= SHELL_TYPE_KEY
 1844              		.loc 1 741 12 view .LVU477
 1845 0020 03F00F03 		and	r3, r3, #15
 1846 0024 092B     		cmp	r3, #9
 1847 0026 06D1     		bne	.L134
 743:ThirdParty/Letter-shell/Src/shell.c ****         {
 1848              		.loc 1 743 16 view .LVU478
 1849 0028 2046     		mov	r0, r4
 1850 002a FFF7FEFF 		bl	shellCheckPermission
 1851              	.LVL164:
 743:ThirdParty/Letter-shell/Src/shell.c ****         {
 1852              		.loc 1 743 13 view .LVU479
 1853 002e 10B9     		cbnz	r0, .L134
 745:ThirdParty/Letter-shell/Src/shell.c ****         }
 1854              		.loc 1 745 13 is_stmt 1 view .LVU480
 1855 0030 2046     		mov	r0, r4
 1856 0032 FFF7FEFF 		bl	shellListItem
 1857              	.LVL165:
 1858              	.L134:
ARM GAS  C:\Users\CL\AppData\Local\Temp\ccoMTeCk.s 			page 75


 739:ThirdParty/Letter-shell/Src/shell.c ****     {
 1859              		.loc 1 739 53 discriminator 2 view .LVU481
 739:ThirdParty/Letter-shell/Src/shell.c ****     {
 1860              		.loc 1 739 53 is_stmt 0 discriminator 2 view .LVU482
 1861 0036 0135     		adds	r5, r5, #1
 1862              	.LVL166:
 739:ThirdParty/Letter-shell/Src/shell.c ****     {
 1863              		.loc 1 739 53 discriminator 2 view .LVU483
 1864 0038 E9E7     		b	.L133
 1865              	.L137:
 1866 003a 00BF     		.align	2
 1867              	.L136:
 1868 003c 00000000 		.word	.LC19
 1869              	.LBE59:
 1870              		.cfi_endproc
 1871              	.LFE23:
 1873              		.section	.text.shellKeys,"ax",%progbits
 1874              		.align	1
 1875              		.global	shellKeys
 1876              		.syntax unified
 1877              		.thumb
 1878              		.thumb_func
 1880              	shellKeys:
 1881              	.LFB59:
1904:ThirdParty/Letter-shell/Src/shell.c ****     Shell *shell = shellGetCurrent();
 1882              		.loc 1 1904 1 is_stmt 1 view -0
 1883              		.cfi_startproc
 1884              		@ args = 0, pretend = 0, frame = 0
 1885              		@ frame_needed = 0, uses_anonymous_args = 0
1905:ThirdParty/Letter-shell/Src/shell.c ****     if (shell)
 1886              		.loc 1 1905 5 view .LVU485
1904:ThirdParty/Letter-shell/Src/shell.c ****     Shell *shell = shellGetCurrent();
 1887              		.loc 1 1904 1 is_stmt 0 view .LVU486
 1888 0000 08B5     		push	{r3, lr}
 1889              	.LCFI39:
 1890              		.cfi_def_cfa_offset 8
 1891              		.cfi_offset 3, -8
 1892              		.cfi_offset 14, -4
1905:ThirdParty/Letter-shell/Src/shell.c ****     if (shell)
 1893              		.loc 1 1905 20 view .LVU487
 1894 0002 FFF7FEFF 		bl	shellGetCurrent
 1895              	.LVL167:
1906:ThirdParty/Letter-shell/Src/shell.c ****     {
 1896              		.loc 1 1906 5 is_stmt 1 view .LVU488
1906:ThirdParty/Letter-shell/Src/shell.c ****     {
 1897              		.loc 1 1906 8 is_stmt 0 view .LVU489
 1898 0006 18B1     		cbz	r0, .L138
1908:ThirdParty/Letter-shell/Src/shell.c ****     }
 1899              		.loc 1 1908 9 is_stmt 1 view .LVU490
1910:ThirdParty/Letter-shell/Src/shell.c **** SHELL_EXPORT_CMD(
 1900              		.loc 1 1910 1 is_stmt 0 view .LVU491
 1901 0008 BDE80840 		pop	{r3, lr}
 1902              	.LCFI40:
 1903              		.cfi_remember_state
 1904              		.cfi_restore 14
 1905              		.cfi_restore 3
 1906              		.cfi_def_cfa_offset 0
ARM GAS  C:\Users\CL\AppData\Local\Temp\ccoMTeCk.s 			page 76


1908:ThirdParty/Letter-shell/Src/shell.c ****     }
 1907              		.loc 1 1908 9 view .LVU492
 1908 000c FFF7FEBF 		b	shellListKey
 1909              	.LVL168:
 1910              	.L138:
 1911              	.LCFI41:
 1912              		.cfi_restore_state
1910:ThirdParty/Letter-shell/Src/shell.c **** SHELL_EXPORT_CMD(
 1913              		.loc 1 1910 1 view .LVU493
 1914 0010 08BD     		pop	{r3, pc}
 1915              		.cfi_endproc
 1916              	.LFE59:
 1918              		.section	.text.shellListAll,"ax",%progbits
 1919              		.align	1
 1920              		.global	shellListAll
 1921              		.syntax unified
 1922              		.thumb
 1923              		.thumb_func
 1925              	shellListAll:
 1926              	.LVL169:
 1927              	.LFB24:
 757:ThirdParty/Letter-shell/Src/shell.c **** #if SHELL_HELP_LIST_USER == 1
 1928              		.loc 1 757 1 is_stmt 1 view -0
 1929              		.cfi_startproc
 1930              		@ args = 0, pretend = 0, frame = 0
 1931              		@ frame_needed = 0, uses_anonymous_args = 0
 1932              		@ link register save eliminated.
 761:ThirdParty/Letter-shell/Src/shell.c **** #if SHELL_HELP_LIST_VAR == 1
 1933              		.loc 1 761 5 view .LVU495
 1934 0000 FFF7FEBF 		b	shellListCommand
 1935              	.LVL170:
 761:ThirdParty/Letter-shell/Src/shell.c **** #if SHELL_HELP_LIST_VAR == 1
 1936              		.loc 1 761 5 is_stmt 0 view .LVU496
 1937              		.cfi_endproc
 1938              	.LFE24:
 1940              		.section	.rodata.shellDeleteCommandLine.str1.1,"aMS",%progbits,1
 1941              	.LC20:
 1942 0000 08200800 		.ascii	"\010 \010\000"
 1943              		.section	.text.shellDeleteCommandLine,"ax",%progbits
 1944              		.align	1
 1945              		.global	shellDeleteCommandLine
 1946              		.syntax unified
 1947              		.thumb
 1948              		.thumb_func
 1950              	shellDeleteCommandLine:
 1951              	.LVL171:
 1952              	.LFB25:
 778:ThirdParty/Letter-shell/Src/shell.c ****     while (length--)
 1953              		.loc 1 778 1 is_stmt 1 view -0
 1954              		.cfi_startproc
 1955              		@ args = 0, pretend = 0, frame = 0
 1956              		@ frame_needed = 0, uses_anonymous_args = 0
 779:ThirdParty/Letter-shell/Src/shell.c ****     {
 1957              		.loc 1 779 5 view .LVU498
 778:ThirdParty/Letter-shell/Src/shell.c ****     while (length--)
 1958              		.loc 1 778 1 is_stmt 0 view .LVU499
 1959 0000 70B5     		push	{r4, r5, r6, lr}
ARM GAS  C:\Users\CL\AppData\Local\Temp\ccoMTeCk.s 			page 77


 1960              	.LCFI42:
 1961              		.cfi_def_cfa_offset 16
 1962              		.cfi_offset 4, -16
 1963              		.cfi_offset 5, -12
 1964              		.cfi_offset 6, -8
 1965              		.cfi_offset 14, -4
