ARM GAS  C:\Users\CL\AppData\Local\Temp\ccPO0qmY.s 			page 1


   1              		.cpu cortex-m4
   2              		.arch armv7e-m
   3              		.fpu fpv4-sp-d16
   4              		.eabi_attribute 27, 1
   5              		.eabi_attribute 28, 1
   6              		.eabi_attribute 20, 1
   7              		.eabi_attribute 21, 1
   8              		.eabi_attribute 23, 3
   9              		.eabi_attribute 24, 1
  10              		.eabi_attribute 25, 1
  11              		.eabi_attribute 26, 1
  12              		.eabi_attribute 30, 1
  13              		.eabi_attribute 34, 1
  14              		.eabi_attribute 18, 4
  15              		.file	"shell_ext.c"
  16              		.text
  17              	.Ltext0:
  18              		.cfi_sections	.debug_frame
  19              		.section	.text.shellExtNumType,"ax",%progbits
  20              		.align	1
  21              		.syntax unified
  22              		.thumb
  23              		.thumb_func
  25              	shellExtNumType:
  26              	.LVL0:
  27              	.LFB0:
  28              		.file 1 "ThirdParty/Letter-shell/Src/shell_ext.c"
   1:ThirdParty/Letter-shell/Src/shell_ext.c **** /**
   2:ThirdParty/Letter-shell/Src/shell_ext.c ****  * @file shell_ext.c
   3:ThirdParty/Letter-shell/Src/shell_ext.c ****  * @author Letter (NevermindZZT@gmail.com)
   4:ThirdParty/Letter-shell/Src/shell_ext.c ****  * @brief shell extensions
   5:ThirdParty/Letter-shell/Src/shell_ext.c ****  * @version 3.0.0
   6:ThirdParty/Letter-shell/Src/shell_ext.c ****  * @date 2019-12-31
   7:ThirdParty/Letter-shell/Src/shell_ext.c ****  * 
   8:ThirdParty/Letter-shell/Src/shell_ext.c ****  * @copyright (c) 2019 Letter
   9:ThirdParty/Letter-shell/Src/shell_ext.c ****  * 
  10:ThirdParty/Letter-shell/Src/shell_ext.c ****  */
  11:ThirdParty/Letter-shell/Src/shell_ext.c **** 
  12:ThirdParty/Letter-shell/Src/shell_ext.c **** #include "shell_cfg.h"
  13:ThirdParty/Letter-shell/Src/shell_ext.c **** #include "shell.h"
  14:ThirdParty/Letter-shell/Src/shell_ext.c **** #include "shell_ext.h"
  15:ThirdParty/Letter-shell/Src/shell_ext.c **** #include "string.h"
  16:ThirdParty/Letter-shell/Src/shell_ext.c **** 
  17:ThirdParty/Letter-shell/Src/shell_ext.c **** extern ShellCommand* shellSeekCommand(Shell *shell,
  18:ThirdParty/Letter-shell/Src/shell_ext.c ****                                       const char *cmd,
  19:ThirdParty/Letter-shell/Src/shell_ext.c ****                                       ShellCommand *base,
  20:ThirdParty/Letter-shell/Src/shell_ext.c ****                                       unsigned short compareLength);
  21:ThirdParty/Letter-shell/Src/shell_ext.c **** extern int shellGetVarValue(Shell *shell, ShellCommand *command);
  22:ThirdParty/Letter-shell/Src/shell_ext.c **** 
  23:ThirdParty/Letter-shell/Src/shell_ext.c **** #if SHELL_USING_FUNC_SIGNATURE == 1
  24:ThirdParty/Letter-shell/Src/shell_ext.c **** /**
  25:ThirdParty/Letter-shell/Src/shell_ext.c ****  * @brief 获取下一个参数类型
  26:ThirdParty/Letter-shell/Src/shell_ext.c ****  * 
  27:ThirdParty/Letter-shell/Src/shell_ext.c ****  * @param signature 函数签名
  28:ThirdParty/Letter-shell/Src/shell_ext.c ****  * @param index 参数遍历在签名中的起始索引
  29:ThirdParty/Letter-shell/Src/shell_ext.c ****  * @param type 获取到的参数类型
  30:ThirdParty/Letter-shell/Src/shell_ext.c ****  * 
ARM GAS  C:\Users\CL\AppData\Local\Temp\ccPO0qmY.s 			page 2


  31:ThirdParty/Letter-shell/Src/shell_ext.c ****  * @return int 下一个参数在签名中的索引
  32:ThirdParty/Letter-shell/Src/shell_ext.c ****  */
  33:ThirdParty/Letter-shell/Src/shell_ext.c **** static int shellGetNextParamType(const char *signature, int index, char *type)
  34:ThirdParty/Letter-shell/Src/shell_ext.c **** {
  35:ThirdParty/Letter-shell/Src/shell_ext.c ****     const char *p = signature + index;
  36:ThirdParty/Letter-shell/Src/shell_ext.c ****     if (*p == 'L')
  37:ThirdParty/Letter-shell/Src/shell_ext.c ****     {
  38:ThirdParty/Letter-shell/Src/shell_ext.c ****         while (*p != ';' && *p != 0)
  39:ThirdParty/Letter-shell/Src/shell_ext.c ****         {
  40:ThirdParty/Letter-shell/Src/shell_ext.c ****             *type++ = *p++;
  41:ThirdParty/Letter-shell/Src/shell_ext.c ****             index++;
  42:ThirdParty/Letter-shell/Src/shell_ext.c ****         }
  43:ThirdParty/Letter-shell/Src/shell_ext.c ****         *type++ = *p++;
  44:ThirdParty/Letter-shell/Src/shell_ext.c ****         index++;
  45:ThirdParty/Letter-shell/Src/shell_ext.c ****     }
  46:ThirdParty/Letter-shell/Src/shell_ext.c ****     else if (*p != 0)
  47:ThirdParty/Letter-shell/Src/shell_ext.c ****     {
  48:ThirdParty/Letter-shell/Src/shell_ext.c ****         *type++ = *p;
  49:ThirdParty/Letter-shell/Src/shell_ext.c ****         index++;
  50:ThirdParty/Letter-shell/Src/shell_ext.c ****     }
  51:ThirdParty/Letter-shell/Src/shell_ext.c ****     *type = '\0';
  52:ThirdParty/Letter-shell/Src/shell_ext.c ****     return index;
  53:ThirdParty/Letter-shell/Src/shell_ext.c **** }
  54:ThirdParty/Letter-shell/Src/shell_ext.c **** 
  55:ThirdParty/Letter-shell/Src/shell_ext.c **** 
  56:ThirdParty/Letter-shell/Src/shell_ext.c **** static int shellGetParamNumExcept(const char *signature)
  57:ThirdParty/Letter-shell/Src/shell_ext.c **** {
  58:ThirdParty/Letter-shell/Src/shell_ext.c ****     int num = 0;
  59:ThirdParty/Letter-shell/Src/shell_ext.c ****     const char *p = signature;
  60:ThirdParty/Letter-shell/Src/shell_ext.c ****     
  61:ThirdParty/Letter-shell/Src/shell_ext.c ****     while (*p)
  62:ThirdParty/Letter-shell/Src/shell_ext.c ****     {
  63:ThirdParty/Letter-shell/Src/shell_ext.c ****         if (*p == 'L')
  64:ThirdParty/Letter-shell/Src/shell_ext.c ****         {
  65:ThirdParty/Letter-shell/Src/shell_ext.c ****             while (*p != ';' && *p != 0)
  66:ThirdParty/Letter-shell/Src/shell_ext.c ****             {
  67:ThirdParty/Letter-shell/Src/shell_ext.c ****                 p++;
  68:ThirdParty/Letter-shell/Src/shell_ext.c ****             }
  69:ThirdParty/Letter-shell/Src/shell_ext.c ****             p++;
  70:ThirdParty/Letter-shell/Src/shell_ext.c ****         }
  71:ThirdParty/Letter-shell/Src/shell_ext.c ****         else
  72:ThirdParty/Letter-shell/Src/shell_ext.c ****         {
  73:ThirdParty/Letter-shell/Src/shell_ext.c ****             p++;
  74:ThirdParty/Letter-shell/Src/shell_ext.c ****         }
  75:ThirdParty/Letter-shell/Src/shell_ext.c ****         num++;
  76:ThirdParty/Letter-shell/Src/shell_ext.c ****     }
  77:ThirdParty/Letter-shell/Src/shell_ext.c ****     return num;
  78:ThirdParty/Letter-shell/Src/shell_ext.c **** }
  79:ThirdParty/Letter-shell/Src/shell_ext.c **** #endif
  80:ThirdParty/Letter-shell/Src/shell_ext.c **** 
  81:ThirdParty/Letter-shell/Src/shell_ext.c **** /**
  82:ThirdParty/Letter-shell/Src/shell_ext.c ****  * @brief 判断数字进制
  83:ThirdParty/Letter-shell/Src/shell_ext.c ****  * 
  84:ThirdParty/Letter-shell/Src/shell_ext.c ****  * @param string 参数字符串
  85:ThirdParty/Letter-shell/Src/shell_ext.c ****  * @return ShellNumType 进制
  86:ThirdParty/Letter-shell/Src/shell_ext.c ****  */
  87:ThirdParty/Letter-shell/Src/shell_ext.c **** static ShellNumType shellExtNumType(char *string)
ARM GAS  C:\Users\CL\AppData\Local\Temp\ccPO0qmY.s 			page 3


  88:ThirdParty/Letter-shell/Src/shell_ext.c **** {
  29              		.loc 1 88 1 view -0
  30              		.cfi_startproc
  31              		@ args = 0, pretend = 0, frame = 0
  32              		@ frame_needed = 0, uses_anonymous_args = 0
  33              		@ link register save eliminated.
  34              		.loc 1 88 1 is_stmt 0 view .LVU1
  35 0000 0246     		mov	r2, r0
  89:ThirdParty/Letter-shell/Src/shell_ext.c ****     char *p = string;
  36              		.loc 1 89 5 is_stmt 1 view .LVU2
  37              	.LVL1:
  90:ThirdParty/Letter-shell/Src/shell_ext.c ****     ShellNumType type = NUM_TYPE_DEC;
  38              		.loc 1 90 5 view .LVU3
  91:ThirdParty/Letter-shell/Src/shell_ext.c **** 
  92:ThirdParty/Letter-shell/Src/shell_ext.c ****     if ((*p == '0') && ((*(p + 1) == 'x') || (*(p + 1) == 'X')))
  39              		.loc 1 92 5 view .LVU4
  40              		.loc 1 92 10 is_stmt 0 view .LVU5
  41 0002 0378     		ldrb	r3, [r0]	@ zero_extendqisi2
  42              		.loc 1 92 8 view .LVU6
  43 0004 302B     		cmp	r3, #48
  44 0006 05D0     		beq	.L15
  45              	.L2:
  93:ThirdParty/Letter-shell/Src/shell_ext.c ****     {
  94:ThirdParty/Letter-shell/Src/shell_ext.c ****         type = NUM_TYPE_HEX;
  95:ThirdParty/Letter-shell/Src/shell_ext.c ****     }
  96:ThirdParty/Letter-shell/Src/shell_ext.c ****     else if ((*p == '0') && ((*(p + 1) == 'b') || (*(p + 1) == 'B')))
  46              		.loc 1 96 10 is_stmt 1 view .LVU7
  47              		.loc 1 96 13 is_stmt 0 view .LVU8
  48 0008 302B     		cmp	r3, #48
  49 000a 0AD0     		beq	.L16
  50              	.L4:
  97:ThirdParty/Letter-shell/Src/shell_ext.c ****     {
  98:ThirdParty/Letter-shell/Src/shell_ext.c ****         type = NUM_TYPE_BIN;
  99:ThirdParty/Letter-shell/Src/shell_ext.c ****     }
 100:ThirdParty/Letter-shell/Src/shell_ext.c ****     else if (*p == '0')
  51              		.loc 1 100 10 is_stmt 1 view .LVU9
  52              		.loc 1 100 13 is_stmt 0 view .LVU10
  53 000c 302B     		cmp	r3, #48
  54 000e 13D0     		beq	.L13
  90:ThirdParty/Letter-shell/Src/shell_ext.c **** 
  55              		.loc 1 90 18 view .LVU11
  56 0010 0020     		movs	r0, #0
  57              	.LVL2:
  90:ThirdParty/Letter-shell/Src/shell_ext.c **** 
  58              		.loc 1 90 18 view .LVU12
  59 0012 14E0     		b	.L7
  60              	.LVL3:
  61              	.L15:
  92:ThirdParty/Letter-shell/Src/shell_ext.c ****     {
  62              		.loc 1 92 26 discriminator 1 view .LVU13
  63 0014 4178     		ldrb	r1, [r0, #1]	@ zero_extendqisi2
  92:ThirdParty/Letter-shell/Src/shell_ext.c ****     {
  64              		.loc 1 92 21 discriminator 1 view .LVU14
  65 0016 7829     		cmp	r1, #120
  66 0018 0AD0     		beq	.L9
  92:ThirdParty/Letter-shell/Src/shell_ext.c ****     {
  67              		.loc 1 92 43 discriminator 2 view .LVU15
ARM GAS  C:\Users\CL\AppData\Local\Temp\ccPO0qmY.s 			page 4


  68 001a 5829     		cmp	r1, #88
  69 001c F4D1     		bne	.L2
  94:ThirdParty/Letter-shell/Src/shell_ext.c ****     }
  70              		.loc 1 94 14 view .LVU16
  71 001e 0320     		movs	r0, #3
  72              	.LVL4:
  94:ThirdParty/Letter-shell/Src/shell_ext.c ****     }
  73              		.loc 1 94 14 view .LVU17
  74 0020 0DE0     		b	.L7
  75              	.LVL5:
  76              	.L16:
  96:ThirdParty/Letter-shell/Src/shell_ext.c ****     {
  77              		.loc 1 96 31 discriminator 1 view .LVU18
  78 0022 5178     		ldrb	r1, [r2, #1]	@ zero_extendqisi2
  96:ThirdParty/Letter-shell/Src/shell_ext.c ****     {
  79              		.loc 1 96 26 discriminator 1 view .LVU19
  80 0024 6229     		cmp	r1, #98
  81 0026 05D0     		beq	.L11
  96:ThirdParty/Letter-shell/Src/shell_ext.c ****     {
  82              		.loc 1 96 48 discriminator 2 view .LVU20
  83 0028 4229     		cmp	r1, #66
  84 002a EFD1     		bne	.L4
  98:ThirdParty/Letter-shell/Src/shell_ext.c ****     }
  85              		.loc 1 98 14 view .LVU21
  86 002c 0120     		movs	r0, #1
  87              	.LVL6:
  98:ThirdParty/Letter-shell/Src/shell_ext.c ****     }
  88              		.loc 1 98 14 view .LVU22
  89 002e 06E0     		b	.L7
  90              	.LVL7:
  91              	.L9:
  94:ThirdParty/Letter-shell/Src/shell_ext.c ****     }
  92              		.loc 1 94 14 view .LVU23
  93 0030 0320     		movs	r0, #3
  94              	.LVL8:
  94:ThirdParty/Letter-shell/Src/shell_ext.c ****     }
  95              		.loc 1 94 14 view .LVU24
  96 0032 04E0     		b	.L7
  97              	.LVL9:
  98              	.L11:
  98:ThirdParty/Letter-shell/Src/shell_ext.c ****     }
  99              		.loc 1 98 14 view .LVU25
 100 0034 0120     		movs	r0, #1
 101              	.LVL10:
  98:ThirdParty/Letter-shell/Src/shell_ext.c ****     }
 102              		.loc 1 98 14 view .LVU26
 103 0036 02E0     		b	.L7
 104              	.LVL11:
 105              	.L13:
 101:ThirdParty/Letter-shell/Src/shell_ext.c ****     {
 102:ThirdParty/Letter-shell/Src/shell_ext.c ****         type = NUM_TYPE_OCT;
 106              		.loc 1 102 14 view .LVU27
 107 0038 0220     		movs	r0, #2
 108              	.LVL12:
 109              		.loc 1 102 14 view .LVU28
 110 003a 00E0     		b	.L7
 111              	.LVL13:
ARM GAS  C:\Users\CL\AppData\Local\Temp\ccPO0qmY.s 			page 5


 112              	.L5:
  90:ThirdParty/Letter-shell/Src/shell_ext.c **** 
 113              		.loc 1 90 18 view .LVU29
 114 003c 1A46     		mov	r2, r3
 115              	.LVL14:
 116              	.L7:
 103:ThirdParty/Letter-shell/Src/shell_ext.c ****     }
 104:ThirdParty/Letter-shell/Src/shell_ext.c ****     
 105:ThirdParty/Letter-shell/Src/shell_ext.c ****     while (*p++)
 117              		.loc 1 105 11 is_stmt 1 view .LVU30
 118              		.loc 1 105 14 is_stmt 0 view .LVU31
 119 003e 1346     		mov	r3, r2
 120              	.LVL15:
 121              		.loc 1 105 12 view .LVU32
 122 0040 13F8011B 		ldrb	r1, [r3], #1	@ zero_extendqisi2
 123              	.LVL16:
 124              		.loc 1 105 11 view .LVU33
 125 0044 39B1     		cbz	r1, .L17
 106:ThirdParty/Letter-shell/Src/shell_ext.c ****     {
 107:ThirdParty/Letter-shell/Src/shell_ext.c ****         if (*p == '.' && *(p + 1) != 0)
 126              		.loc 1 107 9 is_stmt 1 view .LVU34
 127              		.loc 1 107 13 is_stmt 0 view .LVU35
 128 0046 5278     		ldrb	r2, [r2, #1]	@ zero_extendqisi2
 129              		.loc 1 107 12 view .LVU36
 130 0048 2E2A     		cmp	r2, #46
 131 004a F7D1     		bne	.L5
 132              		.loc 1 107 26 discriminator 1 view .LVU37
 133 004c 5A78     		ldrb	r2, [r3, #1]	@ zero_extendqisi2
 134              		.loc 1 107 23 discriminator 1 view .LVU38
 135 004e 002A     		cmp	r2, #0
 136 0050 F4D0     		beq	.L5
 108:ThirdParty/Letter-shell/Src/shell_ext.c ****         {
 109:ThirdParty/Letter-shell/Src/shell_ext.c ****             type = NUM_TYPE_FLOAT;
 137              		.loc 1 109 18 view .LVU39
 138 0052 0420     		movs	r0, #4
 139              	.LVL17:
 110:ThirdParty/Letter-shell/Src/shell_ext.c ****             break;
 111:ThirdParty/Letter-shell/Src/shell_ext.c ****         }
 112:ThirdParty/Letter-shell/Src/shell_ext.c ****     }
 113:ThirdParty/Letter-shell/Src/shell_ext.c **** 
 114:ThirdParty/Letter-shell/Src/shell_ext.c ****     return type;
 140              		.loc 1 114 5 is_stmt 1 view .LVU40
 115:ThirdParty/Letter-shell/Src/shell_ext.c **** }
 141              		.loc 1 115 1 is_stmt 0 view .LVU41
 142 0054 7047     		bx	lr
 143              	.L17:
 144              		.loc 1 115 1 view .LVU42
 145 0056 7047     		bx	lr
 146              		.cfi_endproc
 147              	.LFE0:
 149              		.section	.text.shellExtToNum,"ax",%progbits
 150              		.align	1
 151              		.syntax unified
 152              		.thumb
 153              		.thumb_func
 155              	shellExtToNum:
 156              	.LVL18:
ARM GAS  C:\Users\CL\AppData\Local\Temp\ccPO0qmY.s 			page 6


 157              	.LFB1:
 116:ThirdParty/Letter-shell/Src/shell_ext.c **** 
 117:ThirdParty/Letter-shell/Src/shell_ext.c **** 
 118:ThirdParty/Letter-shell/Src/shell_ext.c **** /**
 119:ThirdParty/Letter-shell/Src/shell_ext.c ****  * @brief 字符转数字
 120:ThirdParty/Letter-shell/Src/shell_ext.c ****  * 
 121:ThirdParty/Letter-shell/Src/shell_ext.c ****  * @param code 字符
 122:ThirdParty/Letter-shell/Src/shell_ext.c ****  * @return char 数字
 123:ThirdParty/Letter-shell/Src/shell_ext.c ****  */
 124:ThirdParty/Letter-shell/Src/shell_ext.c **** static char shellExtToNum(char code)
 125:ThirdParty/Letter-shell/Src/shell_ext.c **** {
 158              		.loc 1 125 1 is_stmt 1 view -0
 159              		.cfi_startproc
 160              		@ args = 0, pretend = 0, frame = 0
 161              		@ frame_needed = 0, uses_anonymous_args = 0
 162              		@ link register save eliminated.
 163              		.loc 1 125 1 is_stmt 0 view .LVU44
 164 0000 0346     		mov	r3, r0
 126:ThirdParty/Letter-shell/Src/shell_ext.c ****     if ((code >= '0') && (code <= '9'))
 165              		.loc 1 126 5 is_stmt 1 view .LVU45
 166              		.loc 1 126 23 is_stmt 0 view .LVU46
 167 0002 3038     		subs	r0, r0, #48
 168              	.LVL19:
 169              		.loc 1 126 23 view .LVU47
 170 0004 C0B2     		uxtb	r0, r0
 171              		.loc 1 126 8 view .LVU48
 172 0006 0928     		cmp	r0, #9
 173 0008 10D9     		bls	.L19
 127:ThirdParty/Letter-shell/Src/shell_ext.c ****     {
 128:ThirdParty/Letter-shell/Src/shell_ext.c ****         return code -'0';
 129:ThirdParty/Letter-shell/Src/shell_ext.c ****     }
 130:ThirdParty/Letter-shell/Src/shell_ext.c ****     else if ((code >= 'a') && (code <= 'f'))
 174              		.loc 1 130 10 is_stmt 1 view .LVU49
 175              		.loc 1 130 28 is_stmt 0 view .LVU50
 176 000a A3F16102 		sub	r2, r3, #97
 177 000e D2B2     		uxtb	r2, r2
 178              		.loc 1 130 13 view .LVU51
 179 0010 052A     		cmp	r2, #5
 180 0012 07D9     		bls	.L22
 131:ThirdParty/Letter-shell/Src/shell_ext.c ****     {
 132:ThirdParty/Letter-shell/Src/shell_ext.c ****         return code - 'a' + 10;
 133:ThirdParty/Letter-shell/Src/shell_ext.c ****     }
 134:ThirdParty/Letter-shell/Src/shell_ext.c ****     else if ((code >= 'A') && (code <= 'F'))
 181              		.loc 1 134 10 is_stmt 1 view .LVU52
 182              		.loc 1 134 28 is_stmt 0 view .LVU53
 183 0014 A3F14102 		sub	r2, r3, #65
 184 0018 D2B2     		uxtb	r2, r2
 185              		.loc 1 134 13 view .LVU54
 186 001a 052A     		cmp	r2, #5
 187 001c 05D8     		bhi	.L21
 135:ThirdParty/Letter-shell/Src/shell_ext.c ****     {
 136:ThirdParty/Letter-shell/Src/shell_ext.c ****         return code - 'A' + 10;
 188              		.loc 1 136 9 is_stmt 1 view .LVU55
 189              		.loc 1 136 27 is_stmt 0 view .LVU56
 190 001e 373B     		subs	r3, r3, #55
 191 0020 D8B2     		uxtb	r0, r3
 192 0022 7047     		bx	lr
ARM GAS  C:\Users\CL\AppData\Local\Temp\ccPO0qmY.s 			page 7


 193              	.L22:
 132:ThirdParty/Letter-shell/Src/shell_ext.c ****     }
 194              		.loc 1 132 9 is_stmt 1 view .LVU57
 132:ThirdParty/Letter-shell/Src/shell_ext.c ****     }
 195              		.loc 1 132 27 is_stmt 0 view .LVU58
 196 0024 573B     		subs	r3, r3, #87
 197 0026 D8B2     		uxtb	r0, r3
 198 0028 7047     		bx	lr
 199              	.L21:
 137:ThirdParty/Letter-shell/Src/shell_ext.c ****     }
 138:ThirdParty/Letter-shell/Src/shell_ext.c ****     else
 139:ThirdParty/Letter-shell/Src/shell_ext.c ****     {
 140:ThirdParty/Letter-shell/Src/shell_ext.c ****         return 0;
 200              		.loc 1 140 16 view .LVU59
 201 002a 0020     		movs	r0, #0
 202              	.L19:
 141:ThirdParty/Letter-shell/Src/shell_ext.c ****     }
 142:ThirdParty/Letter-shell/Src/shell_ext.c **** }
 203              		.loc 1 142 1 view .LVU60
 204 002c 7047     		bx	lr
 205              		.cfi_endproc
 206              	.LFE1:
 208              		.section	.text.shellExtParseChar,"ax",%progbits
 209              		.align	1
 210              		.syntax unified
 211              		.thumb
 212              		.thumb_func
 214              	shellExtParseChar:
 215              	.LVL20:
 216              	.LFB2:
 143:ThirdParty/Letter-shell/Src/shell_ext.c **** 
 144:ThirdParty/Letter-shell/Src/shell_ext.c **** 
 145:ThirdParty/Letter-shell/Src/shell_ext.c **** /**
 146:ThirdParty/Letter-shell/Src/shell_ext.c ****  * @brief 解析字符参数
 147:ThirdParty/Letter-shell/Src/shell_ext.c ****  * 
 148:ThirdParty/Letter-shell/Src/shell_ext.c ****  * @param string 字符串参数
 149:ThirdParty/Letter-shell/Src/shell_ext.c ****  * @return char 解析出的字符
 150:ThirdParty/Letter-shell/Src/shell_ext.c ****  */
 151:ThirdParty/Letter-shell/Src/shell_ext.c **** static char shellExtParseChar(char *string)
 152:ThirdParty/Letter-shell/Src/shell_ext.c **** {
 217              		.loc 1 152 1 is_stmt 1 view -0
 218              		.cfi_startproc
 219              		@ args = 0, pretend = 0, frame = 0
 220              		@ frame_needed = 0, uses_anonymous_args = 0
 221              		@ link register save eliminated.
 222              		.loc 1 152 1 is_stmt 0 view .LVU62
 223 0000 0346     		mov	r3, r0
 153:ThirdParty/Letter-shell/Src/shell_ext.c ****     char *p = (*string == '\'') ? (string + 1) : string;
 224              		.loc 1 153 5 is_stmt 1 view .LVU63
 225              		.loc 1 153 16 is_stmt 0 view .LVU64
 226 0002 0278     		ldrb	r2, [r0]	@ zero_extendqisi2
 227              		.loc 1 153 48 view .LVU65
 228 0004 272A     		cmp	r2, #39
 229 0006 03D0     		beq	.L33
 230              	.L24:
 231              	.LVL21:
 154:ThirdParty/Letter-shell/Src/shell_ext.c ****     char value = 0;
ARM GAS  C:\Users\CL\AppData\Local\Temp\ccPO0qmY.s 			page 8


 232              		.loc 1 154 5 is_stmt 1 discriminator 4 view .LVU66
 155:ThirdParty/Letter-shell/Src/shell_ext.c **** 
 156:ThirdParty/Letter-shell/Src/shell_ext.c ****     if (*p == '\\')
 233              		.loc 1 156 5 discriminator 4 view .LVU67
 234              		.loc 1 156 9 is_stmt 0 discriminator 4 view .LVU68
 235 0008 1878     		ldrb	r0, [r3]	@ zero_extendqisi2
 236              	.LVL22:
 237              		.loc 1 156 8 discriminator 4 view .LVU69
 238 000a 5C28     		cmp	r0, #92
 239 000c 02D0     		beq	.L34
 240              	.LVL23:
 241              	.L25:
 157:ThirdParty/Letter-shell/Src/shell_ext.c ****     {
 158:ThirdParty/Letter-shell/Src/shell_ext.c ****         switch (*(p + 1))
 159:ThirdParty/Letter-shell/Src/shell_ext.c ****         {
 160:ThirdParty/Letter-shell/Src/shell_ext.c ****         case 'b':
 161:ThirdParty/Letter-shell/Src/shell_ext.c ****             value = '\b';
 162:ThirdParty/Letter-shell/Src/shell_ext.c ****             break;
 163:ThirdParty/Letter-shell/Src/shell_ext.c ****         case 'r':
 164:ThirdParty/Letter-shell/Src/shell_ext.c ****             value = '\r';
 165:ThirdParty/Letter-shell/Src/shell_ext.c ****             break;
 166:ThirdParty/Letter-shell/Src/shell_ext.c ****         case 'n':
 167:ThirdParty/Letter-shell/Src/shell_ext.c ****             value = '\n';
 168:ThirdParty/Letter-shell/Src/shell_ext.c ****             break;
 169:ThirdParty/Letter-shell/Src/shell_ext.c ****         case 't':
 170:ThirdParty/Letter-shell/Src/shell_ext.c ****             value = '\t';
 171:ThirdParty/Letter-shell/Src/shell_ext.c ****             break;
 172:ThirdParty/Letter-shell/Src/shell_ext.c ****         case '0':
 173:ThirdParty/Letter-shell/Src/shell_ext.c ****             value = 0;
 174:ThirdParty/Letter-shell/Src/shell_ext.c ****             break;
 175:ThirdParty/Letter-shell/Src/shell_ext.c ****         default:
 176:ThirdParty/Letter-shell/Src/shell_ext.c ****             value = *(p + 1);
 177:ThirdParty/Letter-shell/Src/shell_ext.c ****             break;
 178:ThirdParty/Letter-shell/Src/shell_ext.c ****         }
 179:ThirdParty/Letter-shell/Src/shell_ext.c ****     }
 180:ThirdParty/Letter-shell/Src/shell_ext.c ****     else
 181:ThirdParty/Letter-shell/Src/shell_ext.c ****     {
 182:ThirdParty/Letter-shell/Src/shell_ext.c ****         value = *p;
 183:ThirdParty/Letter-shell/Src/shell_ext.c ****     }
 184:ThirdParty/Letter-shell/Src/shell_ext.c ****     return value;
 242              		.loc 1 184 5 is_stmt 1 view .LVU70
 185:ThirdParty/Letter-shell/Src/shell_ext.c **** }
 243              		.loc 1 185 1 is_stmt 0 view .LVU71
 244 000e 7047     		bx	lr
 245              	.LVL24:
 246              	.L33:
 153:ThirdParty/Letter-shell/Src/shell_ext.c ****     char value = 0;
 247              		.loc 1 153 48 discriminator 1 view .LVU72
 248 0010 0133     		adds	r3, r3, #1
 249 0012 F9E7     		b	.L24
 250              	.LVL25:
 251              	.L34:
 158:ThirdParty/Letter-shell/Src/shell_ext.c ****         {
 252              		.loc 1 158 9 is_stmt 1 view .LVU73
 158:ThirdParty/Letter-shell/Src/shell_ext.c ****         {
 253              		.loc 1 158 17 is_stmt 0 view .LVU74
 254 0014 5878     		ldrb	r0, [r3, #1]	@ zero_extendqisi2
ARM GAS  C:\Users\CL\AppData\Local\Temp\ccPO0qmY.s 			page 9


 158:ThirdParty/Letter-shell/Src/shell_ext.c ****         {
 255              		.loc 1 158 9 view .LVU75
 256 0016 3028     		cmp	r0, #48
 257 0018 38D0     		beq	.L31
 258 001a F8D3     		bcc	.L25
 259 001c 7428     		cmp	r0, #116
 260 001e F6D8     		bhi	.L25
 261 0020 6228     		cmp	r0, #98
 262 0022 F4D3     		bcc	.L25
 263 0024 A0F16203 		sub	r3, r0, #98
 264              	.LVL26:
 158:ThirdParty/Letter-shell/Src/shell_ext.c ****         {
 265              		.loc 1 158 9 view .LVU76
 266 0028 122B     		cmp	r3, #18
 267 002a F0D8     		bhi	.L25
 268 002c 01A2     		adr	r2, .L28
 269 002e 52F823F0 		ldr	pc, [r2, r3, lsl #2]
 270 0032 00BF     		.p2align 2
 271              	.L28:
 272 0034 81000000 		.word	.L30+1
 273 0038 0F000000 		.word	.L25+1
 274 003c 0F000000 		.word	.L25+1
 275 0040 0F000000 		.word	.L25+1
 276 0044 0F000000 		.word	.L25+1
 277 0048 0F000000 		.word	.L25+1
 278 004c 0F000000 		.word	.L25+1
 279 0050 0F000000 		.word	.L25+1
 280 0054 0F000000 		.word	.L25+1
 281 0058 0F000000 		.word	.L25+1
 282 005c 0F000000 		.word	.L25+1
 283 0060 0F000000 		.word	.L25+1
 284 0064 85000000 		.word	.L29+1
 285 0068 0F000000 		.word	.L25+1
 286 006c 0F000000 		.word	.L25+1
 287 0070 0F000000 		.word	.L25+1
 288 0074 91000000 		.word	.L32+1
 289 0078 0F000000 		.word	.L25+1
 290 007c 89000000 		.word	.L27+1
 291              		.p2align 1
 292              	.L30:
 293 0080 0820     		movs	r0, #8
 294 0082 7047     		bx	lr
 295              	.L29:
 167:ThirdParty/Letter-shell/Src/shell_ext.c ****             break;
 296              		.loc 1 167 13 is_stmt 1 view .LVU77
 297              	.LVL27:
 168:ThirdParty/Letter-shell/Src/shell_ext.c ****         case 't':
 298              		.loc 1 168 13 view .LVU78
 167:ThirdParty/Letter-shell/Src/shell_ext.c ****             break;
 299              		.loc 1 167 19 is_stmt 0 view .LVU79
 300 0084 0A20     		movs	r0, #10
 168:ThirdParty/Letter-shell/Src/shell_ext.c ****         case 't':
 301              		.loc 1 168 13 view .LVU80
 302 0086 7047     		bx	lr
 303              	.LVL28:
 304              	.L27:
 170:ThirdParty/Letter-shell/Src/shell_ext.c ****             break;
ARM GAS  C:\Users\CL\AppData\Local\Temp\ccPO0qmY.s 			page 10


 305              		.loc 1 170 13 is_stmt 1 view .LVU81
 171:ThirdParty/Letter-shell/Src/shell_ext.c ****         case '0':
 306              		.loc 1 171 13 view .LVU82
 170:ThirdParty/Letter-shell/Src/shell_ext.c ****             break;
 307              		.loc 1 170 19 is_stmt 0 view .LVU83
 308 0088 0920     		movs	r0, #9
 171:ThirdParty/Letter-shell/Src/shell_ext.c ****         case '0':
 309              		.loc 1 171 13 view .LVU84
 310 008a 7047     		bx	lr
 311              	.LVL29:
 312              	.L31:
 173:ThirdParty/Letter-shell/Src/shell_ext.c ****             break;
 313              		.loc 1 173 19 view .LVU85
 314 008c 0020     		movs	r0, #0
 315 008e 7047     		bx	lr
 316              	.LVL30:
 317              	.L32:
 164:ThirdParty/Letter-shell/Src/shell_ext.c ****             break;
 318              		.loc 1 164 19 view .LVU86
 319 0090 0D20     		movs	r0, #13
 320 0092 BCE7     		b	.L25
 321              		.cfi_endproc
 322              	.LFE2:
 324              		.section	.text.shellExtParseString,"ax",%progbits
 325              		.align	1
 326              		.syntax unified
 327              		.thumb
 328              		.thumb_func
 330              	shellExtParseString:
 331              	.LVL31:
 332              	.LFB3:
 186:ThirdParty/Letter-shell/Src/shell_ext.c **** 
 187:ThirdParty/Letter-shell/Src/shell_ext.c **** 
 188:ThirdParty/Letter-shell/Src/shell_ext.c **** /**
 189:ThirdParty/Letter-shell/Src/shell_ext.c ****  * @brief 解析字符串参数
 190:ThirdParty/Letter-shell/Src/shell_ext.c ****  * 
 191:ThirdParty/Letter-shell/Src/shell_ext.c ****  * @param string 字符串参数
 192:ThirdParty/Letter-shell/Src/shell_ext.c ****  * @return char* 解析出的字符串
 193:ThirdParty/Letter-shell/Src/shell_ext.c ****  */
 194:ThirdParty/Letter-shell/Src/shell_ext.c **** static char* shellExtParseString(char *string)
 195:ThirdParty/Letter-shell/Src/shell_ext.c **** {
 333              		.loc 1 195 1 is_stmt 1 view -0
 334              		.cfi_startproc
 335              		@ args = 0, pretend = 0, frame = 0
 336              		@ frame_needed = 0, uses_anonymous_args = 0
 337              		.loc 1 195 1 is_stmt 0 view .LVU88
 338 0000 70B5     		push	{r4, r5, r6, lr}
 339              	.LCFI0:
 340              		.cfi_def_cfa_offset 16
 341              		.cfi_offset 4, -16
 342              		.cfi_offset 5, -12
 343              		.cfi_offset 6, -8
 344              		.cfi_offset 14, -4
 345 0002 0646     		mov	r6, r0
 196:ThirdParty/Letter-shell/Src/shell_ext.c ****     char *p = string;
 346              		.loc 1 196 5 is_stmt 1 view .LVU89
 347              	.LVL32:
ARM GAS  C:\Users\CL\AppData\Local\Temp\ccPO0qmY.s 			page 11


 197:ThirdParty/Letter-shell/Src/shell_ext.c ****     unsigned short index = 0;
 348              		.loc 1 197 5 view .LVU90
 198:ThirdParty/Letter-shell/Src/shell_ext.c **** 
 199:ThirdParty/Letter-shell/Src/shell_ext.c ****     if (*string == '\"')
 349              		.loc 1 199 5 view .LVU91
 350              		.loc 1 199 9 is_stmt 0 view .LVU92
 351 0004 0378     		ldrb	r3, [r0]	@ zero_extendqisi2
 352              		.loc 1 199 8 view .LVU93
 353 0006 222B     		cmp	r3, #34
 354 0008 02D0     		beq	.L43
 355              	.LVL33:
 356              	.L36:
 195:ThirdParty/Letter-shell/Src/shell_ext.c ****     char *p = string;
 357              		.loc 1 195 1 view .LVU94
 358 000a 3546     		mov	r5, r6
 359 000c 0024     		movs	r4, #0
 360 000e 09E0     		b	.L40
 361              	.LVL34:
 362              	.L43:
 200:ThirdParty/Letter-shell/Src/shell_ext.c ****     {
 201:ThirdParty/Letter-shell/Src/shell_ext.c ****         p = ++string;
 363              		.loc 1 201 9 is_stmt 1 view .LVU95
 364              		.loc 1 201 11 is_stmt 0 view .LVU96
 365 0010 0136     		adds	r6, r6, #1
 366              	.LVL35:
 367              		.loc 1 201 11 view .LVU97
 368 0012 FAE7     		b	.L36
 369              	.LVL36:
 370              	.L45:
 202:ThirdParty/Letter-shell/Src/shell_ext.c ****     }
 203:ThirdParty/Letter-shell/Src/shell_ext.c **** 
 204:ThirdParty/Letter-shell/Src/shell_ext.c ****     while (*p)
 205:ThirdParty/Letter-shell/Src/shell_ext.c ****     {
 206:ThirdParty/Letter-shell/Src/shell_ext.c ****         if (*p == '\\')
 207:ThirdParty/Letter-shell/Src/shell_ext.c ****         {
 208:ThirdParty/Letter-shell/Src/shell_ext.c ****             *(string + index) = shellExtParseChar(p - 1);
 371              		.loc 1 208 13 is_stmt 1 view .LVU98
 372              		.loc 1 208 33 is_stmt 0 view .LVU99
 373 0014 681E     		subs	r0, r5, #1
 374 0016 FFF7FEFF 		bl	shellExtParseChar
 375              	.LVL37:
 376              		.loc 1 208 31 view .LVU100
 377 001a 3055     		strb	r0, [r6, r4]
 209:ThirdParty/Letter-shell/Src/shell_ext.c ****             p++;
 378              		.loc 1 209 13 is_stmt 1 view .LVU101
 379              		.loc 1 209 14 is_stmt 0 view .LVU102
 380 001c 0135     		adds	r5, r5, #1
 381              	.LVL38:
 382              	.L38:
 210:ThirdParty/Letter-shell/Src/shell_ext.c ****         }
 211:ThirdParty/Letter-shell/Src/shell_ext.c ****         else if (*p == '\"')
 212:ThirdParty/Letter-shell/Src/shell_ext.c ****         {
 213:ThirdParty/Letter-shell/Src/shell_ext.c ****             *(string + index) = 0;
 214:ThirdParty/Letter-shell/Src/shell_ext.c ****         }
 215:ThirdParty/Letter-shell/Src/shell_ext.c ****         else
 216:ThirdParty/Letter-shell/Src/shell_ext.c ****         {
 217:ThirdParty/Letter-shell/Src/shell_ext.c ****             *(string + index) = *p;
ARM GAS  C:\Users\CL\AppData\Local\Temp\ccPO0qmY.s 			page 12


 218:ThirdParty/Letter-shell/Src/shell_ext.c ****         }
 219:ThirdParty/Letter-shell/Src/shell_ext.c ****         p++;
 383              		.loc 1 219 9 is_stmt 1 view .LVU103
 384              		.loc 1 219 10 is_stmt 0 view .LVU104
 385 001e 0135     		adds	r5, r5, #1
 386              	.LVL39:
 220:ThirdParty/Letter-shell/Src/shell_ext.c ****         index ++;
 387              		.loc 1 220 9 is_stmt 1 view .LVU105
 388              		.loc 1 220 15 is_stmt 0 view .LVU106
 389 0020 0134     		adds	r4, r4, #1
 390              	.LVL40:
 391              		.loc 1 220 15 view .LVU107
 392 0022 A4B2     		uxth	r4, r4
 393              	.LVL41:
 394              	.L40:
 204:ThirdParty/Letter-shell/Src/shell_ext.c ****     {
 395              		.loc 1 204 11 is_stmt 1 view .LVU108
 204:ThirdParty/Letter-shell/Src/shell_ext.c ****     {
 396              		.loc 1 204 12 is_stmt 0 view .LVU109
 397 0024 2B78     		ldrb	r3, [r5]	@ zero_extendqisi2
 204:ThirdParty/Letter-shell/Src/shell_ext.c ****     {
 398              		.loc 1 204 11 view .LVU110
 399 0026 43B1     		cbz	r3, .L44
 206:ThirdParty/Letter-shell/Src/shell_ext.c ****         {
 400              		.loc 1 206 9 is_stmt 1 view .LVU111
 206:ThirdParty/Letter-shell/Src/shell_ext.c ****         {
 401              		.loc 1 206 12 is_stmt 0 view .LVU112
 402 0028 5C2B     		cmp	r3, #92
 403 002a F3D0     		beq	.L45
 211:ThirdParty/Letter-shell/Src/shell_ext.c ****         {
 404              		.loc 1 211 14 is_stmt 1 view .LVU113
 211:ThirdParty/Letter-shell/Src/shell_ext.c ****         {
 405              		.loc 1 211 17 is_stmt 0 view .LVU114
 406 002c 222B     		cmp	r3, #34
 407 002e 01D0     		beq	.L46
 217:ThirdParty/Letter-shell/Src/shell_ext.c ****         }
 408              		.loc 1 217 13 is_stmt 1 view .LVU115
 217:ThirdParty/Letter-shell/Src/shell_ext.c ****         }
 409              		.loc 1 217 31 is_stmt 0 view .LVU116
 410 0030 3355     		strb	r3, [r6, r4]
 411 0032 F4E7     		b	.L38
 412              	.L46:
 213:ThirdParty/Letter-shell/Src/shell_ext.c ****         }
 413              		.loc 1 213 13 is_stmt 1 view .LVU117
 213:ThirdParty/Letter-shell/Src/shell_ext.c ****         }
 414              		.loc 1 213 31 is_stmt 0 view .LVU118
 415 0034 0023     		movs	r3, #0
 416 0036 3355     		strb	r3, [r6, r4]
 417 0038 F1E7     		b	.L38
 418              	.L44:
 221:ThirdParty/Letter-shell/Src/shell_ext.c ****     }
 222:ThirdParty/Letter-shell/Src/shell_ext.c ****     *(string + index) = 0;
 419              		.loc 1 222 5 is_stmt 1 view .LVU119
 420              		.loc 1 222 23 is_stmt 0 view .LVU120
 421 003a 3355     		strb	r3, [r6, r4]
 223:ThirdParty/Letter-shell/Src/shell_ext.c ****     return string;
 422              		.loc 1 223 5 is_stmt 1 view .LVU121
ARM GAS  C:\Users\CL\AppData\Local\Temp\ccPO0qmY.s 			page 13


 224:ThirdParty/Letter-shell/Src/shell_ext.c **** }
 423              		.loc 1 224 1 is_stmt 0 view .LVU122
 424 003c 3046     		mov	r0, r6
 425 003e 70BD     		pop	{r4, r5, r6, pc}
 426              		.loc 1 224 1 view .LVU123
 427              		.cfi_endproc
 428              	.LFE3:
 430              		.section	.text.shellExtParseNumber,"ax",%progbits
 431              		.align	1
 432              		.syntax unified
 433              		.thumb
 434              		.thumb_func
 436              	shellExtParseNumber:
 437              	.LVL42:
 438              	.LFB4:
 225:ThirdParty/Letter-shell/Src/shell_ext.c **** 
 226:ThirdParty/Letter-shell/Src/shell_ext.c **** 
 227:ThirdParty/Letter-shell/Src/shell_ext.c **** /**
 228:ThirdParty/Letter-shell/Src/shell_ext.c ****  * @brief 解析数字参数
 229:ThirdParty/Letter-shell/Src/shell_ext.c ****  * 
 230:ThirdParty/Letter-shell/Src/shell_ext.c ****  * @param string 字符串参数
 231:ThirdParty/Letter-shell/Src/shell_ext.c ****  * @return unsigned int 解析出的数字
 232:ThirdParty/Letter-shell/Src/shell_ext.c ****  */
 233:ThirdParty/Letter-shell/Src/shell_ext.c **** static unsigned int shellExtParseNumber(char *string)
 234:ThirdParty/Letter-shell/Src/shell_ext.c **** {
 439              		.loc 1 234 1 is_stmt 1 view -0
 440              		.cfi_startproc
 441              		@ args = 0, pretend = 0, frame = 0
 442              		@ frame_needed = 0, uses_anonymous_args = 0
 443              		.loc 1 234 1 is_stmt 0 view .LVU125
 444 0000 2DE9F843 		push	{r3, r4, r5, r6, r7, r8, r9, lr}
 445              	.LCFI1:
 446              		.cfi_def_cfa_offset 32
 447              		.cfi_offset 3, -32
 448              		.cfi_offset 4, -28
 449              		.cfi_offset 5, -24
 450              		.cfi_offset 6, -20
 451              		.cfi_offset 7, -16
 452              		.cfi_offset 8, -12
 453              		.cfi_offset 9, -8
 454              		.cfi_offset 14, -4
 455 0004 0646     		mov	r6, r0
 235:ThirdParty/Letter-shell/Src/shell_ext.c ****     ShellNumType type = NUM_TYPE_DEC;
 456              		.loc 1 235 5 is_stmt 1 view .LVU126
 457              	.LVL43:
 236:ThirdParty/Letter-shell/Src/shell_ext.c ****     char radix = 10;
 458              		.loc 1 236 5 view .LVU127
 237:ThirdParty/Letter-shell/Src/shell_ext.c ****     char *p = string;
 459              		.loc 1 237 5 view .LVU128
 238:ThirdParty/Letter-shell/Src/shell_ext.c ****     char offset = 0;
 460              		.loc 1 238 5 view .LVU129
 239:ThirdParty/Letter-shell/Src/shell_ext.c ****     signed char sign = 1;
 461              		.loc 1 239 5 view .LVU130
 240:ThirdParty/Letter-shell/Src/shell_ext.c ****     unsigned int valueInt = 0;
 462              		.loc 1 240 5 view .LVU131
 241:ThirdParty/Letter-shell/Src/shell_ext.c ****     float valueFloat = 0.0;
 463              		.loc 1 241 5 view .LVU132
ARM GAS  C:\Users\CL\AppData\Local\Temp\ccPO0qmY.s 			page 14


 242:ThirdParty/Letter-shell/Src/shell_ext.c ****     unsigned int devide = 0;
 464              		.loc 1 242 5 view .LVU133
 243:ThirdParty/Letter-shell/Src/shell_ext.c **** 
 244:ThirdParty/Letter-shell/Src/shell_ext.c ****     if (*string == '-')
 465              		.loc 1 244 5 view .LVU134
 466              		.loc 1 244 9 is_stmt 0 view .LVU135
 467 0006 0378     		ldrb	r3, [r0]	@ zero_extendqisi2
 468              		.loc 1 244 8 view .LVU136
 469 0008 2D2B     		cmp	r3, #45
 470 000a 17D0     		beq	.L57
 239:ThirdParty/Letter-shell/Src/shell_ext.c ****     unsigned int valueInt = 0;
 471              		.loc 1 239 17 view .LVU137
 472 000c 4FF00109 		mov	r9, #1
 245:ThirdParty/Letter-shell/Src/shell_ext.c ****     {
 246:ThirdParty/Letter-shell/Src/shell_ext.c ****         sign = -1;
 247:ThirdParty/Letter-shell/Src/shell_ext.c ****     }
 248:ThirdParty/Letter-shell/Src/shell_ext.c **** 
 249:ThirdParty/Letter-shell/Src/shell_ext.c ****     type = shellExtNumType(string + ((sign == -1) ? 1 : 0));
 473              		.loc 1 249 55 view .LVU138
 474 0010 0020     		movs	r0, #0
 475              	.LVL44:
 476              	.L48:
 477              		.loc 1 249 12 discriminator 4 view .LVU139
 478 0012 3044     		add	r0, r0, r6
 479 0014 FFF7FEFF 		bl	shellExtNumType
 480              	.LVL45:
 481 0018 8046     		mov	r8, r0
 482              	.LVL46:
 250:ThirdParty/Letter-shell/Src/shell_ext.c **** 
 251:ThirdParty/Letter-shell/Src/shell_ext.c ****     switch ((char)type)
 483              		.loc 1 251 5 is_stmt 1 discriminator 4 view .LVU140
 484 001a 0228     		cmp	r0, #2
 485 001c 15D0     		beq	.L58
 486              		.loc 1 251 5 is_stmt 0 view .LVU141
 487 001e 0328     		cmp	r0, #3
 488 0020 16D0     		beq	.L59
 489 0022 0128     		cmp	r0, #1
 490 0024 0ED0     		beq	.L63
 491 0026 0023     		movs	r3, #0
 492 0028 0A27     		movs	r7, #10
 493              	.L49:
 494              	.LVL47:
 252:ThirdParty/Letter-shell/Src/shell_ext.c ****     {
 253:ThirdParty/Letter-shell/Src/shell_ext.c ****     case NUM_TYPE_HEX:
 254:ThirdParty/Letter-shell/Src/shell_ext.c ****         radix = 16;
 255:ThirdParty/Letter-shell/Src/shell_ext.c ****         offset = 2;
 256:ThirdParty/Letter-shell/Src/shell_ext.c ****         break;
 257:ThirdParty/Letter-shell/Src/shell_ext.c ****     
 258:ThirdParty/Letter-shell/Src/shell_ext.c ****     case NUM_TYPE_OCT:
 259:ThirdParty/Letter-shell/Src/shell_ext.c ****         radix = 8;
 260:ThirdParty/Letter-shell/Src/shell_ext.c ****         offset = 1;
 261:ThirdParty/Letter-shell/Src/shell_ext.c ****         break;
 262:ThirdParty/Letter-shell/Src/shell_ext.c **** 
 263:ThirdParty/Letter-shell/Src/shell_ext.c ****     case NUM_TYPE_BIN:
 264:ThirdParty/Letter-shell/Src/shell_ext.c ****         radix = 2;
 265:ThirdParty/Letter-shell/Src/shell_ext.c ****         offset = 2;
 266:ThirdParty/Letter-shell/Src/shell_ext.c ****         break;
ARM GAS  C:\Users\CL\AppData\Local\Temp\ccPO0qmY.s 			page 15


 267:ThirdParty/Letter-shell/Src/shell_ext.c ****     
 268:ThirdParty/Letter-shell/Src/shell_ext.c ****     default:
 269:ThirdParty/Letter-shell/Src/shell_ext.c ****         break;
 270:ThirdParty/Letter-shell/Src/shell_ext.c ****     }
 271:ThirdParty/Letter-shell/Src/shell_ext.c **** 
 272:ThirdParty/Letter-shell/Src/shell_ext.c ****     p = string + offset + ((sign == -1) ? 1 : 0);
 495              		.loc 1 272 5 is_stmt 1 view .LVU142
 496              		.loc 1 272 45 is_stmt 0 view .LVU143
 497 002a B9F1FF3F 		cmp	r9, #-1
 498 002e 12D0     		beq	.L64
 499 0030 0022     		movs	r2, #0
 500              	.L50:
 501              		.loc 1 272 25 discriminator 4 view .LVU144
 502 0032 1344     		add	r3, r3, r2
 503              	.LVL48:
 504              		.loc 1 272 7 discriminator 4 view .LVU145
 505 0034 1E44     		add	r6, r6, r3
 506              	.LVL49:
 273:ThirdParty/Letter-shell/Src/shell_ext.c **** 
 274:ThirdParty/Letter-shell/Src/shell_ext.c ****     while (*p)
 507              		.loc 1 274 5 is_stmt 1 discriminator 4 view .LVU146
 242:ThirdParty/Letter-shell/Src/shell_ext.c **** 
 508              		.loc 1 242 18 is_stmt 0 discriminator 4 view .LVU147
 509 0036 0024     		movs	r4, #0
 240:ThirdParty/Letter-shell/Src/shell_ext.c ****     float valueFloat = 0.0;
 510              		.loc 1 240 18 discriminator 4 view .LVU148
 511 0038 2346     		mov	r3, r4
 512              		.loc 1 274 11 discriminator 4 view .LVU149
 513 003a 10E0     		b	.L51
 514              	.LVL50:
 515              	.L57:
 246:ThirdParty/Letter-shell/Src/shell_ext.c ****     }
 516              		.loc 1 246 14 view .LVU150
 517 003c 4FF0FF39 		mov	r9, #-1
 249:ThirdParty/Letter-shell/Src/shell_ext.c **** 
 518              		.loc 1 249 55 view .LVU151
 519 0040 0120     		movs	r0, #1
 520              	.LVL51:
 249:ThirdParty/Letter-shell/Src/shell_ext.c **** 
 521              		.loc 1 249 55 view .LVU152
 522 0042 E6E7     		b	.L48
 523              	.LVL52:
 524              	.L63:
 265:ThirdParty/Letter-shell/Src/shell_ext.c ****         break;
 525              		.loc 1 265 16 view .LVU153
 526 0044 0223     		movs	r3, #2
 264:ThirdParty/Letter-shell/Src/shell_ext.c ****         offset = 2;
 527              		.loc 1 264 15 view .LVU154
 528 0046 1F46     		mov	r7, r3
 529 0048 EFE7     		b	.L49
 530              	.L58:
 260:ThirdParty/Letter-shell/Src/shell_ext.c ****         break;
 531              		.loc 1 260 16 view .LVU155
 532 004a 0123     		movs	r3, #1
 259:ThirdParty/Letter-shell/Src/shell_ext.c ****         offset = 1;
 533              		.loc 1 259 15 view .LVU156
 534 004c 0827     		movs	r7, #8
ARM GAS  C:\Users\CL\AppData\Local\Temp\ccPO0qmY.s 			page 16


 535 004e ECE7     		b	.L49
 536              	.L59:
 255:ThirdParty/Letter-shell/Src/shell_ext.c ****         break;
 537              		.loc 1 255 16 view .LVU157
 538 0050 0223     		movs	r3, #2
 254:ThirdParty/Letter-shell/Src/shell_ext.c ****         offset = 2;
 539              		.loc 1 254 15 view .LVU158
 540 0052 1027     		movs	r7, #16
 541 0054 E9E7     		b	.L49
 542              	.LVL53:
 543              	.L64:
 272:ThirdParty/Letter-shell/Src/shell_ext.c **** 
 544              		.loc 1 272 45 view .LVU159
 545 0056 0122     		movs	r2, #1
 546 0058 EBE7     		b	.L50
 547              	.LVL54:
 548              	.L66:
 275:ThirdParty/Letter-shell/Src/shell_ext.c ****     {
 276:ThirdParty/Letter-shell/Src/shell_ext.c ****         if (*p == '.')
 277:ThirdParty/Letter-shell/Src/shell_ext.c ****         {
 278:ThirdParty/Letter-shell/Src/shell_ext.c ****             devide = 1;
 549              		.loc 1 278 13 is_stmt 1 view .LVU160
 279:ThirdParty/Letter-shell/Src/shell_ext.c ****             p++;
 550              		.loc 1 279 13 view .LVU161
 551              		.loc 1 279 14 is_stmt 0 view .LVU162
 552 005a 0136     		adds	r6, r6, #1
 553              	.LVL55:
 280:ThirdParty/Letter-shell/Src/shell_ext.c ****             continue;
 554              		.loc 1 280 13 is_stmt 1 view .LVU163
 278:ThirdParty/Letter-shell/Src/shell_ext.c ****             p++;
 555              		.loc 1 278 20 is_stmt 0 view .LVU164
 556 005c 0124     		movs	r4, #1
 557              	.LVL56:
 558              	.L51:
 274:ThirdParty/Letter-shell/Src/shell_ext.c ****     {
 559              		.loc 1 274 11 is_stmt 1 view .LVU165
 274:ThirdParty/Letter-shell/Src/shell_ext.c ****     {
 560              		.loc 1 274 12 is_stmt 0 view .LVU166
 561 005e 3078     		ldrb	r0, [r6]	@ zero_extendqisi2
 274:ThirdParty/Letter-shell/Src/shell_ext.c ****     {
 562              		.loc 1 274 11 view .LVU167
 563 0060 58B1     		cbz	r0, .L65
 276:ThirdParty/Letter-shell/Src/shell_ext.c ****         {
 564              		.loc 1 276 9 is_stmt 1 view .LVU168
 276:ThirdParty/Letter-shell/Src/shell_ext.c ****         {
 565              		.loc 1 276 12 is_stmt 0 view .LVU169
 566 0062 2E28     		cmp	r0, #46
 567 0064 F9D0     		beq	.L66
 281:ThirdParty/Letter-shell/Src/shell_ext.c ****         }
 282:ThirdParty/Letter-shell/Src/shell_ext.c ****         valueInt = valueInt * radix + shellExtToNum(*p);
 568              		.loc 1 282 9 is_stmt 1 view .LVU170
 569              		.loc 1 282 29 is_stmt 0 view .LVU171
 570 0066 03FB07F5 		mul	r5, r3, r7
 571              		.loc 1 282 39 view .LVU172
 572 006a FFF7FEFF 		bl	shellExtToNum
 573              	.LVL57:
 574              		.loc 1 282 18 view .LVU173
ARM GAS  C:\Users\CL\AppData\Local\Temp\ccPO0qmY.s 			page 17


 575 006e 2B18     		adds	r3, r5, r0
 576              	.LVL58:
 283:ThirdParty/Letter-shell/Src/shell_ext.c ****         devide *= 10;
 577              		.loc 1 283 9 is_stmt 1 view .LVU174
 578              		.loc 1 283 16 is_stmt 0 view .LVU175
 579 0070 04EB8404 		add	r4, r4, r4, lsl #2
 580              	.LVL59:
 581              		.loc 1 283 16 view .LVU176
 582 0074 6400     		lsls	r4, r4, #1
 583              	.LVL60:
 284:ThirdParty/Letter-shell/Src/shell_ext.c ****         p++;
 584              		.loc 1 284 9 is_stmt 1 view .LVU177
 585              		.loc 1 284 10 is_stmt 0 view .LVU178
 586 0076 0136     		adds	r6, r6, #1
 587              	.LVL61:
 588              		.loc 1 284 10 view .LVU179
 589 0078 F1E7     		b	.L51
 590              	.L65:
 285:ThirdParty/Letter-shell/Src/shell_ext.c ****     }
 286:ThirdParty/Letter-shell/Src/shell_ext.c ****     if (type == NUM_TYPE_FLOAT && devide != 0)
 591              		.loc 1 286 5 is_stmt 1 view .LVU180
 592              		.loc 1 286 8 is_stmt 0 view .LVU181
 593 007a B8F1040F 		cmp	r8, #4
 594 007e 13D1     		bne	.L55
 595              		.loc 1 286 32 discriminator 1 view .LVU182
 596 0080 94B1     		cbz	r4, .L55
 287:ThirdParty/Letter-shell/Src/shell_ext.c ****     {
 288:ThirdParty/Letter-shell/Src/shell_ext.c ****         valueFloat = (float)valueInt / devide * sign;
 597              		.loc 1 288 9 is_stmt 1 view .LVU183
 598              		.loc 1 288 22 is_stmt 0 view .LVU184
 599 0082 07EE903A 		vmov	s15, r3	@ int
 600 0086 F8EE677A 		vcvt.f32.u32	s15, s15
 601              		.loc 1 288 38 view .LVU185
 602 008a 07EE104A 		vmov	s14, r4	@ int
 603 008e B8EE477A 		vcvt.f32.u32	s14, s14
 604 0092 C7EE876A 		vdiv.f32	s13, s15, s14
 605              		.loc 1 288 47 view .LVU186
 606 0096 07EE909A 		vmov	s15, r9	@ int
 607 009a F8EEE77A 		vcvt.f32.s32	s15, s15
 608              	.LVL62:
 289:ThirdParty/Letter-shell/Src/shell_ext.c ****         return *(unsigned int *)(&valueFloat);
 609              		.loc 1 289 9 is_stmt 1 view .LVU187
 610              		.loc 1 289 16 is_stmt 0 view .LVU188
 611 009e 67EEA67A 		vmul.f32	s15, s15, s13
 612              	.LVL63:
 613              		.loc 1 289 16 view .LVU189
 614 00a2 17EE900A 		vmov	r0, s15
 615 00a6 01E0     		b	.L47
 616              	.LVL64:
 617              	.L55:
 290:ThirdParty/Letter-shell/Src/shell_ext.c ****     }
 291:ThirdParty/Letter-shell/Src/shell_ext.c ****     else
 292:ThirdParty/Letter-shell/Src/shell_ext.c ****     {
 293:ThirdParty/Letter-shell/Src/shell_ext.c ****         return valueInt * sign;
 618              		.loc 1 293 9 is_stmt 1 view .LVU190
 619              		.loc 1 293 25 is_stmt 0 view .LVU191
 620 00a8 03FB09F0 		mul	r0, r3, r9
ARM GAS  C:\Users\CL\AppData\Local\Temp\ccPO0qmY.s 			page 18


 621              	.LVL65:
 622              	.L47:
 294:ThirdParty/Letter-shell/Src/shell_ext.c ****     }
 295:ThirdParty/Letter-shell/Src/shell_ext.c **** }
 623              		.loc 1 295 1 view .LVU192
 624 00ac BDE8F883 		pop	{r3, r4, r5, r6, r7, r8, r9, pc}
 625              		.loc 1 295 1 view .LVU193
 626              		.cfi_endproc
 627              	.LFE4:
 629              		.section	.text.shellExtParseVar,"ax",%progbits
 630              		.align	1
 631              		.syntax unified
 632              		.thumb
 633              		.thumb_func
 635              	shellExtParseVar:
 636              	.LVL66:
 637              	.LFB5:
 296:ThirdParty/Letter-shell/Src/shell_ext.c **** 
 297:ThirdParty/Letter-shell/Src/shell_ext.c **** 
 298:ThirdParty/Letter-shell/Src/shell_ext.c **** /**
 299:ThirdParty/Letter-shell/Src/shell_ext.c ****  * @brief 解析变量参数
 300:ThirdParty/Letter-shell/Src/shell_ext.c ****  * 
 301:ThirdParty/Letter-shell/Src/shell_ext.c ****  * @param shell shell对象
 302:ThirdParty/Letter-shell/Src/shell_ext.c ****  * @param var 变量
 303:ThirdParty/Letter-shell/Src/shell_ext.c ****  * @return unsigned int 变量值
 304:ThirdParty/Letter-shell/Src/shell_ext.c ****  */
 305:ThirdParty/Letter-shell/Src/shell_ext.c **** static unsigned int shellExtParseVar(Shell *shell, char *var)
 306:ThirdParty/Letter-shell/Src/shell_ext.c **** {
 638              		.loc 1 306 1 is_stmt 1 view -0
 639              		.cfi_startproc
 640              		@ args = 0, pretend = 0, frame = 0
 641              		@ frame_needed = 0, uses_anonymous_args = 0
 642              		.loc 1 306 1 is_stmt 0 view .LVU195
 643 0000 10B5     		push	{r4, lr}
 644              	.LCFI2:
 645              		.cfi_def_cfa_offset 8
 646              		.cfi_offset 4, -8
 647              		.cfi_offset 14, -4
 648 0002 0446     		mov	r4, r0
 307:ThirdParty/Letter-shell/Src/shell_ext.c ****     ShellCommand *command = shellSeekCommand(shell,
 649              		.loc 1 307 5 is_stmt 1 view .LVU196
 650              		.loc 1 307 29 is_stmt 0 view .LVU197
 651 0004 0023     		movs	r3, #0
 652 0006 826D     		ldr	r2, [r0, #88]
 653 0008 0131     		adds	r1, r1, #1
 654              	.LVL67:
 655              		.loc 1 307 29 view .LVU198
 656 000a FFF7FEFF 		bl	shellSeekCommand
 657              	.LVL68:
 308:ThirdParty/Letter-shell/Src/shell_ext.c ****                                              var + 1,
 309:ThirdParty/Letter-shell/Src/shell_ext.c ****                                              shell->commandList.base,
 310:ThirdParty/Letter-shell/Src/shell_ext.c ****                                              0);
 311:ThirdParty/Letter-shell/Src/shell_ext.c ****     if (command)
 658              		.loc 1 311 5 is_stmt 1 view .LVU199
 659              		.loc 1 311 8 is_stmt 0 view .LVU200
 660 000e 20B1     		cbz	r0, .L69
 661 0010 0146     		mov	r1, r0
ARM GAS  C:\Users\CL\AppData\Local\Temp\ccPO0qmY.s 			page 19


 312:ThirdParty/Letter-shell/Src/shell_ext.c ****     {
 313:ThirdParty/Letter-shell/Src/shell_ext.c ****         return shellGetVarValue(shell, command);
 662              		.loc 1 313 9 is_stmt 1 view .LVU201
 663              		.loc 1 313 16 is_stmt 0 view .LVU202
 664 0012 2046     		mov	r0, r4
 665              	.LVL69:
 666              		.loc 1 313 16 view .LVU203
 667 0014 FFF7FEFF 		bl	shellGetVarValue
 668              	.LVL70:
 669              	.L67:
 314:ThirdParty/Letter-shell/Src/shell_ext.c ****     }
 315:ThirdParty/Letter-shell/Src/shell_ext.c ****     else
 316:ThirdParty/Letter-shell/Src/shell_ext.c ****     {
 317:ThirdParty/Letter-shell/Src/shell_ext.c ****         return 0;
 318:ThirdParty/Letter-shell/Src/shell_ext.c ****     }
 319:ThirdParty/Letter-shell/Src/shell_ext.c **** }
 670              		.loc 1 319 1 view .LVU204
 671 0018 10BD     		pop	{r4, pc}
 672              	.LVL71:
 673              	.L69:
 317:ThirdParty/Letter-shell/Src/shell_ext.c ****     }
 674              		.loc 1 317 16 view .LVU205
 675 001a 0020     		movs	r0, #0
 676              	.LVL72:
 317:ThirdParty/Letter-shell/Src/shell_ext.c ****     }
 677              		.loc 1 317 16 view .LVU206
 678 001c FCE7     		b	.L67
 679              		.cfi_endproc
 680              	.LFE5:
 682              		.section	.text.shellExtParsePara,"ax",%progbits
 683              		.align	1
 684              		.global	shellExtParsePara
 685              		.syntax unified
 686              		.thumb
 687              		.thumb_func
 689              	shellExtParsePara:
 690              	.LVL73:
 691              	.LFB6:
 320:ThirdParty/Letter-shell/Src/shell_ext.c **** 
 321:ThirdParty/Letter-shell/Src/shell_ext.c **** 
 322:ThirdParty/Letter-shell/Src/shell_ext.c **** /**
 323:ThirdParty/Letter-shell/Src/shell_ext.c ****  * @brief 解析参数
 324:ThirdParty/Letter-shell/Src/shell_ext.c ****  * 
 325:ThirdParty/Letter-shell/Src/shell_ext.c ****  * @param shell shell对象
 326:ThirdParty/Letter-shell/Src/shell_ext.c ****  * @param string 参数
 327:ThirdParty/Letter-shell/Src/shell_ext.c ****  * @param result 解析结果
 328:ThirdParty/Letter-shell/Src/shell_ext.c ****  * 
 329:ThirdParty/Letter-shell/Src/shell_ext.c ****  * @return int 0 解析成功 --1 解析失败
 330:ThirdParty/Letter-shell/Src/shell_ext.c ****  */
 331:ThirdParty/Letter-shell/Src/shell_ext.c **** int shellExtParsePara(Shell *shell, char *string, char *type, unsigned int *result)
 332:ThirdParty/Letter-shell/Src/shell_ext.c **** {
 692              		.loc 1 332 1 is_stmt 1 view -0
 693              		.cfi_startproc
 694              		@ args = 0, pretend = 0, frame = 0
 695              		@ frame_needed = 0, uses_anonymous_args = 0
 696              		.loc 1 332 1 is_stmt 0 view .LVU208
 697 0000 10B5     		push	{r4, lr}
ARM GAS  C:\Users\CL\AppData\Local\Temp\ccPO0qmY.s 			page 20


 698              	.LCFI3:
 699              		.cfi_def_cfa_offset 8
 700              		.cfi_offset 4, -8
 701              		.cfi_offset 14, -4
 702 0002 8446     		mov	ip, r0
 703 0004 0846     		mov	r0, r1
 704              	.LVL74:
 705              		.loc 1 332 1 view .LVU209
 706 0006 1C46     		mov	r4, r3
 333:ThirdParty/Letter-shell/Src/shell_ext.c ****     if (type == NULL || (*string == '$' && *(string + 1)))
 707              		.loc 1 333 5 is_stmt 1 view .LVU210
 708              		.loc 1 333 8 is_stmt 0 view .LVU211
 709 0008 22B1     		cbz	r2, .L72
 710              		.loc 1 333 26 discriminator 1 view .LVU212
 711 000a 0B78     		ldrb	r3, [r1]	@ zero_extendqisi2
 712              	.LVL75:
 713              		.loc 1 333 22 discriminator 1 view .LVU213
 714 000c 242B     		cmp	r3, #36
 715 000e 2AD1     		bne	.L78
 716              		.loc 1 333 44 discriminator 2 view .LVU214
 717 0010 4B78     		ldrb	r3, [r1, #1]	@ zero_extendqisi2
 718              		.loc 1 333 41 discriminator 2 view .LVU215
 719 0012 5BB3     		cbz	r3, .L79
 720              	.L72:
 334:ThirdParty/Letter-shell/Src/shell_ext.c ****     {
 335:ThirdParty/Letter-shell/Src/shell_ext.c ****         if (*string == '\'' && *(string + 1))
 721              		.loc 1 335 9 is_stmt 1 view .LVU216
 722              		.loc 1 335 13 is_stmt 0 view .LVU217
 723 0014 0278     		ldrb	r2, [r0]	@ zero_extendqisi2
 724              	.LVL76:
 725              		.loc 1 335 12 view .LVU218
 726 0016 272A     		cmp	r2, #39
 727 0018 0ED0     		beq	.L82
 728              	.L74:
 336:ThirdParty/Letter-shell/Src/shell_ext.c ****         {
 337:ThirdParty/Letter-shell/Src/shell_ext.c ****             *result = (unsigned int)shellExtParseChar(string);
 338:ThirdParty/Letter-shell/Src/shell_ext.c ****             return 0;
 339:ThirdParty/Letter-shell/Src/shell_ext.c ****         }
 340:ThirdParty/Letter-shell/Src/shell_ext.c ****         else if (*string == '-' || (*string >= '0' && *string <= '9'))
 729              		.loc 1 340 14 is_stmt 1 view .LVU219
 730              		.loc 1 340 17 is_stmt 0 view .LVU220
 731 001a 2D2A     		cmp	r2, #45
 732 001c 14D0     		beq	.L75
 733              		.loc 1 340 52 discriminator 1 view .LVU221
 734 001e A2F13001 		sub	r1, r2, #48
 735              	.LVL77:
 736              		.loc 1 340 52 discriminator 1 view .LVU222
 737 0022 C9B2     		uxtb	r1, r1
 738              		.loc 1 340 33 discriminator 1 view .LVU223
 739 0024 0929     		cmp	r1, #9
 740 0026 0FD9     		bls	.L75
 341:ThirdParty/Letter-shell/Src/shell_ext.c ****         {
 342:ThirdParty/Letter-shell/Src/shell_ext.c ****             *result = (unsigned int)shellExtParseNumber(string);
 343:ThirdParty/Letter-shell/Src/shell_ext.c ****             return 0;
 344:ThirdParty/Letter-shell/Src/shell_ext.c ****         }
 345:ThirdParty/Letter-shell/Src/shell_ext.c ****         else if (*string == '$' && *(string + 1))
 741              		.loc 1 345 14 is_stmt 1 view .LVU224
ARM GAS  C:\Users\CL\AppData\Local\Temp\ccPO0qmY.s 			page 21


 742              		.loc 1 345 17 is_stmt 0 view .LVU225
 743 0028 242A     		cmp	r2, #36
 744 002a 12D0     		beq	.L83
 745              	.L77:
 346:ThirdParty/Letter-shell/Src/shell_ext.c ****         {
 347:ThirdParty/Letter-shell/Src/shell_ext.c ****             *result = shellExtParseVar(shell, string);
 348:ThirdParty/Letter-shell/Src/shell_ext.c ****             return 0;
 349:ThirdParty/Letter-shell/Src/shell_ext.c ****         }
 350:ThirdParty/Letter-shell/Src/shell_ext.c ****         else if (*string)
 746              		.loc 1 350 14 is_stmt 1 view .LVU226
 747              		.loc 1 350 17 is_stmt 0 view .LVU227
 748 002c 0AB3     		cbz	r2, .L80
 351:ThirdParty/Letter-shell/Src/shell_ext.c ****         {
 352:ThirdParty/Letter-shell/Src/shell_ext.c ****             *result = (unsigned int)shellExtParseString(string);
 749              		.loc 1 352 13 is_stmt 1 view .LVU228
 750              		.loc 1 352 37 is_stmt 0 view .LVU229
 751 002e FFF7FEFF 		bl	shellExtParseString
 752              	.LVL78:
 753              		.loc 1 352 21 view .LVU230
 754 0032 2060     		str	r0, [r4]
 353:ThirdParty/Letter-shell/Src/shell_ext.c ****             return 0;
 755              		.loc 1 353 13 is_stmt 1 view .LVU231
 756              		.loc 1 353 20 is_stmt 0 view .LVU232
 757 0034 0020     		movs	r0, #0
 758              	.L71:
 354:ThirdParty/Letter-shell/Src/shell_ext.c ****         }
 355:ThirdParty/Letter-shell/Src/shell_ext.c ****     }
 356:ThirdParty/Letter-shell/Src/shell_ext.c **** #if SHELL_USING_FUNC_SIGNATURE == 1
 357:ThirdParty/Letter-shell/Src/shell_ext.c ****     else
 358:ThirdParty/Letter-shell/Src/shell_ext.c ****     {
 359:ThirdParty/Letter-shell/Src/shell_ext.c ****         if (strcmp("c", type) == 0)
 360:ThirdParty/Letter-shell/Src/shell_ext.c ****         {
 361:ThirdParty/Letter-shell/Src/shell_ext.c ****             *result = (unsigned int)shellExtParseChar(string);
 362:ThirdParty/Letter-shell/Src/shell_ext.c ****             return 0;
 363:ThirdParty/Letter-shell/Src/shell_ext.c ****         }
 364:ThirdParty/Letter-shell/Src/shell_ext.c ****         else if (strcmp("i", type) == 0
 365:ThirdParty/Letter-shell/Src/shell_ext.c ****                  || strcmp("f", type) == 0
 366:ThirdParty/Letter-shell/Src/shell_ext.c ****                  || strcmp("p", type) == 0)
 367:ThirdParty/Letter-shell/Src/shell_ext.c ****         {
 368:ThirdParty/Letter-shell/Src/shell_ext.c ****             *result = (unsigned int)shellExtParseNumber(string);
 369:ThirdParty/Letter-shell/Src/shell_ext.c ****             return 0;
 370:ThirdParty/Letter-shell/Src/shell_ext.c ****         }
 371:ThirdParty/Letter-shell/Src/shell_ext.c ****         else if (strcmp("s", type) == 0)
 372:ThirdParty/Letter-shell/Src/shell_ext.c ****         {
 373:ThirdParty/Letter-shell/Src/shell_ext.c ****             *result = (unsigned int)shellExtParseString(string);
 374:ThirdParty/Letter-shell/Src/shell_ext.c ****             return 0;
 375:ThirdParty/Letter-shell/Src/shell_ext.c ****         }
 376:ThirdParty/Letter-shell/Src/shell_ext.c ****         else
 377:ThirdParty/Letter-shell/Src/shell_ext.c ****         {
 378:ThirdParty/Letter-shell/Src/shell_ext.c ****             ShellCommand *command = shellSeekCommand(shell,
 379:ThirdParty/Letter-shell/Src/shell_ext.c ****                                                      type,
 380:ThirdParty/Letter-shell/Src/shell_ext.c ****                                                      shell->commandList.base,
 381:ThirdParty/Letter-shell/Src/shell_ext.c ****                                                      0);
 382:ThirdParty/Letter-shell/Src/shell_ext.c ****             if (command != NULL)
 383:ThirdParty/Letter-shell/Src/shell_ext.c ****             {
 384:ThirdParty/Letter-shell/Src/shell_ext.c ****                 void *param;
 385:ThirdParty/Letter-shell/Src/shell_ext.c ****                 if (command->data.paramParser.parser(shellExtParseString(string), &param) == 0)
ARM GAS  C:\Users\CL\AppData\Local\Temp\ccPO0qmY.s 			page 22


 386:ThirdParty/Letter-shell/Src/shell_ext.c ****                 {
 387:ThirdParty/Letter-shell/Src/shell_ext.c ****                     *result = (unsigned int)param;
 388:ThirdParty/Letter-shell/Src/shell_ext.c ****                     return 0;
 389:ThirdParty/Letter-shell/Src/shell_ext.c ****                 }
 390:ThirdParty/Letter-shell/Src/shell_ext.c ****                 else
 391:ThirdParty/Letter-shell/Src/shell_ext.c ****                 {
 392:ThirdParty/Letter-shell/Src/shell_ext.c ****                     shellWriteString(shell, "Parse param for type: ");
 393:ThirdParty/Letter-shell/Src/shell_ext.c ****                     shellWriteString(shell, type);
 394:ThirdParty/Letter-shell/Src/shell_ext.c ****                     shellWriteString(shell, " failed\r\n");
 395:ThirdParty/Letter-shell/Src/shell_ext.c ****                     return -1;
 396:ThirdParty/Letter-shell/Src/shell_ext.c ****                 }
 397:ThirdParty/Letter-shell/Src/shell_ext.c ****             }
 398:ThirdParty/Letter-shell/Src/shell_ext.c ****             else
 399:ThirdParty/Letter-shell/Src/shell_ext.c ****             {
 400:ThirdParty/Letter-shell/Src/shell_ext.c ****                 shellWriteString(shell, "Can't find the param parser for type: ");
 401:ThirdParty/Letter-shell/Src/shell_ext.c ****                 shellWriteString(shell, type);
 402:ThirdParty/Letter-shell/Src/shell_ext.c ****                 shellWriteString(shell, "\r\n");
 403:ThirdParty/Letter-shell/Src/shell_ext.c ****                 return -1;
 404:ThirdParty/Letter-shell/Src/shell_ext.c ****             }
 405:ThirdParty/Letter-shell/Src/shell_ext.c ****         }
 406:ThirdParty/Letter-shell/Src/shell_ext.c ****     }
 407:ThirdParty/Letter-shell/Src/shell_ext.c **** #endif /** SHELL_USING_FUNC_SIGNATURE == 1 */
 408:ThirdParty/Letter-shell/Src/shell_ext.c ****     return -1;
 409:ThirdParty/Letter-shell/Src/shell_ext.c **** }
 759              		.loc 1 409 1 view .LVU233
 760 0036 10BD     		pop	{r4, pc}
 761              	.LVL79:
 762              	.L82:
 335:ThirdParty/Letter-shell/Src/shell_ext.c ****         {
 763              		.loc 1 335 32 discriminator 1 view .LVU234
 764 0038 4378     		ldrb	r3, [r0, #1]	@ zero_extendqisi2
 335:ThirdParty/Letter-shell/Src/shell_ext.c ****         {
 765              		.loc 1 335 29 discriminator 1 view .LVU235
 766 003a 002B     		cmp	r3, #0
 767 003c EDD0     		beq	.L74
 337:ThirdParty/Letter-shell/Src/shell_ext.c ****             return 0;
 768              		.loc 1 337 13 is_stmt 1 view .LVU236
 337:ThirdParty/Letter-shell/Src/shell_ext.c ****             return 0;
 769              		.loc 1 337 37 is_stmt 0 view .LVU237
 770 003e FFF7FEFF 		bl	shellExtParseChar
 771              	.LVL80:
 337:ThirdParty/Letter-shell/Src/shell_ext.c ****             return 0;
 772              		.loc 1 337 21 view .LVU238
 773 0042 2060     		str	r0, [r4]
 338:ThirdParty/Letter-shell/Src/shell_ext.c ****         }
 774              		.loc 1 338 13 is_stmt 1 view .LVU239
 338:ThirdParty/Letter-shell/Src/shell_ext.c ****         }
 775              		.loc 1 338 20 is_stmt 0 view .LVU240
 776 0044 0020     		movs	r0, #0
 777 0046 F6E7     		b	.L71
 778              	.LVL81:
 779              	.L75:
 342:ThirdParty/Letter-shell/Src/shell_ext.c ****             return 0;
 780              		.loc 1 342 13 is_stmt 1 view .LVU241
 342:ThirdParty/Letter-shell/Src/shell_ext.c ****             return 0;
 781              		.loc 1 342 23 is_stmt 0 view .LVU242
 782 0048 FFF7FEFF 		bl	shellExtParseNumber
ARM GAS  C:\Users\CL\AppData\Local\Temp\ccPO0qmY.s 			page 23


 783              	.LVL82:
 342:ThirdParty/Letter-shell/Src/shell_ext.c ****             return 0;
 784              		.loc 1 342 21 view .LVU243
 785 004c 2060     		str	r0, [r4]
 343:ThirdParty/Letter-shell/Src/shell_ext.c ****         }
 786              		.loc 1 343 13 is_stmt 1 view .LVU244
 343:ThirdParty/Letter-shell/Src/shell_ext.c ****         }
 787              		.loc 1 343 20 is_stmt 0 view .LVU245
 788 004e 0020     		movs	r0, #0
 789 0050 F1E7     		b	.L71
 790              	.LVL83:
 791              	.L83:
 345:ThirdParty/Letter-shell/Src/shell_ext.c ****         {
 792              		.loc 1 345 36 discriminator 1 view .LVU246
 793 0052 4378     		ldrb	r3, [r0, #1]	@ zero_extendqisi2
 345:ThirdParty/Letter-shell/Src/shell_ext.c ****         {
 794              		.loc 1 345 33 discriminator 1 view .LVU247
 795 0054 002B     		cmp	r3, #0
 796 0056 E9D0     		beq	.L77
 347:ThirdParty/Letter-shell/Src/shell_ext.c ****             return 0;
 797              		.loc 1 347 13 is_stmt 1 view .LVU248
 347:ThirdParty/Letter-shell/Src/shell_ext.c ****             return 0;
 798              		.loc 1 347 23 is_stmt 0 view .LVU249
 799 0058 0146     		mov	r1, r0
 800 005a 6046     		mov	r0, ip
 801              	.LVL84:
 347:ThirdParty/Letter-shell/Src/shell_ext.c ****             return 0;
 802              		.loc 1 347 23 view .LVU250
 803 005c FFF7FEFF 		bl	shellExtParseVar
 804              	.LVL85:
 347:ThirdParty/Letter-shell/Src/shell_ext.c ****             return 0;
 805              		.loc 1 347 21 view .LVU251
 806 0060 2060     		str	r0, [r4]
 348:ThirdParty/Letter-shell/Src/shell_ext.c ****         }
 807              		.loc 1 348 13 is_stmt 1 view .LVU252
 348:ThirdParty/Letter-shell/Src/shell_ext.c ****         }
 808              		.loc 1 348 20 is_stmt 0 view .LVU253
 809 0062 0020     		movs	r0, #0
 810 0064 E7E7     		b	.L71
 811              	.LVL86:
 812              	.L78:
 408:ThirdParty/Letter-shell/Src/shell_ext.c **** }
 813              		.loc 1 408 12 view .LVU254
 814 0066 4FF0FF30 		mov	r0, #-1
 815              	.LVL87:
 408:ThirdParty/Letter-shell/Src/shell_ext.c **** }
 816              		.loc 1 408 12 view .LVU255
 817 006a E4E7     		b	.L71
 818              	.LVL88:
 819              	.L79:
 408:ThirdParty/Letter-shell/Src/shell_ext.c **** }
 820              		.loc 1 408 12 view .LVU256
 821 006c 4FF0FF30 		mov	r0, #-1
 822              	.LVL89:
 408:ThirdParty/Letter-shell/Src/shell_ext.c **** }
 823              		.loc 1 408 12 view .LVU257
 824 0070 E1E7     		b	.L71
ARM GAS  C:\Users\CL\AppData\Local\Temp\ccPO0qmY.s 			page 24


 825              	.LVL90:
 826              	.L80:
 408:ThirdParty/Letter-shell/Src/shell_ext.c **** }
 827              		.loc 1 408 12 view .LVU258
 828 0072 4FF0FF30 		mov	r0, #-1
 829              	.LVL91:
 408:ThirdParty/Letter-shell/Src/shell_ext.c **** }
 830              		.loc 1 408 12 view .LVU259
 831 0076 DEE7     		b	.L71
 832              		.cfi_endproc
 833              	.LFE6:
 835              		.section	.text.shellExtRun,"ax",%progbits
 836              		.align	1
 837              		.global	shellExtRun
 838              		.syntax unified
 839              		.thumb
 840              		.thumb_func
 842              	shellExtRun:
 843              	.LVL92:
 844              	.LFB7:
 410:ThirdParty/Letter-shell/Src/shell_ext.c **** 
 411:ThirdParty/Letter-shell/Src/shell_ext.c **** 
 412:ThirdParty/Letter-shell/Src/shell_ext.c **** #if SHELL_USING_FUNC_SIGNATURE == 1
 413:ThirdParty/Letter-shell/Src/shell_ext.c **** int shellExtCleanerPara(Shell *shell, char *type, unsigned int param)
 414:ThirdParty/Letter-shell/Src/shell_ext.c **** {
 415:ThirdParty/Letter-shell/Src/shell_ext.c ****     if (type == NULL)
 416:ThirdParty/Letter-shell/Src/shell_ext.c ****     {
 417:ThirdParty/Letter-shell/Src/shell_ext.c ****         return 0;
 418:ThirdParty/Letter-shell/Src/shell_ext.c ****     }
 419:ThirdParty/Letter-shell/Src/shell_ext.c ****     else
 420:ThirdParty/Letter-shell/Src/shell_ext.c ****     {
 421:ThirdParty/Letter-shell/Src/shell_ext.c ****         if (strcmp("c", type) == 0
 422:ThirdParty/Letter-shell/Src/shell_ext.c ****             || strcmp("i", type) == 0
 423:ThirdParty/Letter-shell/Src/shell_ext.c ****             || strcmp("f", type) == 0
 424:ThirdParty/Letter-shell/Src/shell_ext.c ****             || strcmp("p", type) == 0
 425:ThirdParty/Letter-shell/Src/shell_ext.c ****             || strcmp("s", type) == 0)
 426:ThirdParty/Letter-shell/Src/shell_ext.c ****         {
 427:ThirdParty/Letter-shell/Src/shell_ext.c ****             return 0;
 428:ThirdParty/Letter-shell/Src/shell_ext.c ****         }
 429:ThirdParty/Letter-shell/Src/shell_ext.c ****         else
 430:ThirdParty/Letter-shell/Src/shell_ext.c ****         {
 431:ThirdParty/Letter-shell/Src/shell_ext.c ****             ShellCommand *command = shellSeekCommand(shell,
 432:ThirdParty/Letter-shell/Src/shell_ext.c ****                                                      type,
 433:ThirdParty/Letter-shell/Src/shell_ext.c ****                                                      shell->commandList.base,
 434:ThirdParty/Letter-shell/Src/shell_ext.c ****                                                      0);
 435:ThirdParty/Letter-shell/Src/shell_ext.c ****             if (command != NULL && command->data.paramParser.cleaner != NULL)
 436:ThirdParty/Letter-shell/Src/shell_ext.c ****             {
 437:ThirdParty/Letter-shell/Src/shell_ext.c ****                 return command->data.paramParser.cleaner((void *)param);
 438:ThirdParty/Letter-shell/Src/shell_ext.c ****             }
 439:ThirdParty/Letter-shell/Src/shell_ext.c ****         }
 440:ThirdParty/Letter-shell/Src/shell_ext.c ****     }
 441:ThirdParty/Letter-shell/Src/shell_ext.c ****     return -1;
 442:ThirdParty/Letter-shell/Src/shell_ext.c **** }
 443:ThirdParty/Letter-shell/Src/shell_ext.c **** #endif /** SHELL_USING_FUNC_SIGNATURE == 1 */
 444:ThirdParty/Letter-shell/Src/shell_ext.c **** 
 445:ThirdParty/Letter-shell/Src/shell_ext.c **** 
 446:ThirdParty/Letter-shell/Src/shell_ext.c **** /**
ARM GAS  C:\Users\CL\AppData\Local\Temp\ccPO0qmY.s 			page 25


 447:ThirdParty/Letter-shell/Src/shell_ext.c ****  * @brief 执行命令
 448:ThirdParty/Letter-shell/Src/shell_ext.c ****  * 
 449:ThirdParty/Letter-shell/Src/shell_ext.c ****  * @param shell shell对象
 450:ThirdParty/Letter-shell/Src/shell_ext.c ****  * @param command 命令
 451:ThirdParty/Letter-shell/Src/shell_ext.c ****  * @param argc 参数个数
 452:ThirdParty/Letter-shell/Src/shell_ext.c ****  * @param argv 参数
 453:ThirdParty/Letter-shell/Src/shell_ext.c ****  * @return int 返回值
 454:ThirdParty/Letter-shell/Src/shell_ext.c ****  */
 455:ThirdParty/Letter-shell/Src/shell_ext.c **** int shellExtRun(Shell *shell, ShellCommand *command, int argc, char *argv[])
 456:ThirdParty/Letter-shell/Src/shell_ext.c **** {
 845              		.loc 1 456 1 is_stmt 1 view -0
 846              		.cfi_startproc
 847              		@ args = 0, pretend = 0, frame = 32
 848              		@ frame_needed = 0, uses_anonymous_args = 0
 849              		.loc 1 456 1 is_stmt 0 view .LVU261
 850 0000 2DE9F043 		push	{r4, r5, r6, r7, r8, r9, lr}
 851              	.LCFI4:
 852              		.cfi_def_cfa_offset 28
 853              		.cfi_offset 4, -28
 854              		.cfi_offset 5, -24
 855              		.cfi_offset 6, -20
 856              		.cfi_offset 7, -16
 857              		.cfi_offset 8, -12
 858              		.cfi_offset 9, -8
 859              		.cfi_offset 14, -4
 860 0004 8DB0     		sub	sp, sp, #52
 861              	.LCFI5:
 862              		.cfi_def_cfa_offset 80
 863 0006 0646     		mov	r6, r0
 864 0008 8946     		mov	r9, r1
 865 000a 1546     		mov	r5, r2
 866 000c 1F46     		mov	r7, r3
 457:ThirdParty/Letter-shell/Src/shell_ext.c ****     int ret = 0;
 867              		.loc 1 457 5 is_stmt 1 view .LVU262
 868              	.LVL93:
 458:ThirdParty/Letter-shell/Src/shell_ext.c ****     unsigned int params[SHELL_PARAMETER_MAX_NUMBER] = {0};
 869              		.loc 1 458 5 view .LVU263
 870              		.loc 1 458 18 is_stmt 0 view .LVU264
 871 000e 2022     		movs	r2, #32
 872              	.LVL94:
 873              		.loc 1 458 18 view .LVU265
 874 0010 0021     		movs	r1, #0
 875              	.LVL95:
 876              		.loc 1 458 18 view .LVU266
 877 0012 04A8     		add	r0, sp, #16
 878              	.LVL96:
 879              		.loc 1 458 18 view .LVU267
 880 0014 FFF7FEFF 		bl	memset
 881              	.LVL97:
 459:ThirdParty/Letter-shell/Src/shell_ext.c ****     int paramNum = command->attr.attrs.paramNum > (argc - 1) ? 
 882              		.loc 1 459 5 is_stmt 1 view .LVU268
 883              		.loc 1 459 39 is_stmt 0 view .LVU269
 884 0018 99F80280 		ldrb	r8, [r9, #2]	@ zero_extendqisi2
 885 001c 08F00F08 		and	r8, r8, #15
 460:ThirdParty/Letter-shell/Src/shell_ext.c ****         command->attr.attrs.paramNum : (argc - 1);
 886              		.loc 1 460 38 view .LVU270
 887 0020 A845     		cmp	r8, r5
ARM GAS  C:\Users\CL\AppData\Local\Temp\ccPO0qmY.s 			page 26


 888 0022 01DA     		bge	.L85
 889              		.loc 1 460 38 discriminator 2 view .LVU271
 890 0024 05F1FF38 		add	r8, r5, #-1
 891              	.L85:
 892              	.LVL98:
 461:ThirdParty/Letter-shell/Src/shell_ext.c **** #if SHELL_USING_FUNC_SIGNATURE == 1
 462:ThirdParty/Letter-shell/Src/shell_ext.c ****     char type[16];
 463:ThirdParty/Letter-shell/Src/shell_ext.c ****     int index = 0;
 464:ThirdParty/Letter-shell/Src/shell_ext.c ****     
 465:ThirdParty/Letter-shell/Src/shell_ext.c ****     if (command->data.cmd.signature != NULL)
 466:ThirdParty/Letter-shell/Src/shell_ext.c ****     {
 467:ThirdParty/Letter-shell/Src/shell_ext.c ****         int except = shellGetParamNumExcept(command->data.cmd.signature);
 468:ThirdParty/Letter-shell/Src/shell_ext.c ****         if (except != argc - 1)
 469:ThirdParty/Letter-shell/Src/shell_ext.c ****         {
 470:ThirdParty/Letter-shell/Src/shell_ext.c ****             shellWriteString(shell, "Parameters number incorrect\r\n");
 471:ThirdParty/Letter-shell/Src/shell_ext.c ****             return -1;
 472:ThirdParty/Letter-shell/Src/shell_ext.c ****         }
 473:ThirdParty/Letter-shell/Src/shell_ext.c ****     }
 474:ThirdParty/Letter-shell/Src/shell_ext.c **** #endif
 475:ThirdParty/Letter-shell/Src/shell_ext.c ****     for (int i = 0; i < argc - 1; i++)
 893              		.loc 1 475 5 is_stmt 1 view .LVU272
 894              	.LBB2:
 895              		.loc 1 475 10 view .LVU273
 896              		.loc 1 475 14 is_stmt 0 view .LVU274
 897 0028 0024     		movs	r4, #0
 898              		.loc 1 475 5 view .LVU275
 899 002a 00E0     		b	.L86
 900              	.LVL99:
 901              	.L102:
 902              		.loc 1 475 35 is_stmt 1 discriminator 2 view .LVU276
 903              		.loc 1 475 36 is_stmt 0 discriminator 2 view .LVU277
 904 002c 0134     		adds	r4, r4, #1
 905              	.LVL100:
 906              	.L86:
 907              		.loc 1 475 21 is_stmt 1 discriminator 1 view .LVU278
 908              		.loc 1 475 30 is_stmt 0 discriminator 1 view .LVU279
 909 002e 6B1E     		subs	r3, r5, #1
 910              		.loc 1 475 5 discriminator 1 view .LVU280
 911 0030 A342     		cmp	r3, r4
 912 0032 11DD     		ble	.L101
 476:ThirdParty/Letter-shell/Src/shell_ext.c ****     {
 477:ThirdParty/Letter-shell/Src/shell_ext.c ****     #if SHELL_USING_FUNC_SIGNATURE == 1
 478:ThirdParty/Letter-shell/Src/shell_ext.c ****         if (command->data.cmd.signature != NULL) {
 479:ThirdParty/Letter-shell/Src/shell_ext.c ****             index = shellGetNextParamType(command->data.cmd.signature, index, type);
 480:ThirdParty/Letter-shell/Src/shell_ext.c ****             if (shellExtParsePara(shell, argv[i + 1], type, &params[i]) != 0)
 481:ThirdParty/Letter-shell/Src/shell_ext.c ****             {
 482:ThirdParty/Letter-shell/Src/shell_ext.c ****                 return -1;
 483:ThirdParty/Letter-shell/Src/shell_ext.c ****             }
 484:ThirdParty/Letter-shell/Src/shell_ext.c ****         }
 485:ThirdParty/Letter-shell/Src/shell_ext.c ****         else
 486:ThirdParty/Letter-shell/Src/shell_ext.c ****     #endif /** SHELL_USING_FUNC_SIGNATURE == 1 */
 487:ThirdParty/Letter-shell/Src/shell_ext.c ****         {
 488:ThirdParty/Letter-shell/Src/shell_ext.c ****             if (shellExtParsePara(shell, argv[i + 1], NULL, &params[i]) != 0)
 913              		.loc 1 488 13 is_stmt 1 view .LVU281
 914              		.loc 1 488 46 is_stmt 0 view .LVU282
 915 0034 04F1010C 		add	ip, r4, #1
 916              		.loc 1 488 17 view .LVU283
ARM GAS  C:\Users\CL\AppData\Local\Temp\ccPO0qmY.s 			page 27


 917 0038 04AB     		add	r3, sp, #16
 918 003a 03EB8403 		add	r3, r3, r4, lsl #2
 919 003e 0022     		movs	r2, #0
 920 0040 57F82C10 		ldr	r1, [r7, ip, lsl #2]
 921 0044 3046     		mov	r0, r6
 922 0046 FFF7FEFF 		bl	shellExtParsePara
 923              	.LVL101:
 924              		.loc 1 488 16 view .LVU284
 925 004a 0028     		cmp	r0, #0
 926 004c EED0     		beq	.L102
 489:ThirdParty/Letter-shell/Src/shell_ext.c ****             {
 490:ThirdParty/Letter-shell/Src/shell_ext.c ****                 return -1;
 927              		.loc 1 490 24 view .LVU285
 928 004e 4FF0FF30 		mov	r0, #-1
 929              	.LVL102:
 930              	.L84:
 931              		.loc 1 490 24 view .LVU286
 932              	.LBE2:
 491:ThirdParty/Letter-shell/Src/shell_ext.c ****             }
 492:ThirdParty/Letter-shell/Src/shell_ext.c ****         }
 493:ThirdParty/Letter-shell/Src/shell_ext.c ****     }
 494:ThirdParty/Letter-shell/Src/shell_ext.c ****     switch (paramNum)
 495:ThirdParty/Letter-shell/Src/shell_ext.c ****     {
 496:ThirdParty/Letter-shell/Src/shell_ext.c **** #if SHELL_PARAMETER_MAX_NUMBER >= 1
 497:ThirdParty/Letter-shell/Src/shell_ext.c ****     case 0:
 498:ThirdParty/Letter-shell/Src/shell_ext.c ****         ret = command->data.cmd.function();
 499:ThirdParty/Letter-shell/Src/shell_ext.c ****         break;
 500:ThirdParty/Letter-shell/Src/shell_ext.c **** #endif /** SHELL_PARAMETER_MAX_NUMBER >= 1 */
 501:ThirdParty/Letter-shell/Src/shell_ext.c **** #if SHELL_PARAMETER_MAX_NUMBER >= 2
 502:ThirdParty/Letter-shell/Src/shell_ext.c ****     case 1:
 503:ThirdParty/Letter-shell/Src/shell_ext.c ****     {
 504:ThirdParty/Letter-shell/Src/shell_ext.c ****         int (*func)(int) = command->data.cmd.function;
 505:ThirdParty/Letter-shell/Src/shell_ext.c ****         ret = func(params[0]);
 506:ThirdParty/Letter-shell/Src/shell_ext.c ****         break;
 507:ThirdParty/Letter-shell/Src/shell_ext.c ****     }
 508:ThirdParty/Letter-shell/Src/shell_ext.c **** #endif /** SHELL_PARAMETER_MAX_NUMBER >= 2 */
 509:ThirdParty/Letter-shell/Src/shell_ext.c **** #if SHELL_PARAMETER_MAX_NUMBER >= 3
 510:ThirdParty/Letter-shell/Src/shell_ext.c ****     case 2:
 511:ThirdParty/Letter-shell/Src/shell_ext.c ****     {
 512:ThirdParty/Letter-shell/Src/shell_ext.c ****         int (*func)(int, int) = command->data.cmd.function;
 513:ThirdParty/Letter-shell/Src/shell_ext.c ****         ret = func(params[0], params[1]);
 514:ThirdParty/Letter-shell/Src/shell_ext.c ****         break;
 515:ThirdParty/Letter-shell/Src/shell_ext.c ****     }
 516:ThirdParty/Letter-shell/Src/shell_ext.c **** #endif /** SHELL_PARAMETER_MAX_NUMBER >= 3 */
 517:ThirdParty/Letter-shell/Src/shell_ext.c **** #if SHELL_PARAMETER_MAX_NUMBER >= 4
 518:ThirdParty/Letter-shell/Src/shell_ext.c ****     case 3:
 519:ThirdParty/Letter-shell/Src/shell_ext.c ****     {
 520:ThirdParty/Letter-shell/Src/shell_ext.c ****         int (*func)(int, int, int) = command->data.cmd.function;
 521:ThirdParty/Letter-shell/Src/shell_ext.c ****         ret = func(params[0], params[1], params[2]);
 522:ThirdParty/Letter-shell/Src/shell_ext.c ****         break;
 523:ThirdParty/Letter-shell/Src/shell_ext.c ****     }
 524:ThirdParty/Letter-shell/Src/shell_ext.c **** #endif /** SHELL_PARAMETER_MAX_NUMBER >= 4 */
 525:ThirdParty/Letter-shell/Src/shell_ext.c **** #if SHELL_PARAMETER_MAX_NUMBER >= 5
 526:ThirdParty/Letter-shell/Src/shell_ext.c ****     case 4:
 527:ThirdParty/Letter-shell/Src/shell_ext.c ****     {
 528:ThirdParty/Letter-shell/Src/shell_ext.c ****         int (*func)(int, int, int, int) = command->data.cmd.function;
 529:ThirdParty/Letter-shell/Src/shell_ext.c ****         ret = func(params[0], params[1], params[2], params[3]);
ARM GAS  C:\Users\CL\AppData\Local\Temp\ccPO0qmY.s 			page 28


 530:ThirdParty/Letter-shell/Src/shell_ext.c ****         break;
 531:ThirdParty/Letter-shell/Src/shell_ext.c ****     }
 532:ThirdParty/Letter-shell/Src/shell_ext.c **** #endif /** SHELL_PARAMETER_MAX_NUMBER >= 5 */
 533:ThirdParty/Letter-shell/Src/shell_ext.c **** #if SHELL_PARAMETER_MAX_NUMBER >= 6
 534:ThirdParty/Letter-shell/Src/shell_ext.c ****     case 5:
 535:ThirdParty/Letter-shell/Src/shell_ext.c ****     {
 536:ThirdParty/Letter-shell/Src/shell_ext.c ****         int (*func)(int, int, int, int, int) = command->data.cmd.function;
 537:ThirdParty/Letter-shell/Src/shell_ext.c ****         ret = func(params[0], params[1], params[2], params[3], params[4]);
 538:ThirdParty/Letter-shell/Src/shell_ext.c ****         break;
 539:ThirdParty/Letter-shell/Src/shell_ext.c ****     }
 540:ThirdParty/Letter-shell/Src/shell_ext.c **** #endif /** SHELL_PARAMETER_MAX_NUMBER >= 6 */
 541:ThirdParty/Letter-shell/Src/shell_ext.c **** #if SHELL_PARAMETER_MAX_NUMBER >= 7
 542:ThirdParty/Letter-shell/Src/shell_ext.c ****     case 6:
 543:ThirdParty/Letter-shell/Src/shell_ext.c ****     {
 544:ThirdParty/Letter-shell/Src/shell_ext.c ****         int (*func)(int, int, int, int, int, int) = command->data.cmd.function;
 545:ThirdParty/Letter-shell/Src/shell_ext.c ****         ret = func(params[0], params[1], params[2], params[3], params[4], params[5]);
 546:ThirdParty/Letter-shell/Src/shell_ext.c ****         break;
 547:ThirdParty/Letter-shell/Src/shell_ext.c ****     }
 548:ThirdParty/Letter-shell/Src/shell_ext.c **** #endif /** SHELL_PARAMETER_MAX_NUMBER >= 7 */
 549:ThirdParty/Letter-shell/Src/shell_ext.c **** #if SHELL_PARAMETER_MAX_NUMBER >= 8
 550:ThirdParty/Letter-shell/Src/shell_ext.c ****     case 7:
 551:ThirdParty/Letter-shell/Src/shell_ext.c ****     {
 552:ThirdParty/Letter-shell/Src/shell_ext.c ****         int (*func)(int, int, int, int, int, int, int) = command->data.cmd.function;
 553:ThirdParty/Letter-shell/Src/shell_ext.c ****         ret = func(params[0], params[1], params[2], params[3], params[4], params[5], params[6]);
 554:ThirdParty/Letter-shell/Src/shell_ext.c ****         break;
 555:ThirdParty/Letter-shell/Src/shell_ext.c ****     }
 556:ThirdParty/Letter-shell/Src/shell_ext.c **** #endif /** SHELL_PARAMETER_MAX_NUMBER >= 8 */
 557:ThirdParty/Letter-shell/Src/shell_ext.c **** #if SHELL_PARAMETER_MAX_NUMBER >= 9
 558:ThirdParty/Letter-shell/Src/shell_ext.c ****     case 8:
 559:ThirdParty/Letter-shell/Src/shell_ext.c ****     {
 560:ThirdParty/Letter-shell/Src/shell_ext.c ****         int (*func)(int, int, int, int, int, int, int, int) = command->data.cmd.function;
 561:ThirdParty/Letter-shell/Src/shell_ext.c ****         ret = func(params[0], params[1], params[2], params[3], params[4], params[5], params[6], par
 562:ThirdParty/Letter-shell/Src/shell_ext.c ****         break;
 563:ThirdParty/Letter-shell/Src/shell_ext.c ****     }
 564:ThirdParty/Letter-shell/Src/shell_ext.c **** #endif /** SHELL_PARAMETER_MAX_NUMBER >= 9 */
 565:ThirdParty/Letter-shell/Src/shell_ext.c **** #if SHELL_PARAMETER_MAX_NUMBER >= 10
 566:ThirdParty/Letter-shell/Src/shell_ext.c ****     case 9:
 567:ThirdParty/Letter-shell/Src/shell_ext.c ****     {
 568:ThirdParty/Letter-shell/Src/shell_ext.c ****         int (*func)(int, int, int, int, int, int, int, int, int) = command->data.cmd.function;
 569:ThirdParty/Letter-shell/Src/shell_ext.c ****         ret = func(params[0], params[1], params[2], params[3], params[4], params[5], params[6], par
 570:ThirdParty/Letter-shell/Src/shell_ext.c ****                    params[8]);
 571:ThirdParty/Letter-shell/Src/shell_ext.c ****         break;
 572:ThirdParty/Letter-shell/Src/shell_ext.c ****     }
 573:ThirdParty/Letter-shell/Src/shell_ext.c **** #endif /** SHELL_PARAMETER_MAX_NUMBER >= 10 */
 574:ThirdParty/Letter-shell/Src/shell_ext.c **** #if SHELL_PARAMETER_MAX_NUMBER >= 11
 575:ThirdParty/Letter-shell/Src/shell_ext.c ****     case 10:
 576:ThirdParty/Letter-shell/Src/shell_ext.c ****     {
 577:ThirdParty/Letter-shell/Src/shell_ext.c ****         int (*func)(int, int, int, int, int, int, int, int, int, int) = command->data.cmd.function;
 578:ThirdParty/Letter-shell/Src/shell_ext.c ****         ret = func(params[0], params[1], params[2], params[3], params[4], params[5], params[6], par
 579:ThirdParty/Letter-shell/Src/shell_ext.c ****                    params[8], params[9]);
 580:ThirdParty/Letter-shell/Src/shell_ext.c ****         break;
 581:ThirdParty/Letter-shell/Src/shell_ext.c ****     }
 582:ThirdParty/Letter-shell/Src/shell_ext.c **** #endif /** SHELL_PARAMETER_MAX_NUMBER >= 11 */
 583:ThirdParty/Letter-shell/Src/shell_ext.c **** #if SHELL_PARAMETER_MAX_NUMBER >= 12
 584:ThirdParty/Letter-shell/Src/shell_ext.c ****     case 11:
 585:ThirdParty/Letter-shell/Src/shell_ext.c ****     {
 586:ThirdParty/Letter-shell/Src/shell_ext.c ****         int (*func)(int, int, int, int, int, int, int, int, int, int, int) = command->data.cmd.func
ARM GAS  C:\Users\CL\AppData\Local\Temp\ccPO0qmY.s 			page 29


 587:ThirdParty/Letter-shell/Src/shell_ext.c ****         ret = func(params[0], params[1], params[2], params[3], params[4], params[5], params[6], par
 588:ThirdParty/Letter-shell/Src/shell_ext.c ****                    params[8], params[9], params[10]);
 589:ThirdParty/Letter-shell/Src/shell_ext.c ****         break;
 590:ThirdParty/Letter-shell/Src/shell_ext.c ****     }
 591:ThirdParty/Letter-shell/Src/shell_ext.c **** #endif /** SHELL_PARAMETER_MAX_NUMBER >= 12 */
 592:ThirdParty/Letter-shell/Src/shell_ext.c **** #if SHELL_PARAMETER_MAX_NUMBER >= 13
 593:ThirdParty/Letter-shell/Src/shell_ext.c ****     case 12:
 594:ThirdParty/Letter-shell/Src/shell_ext.c ****     {
 595:ThirdParty/Letter-shell/Src/shell_ext.c ****         int (*func)(int, int, int, int, int, int, int, int, int, int, int, int) = command->data.cmd
 596:ThirdParty/Letter-shell/Src/shell_ext.c ****         ret = func(params[0], params[1], params[2], params[3], params[4], params[5], params[6], par
 597:ThirdParty/Letter-shell/Src/shell_ext.c ****                    params[8], params[9], params[10], params[11]);
 598:ThirdParty/Letter-shell/Src/shell_ext.c ****         break;
 599:ThirdParty/Letter-shell/Src/shell_ext.c ****     }
 600:ThirdParty/Letter-shell/Src/shell_ext.c **** #endif /** SHELL_PARAMETER_MAX_NUMBER >= 13 */
 601:ThirdParty/Letter-shell/Src/shell_ext.c **** #if SHELL_PARAMETER_MAX_NUMBER >= 14
 602:ThirdParty/Letter-shell/Src/shell_ext.c ****     case 13:
 603:ThirdParty/Letter-shell/Src/shell_ext.c ****     {
 604:ThirdParty/Letter-shell/Src/shell_ext.c ****         int (*func)(int, int, int, int, int, int, int, int, int, int, int, int, int) = command->dat
 605:ThirdParty/Letter-shell/Src/shell_ext.c ****         ret = func(params[0], params[1], params[2], params[3], params[4], params[5], params[6], par
 606:ThirdParty/Letter-shell/Src/shell_ext.c ****                    params[8], params[9], params[10], params[11], params[12]);
 607:ThirdParty/Letter-shell/Src/shell_ext.c ****         break;
 608:ThirdParty/Letter-shell/Src/shell_ext.c ****     }
 609:ThirdParty/Letter-shell/Src/shell_ext.c **** #endif /** SHELL_PARAMETER_MAX_NUMBER >= 14 */
 610:ThirdParty/Letter-shell/Src/shell_ext.c **** #if SHELL_PARAMETER_MAX_NUMBER >= 15
 611:ThirdParty/Letter-shell/Src/shell_ext.c ****     case 14:
 612:ThirdParty/Letter-shell/Src/shell_ext.c ****     {
 613:ThirdParty/Letter-shell/Src/shell_ext.c ****         int (*func)(int, int, int, int, int, int, int, int, int, int, int, int, int, int)
 614:ThirdParty/Letter-shell/Src/shell_ext.c ****             = command->data.cmd.function;
 615:ThirdParty/Letter-shell/Src/shell_ext.c ****         ret = func(params[0], params[1], params[2], params[3], params[4], params[5], params[6], par
 616:ThirdParty/Letter-shell/Src/shell_ext.c ****                    params[8], params[9], params[10], params[11], params[12], params[13]);
 617:ThirdParty/Letter-shell/Src/shell_ext.c ****         break;
 618:ThirdParty/Letter-shell/Src/shell_ext.c ****     }
 619:ThirdParty/Letter-shell/Src/shell_ext.c **** #endif /** SHELL_PARAMETER_MAX_NUMBER >= 15 */
 620:ThirdParty/Letter-shell/Src/shell_ext.c **** #if SHELL_PARAMETER_MAX_NUMBER >= 16
 621:ThirdParty/Letter-shell/Src/shell_ext.c ****     case 15:
 622:ThirdParty/Letter-shell/Src/shell_ext.c ****     {
 623:ThirdParty/Letter-shell/Src/shell_ext.c ****         int (*func)(int, int, int, int, int, int, int, int, int, int, int, int, int, int, int)
 624:ThirdParty/Letter-shell/Src/shell_ext.c ****             = command->data.cmd.function;
 625:ThirdParty/Letter-shell/Src/shell_ext.c ****         ret = func(params[0], params[1], params[2], params[3], params[4], params[5], params[6], par
 626:ThirdParty/Letter-shell/Src/shell_ext.c ****                    params[8], params[9], params[10], params[11], params[12], params[13], params[14]
 627:ThirdParty/Letter-shell/Src/shell_ext.c ****         break;
 628:ThirdParty/Letter-shell/Src/shell_ext.c ****     }
 629:ThirdParty/Letter-shell/Src/shell_ext.c **** #endif /** SHELL_PARAMETER_MAX_NUMBER >= 16 */
 630:ThirdParty/Letter-shell/Src/shell_ext.c ****     default:
 631:ThirdParty/Letter-shell/Src/shell_ext.c ****         ret = -1;
 632:ThirdParty/Letter-shell/Src/shell_ext.c ****         break;
 633:ThirdParty/Letter-shell/Src/shell_ext.c ****     }
 634:ThirdParty/Letter-shell/Src/shell_ext.c ****     
 635:ThirdParty/Letter-shell/Src/shell_ext.c **** #if SHELL_USING_FUNC_SIGNATURE == 1
 636:ThirdParty/Letter-shell/Src/shell_ext.c ****     if (command->data.cmd.signature != NULL) {
 637:ThirdParty/Letter-shell/Src/shell_ext.c ****         index = 0;
 638:ThirdParty/Letter-shell/Src/shell_ext.c ****         for (int i = 0; i < argc - 1; i++)
 639:ThirdParty/Letter-shell/Src/shell_ext.c ****         {
 640:ThirdParty/Letter-shell/Src/shell_ext.c ****             index = shellGetNextParamType(command->data.cmd.signature, index, type);
 641:ThirdParty/Letter-shell/Src/shell_ext.c ****             shellExtCleanerPara(shell, type, params[i]);
 642:ThirdParty/Letter-shell/Src/shell_ext.c ****         }
 643:ThirdParty/Letter-shell/Src/shell_ext.c ****     }
ARM GAS  C:\Users\CL\AppData\Local\Temp\ccPO0qmY.s 			page 30


 644:ThirdParty/Letter-shell/Src/shell_ext.c **** #endif /** SHELL_USING_FUNC_SIGNATURE == 1 */
 645:ThirdParty/Letter-shell/Src/shell_ext.c **** 
 646:ThirdParty/Letter-shell/Src/shell_ext.c ****     return ret;
 647:ThirdParty/Letter-shell/Src/shell_ext.c **** }
 933              		.loc 1 647 1 view .LVU287
 934 0052 0DB0     		add	sp, sp, #52
 935              	.LCFI6:
 936              		.cfi_remember_state
 937              		.cfi_def_cfa_offset 28
 938              		@ sp needed
 939 0054 BDE8F083 		pop	{r4, r5, r6, r7, r8, r9, pc}
 940              	.LVL103:
 941              	.L101:
 942              	.LCFI7:
 943              		.cfi_restore_state
 494:ThirdParty/Letter-shell/Src/shell_ext.c ****     {
 944              		.loc 1 494 5 is_stmt 1 view .LVU288
 945 0058 B8F1070F 		cmp	r8, #7
 946 005c 47D8     		bhi	.L99
 947 005e DFE808F0 		tbb	[pc, r8]
 948              	.L90:
 949 0062 04       		.byte	(.L97-.L90)/2
 950 0063 08       		.byte	(.L96-.L90)/2
 951 0064 0D       		.byte	(.L95-.L90)/2
 952 0065 13       		.byte	(.L94-.L90)/2
 953 0066 1A       		.byte	(.L93-.L90)/2
 954 0067 22       		.byte	(.L92-.L90)/2
 955 0068 2C       		.byte	(.L91-.L90)/2
 956 0069 38       		.byte	(.L89-.L90)/2
 957              		.p2align 1
 958              	.L97:
 498:ThirdParty/Letter-shell/Src/shell_ext.c ****         break;
 959              		.loc 1 498 9 view .LVU289
 498:ThirdParty/Letter-shell/Src/shell_ext.c ****         break;
 960              		.loc 1 498 32 is_stmt 0 view .LVU290
 961 006a D9F80830 		ldr	r3, [r9, #8]
 498:ThirdParty/Letter-shell/Src/shell_ext.c ****         break;
 962              		.loc 1 498 15 view .LVU291
 963 006e 9847     		blx	r3
 964              	.LVL104:
 499:ThirdParty/Letter-shell/Src/shell_ext.c **** #endif /** SHELL_PARAMETER_MAX_NUMBER >= 1 */
 965              		.loc 1 499 9 is_stmt 1 view .LVU292
 966 0070 EFE7     		b	.L84
 967              	.LVL105:
 968              	.L96:
 969              	.LBB3:
 504:ThirdParty/Letter-shell/Src/shell_ext.c ****         ret = func(params[0]);
 970              		.loc 1 504 9 view .LVU293
 504:ThirdParty/Letter-shell/Src/shell_ext.c ****         ret = func(params[0]);
 971              		.loc 1 504 15 is_stmt 0 view .LVU294
 972 0072 D9F80830 		ldr	r3, [r9, #8]
 973              	.LVL106:
 505:ThirdParty/Letter-shell/Src/shell_ext.c ****         break;
 974              		.loc 1 505 9 is_stmt 1 view .LVU295
 505:ThirdParty/Letter-shell/Src/shell_ext.c ****         break;
 975              		.loc 1 505 15 is_stmt 0 view .LVU296
 976 0076 0498     		ldr	r0, [sp, #16]
ARM GAS  C:\Users\CL\AppData\Local\Temp\ccPO0qmY.s 			page 31


 977 0078 9847     		blx	r3
 978              	.LVL107:
 506:ThirdParty/Letter-shell/Src/shell_ext.c ****     }
 979              		.loc 1 506 9 is_stmt 1 view .LVU297
 980 007a EAE7     		b	.L84
 981              	.LVL108:
 982              	.L95:
 506:ThirdParty/Letter-shell/Src/shell_ext.c ****     }
 983              		.loc 1 506 9 is_stmt 0 view .LVU298
 984              	.LBE3:
 985              	.LBB4:
 512:ThirdParty/Letter-shell/Src/shell_ext.c ****         ret = func(params[0], params[1]);
 986              		.loc 1 512 9 is_stmt 1 view .LVU299
 512:ThirdParty/Letter-shell/Src/shell_ext.c ****         ret = func(params[0], params[1]);
 987              		.loc 1 512 15 is_stmt 0 view .LVU300
 988 007c D9F80830 		ldr	r3, [r9, #8]
 989              	.LVL109:
 513:ThirdParty/Letter-shell/Src/shell_ext.c ****         break;
 990              		.loc 1 513 9 is_stmt 1 view .LVU301
 513:ThirdParty/Letter-shell/Src/shell_ext.c ****         break;
 991              		.loc 1 513 15 is_stmt 0 view .LVU302
 992 0080 0599     		ldr	r1, [sp, #20]
 993 0082 0498     		ldr	r0, [sp, #16]
 994 0084 9847     		blx	r3
 995              	.LVL110:
 514:ThirdParty/Letter-shell/Src/shell_ext.c ****     }
 996              		.loc 1 514 9 is_stmt 1 view .LVU303
 997 0086 E4E7     		b	.L84
 998              	.LVL111:
 999              	.L94:
 514:ThirdParty/Letter-shell/Src/shell_ext.c ****     }
 1000              		.loc 1 514 9 is_stmt 0 view .LVU304
 1001              	.LBE4:
 1002              	.LBB5:
 520:ThirdParty/Letter-shell/Src/shell_ext.c ****         ret = func(params[0], params[1], params[2]);
 1003              		.loc 1 520 9 is_stmt 1 view .LVU305
 520:ThirdParty/Letter-shell/Src/shell_ext.c ****         ret = func(params[0], params[1], params[2]);
 1004              		.loc 1 520 15 is_stmt 0 view .LVU306
 1005 0088 D9F80830 		ldr	r3, [r9, #8]
 1006              	.LVL112:
 521:ThirdParty/Letter-shell/Src/shell_ext.c ****         break;
 1007              		.loc 1 521 9 is_stmt 1 view .LVU307
 521:ThirdParty/Letter-shell/Src/shell_ext.c ****         break;
 1008              		.loc 1 521 15 is_stmt 0 view .LVU308
 1009 008c 069A     		ldr	r2, [sp, #24]
 1010 008e 0599     		ldr	r1, [sp, #20]
 1011 0090 0498     		ldr	r0, [sp, #16]
 1012 0092 9847     		blx	r3
 1013              	.LVL113:
 522:ThirdParty/Letter-shell/Src/shell_ext.c ****     }
 1014              		.loc 1 522 9 is_stmt 1 view .LVU309
 1015 0094 DDE7     		b	.L84
 1016              	.LVL114:
 1017              	.L93:
 522:ThirdParty/Letter-shell/Src/shell_ext.c ****     }
 1018              		.loc 1 522 9 is_stmt 0 view .LVU310
 1019              	.LBE5:
ARM GAS  C:\Users\CL\AppData\Local\Temp\ccPO0qmY.s 			page 32


 1020              	.LBB6:
 528:ThirdParty/Letter-shell/Src/shell_ext.c ****         ret = func(params[0], params[1], params[2], params[3]);
 1021              		.loc 1 528 9 is_stmt 1 view .LVU311
 528:ThirdParty/Letter-shell/Src/shell_ext.c ****         ret = func(params[0], params[1], params[2], params[3]);
 1022              		.loc 1 528 15 is_stmt 0 view .LVU312
 1023 0096 D9F80840 		ldr	r4, [r9, #8]
 1024              	.LVL115:
 529:ThirdParty/Letter-shell/Src/shell_ext.c ****         break;
 1025              		.loc 1 529 9 is_stmt 1 view .LVU313
 529:ThirdParty/Letter-shell/Src/shell_ext.c ****         break;
 1026              		.loc 1 529 15 is_stmt 0 view .LVU314
 1027 009a 079B     		ldr	r3, [sp, #28]
 1028 009c 069A     		ldr	r2, [sp, #24]
 1029 009e 0599     		ldr	r1, [sp, #20]
 1030 00a0 0498     		ldr	r0, [sp, #16]
 1031 00a2 A047     		blx	r4
 1032              	.LVL116:
 530:ThirdParty/Letter-shell/Src/shell_ext.c ****     }
 1033              		.loc 1 530 9 is_stmt 1 view .LVU315
 1034 00a4 D5E7     		b	.L84
 1035              	.LVL117:
 1036              	.L92:
 530:ThirdParty/Letter-shell/Src/shell_ext.c ****     }
 1037              		.loc 1 530 9 is_stmt 0 view .LVU316
 1038              	.LBE6:
 1039              	.LBB7:
 536:ThirdParty/Letter-shell/Src/shell_ext.c ****         ret = func(params[0], params[1], params[2], params[3], params[4]);
 1040              		.loc 1 536 9 is_stmt 1 view .LVU317
 536:ThirdParty/Letter-shell/Src/shell_ext.c ****         ret = func(params[0], params[1], params[2], params[3], params[4]);
 1041              		.loc 1 536 15 is_stmt 0 view .LVU318
 1042 00a6 D9F80840 		ldr	r4, [r9, #8]
 1043              	.LVL118:
 537:ThirdParty/Letter-shell/Src/shell_ext.c ****         break;
 1044              		.loc 1 537 9 is_stmt 1 view .LVU319
 537:ThirdParty/Letter-shell/Src/shell_ext.c ****         break;
 1045              		.loc 1 537 70 is_stmt 0 view .LVU320
 1046 00aa 089B     		ldr	r3, [sp, #32]
 537:ThirdParty/Letter-shell/Src/shell_ext.c ****         break;
 1047              		.loc 1 537 15 view .LVU321
 1048 00ac 0093     		str	r3, [sp]
 1049 00ae 079B     		ldr	r3, [sp, #28]
 1050 00b0 069A     		ldr	r2, [sp, #24]
 1051 00b2 0599     		ldr	r1, [sp, #20]
 1052 00b4 0498     		ldr	r0, [sp, #16]
 1053 00b6 A047     		blx	r4
 1054              	.LVL119:
 538:ThirdParty/Letter-shell/Src/shell_ext.c ****     }
 1055              		.loc 1 538 9 is_stmt 1 view .LVU322
 1056 00b8 CBE7     		b	.L84
 1057              	.LVL120:
 1058              	.L91:
 538:ThirdParty/Letter-shell/Src/shell_ext.c ****     }
 1059              		.loc 1 538 9 is_stmt 0 view .LVU323
 1060              	.LBE7:
 1061              	.LBB8:
 544:ThirdParty/Letter-shell/Src/shell_ext.c ****         ret = func(params[0], params[1], params[2], params[3], params[4], params[5]);
 1062              		.loc 1 544 9 is_stmt 1 view .LVU324
ARM GAS  C:\Users\CL\AppData\Local\Temp\ccPO0qmY.s 			page 33


 544:ThirdParty/Letter-shell/Src/shell_ext.c ****         ret = func(params[0], params[1], params[2], params[3], params[4], params[5]);
 1063              		.loc 1 544 15 is_stmt 0 view .LVU325
 1064 00ba D9F80840 		ldr	r4, [r9, #8]
 1065              	.LVL121:
 545:ThirdParty/Letter-shell/Src/shell_ext.c ****         break;
 1066              		.loc 1 545 9 is_stmt 1 view .LVU326
 545:ThirdParty/Letter-shell/Src/shell_ext.c ****         break;
 1067              		.loc 1 545 81 is_stmt 0 view .LVU327
 1068 00be 099B     		ldr	r3, [sp, #36]
 545:ThirdParty/Letter-shell/Src/shell_ext.c ****         break;
 1069              		.loc 1 545 15 view .LVU328
 1070 00c0 0193     		str	r3, [sp, #4]
 1071 00c2 089B     		ldr	r3, [sp, #32]
 1072 00c4 0093     		str	r3, [sp]
 1073 00c6 079B     		ldr	r3, [sp, #28]
 1074 00c8 069A     		ldr	r2, [sp, #24]
 1075 00ca 0599     		ldr	r1, [sp, #20]
 1076 00cc 0498     		ldr	r0, [sp, #16]
 1077 00ce A047     		blx	r4
 1078              	.LVL122:
 546:ThirdParty/Letter-shell/Src/shell_ext.c ****     }
 1079              		.loc 1 546 9 is_stmt 1 view .LVU329
 1080 00d0 BFE7     		b	.L84
 1081              	.LVL123:
 1082              	.L89:
 546:ThirdParty/Letter-shell/Src/shell_ext.c ****     }
 1083              		.loc 1 546 9 is_stmt 0 view .LVU330
 1084              	.LBE8:
 1085              	.LBB9:
 552:ThirdParty/Letter-shell/Src/shell_ext.c ****         ret = func(params[0], params[1], params[2], params[3], params[4], params[5], params[6]);
 1086              		.loc 1 552 9 is_stmt 1 view .LVU331
 552:ThirdParty/Letter-shell/Src/shell_ext.c ****         ret = func(params[0], params[1], params[2], params[3], params[4], params[5], params[6]);
 1087              		.loc 1 552 15 is_stmt 0 view .LVU332
 1088 00d2 D9F80840 		ldr	r4, [r9, #8]
 1089              	.LVL124:
 553:ThirdParty/Letter-shell/Src/shell_ext.c ****         break;
 1090              		.loc 1 553 9 is_stmt 1 view .LVU333
 553:ThirdParty/Letter-shell/Src/shell_ext.c ****         break;
 1091              		.loc 1 553 92 is_stmt 0 view .LVU334
 1092 00d6 0A9B     		ldr	r3, [sp, #40]
 553:ThirdParty/Letter-shell/Src/shell_ext.c ****         break;
 1093              		.loc 1 553 15 view .LVU335
 1094 00d8 0293     		str	r3, [sp, #8]
 1095 00da 099B     		ldr	r3, [sp, #36]
 1096 00dc 0193     		str	r3, [sp, #4]
 1097 00de 089B     		ldr	r3, [sp, #32]
 1098 00e0 0093     		str	r3, [sp]
 1099 00e2 079B     		ldr	r3, [sp, #28]
 1100 00e4 069A     		ldr	r2, [sp, #24]
 1101 00e6 0599     		ldr	r1, [sp, #20]
 1102 00e8 0498     		ldr	r0, [sp, #16]
 1103 00ea A047     		blx	r4
 1104              	.LVL125:
 554:ThirdParty/Letter-shell/Src/shell_ext.c ****     }
 1105              		.loc 1 554 9 is_stmt 1 view .LVU336
 1106 00ec B1E7     		b	.L84
 1107              	.LVL126:
ARM GAS  C:\Users\CL\AppData\Local\Temp\ccPO0qmY.s 			page 34


 1108              	.L99:
 554:ThirdParty/Letter-shell/Src/shell_ext.c ****     }
 1109              		.loc 1 554 9 is_stmt 0 view .LVU337
 1110              	.LBE9:
 494:ThirdParty/Letter-shell/Src/shell_ext.c ****     {
 1111              		.loc 1 494 5 view .LVU338
 1112 00ee 4FF0FF30 		mov	r0, #-1
 1113              	.LVL127:
 494:ThirdParty/Letter-shell/Src/shell_ext.c ****     {
 1114              		.loc 1 494 5 view .LVU339
 1115 00f2 AEE7     		b	.L84
 1116              		.cfi_endproc
 1117              	.LFE7:
 1119              		.text
 1120              	.Letext0:
 1121              		.file 2 "ThirdParty/Letter-shell/Inc/shell.h"
 1122              		.file 3 "ThirdParty/Letter-shell/Inc/shell_ext.h"
 1123              		.file 4 "<built-in>"
ARM GAS  C:\Users\CL\AppData\Local\Temp\ccPO0qmY.s 			page 35


DEFINED SYMBOLS
                            *ABS*:00000000 shell_ext.c
C:\Users\CL\AppData\Local\Temp\ccPO0qmY.s:20     .text.shellExtNumType:00000000 $t
C:\Users\CL\AppData\Local\Temp\ccPO0qmY.s:25     .text.shellExtNumType:00000000 shellExtNumType
C:\Users\CL\AppData\Local\Temp\ccPO0qmY.s:150    .text.shellExtToNum:00000000 $t
C:\Users\CL\AppData\Local\Temp\ccPO0qmY.s:155    .text.shellExtToNum:00000000 shellExtToNum
C:\Users\CL\AppData\Local\Temp\ccPO0qmY.s:209    .text.shellExtParseChar:00000000 $t
C:\Users\CL\AppData\Local\Temp\ccPO0qmY.s:214    .text.shellExtParseChar:00000000 shellExtParseChar
C:\Users\CL\AppData\Local\Temp\ccPO0qmY.s:272    .text.shellExtParseChar:00000034 $d
C:\Users\CL\AppData\Local\Temp\ccPO0qmY.s:291    .text.shellExtParseChar:00000080 $t
C:\Users\CL\AppData\Local\Temp\ccPO0qmY.s:325    .text.shellExtParseString:00000000 $t
C:\Users\CL\AppData\Local\Temp\ccPO0qmY.s:330    .text.shellExtParseString:00000000 shellExtParseString
C:\Users\CL\AppData\Local\Temp\ccPO0qmY.s:431    .text.shellExtParseNumber:00000000 $t
C:\Users\CL\AppData\Local\Temp\ccPO0qmY.s:436    .text.shellExtParseNumber:00000000 shellExtParseNumber
C:\Users\CL\AppData\Local\Temp\ccPO0qmY.s:630    .text.shellExtParseVar:00000000 $t
C:\Users\CL\AppData\Local\Temp\ccPO0qmY.s:635    .text.shellExtParseVar:00000000 shellExtParseVar
C:\Users\CL\AppData\Local\Temp\ccPO0qmY.s:683    .text.shellExtParsePara:00000000 $t
C:\Users\CL\AppData\Local\Temp\ccPO0qmY.s:689    .text.shellExtParsePara:00000000 shellExtParsePara
C:\Users\CL\AppData\Local\Temp\ccPO0qmY.s:836    .text.shellExtRun:00000000 $t
C:\Users\CL\AppData\Local\Temp\ccPO0qmY.s:842    .text.shellExtRun:00000000 shellExtRun
C:\Users\CL\AppData\Local\Temp\ccPO0qmY.s:949    .text.shellExtRun:00000062 $d
C:\Users\CL\AppData\Local\Temp\ccPO0qmY.s:957    .text.shellExtRun:0000006a $t

UNDEFINED SYMBOLS
shellSeekCommand
shellGetVarValue
memset
