ARM GAS  C:\Users\CL\AppData\Local\Temp\ccm9iHZg.s 			page 1


   1              		.cpu cortex-m4
   2              		.arch armv7e-m
   3              		.fpu fpv4-sp-d16
   4              		.eabi_attribute 27, 1
   5              		.eabi_attribute 28, 1
   6              		.eabi_attribute 20, 1
   7              		.eabi_attribute 21, 1
   8              		.eabi_attribute 23, 3
   9              		.eabi_attribute 24, 1
  10              		.eabi_attribute 25, 1
  11              		.eabi_attribute 26, 1
  12              		.eabi_attribute 30, 4
  13              		.eabi_attribute 34, 1
  14              		.eabi_attribute 18, 4
  15              		.file	"shell_port.c"
  16              		.text
  17              		.section	.text.User_Shell_Write,"ax",%progbits
  18              		.align	1
  19              		.global	User_Shell_Write
  20              		.syntax unified
  21              		.thumb
  22              		.thumb_func
  24              	User_Shell_Write:
  25              		@ args = 0, pretend = 0, frame = 0
  26              		@ frame_needed = 0, uses_anonymous_args = 0
  27 0000 F8B5     		push	{r3, r4, r5, r6, r7, lr}
  28 0002 094E     		ldr	r6, .L4
  29 0004 0446     		mov	r4, r0
  30 0006 4518     		adds	r5, r0, r1
  31 0008 0020     		movs	r0, #0
  32              	.L2:
  33 000a AC42     		cmp	r4, r5
  34 000c 00D1     		bne	.L3
  35 000e F8BD     		pop	{r3, r4, r5, r6, r7, pc}
  36              	.L3:
  37 0010 2146     		mov	r1, r4
  38 0012 4FF6FF73 		movw	r3, #65535
  39 0016 0122     		movs	r2, #1
  40 0018 3046     		mov	r0, r6
  41 001a FFF7FEFF 		bl	HAL_UART_Transmit
  42 001e 671C     		adds	r7, r4, #1
  43 0020 00B2     		sxth	r0, r0
  44 0022 3C46     		mov	r4, r7
  45 0024 F1E7     		b	.L2
  46              	.L5:
  47 0026 00BF     		.align	2
  48              	.L4:
  49 0028 00000000 		.word	huart3
  51              		.section	.text.User_Shell_Init,"ax",%progbits
  52              		.align	1
  53              		.global	User_Shell_Init
  54              		.syntax unified
  55              		.thumb
  56              		.thumb_func
  58              	User_Shell_Init:
  59              		@ args = 0, pretend = 0, frame = 0
  60              		@ frame_needed = 0, uses_anonymous_args = 0
ARM GAS  C:\Users\CL\AppData\Local\Temp\ccm9iHZg.s 			page 2


  61              		@ link register save eliminated.
  62 0000 0348     		ldr	r0, .L7
  63 0002 044B     		ldr	r3, .L7+4
  64 0004 0449     		ldr	r1, .L7+8
  65 0006 8366     		str	r3, [r0, #104]
  66 0008 C822     		movs	r2, #200
  67 000a FFF7FEBF 		b	shellInit
  68              	.L8:
  69 000e 00BF     		.align	2
  70              	.L7:
  71 0010 00000000 		.word	.LANCHOR0
  72 0014 00000000 		.word	User_Shell_Write
  73 0018 00000000 		.word	.LANCHOR1
  75              		.global	test_error_cnt
  76              		.global	test_ok_cnt
  77              		.global	shell_buffer
  78              		.global	shell
  79              		.section	.bss.shell,"aw",%nobits
  80              		.align	2
  81              		.set	.LANCHOR0,. + 0
  84              	shell:
  85 0000 00000000 		.space	108
  85      00000000 
  85      00000000 
  85      00000000 
  85      00000000 
  86              		.section	.bss.shell_buffer,"aw",%nobits
  87              		.set	.LANCHOR1,. + 0
  90              	shell_buffer:
  91 0000 00000000 		.space	200
  91      00000000 
  91      00000000 
  91      00000000 
  91      00000000 
  92              		.section	.bss.test_error_cnt,"aw",%nobits
  95              	test_error_cnt:
  96 0000 00       		.space	1
  97              		.section	.bss.test_ok_cnt,"aw",%nobits
 100              	test_ok_cnt:
 101 0000 00       		.space	1
 102              		.ident	"GCC: (GNU Arm Embedded Toolchain 10.3-2021.10) 10.3.1 20210824 (release)"
ARM GAS  C:\Users\CL\AppData\Local\Temp\ccm9iHZg.s 			page 3


DEFINED SYMBOLS
                            *ABS*:00000000 shell_port.c
C:\Users\CL\AppData\Local\Temp\ccm9iHZg.s:18     .text.User_Shell_Write:00000000 $t
C:\Users\CL\AppData\Local\Temp\ccm9iHZg.s:24     .text.User_Shell_Write:00000000 User_Shell_Write
C:\Users\CL\AppData\Local\Temp\ccm9iHZg.s:49     .text.User_Shell_Write:00000028 $d
C:\Users\CL\AppData\Local\Temp\ccm9iHZg.s:52     .text.User_Shell_Init:00000000 $t
C:\Users\CL\AppData\Local\Temp\ccm9iHZg.s:58     .text.User_Shell_Init:00000000 User_Shell_Init
C:\Users\CL\AppData\Local\Temp\ccm9iHZg.s:71     .text.User_Shell_Init:00000010 $d
C:\Users\CL\AppData\Local\Temp\ccm9iHZg.s:95     .bss.test_error_cnt:00000000 test_error_cnt
C:\Users\CL\AppData\Local\Temp\ccm9iHZg.s:100    .bss.test_ok_cnt:00000000 test_ok_cnt
C:\Users\CL\AppData\Local\Temp\ccm9iHZg.s:90     .bss.shell_buffer:00000000 shell_buffer
C:\Users\CL\AppData\Local\Temp\ccm9iHZg.s:84     .bss.shell:00000000 shell
C:\Users\CL\AppData\Local\Temp\ccm9iHZg.s:80     .bss.shell:00000000 $d
C:\Users\CL\AppData\Local\Temp\ccm9iHZg.s:91     .bss.shell_buffer:00000000 $d
C:\Users\CL\AppData\Local\Temp\ccm9iHZg.s:96     .bss.test_error_cnt:00000000 $d
C:\Users\CL\AppData\Local\Temp\ccm9iHZg.s:101    .bss.test_ok_cnt:00000000 $d

UNDEFINED SYMBOLS
HAL_UART_Transmit
huart3
shellInit
