ARM GAS  C:\Users\CL\AppData\Local\Temp\cc0DkSVB.s 			page 1


   1              		.cpu cortex-m4
   2              		.arch armv7e-m
   3              		.fpu fpv4-sp-d16
   4              		.eabi_attribute 27, 1
   5              		.eabi_attribute 28, 1
   6              		.eabi_attribute 20, 1
   7              		.eabi_attribute 21, 1
   8              		.eabi_attribute 23, 3
   9              		.eabi_attribute 24, 1
  10              		.eabi_attribute 25, 1
  11              		.eabi_attribute 26, 1
  12              		.eabi_attribute 30, 4
  13              		.eabi_attribute 34, 1
  14              		.eabi_attribute 18, 4
  15              		.file	"shell.c"
  16              		.text
  17              		.section	.text.shellStringCopy,"ax",%progbits
  18              		.align	1
  19              		.syntax unified
  20              		.thumb
  21              		.thumb_func
  23              	shellStringCopy:
  24              		@ args = 0, pretend = 0, frame = 0
  25              		@ frame_needed = 0, uses_anonymous_args = 0
  26 0000 70B5     		push	{r4, r5, r6, lr}
  27 0002 0246     		mov	r2, r0
  28 0004 0023     		movs	r3, #0
  29              	.L2:
  30 0006 98B2     		uxth	r0, r3
  31 0008 0546     		mov	r5, r0
  32 000a 0C5C     		ldrb	r4, [r1, r0]	@ zero_extendqisi2
  33 000c 1618     		adds	r6, r2, r0
  34 000e 0133     		adds	r3, r3, #1
  35 0010 0CB9     		cbnz	r4, .L3
  36 0012 3470     		strb	r4, [r6]
  37 0014 70BD     		pop	{r4, r5, r6, pc}
  38              	.L3:
  39 0016 5455     		strb	r4, [r2, r5]
  40 0018 F5E7     		b	.L2
  42              		.section	.text.shellWriteByte.isra.0,"ax",%progbits
  43              		.align	1
  44              		.syntax unified
  45              		.thumb
  46              		.thumb_func
  48              	shellWriteByte.isra.0:
  49              		@ args = 0, pretend = 0, frame = 8
  50              		@ frame_needed = 0, uses_anonymous_args = 0
  51 0000 07B5     		push	{r0, r1, r2, lr}
  52 0002 0346     		mov	r3, r0
  53 0004 8DF80710 		strb	r1, [sp, #7]
  54 0008 0DF10700 		add	r0, sp, #7
  55 000c 0121     		movs	r1, #1
  56 000e 9847     		blx	r3
  57 0010 03B0     		add	sp, sp, #12
  58              		@ sp needed
  59 0012 5DF804FB 		ldr	pc, [sp], #4
  61              		.section	.text.shellLeft,"ax",%progbits
ARM GAS  C:\Users\CL\AppData\Local\Temp\cc0DkSVB.s 			page 2


  62              		.align	1
  63              		.global	shellLeft
  64              		.syntax unified
  65              		.thumb
  66              		.thumb_func
  68              	shellLeft:
  69              		@ args = 0, pretend = 0, frame = 0
  70              		@ frame_needed = 0, uses_anonymous_args = 0
  71 0000 C389     		ldrh	r3, [r0, #14]
  72 0002 10B5     		push	{r4, lr}
  73 0004 0446     		mov	r4, r0
  74 0006 33B1     		cbz	r3, .L5
  75 0008 806E     		ldr	r0, [r0, #104]
  76 000a 0821     		movs	r1, #8
  77 000c FFF7FEFF 		bl	shellWriteByte.isra.0
  78 0010 E389     		ldrh	r3, [r4, #14]
  79 0012 013B     		subs	r3, r3, #1
  80 0014 E381     		strh	r3, [r4, #14]	@ movhi
  81              	.L5:
  82 0016 10BD     		pop	{r4, pc}
  84              		.section	.text.shellRight,"ax",%progbits
  85              		.align	1
  86              		.global	shellRight
  87              		.syntax unified
  88              		.thumb
  89              		.thumb_func
  91              	shellRight:
  92              		@ args = 0, pretend = 0, frame = 0
  93              		@ frame_needed = 0, uses_anonymous_args = 0
  94              		@ link register save eliminated.
  95 0000 C389     		ldrh	r3, [r0, #14]
  96 0002 8289     		ldrh	r2, [r0, #12]
  97 0004 9A42     		cmp	r2, r3
  98 0006 06D9     		bls	.L10
  99 0008 0269     		ldr	r2, [r0, #16]
 100 000a 591C     		adds	r1, r3, #1
 101 000c C181     		strh	r1, [r0, #14]	@ movhi
 102 000e D15C     		ldrb	r1, [r2, r3]	@ zero_extendqisi2
 103 0010 806E     		ldr	r0, [r0, #104]
 104 0012 FFF7FEBF 		b	shellWriteByte.isra.0
 105              	.L10:
 106 0016 7047     		bx	lr
 108              		.section	.text.shellRemove,"ax",%progbits
 109              		.align	1
 110              		.global	shellRemove
 111              		.syntax unified
 112              		.thumb
 113              		.thumb_func
 115              	shellRemove:
 116              		@ args = 0, pretend = 0, frame = 0
 117              		@ frame_needed = 0, uses_anonymous_args = 0
 118 0000 10B5     		push	{r4, lr}
 119 0002 074A     		ldr	r2, .L17
 120 0004 0023     		movs	r3, #0
 121 0006 1146     		mov	r1, r2
 122              	.L15:
 123 0008 52F8044B 		ldr	r4, [r2], #4
ARM GAS  C:\Users\CL\AppData\Local\Temp\cc0DkSVB.s 			page 3


 124 000c 8442     		cmp	r4, r0
 125 000e 03D1     		bne	.L13
 126 0010 0022     		movs	r2, #0
 127 0012 41F82320 		str	r2, [r1, r3, lsl #2]
 128              	.L12:
 129 0016 10BD     		pop	{r4, pc}
 130              	.L13:
 131 0018 0133     		adds	r3, r3, #1
 132 001a 052B     		cmp	r3, #5
 133 001c F4D1     		bne	.L15
 134 001e FAE7     		b	.L12
 135              	.L18:
 136              		.align	2
 137              	.L17:
 138 0020 00000000 		.word	.LANCHOR0
 140              		.section	.text.shellGetCurrent,"ax",%progbits
 141              		.align	1
 142              		.global	shellGetCurrent
 143              		.syntax unified
 144              		.thumb
 145              		.thumb_func
 147              	shellGetCurrent:
 148              		@ args = 0, pretend = 0, frame = 0
 149              		@ frame_needed = 0, uses_anonymous_args = 0
 150              		@ link register save eliminated.
 151 0000 074A     		ldr	r2, .L27
 152 0002 0523     		movs	r3, #5
 153              	.L22:
 154 0004 52F8040B 		ldr	r0, [r2], #4
 155 0008 18B1     		cbz	r0, .L20
 156 000a 90F86010 		ldrb	r1, [r0, #96]	@ zero_extendqisi2
 157 000e 8907     		lsls	r1, r1, #30
 158 0010 04D4     		bmi	.L19
 159              	.L20:
 160 0012 013B     		subs	r3, r3, #1
 161 0014 9BB2     		uxth	r3, r3
 162 0016 002B     		cmp	r3, #0
 163 0018 F4D1     		bne	.L22
 164 001a 1846     		mov	r0, r3
 165              	.L19:
 166 001c 7047     		bx	lr
 167              	.L28:
 168 001e 00BF     		.align	2
 169              	.L27:
 170 0020 00000000 		.word	.LANCHOR0
 172              		.section	.text.shellWriteString,"ax",%progbits
 173              		.align	1
 174              		.global	shellWriteString
 175              		.syntax unified
 176              		.thumb
 177              		.thumb_func
 179              	shellWriteString:
 180              		@ args = 0, pretend = 0, frame = 0
 181              		@ frame_needed = 0, uses_anonymous_args = 0
 182 0000 38B5     		push	{r3, r4, r5, lr}
 183 0002 836E     		ldr	r3, [r0, #104]
 184 0004 0A46     		mov	r2, r1
ARM GAS  C:\Users\CL\AppData\Local\Temp\cc0DkSVB.s 			page 4


 185 0006 53B1     		cbz	r3, .L32
 186 0008 0020     		movs	r0, #0
 187 000a 4D1E     		subs	r5, r1, #1
 188              	.L31:
 189 000c 81B2     		uxth	r1, r0
 190 000e 0130     		adds	r0, r0, #1
 191 0010 2C5C     		ldrb	r4, [r5, r0]	@ zero_extendqisi2
 192 0012 002C     		cmp	r4, #0
 193 0014 FAD1     		bne	.L31
 194 0016 1046     		mov	r0, r2
 195 0018 9847     		blx	r3
 196 001a 80B2     		uxth	r0, r0
 197              	.L30:
 198 001c 38BD     		pop	{r3, r4, r5, pc}
 199              	.L32:
 200 001e 1846     		mov	r0, r3
 201 0020 FCE7     		b	.L30
 203              		.section	.rodata.shellClear.str1.1,"aMS",%progbits,1
 204              	.LC0:
 205 0000 1B5B324A 		.ascii	"\033[2J\033[1H\000"
 205      1B5B3148 
 205      00
 206              		.section	.text.shellClear,"ax",%progbits
 207              		.align	1
 208              		.global	shellClear
 209              		.syntax unified
 210              		.thumb
 211              		.thumb_func
 213              	shellClear:
 214              		@ args = 0, pretend = 0, frame = 0
 215              		@ frame_needed = 0, uses_anonymous_args = 0
 216 0000 08B5     		push	{r3, lr}
 217 0002 FFF7FEFF 		bl	shellGetCurrent
 218 0006 20B1     		cbz	r0, .L34
 219 0008 BDE80840 		pop	{r3, lr}
 220 000c 0149     		ldr	r1, .L36
 221 000e FFF7FEBF 		b	shellWriteString
 222              	.L34:
 223 0012 08BD     		pop	{r3, pc}
 224              	.L37:
 225              		.align	2
 226              	.L36:
 227 0014 00000000 		.word	.LC0
 229              		.section	.rodata.shellWritePrompt.constprop.0.str1.1,"aMS",%progbits,1
 230              	.LC1:
 231 0000 2F00     		.ascii	"/\000"
 232              	.LC2:
 233 0002 0D0A00   		.ascii	"\015\012\000"
 234              	.LC3:
 235 0005 3A00     		.ascii	":\000"
 236              	.LC4:
 237 0007 242000   		.ascii	"$ \000"
 238              	.LC5:
 239 000a 506C6561 		.ascii	"Please input password:\000"
 239      73652069 
 239      6E707574 
 239      20706173 
ARM GAS  C:\Users\CL\AppData\Local\Temp\cc0DkSVB.s 			page 5


 239      73776F72 
 240              		.section	.text.shellWritePrompt.constprop.0,"ax",%progbits
 241              		.align	1
 242              		.syntax unified
 243              		.thumb
 244              		.thumb_func
 246              	shellWritePrompt.constprop.0:
 247              		@ args = 0, pretend = 0, frame = 0
 248              		@ frame_needed = 0, uses_anonymous_args = 0
 249 0000 90F86030 		ldrb	r3, [r0, #96]	@ zero_extendqisi2
 250 0004 DB07     		lsls	r3, r3, #31
 251 0006 10B5     		push	{r4, lr}
 252 0008 0446     		mov	r4, r0
 253 000a 19D5     		bpl	.L39
 254 000c 0D49     		ldr	r1, .L43
 255 000e FFF7FEFF 		bl	shellWriteString
 256 0012 2368     		ldr	r3, [r4]
 257 0014 2046     		mov	r0, r4
 258 0016 5968     		ldr	r1, [r3, #4]
 259 0018 FFF7FEFF 		bl	shellWriteString
 260 001c 0A49     		ldr	r1, .L43+4
 261 001e 2046     		mov	r0, r4
 262 0020 FFF7FEFF 		bl	shellWriteString
 263 0024 A168     		ldr	r1, [r4, #8]
 264 0026 094B     		ldr	r3, .L43+8
 265 0028 2046     		mov	r0, r4
 266 002a 0029     		cmp	r1, #0
 267 002c 08BF     		it	eq
 268 002e 1946     		moveq	r1, r3
 269 0030 FFF7FEFF 		bl	shellWriteString
 270 0034 0649     		ldr	r1, .L43+12
 271 0036 2046     		mov	r0, r4
 272              	.L42:
 273 0038 BDE81040 		pop	{r4, lr}
 274 003c FFF7FEBF 		b	shellWriteString
 275              	.L39:
 276 0040 0449     		ldr	r1, .L43+16
 277 0042 F9E7     		b	.L42
 278              	.L44:
 279              		.align	2
 280              	.L43:
 281 0044 02000000 		.word	.LC2
 282 0048 05000000 		.word	.LC3
 283 004c 00000000 		.word	.LC1
 284 0050 07000000 		.word	.LC4
 285 0054 0A000000 		.word	.LC5
 287              		.section	.text.shellPrint,"ax",%progbits
 288              		.align	1
 289              		.global	shellPrint
 290              		.syntax unified
 291              		.thumb
 292              		.thumb_func
 294              	shellPrint:
 295              		@ args = 4, pretend = 12, frame = 304
 296              		@ frame_needed = 0, uses_anonymous_args = 1
 297 0000 0EB4     		push	{r1, r2, r3}
 298 0002 10B5     		push	{r4, lr}
ARM GAS  C:\Users\CL\AppData\Local\Temp\cc0DkSVB.s 			page 6


 299 0004 0446     		mov	r4, r0
 300 0006 CDB0     		sub	sp, sp, #308
 301 0008 80B1     		cbz	r0, .L45
 302 000a 50AB     		add	r3, sp, #320
 303 000c 4FF49671 		mov	r1, #300
 304 0010 4F9A     		ldr	r2, [sp, #316]
 305 0012 0093     		str	r3, [sp]
 306 0014 01A8     		add	r0, sp, #4
 307 0016 FFF7FEFF 		bl	vsnprintf
 308 001a B0F5967F 		cmp	r0, #300
 309 001e A8BF     		it	ge
 310 0020 4FF49670 		movge	r0, #300
 311 0024 81B2     		uxth	r1, r0
 312 0026 A36E     		ldr	r3, [r4, #104]
 313 0028 01A8     		add	r0, sp, #4
 314 002a 9847     		blx	r3
 315              	.L45:
 316 002c 4DB0     		add	sp, sp, #308
 317              		@ sp needed
 318 002e BDE81040 		pop	{r4, lr}
 319 0032 03B0     		add	sp, sp, #12
 320 0034 7047     		bx	lr
 322              		.section	.text.shellCheckPermission,"ax",%progbits
 323              		.align	1
 324              		.global	shellCheckPermission
 325              		.syntax unified
 326              		.thumb
 327              		.thumb_func
 329              	shellCheckPermission:
 330              		@ args = 0, pretend = 0, frame = 0
 331              		@ frame_needed = 0, uses_anonymous_args = 0
 332              		@ link register save eliminated.
 333 0000 0A78     		ldrb	r2, [r1]	@ zero_extendqisi2
 334 0002 4AB1     		cbz	r2, .L49
 335 0004 4B78     		ldrb	r3, [r1, #1]	@ zero_extendqisi2
 336 0006 03F00F03 		and	r3, r3, #15
 337 000a 082B     		cmp	r3, #8
 338 000c 04D0     		beq	.L49
 339 000e 0368     		ldr	r3, [r0]
 340 0010 63B1     		cbz	r3, .L52
 341 0012 1B78     		ldrb	r3, [r3]	@ zero_extendqisi2
 342 0014 1A42     		tst	r2, r3
 343 0016 09D0     		beq	.L52
 344              	.L49:
 345 0018 90F86030 		ldrb	r3, [r0, #96]	@ zero_extendqisi2
 346 001c DB07     		lsls	r3, r3, #31
 347 001e 08D4     		bmi	.L53
 348 0020 4878     		ldrb	r0, [r1, #1]	@ zero_extendqisi2
 349 0022 80F01000 		eor	r0, r0, #16
 350 0026 40F30010 		sbfx	r0, r0, #4, #1
 351 002a 7047     		bx	lr
 352              	.L52:
 353 002c 4FF0FF30 		mov	r0, #-1
 354 0030 7047     		bx	lr
 355              	.L53:
 356 0032 0020     		movs	r0, #0
 357 0034 7047     		bx	lr
ARM GAS  C:\Users\CL\AppData\Local\Temp\cc0DkSVB.s 			page 7


 359              		.section	.text.shellToHex,"ax",%progbits
 360              		.align	1
 361              		.global	shellToHex
 362              		.syntax unified
 363              		.thumb
 364              		.thumb_func
 366              	shellToHex:
 367              		@ args = 0, pretend = 0, frame = 0
 368              		@ frame_needed = 0, uses_anonymous_args = 0
 369              		@ link register save eliminated.
 370 0000 0023     		movs	r3, #0
 371 0002 0B72     		strb	r3, [r1, #8]
 372 0004 0823     		movs	r3, #8
 373              	.L61:
 374 0006 18B9     		cbnz	r0, .L64
 375 0008 C3F10800 		rsb	r0, r3, #8
 376 000c 40B2     		sxtb	r0, r0
 377 000e 7047     		bx	lr
 378              	.L64:
 379 0010 00F00F02 		and	r2, r0, #15
 380 0014 013B     		subs	r3, r3, #1
 381 0016 092A     		cmp	r2, #9
 382 0018 DBB2     		uxtb	r3, r3
 383 001a 8CBF     		ite	hi
 384 001c 5732     		addhi	r2, r2, #87
 385 001e 3032     		addls	r2, r2, #48
 386 0020 CA54     		strb	r2, [r1, r3]
 387 0022 0009     		lsrs	r0, r0, #4
 388 0024 EFE7     		b	.L61
 390              		.section	.text.shellGetCommandName,"ax",%progbits
 391              		.align	1
 392              		.syntax unified
 393              		.thumb
 394              		.thumb_func
 396              	shellGetCommandName:
 397              		@ args = 0, pretend = 0, frame = 0
 398              		@ frame_needed = 0, uses_anonymous_args = 0
 399 0000 0A49     		ldr	r1, .L70
 400 0002 08B5     		push	{r3, lr}
 401 0004 4FF03033 		mov	r3, #808464432
 402 0008 0B60     		str	r3, [r1]	@ unaligned
 403 000a 4B60     		str	r3, [r1, #4]	@ unaligned
 404 000c 0B72     		strb	r3, [r1, #8]
 405 000e 4378     		ldrb	r3, [r0, #1]	@ zero_extendqisi2
 406 0010 4068     		ldr	r0, [r0, #4]
 407 0012 03F00F03 		and	r3, r3, #15
 408 0016 012B     		cmp	r3, #1
 409 0018 06D9     		bls	.L65
 410 001a 072B     		cmp	r3, #7
 411 001c 04D9     		bls	.L65
 412 001e 082B     		cmp	r3, #8
 413 0020 02D0     		beq	.L65
 414 0022 FFF7FEFF 		bl	shellToHex
 415 0026 0846     		mov	r0, r1
 416              	.L65:
 417 0028 08BD     		pop	{r3, pc}
 418              	.L71:
ARM GAS  C:\Users\CL\AppData\Local\Temp\cc0DkSVB.s 			page 8


 419 002a 00BF     		.align	2
 420              	.L70:
 421 002c 00000000 		.word	.LANCHOR1
 423              		.section	.text.shellToDec,"ax",%progbits
 424              		.align	1
 425              		.global	shellToDec
 426              		.syntax unified
 427              		.thumb
 428              		.thumb_func
 430              	shellToDec:
 431              		@ args = 0, pretend = 0, frame = 0
 432              		@ frame_needed = 0, uses_anonymous_args = 0
 433 0000 0023     		movs	r3, #0
 434 0002 80EAE072 		eor	r2, r0, r0, asr #31
 435 0006 30B5     		push	{r4, r5, lr}
 436 0008 CB72     		strb	r3, [r1, #11]
 437 000a A2EBE072 		sub	r2, r2, r0, asr #31
 438 000e 0B23     		movs	r3, #11
 439 0010 0A24     		movs	r4, #10
 440              	.L73:
 441 0012 4AB9     		cbnz	r2, .L74
 442 0014 0028     		cmp	r0, #0
 443 0016 11DA     		bge	.L75
 444 0018 013B     		subs	r3, r3, #1
 445 001a DBB2     		uxtb	r3, r3
 446 001c 2D22     		movs	r2, #45
 447              	.L77:
 448 001e CA54     		strb	r2, [r1, r3]
 449              	.L76:
 450 0020 C3F10B00 		rsb	r0, r3, #11
 451 0024 40B2     		sxtb	r0, r0
 452 0026 30BD     		pop	{r4, r5, pc}
 453              	.L74:
 454 0028 013B     		subs	r3, r3, #1
 455 002a B2FBF4F5 		udiv	r5, r2, r4
 456 002e DBB2     		uxtb	r3, r3
 457 0030 04FB1522 		mls	r2, r4, r5, r2
 458 0034 3032     		adds	r2, r2, #48
 459 0036 CA54     		strb	r2, [r1, r3]
 460 0038 2A46     		mov	r2, r5
 461 003a EAE7     		b	.L73
 462              	.L75:
 463 003c F0D1     		bne	.L76
 464 003e 013B     		subs	r3, r3, #1
 465 0040 DBB2     		uxtb	r3, r3
 466 0042 3022     		movs	r2, #48
 467 0044 EBE7     		b	.L77
 469              		.section	.rodata.shellWriteReturnValue.str1.1,"aMS",%progbits,1
 470              	.LC7:
 471 0000 52657475 		.ascii	"Return: \000"
 471      726E3A20 
 471      00
 472              	.LC8:
 473 0009 2C203078 		.ascii	", 0x\000"
 473      00
 474              	.LC6:
 475 000e 30303030 		.ascii	"00000000000\000"
ARM GAS  C:\Users\CL\AppData\Local\Temp\cc0DkSVB.s 			page 9


 475      30303030 
 475      30303000 
 476              		.section	.text.shellWriteReturnValue,"ax",%progbits
 477              		.align	1
 478              		.syntax unified
 479              		.thumb
 480              		.thumb_func
 482              	shellWriteReturnValue:
 483              		@ args = 0, pretend = 0, frame = 16
 484              		@ frame_needed = 0, uses_anonymous_args = 0
 485 0000 30B5     		push	{r4, r5, lr}
 486 0002 174A     		ldr	r2, .L79
 487 0004 85B0     		sub	sp, sp, #20
 488 0006 0446     		mov	r4, r0
 489 0008 0D46     		mov	r5, r1
 490 000a 1068     		ldr	r0, [r2]	@ unaligned
 491 000c 5168     		ldr	r1, [r2, #4]	@ unaligned
 492 000e 01AB     		add	r3, sp, #4
 493 0010 03C3     		stmia	r3!, {r0, r1}
 494 0012 9068     		ldr	r0, [r2, #8]	@ unaligned
 495 0014 1860     		str	r0, [r3]
 496 0016 1349     		ldr	r1, .L79+4
 497 0018 2046     		mov	r0, r4
 498 001a FFF7FEFF 		bl	shellWriteString
 499 001e 01A9     		add	r1, sp, #4
 500 0020 2846     		mov	r0, r5
 501 0022 FFF7FEFF 		bl	shellToDec
 502 0026 C0F10B00 		rsb	r0, r0, #11
 503 002a 0144     		add	r1, r1, r0
 504 002c 2046     		mov	r0, r4
 505 002e FFF7FEFF 		bl	shellWriteString
 506 0032 0D49     		ldr	r1, .L79+8
 507 0034 2046     		mov	r0, r4
 508 0036 FFF7FEFF 		bl	shellWriteString
 509 003a 4FF03033 		mov	r3, #808464432
 510 003e 01A9     		add	r1, sp, #4
 511 0040 2846     		mov	r0, r5
 512 0042 CDE90133 		strd	r3, r3, [sp, #4]
 513 0046 CDF80B30 		str	r3, [sp, #11]	@ unaligned
 514 004a FFF7FEFF 		bl	shellToHex
 515 004e 2046     		mov	r0, r4
 516 0050 FFF7FEFF 		bl	shellWriteString
 517 0054 0549     		ldr	r1, .L79+12
 518 0056 2046     		mov	r0, r4
 519 0058 FFF7FEFF 		bl	shellWriteString
 520 005c 05B0     		add	sp, sp, #20
 521              		@ sp needed
 522 005e 30BD     		pop	{r4, r5, pc}
 523              	.L80:
 524              		.align	2
 525              	.L79:
 526 0060 0E000000 		.word	.LC6
 527 0064 00000000 		.word	.LC7
 528 0068 09000000 		.word	.LC8
 529 006c 02000000 		.word	.LC2
 531              		.section	.rodata.shellListItem.str1.1,"aMS",%progbits,1
 532              	.LC9:
ARM GAS  C:\Users\CL\AppData\Local\Temp\cc0DkSVB.s 			page 10


 533 0000 434D4420 		.ascii	"CMD \000"
 533      00
 534              	.LC10:
 535 0005 56415220 		.ascii	"VAR \000"
 535      00
 536              	.LC11:
 537 000a 55534552 		.ascii	"USER\000"
 537      00
 538              	.LC12:
 539 000f 4B455920 		.ascii	"KEY \000"
 539      00
 540              	.LC13:
 541 0014 4E4F4E45 		.ascii	"NONE\000"
 541      00
 542              	.LC14:
 543 0019 202000   		.ascii	"  \000"
 544              	.LC15:
 545 001c 2E2E2E00 		.ascii	"...\000"
 546              		.section	.text.shellListItem,"ax",%progbits
 547              		.align	1
 548              		.global	shellListItem
 549              		.syntax unified
 550              		.thumb
 551              		.thumb_func
 553              	shellListItem:
 554              		@ args = 0, pretend = 0, frame = 0
 555              		@ frame_needed = 0, uses_anonymous_args = 0
 556 0000 70B5     		push	{r4, r5, r6, lr}
 557 0002 0446     		mov	r4, r0
 558 0004 0846     		mov	r0, r1
 559 0006 0E46     		mov	r6, r1
 560 0008 FFF7FEFF 		bl	shellGetCommandName
 561 000c 0146     		mov	r1, r0
 562 000e 2046     		mov	r0, r4
 563 0010 FFF7FEFF 		bl	shellWriteString
 564 0014 C0F11600 		rsb	r0, r0, #22
 565 0018 05B2     		sxth	r5, r0
 566 001a 002D     		cmp	r5, #0
 567 001c D8BF     		it	le
 568 001e 0425     		movle	r5, #4
 569              	.L83:
 570 0020 013D     		subs	r5, r5, #1
 571 0022 A06E     		ldr	r0, [r4, #104]
 572 0024 2021     		movs	r1, #32
 573 0026 FFF7FEFF 		bl	shellWriteByte.isra.0
 574 002a ABB2     		uxth	r3, r5
 575 002c 2DB2     		sxth	r5, r5
 576 002e 002B     		cmp	r3, #0
 577 0030 F6D1     		bne	.L83
 578 0032 7378     		ldrb	r3, [r6, #1]	@ zero_extendqisi2
 579 0034 03F00F03 		and	r3, r3, #15
 580 0038 012B     		cmp	r3, #1
 581 003a 36D8     		bhi	.L84
 582 003c 2249     		ldr	r1, .L106
 583              	.L105:
 584 003e 2046     		mov	r0, r4
 585 0040 FFF7FEFF 		bl	shellWriteString
ARM GAS  C:\Users\CL\AppData\Local\Temp\cc0DkSVB.s 			page 11


 586 0044 2149     		ldr	r1, .L106+4
 587 0046 2046     		mov	r0, r4
 588 0048 FFF7FEFF 		bl	shellWriteString
 589 004c 0725     		movs	r5, #7
 590              	.L90:
 591 004e 3378     		ldrb	r3, [r6]	@ zero_extendqisi2
 592 0050 A06E     		ldr	r0, [r4, #104]
 593 0052 2B41     		asrs	r3, r3, r5
 594 0054 13F0010F 		tst	r3, #1
 595 0058 14BF     		ite	ne
 596 005a 7821     		movne	r1, #120
 597 005c 2D21     		moveq	r1, #45
 598 005e FFF7FEFF 		bl	shellWriteByte.isra.0
 599 0062 013D     		subs	r5, r5, #1
 600 0064 F3D2     		bcs	.L90
 601 0066 1949     		ldr	r1, .L106+4
 602 0068 2046     		mov	r0, r4
 603 006a FFF7FEFF 		bl	shellWriteString
 604 006e A56E     		ldr	r5, [r4, #104]
 605 0070 F068     		ldr	r0, [r6, #12]
 606 0072 A5B1     		cbz	r5, .L93
 607 0074 0023     		movs	r3, #0
 608 0076 42F20146 		movw	r6, #9217
 609              	.L97:
 610 007a C25C     		ldrb	r2, [r0, r3]	@ zero_extendqisi2
 611 007c 0D2A     		cmp	r2, #13
 612 007e 99B2     		uxth	r1, r3
 613 0080 03F10103 		add	r3, r3, #1
 614 0084 F9D8     		bhi	.L97
 615 0086 26FA02F2 		lsr	r2, r6, r2
 616 008a D207     		lsls	r2, r2, #31
 617 008c F5D5     		bpl	.L97
 618 008e 2429     		cmp	r1, #36
 619 0090 18D9     		bls	.L98
 620 0092 2421     		movs	r1, #36
 621 0094 A847     		blx	r5
 622 0096 A36E     		ldr	r3, [r4, #104]
 623 0098 0D48     		ldr	r0, .L106+8
 624 009a 0321     		movs	r1, #3
 625 009c 9847     		blx	r3
 626              	.L93:
 627 009e 2046     		mov	r0, r4
 628 00a0 0C49     		ldr	r1, .L106+12
 629 00a2 BDE87040 		pop	{r4, r5, r6, lr}
 630 00a6 FFF7FEBF 		b	shellWriteString
 631              	.L84:
 632 00aa 072B     		cmp	r3, #7
 633 00ac 01D8     		bhi	.L86
 634 00ae 0A49     		ldr	r1, .L106+16
 635 00b0 C5E7     		b	.L105
 636              	.L86:
 637 00b2 082B     		cmp	r3, #8
 638 00b4 01D1     		bne	.L87
 639 00b6 0949     		ldr	r1, .L106+20
 640 00b8 C1E7     		b	.L105
 641              	.L87:
 642 00ba 092B     		cmp	r3, #9
ARM GAS  C:\Users\CL\AppData\Local\Temp\cc0DkSVB.s 			page 12


 643 00bc 0CBF     		ite	eq
 644 00be 0849     		ldreq	r1, .L106+24
 645 00c0 0849     		ldrne	r1, .L106+28
 646 00c2 BCE7     		b	.L105
 647              	.L98:
 648 00c4 A847     		blx	r5
 649 00c6 EAE7     		b	.L93
 650              	.L107:
 651              		.align	2
 652              	.L106:
 653 00c8 00000000 		.word	.LC9
 654 00cc 19000000 		.word	.LC14
 655 00d0 1C000000 		.word	.LC15
 656 00d4 02000000 		.word	.LC2
 657 00d8 05000000 		.word	.LC10
 658 00dc 0A000000 		.word	.LC11
 659 00e0 0F000000 		.word	.LC12
 660 00e4 14000000 		.word	.LC13
 662              		.section	.rodata.shellListCommand.str1.1,"aMS",%progbits,1
 663              	.LC16:
 664 0000 0D0A436F 		.ascii	"\015\012Command List:\015\012\000"
 664      6D6D616E 
 664      64204C69 
 664      73743A0D 
 664      0A00
 665              		.section	.text.shellListCommand,"ax",%progbits
 666              		.align	1
 667              		.global	shellListCommand
 668              		.syntax unified
 669              		.thumb
 670              		.thumb_func
 672              	shellListCommand:
 673              		@ args = 0, pretend = 0, frame = 0
 674              		@ frame_needed = 0, uses_anonymous_args = 0
 675 0000 70B5     		push	{r4, r5, r6, lr}
 676 0002 0E49     		ldr	r1, .L112
 677 0004 866D     		ldr	r6, [r0, #88]
 678 0006 0446     		mov	r4, r0
 679 0008 FFF7FEFF 		bl	shellWriteString
 680 000c 0025     		movs	r5, #0
 681              	.L109:
 682 000e B4F85C30 		ldrh	r3, [r4, #92]
 683 0012 29B2     		sxth	r1, r5
 684 0014 9942     		cmp	r1, r3
 685 0016 00DB     		blt	.L111
 686 0018 70BD     		pop	{r4, r5, r6, pc}
 687              	.L111:
 688 001a 06EB0111 		add	r1, r6, r1, lsl #4
 689 001e 4B78     		ldrb	r3, [r1, #1]	@ zero_extendqisi2
 690 0020 03F00F03 		and	r3, r3, #15
 691 0024 012B     		cmp	r3, #1
 692 0026 06D8     		bhi	.L110
 693 0028 2046     		mov	r0, r4
 694 002a FFF7FEFF 		bl	shellCheckPermission
 695 002e 10B9     		cbnz	r0, .L110
 696 0030 2046     		mov	r0, r4
 697 0032 FFF7FEFF 		bl	shellListItem
ARM GAS  C:\Users\CL\AppData\Local\Temp\cc0DkSVB.s 			page 13


 698              	.L110:
 699 0036 0135     		adds	r5, r5, #1
 700 0038 E9E7     		b	.L109
 701              	.L113:
 702 003a 00BF     		.align	2
 703              	.L112:
 704 003c 00000000 		.word	.LC16
 706              		.section	.text.shellCmds,"ax",%progbits
 707              		.align	1
 708              		.global	shellCmds
 709              		.syntax unified
 710              		.thumb
 711              		.thumb_func
 713              	shellCmds:
 714              		@ args = 0, pretend = 0, frame = 0
 715              		@ frame_needed = 0, uses_anonymous_args = 0
 716 0000 08B5     		push	{r3, lr}
 717 0002 FFF7FEFF 		bl	shellGetCurrent
 718 0006 18B1     		cbz	r0, .L114
 719 0008 BDE80840 		pop	{r3, lr}
 720 000c FFF7FEBF 		b	shellListCommand
 721              	.L114:
 722 0010 08BD     		pop	{r3, pc}
 724              		.section	.rodata.shellListVar.str1.1,"aMS",%progbits,1
 725              	.LC17:
 726 0000 0D0A5661 		.ascii	"\015\012Var List:\015\012\000"
 726      72204C69 
 726      73743A0D 
 726      0A00
 727              		.section	.text.shellListVar,"ax",%progbits
 728              		.align	1
 729              		.global	shellListVar
 730              		.syntax unified
 731              		.thumb
 732              		.thumb_func
 734              	shellListVar:
 735              		@ args = 0, pretend = 0, frame = 0
 736              		@ frame_needed = 0, uses_anonymous_args = 0
 737 0000 70B5     		push	{r4, r5, r6, lr}
 738 0002 0E49     		ldr	r1, .L120
 739 0004 866D     		ldr	r6, [r0, #88]
 740 0006 0446     		mov	r4, r0
 741 0008 FFF7FEFF 		bl	shellWriteString
 742 000c 0025     		movs	r5, #0
 743              	.L117:
 744 000e B4F85C30 		ldrh	r3, [r4, #92]
 745 0012 29B2     		sxth	r1, r5
 746 0014 9942     		cmp	r1, r3
 747 0016 00DB     		blt	.L119
 748 0018 70BD     		pop	{r4, r5, r6, pc}
 749              	.L119:
 750 001a 06EB0111 		add	r1, r6, r1, lsl #4
 751 001e 4B78     		ldrb	r3, [r1, #1]	@ zero_extendqisi2
 752 0020 0E33     		adds	r3, r3, #14
 753 0022 03F00F03 		and	r3, r3, #15
 754 0026 052B     		cmp	r3, #5
 755 0028 06D8     		bhi	.L118
ARM GAS  C:\Users\CL\AppData\Local\Temp\cc0DkSVB.s 			page 14


 756 002a 2046     		mov	r0, r4
 757 002c FFF7FEFF 		bl	shellCheckPermission
 758 0030 10B9     		cbnz	r0, .L118
 759 0032 2046     		mov	r0, r4
 760 0034 FFF7FEFF 		bl	shellListItem
 761              	.L118:
 762 0038 0135     		adds	r5, r5, #1
 763 003a E8E7     		b	.L117
 764              	.L121:
 765              		.align	2
 766              	.L120:
 767 003c 00000000 		.word	.LC17
 769              		.section	.text.shellVars,"ax",%progbits
 770              		.align	1
 771              		.global	shellVars
 772              		.syntax unified
 773              		.thumb
 774              		.thumb_func
 776              	shellVars:
 777              		@ args = 0, pretend = 0, frame = 0
 778              		@ frame_needed = 0, uses_anonymous_args = 0
 779 0000 08B5     		push	{r3, lr}
 780 0002 FFF7FEFF 		bl	shellGetCurrent
 781 0006 18B1     		cbz	r0, .L122
 782 0008 BDE80840 		pop	{r3, lr}
 783 000c FFF7FEBF 		b	shellListVar
 784              	.L122:
 785 0010 08BD     		pop	{r3, pc}
 787              		.section	.rodata.shellListUser.str1.1,"aMS",%progbits,1
 788              	.LC18:
 789 0000 0D0A5573 		.ascii	"\015\012User List:\015\012\000"
 789      6572204C 
 789      6973743A 
 789      0D0A00
 790              		.section	.text.shellListUser,"ax",%progbits
 791              		.align	1
 792              		.global	shellListUser
 793              		.syntax unified
 794              		.thumb
 795              		.thumb_func
 797              	shellListUser:
 798              		@ args = 0, pretend = 0, frame = 0
 799              		@ frame_needed = 0, uses_anonymous_args = 0
 800 0000 70B5     		push	{r4, r5, r6, lr}
 801 0002 0E49     		ldr	r1, .L128
 802 0004 866D     		ldr	r6, [r0, #88]
 803 0006 0446     		mov	r4, r0
 804 0008 FFF7FEFF 		bl	shellWriteString
 805 000c 0025     		movs	r5, #0
 806              	.L125:
 807 000e B4F85C30 		ldrh	r3, [r4, #92]
 808 0012 29B2     		sxth	r1, r5
 809 0014 9942     		cmp	r1, r3
 810 0016 00DB     		blt	.L127
 811 0018 70BD     		pop	{r4, r5, r6, pc}
 812              	.L127:
 813 001a 06EB0111 		add	r1, r6, r1, lsl #4
ARM GAS  C:\Users\CL\AppData\Local\Temp\cc0DkSVB.s 			page 15


 814 001e 4B78     		ldrb	r3, [r1, #1]	@ zero_extendqisi2
 815 0020 03F00F03 		and	r3, r3, #15
 816 0024 082B     		cmp	r3, #8
 817 0026 06D1     		bne	.L126
 818 0028 2046     		mov	r0, r4
 819 002a FFF7FEFF 		bl	shellCheckPermission
 820 002e 10B9     		cbnz	r0, .L126
 821 0030 2046     		mov	r0, r4
 822 0032 FFF7FEFF 		bl	shellListItem
 823              	.L126:
 824 0036 0135     		adds	r5, r5, #1
 825 0038 E9E7     		b	.L125
 826              	.L129:
 827 003a 00BF     		.align	2
 828              	.L128:
 829 003c 00000000 		.word	.LC18
 831              		.section	.text.shellUsers,"ax",%progbits
 832              		.align	1
 833              		.global	shellUsers
 834              		.syntax unified
 835              		.thumb
 836              		.thumb_func
 838              	shellUsers:
 839              		@ args = 0, pretend = 0, frame = 0
 840              		@ frame_needed = 0, uses_anonymous_args = 0
 841 0000 08B5     		push	{r3, lr}
 842 0002 FFF7FEFF 		bl	shellGetCurrent
 843 0006 18B1     		cbz	r0, .L130
 844 0008 BDE80840 		pop	{r3, lr}
 845 000c FFF7FEBF 		b	shellListUser
 846              	.L130:
 847 0010 08BD     		pop	{r3, pc}
 849              		.section	.rodata.shellListKey.str1.1,"aMS",%progbits,1
 850              	.LC19:
 851 0000 0D0A4B65 		.ascii	"\015\012Key List:\015\012\000"
 851      79204C69 
 851      73743A0D 
 851      0A00
 852              		.section	.text.shellListKey,"ax",%progbits
 853              		.align	1
 854              		.global	shellListKey
 855              		.syntax unified
 856              		.thumb
 857              		.thumb_func
 859              	shellListKey:
 860              		@ args = 0, pretend = 0, frame = 0
 861              		@ frame_needed = 0, uses_anonymous_args = 0
 862 0000 70B5     		push	{r4, r5, r6, lr}
 863 0002 0E49     		ldr	r1, .L136
 864 0004 866D     		ldr	r6, [r0, #88]
 865 0006 0446     		mov	r4, r0
 866 0008 FFF7FEFF 		bl	shellWriteString
 867 000c 0025     		movs	r5, #0
 868              	.L133:
 869 000e B4F85C30 		ldrh	r3, [r4, #92]
 870 0012 29B2     		sxth	r1, r5
 871 0014 9942     		cmp	r1, r3
ARM GAS  C:\Users\CL\AppData\Local\Temp\cc0DkSVB.s 			page 16


 872 0016 00DB     		blt	.L135
 873 0018 70BD     		pop	{r4, r5, r6, pc}
 874              	.L135:
 875 001a 06EB0111 		add	r1, r6, r1, lsl #4
 876 001e 4B78     		ldrb	r3, [r1, #1]	@ zero_extendqisi2
 877 0020 03F00F03 		and	r3, r3, #15
 878 0024 092B     		cmp	r3, #9
 879 0026 06D1     		bne	.L134
 880 0028 2046     		mov	r0, r4
 881 002a FFF7FEFF 		bl	shellCheckPermission
 882 002e 10B9     		cbnz	r0, .L134
 883 0030 2046     		mov	r0, r4
 884 0032 FFF7FEFF 		bl	shellListItem
 885              	.L134:
 886 0036 0135     		adds	r5, r5, #1
 887 0038 E9E7     		b	.L133
 888              	.L137:
 889 003a 00BF     		.align	2
 890              	.L136:
 891 003c 00000000 		.word	.LC19
 893              		.section	.text.shellKeys,"ax",%progbits
 894              		.align	1
 895              		.global	shellKeys
 896              		.syntax unified
 897              		.thumb
 898              		.thumb_func
 900              	shellKeys:
 901              		@ args = 0, pretend = 0, frame = 0
 902              		@ frame_needed = 0, uses_anonymous_args = 0
 903 0000 08B5     		push	{r3, lr}
 904 0002 FFF7FEFF 		bl	shellGetCurrent
 905 0006 18B1     		cbz	r0, .L138
 906 0008 BDE80840 		pop	{r3, lr}
 907 000c FFF7FEBF 		b	shellListKey
 908              	.L138:
 909 0010 08BD     		pop	{r3, pc}
 911              		.section	.text.shellListAll,"ax",%progbits
 912              		.align	1
 913              		.global	shellListAll
 914              		.syntax unified
 915              		.thumb
 916              		.thumb_func
 918              	shellListAll:
 919              		@ args = 0, pretend = 0, frame = 0
 920              		@ frame_needed = 0, uses_anonymous_args = 0
 921              		@ link register save eliminated.
 922 0000 FFF7FEBF 		b	shellListCommand
 924              		.section	.rodata.shellDeleteCommandLine.str1.1,"aMS",%progbits,1
 925              	.LC20:
 926 0000 08200800 		.ascii	"\010 \010\000"
 927              		.section	.text.shellDeleteCommandLine,"ax",%progbits
 928              		.align	1
 929              		.global	shellDeleteCommandLine
 930              		.syntax unified
 931              		.thumb
 932              		.thumb_func
 934              	shellDeleteCommandLine:
ARM GAS  C:\Users\CL\AppData\Local\Temp\cc0DkSVB.s 			page 17


 935              		@ args = 0, pretend = 0, frame = 0
 936              		@ frame_needed = 0, uses_anonymous_args = 0
 937 0000 70B5     		push	{r4, r5, r6, lr}
 938 0002 064E     		ldr	r6, .L144
 939 0004 0546     		mov	r5, r0
 940 0006 0C46     		mov	r4, r1
 941              	.L142:
 942 0008 04B9     		cbnz	r4, .L143
 943 000a 70BD     		pop	{r4, r5, r6, pc}
 944              	.L143:
 945 000c 3146     		mov	r1, r6
 946 000e 2846     		mov	r0, r5
 947 0010 013C     		subs	r4, r4, #1
 948 0012 FFF7FEFF 		bl	shellWriteString
 949 0016 E4B2     		uxtb	r4, r4
 950 0018 F6E7     		b	.L142
 951              	.L145:
 952 001a 00BF     		.align	2
 953              	.L144:
 954 001c 00000000 		.word	.LC20
 956              		.section	.text.shellClearCommandLine,"ax",%progbits
 957              		.align	1
 958              		.global	shellClearCommandLine
 959              		.syntax unified
 960              		.thumb
 961              		.thumb_func
 963              	shellClearCommandLine:
 964              		@ args = 0, pretend = 0, frame = 0
 965              		@ frame_needed = 0, uses_anonymous_args = 0
 966 0000 38B5     		push	{r3, r4, r5, lr}
 967 0002 8489     		ldrh	r4, [r0, #12]
 968 0004 C389     		ldrh	r3, [r0, #14]
 969 0006 0546     		mov	r5, r0
 970 0008 E41A     		subs	r4, r4, r3
 971              	.L149:
 972 000a 24B2     		sxth	r4, r4
 973 000c 002C     		cmp	r4, #0
 974 000e 05DC     		bgt	.L148
 975 0010 297B     		ldrb	r1, [r5, #12]	@ zero_extendqisi2
 976 0012 2846     		mov	r0, r5
 977 0014 BDE83840 		pop	{r3, r4, r5, lr}
 978 0018 FFF7FEBF 		b	shellDeleteCommandLine
 979              	.L148:
 980 001c A86E     		ldr	r0, [r5, #104]
 981 001e 2021     		movs	r1, #32
 982 0020 FFF7FEFF 		bl	shellWriteByte.isra.0
 983 0024 013C     		subs	r4, r4, #1
 984 0026 F0E7     		b	.L149
 986              		.section	.text.shellUp,"ax",%progbits
 987              		.align	1
 988              		.global	shellUp
 989              		.syntax unified
 990              		.thumb
 991              		.thumb_func
 993              	shellUp:
 994              		@ args = 0, pretend = 0, frame = 0
 995              		@ frame_needed = 0, uses_anonymous_args = 0
ARM GAS  C:\Users\CL\AppData\Local\Temp\cc0DkSVB.s 			page 18


 996 0000 38B5     		push	{r3, r4, r5, lr}
 997 0002 B0F85230 		ldrh	r3, [r0, #82]
 998 0006 B0F85050 		ldrh	r5, [r0, #80]
 999 000a B0F95410 		ldrsh	r1, [r0, #84]
 1000 000e AB42     		cmp	r3, r5
 1001 0010 38BF     		it	cc
 1002 0012 2B46     		movcc	r3, r5
 1003 0014 4A1E     		subs	r2, r1, #1
 1004 0016 5B42     		rsbs	r3, r3, #0
 1005 0018 9942     		cmp	r1, r3
 1006 001a D8BF     		it	le
 1007 001c 1A46     		movle	r2, r3
 1008 001e 0446     		mov	r4, r0
 1009 0020 A0F85420 		strh	r2, [r0, #84]	@ movhi
 1010 0024 FFF7FEFF 		bl	shellClearCommandLine
 1011 0028 B4F95420 		ldrsh	r2, [r4, #84]
 1012 002c 0AB9     		cbnz	r2, .L152
 1013 002e E260     		str	r2, [r4, #12]
 1014              	.L150:
 1015 0030 38BD     		pop	{r3, r4, r5, pc}
 1016              	.L152:
 1017 0032 B4F85230 		ldrh	r3, [r4, #82]
 1018 0036 2069     		ldr	r0, [r4, #16]
 1019 0038 0533     		adds	r3, r3, #5
 1020 003a 1344     		add	r3, r3, r2
 1021 003c 0522     		movs	r2, #5
 1022 003e 93FBF2F2 		sdiv	r2, r3, r2
 1023 0042 02EB8202 		add	r2, r2, r2, lsl #2
 1024 0046 9B1A     		subs	r3, r3, r2
 1025 0048 04EB8303 		add	r3, r4, r3, lsl #2
 1026 004c D96B     		ldr	r1, [r3, #60]
 1027 004e FFF7FEFF 		bl	shellStringCopy
 1028 0052 A081     		strh	r0, [r4, #12]	@ movhi
 1029 0054 0028     		cmp	r0, #0
 1030 0056 EBD0     		beq	.L150
 1031 0058 E081     		strh	r0, [r4, #14]	@ movhi
 1032 005a 2169     		ldr	r1, [r4, #16]
 1033 005c 2046     		mov	r0, r4
 1034 005e BDE83840 		pop	{r3, r4, r5, lr}
 1035 0062 FFF7FEBF 		b	shellWriteString
 1037              		.section	.text.shellTab,"ax",%progbits
 1038              		.align	1
 1039              		.global	shellTab
 1040              		.syntax unified
 1041              		.thumb
 1042              		.thumb_func
 1044              	shellTab:
 1045              		@ args = 0, pretend = 0, frame = 16
 1046              		@ frame_needed = 0, uses_anonymous_args = 0
 1047 0000 2DE9F04F 		push	{r4, r5, r6, r7, r8, r9, r10, fp, lr}
 1048 0004 8389     		ldrh	r3, [r0, #12]
 1049 0006 85B0     		sub	sp, sp, #20
 1050 0008 0446     		mov	r4, r0
 1051 000a 3BB9     		cbnz	r3, .L158
 1052 000c FFF7FEFF 		bl	shellListCommand
 1053 0010 2046     		mov	r0, r4
 1054 0012 05B0     		add	sp, sp, #20
ARM GAS  C:\Users\CL\AppData\Local\Temp\cc0DkSVB.s 			page 19


 1055              		@ sp needed
 1056 0014 BDE8F04F 		pop	{r4, r5, r6, r7, r8, r9, r10, fp, lr}
 1057 0018 FFF7FEBF 		b	shellWritePrompt.constprop.0
 1058              	.L158:
 1059 001c 0269     		ldr	r2, [r0, #16]
 1060 001e B0F834A0 		ldrh	r10, [r0, #52]
 1061 0022 DFF808B1 		ldr	fp, .L188
 1062 0026 0026     		movs	r6, #0
 1063 0028 D654     		strb	r6, [r2, r3]
 1064 002a 876D     		ldr	r7, [r0, #88]
 1065 002c 3546     		mov	r5, r6
 1066 002e B046     		mov	r8, r6
 1067              	.L159:
 1068 0030 B3B2     		uxth	r3, r6
 1069 0032 0293     		str	r3, [sp, #8]
 1070 0034 B4F85C30 		ldrh	r3, [r4, #92]
 1071 0038 0FFA86F9 		sxth	r9, r6
 1072 003c 9945     		cmp	r9, r3
 1073 003e 29DB     		blt	.L170
 1074 0040 002D     		cmp	r5, #0
 1075 0042 70D0     		beq	.L157
 1076 0044 012D     		cmp	r5, #1
 1077 0046 02D1     		bne	.L172
 1078 0048 2046     		mov	r0, r4
 1079 004a FFF7FEFF 		bl	shellClearCommandLine
 1080              	.L172:
 1081 004e 07EB0817 		add	r7, r7, r8, lsl #4
 1082 0052 3846     		mov	r0, r7
 1083 0054 2669     		ldr	r6, [r4, #16]
 1084 0056 FFF7FEFF 		bl	shellGetCommandName
 1085 005a 0146     		mov	r1, r0
 1086 005c 3046     		mov	r0, r6
 1087 005e FFF7FEFF 		bl	shellStringCopy
 1088 0062 012D     		cmp	r5, #1
 1089 0064 A081     		strh	r0, [r4, #12]	@ movhi
 1090 0066 08D0     		beq	.L173
 1091 0068 3946     		mov	r1, r7
 1092 006a 2046     		mov	r0, r4
 1093 006c FFF7FEFF 		bl	shellListItem
 1094 0070 2046     		mov	r0, r4
 1095 0072 FFF7FEFF 		bl	shellWritePrompt.constprop.0
 1096 0076 A4F80CA0 		strh	r10, [r4, #12]	@ movhi
 1097              	.L173:
 1098 007a A389     		ldrh	r3, [r4, #12]
 1099 007c 2269     		ldr	r2, [r4, #16]
 1100 007e 0021     		movs	r1, #0
 1101 0080 D154     		strb	r1, [r2, r3]
 1102 0082 A389     		ldrh	r3, [r4, #12]
 1103 0084 2169     		ldr	r1, [r4, #16]
 1104 0086 E381     		strh	r3, [r4, #14]	@ movhi
 1105 0088 2046     		mov	r0, r4
 1106 008a 05B0     		add	sp, sp, #20
 1107              		@ sp needed
 1108 008c BDE8F04F 		pop	{r4, r5, r6, r7, r8, r9, r10, fp, lr}
 1109 0090 FFF7FEBF 		b	shellWriteString
 1110              	.L170:
 1111 0094 07EB0919 		add	r9, r7, r9, lsl #4
ARM GAS  C:\Users\CL\AppData\Local\Temp\cc0DkSVB.s 			page 20


 1112 0098 4946     		mov	r1, r9
 1113 009a 2046     		mov	r0, r4
 1114 009c FFF7FEFF 		bl	shellCheckPermission
 1115 00a0 0028     		cmp	r0, #0
 1116 00a2 3ED1     		bne	.L160
 1117 00a4 2369     		ldr	r3, [r4, #16]
 1118 00a6 0390     		str	r0, [sp, #12]
 1119 00a8 4846     		mov	r0, r9
 1120 00aa 0193     		str	r3, [sp, #4]
 1121 00ac FFF7FEFF 		bl	shellGetCommandName
 1122 00b0 039B     		ldr	r3, [sp, #12]
 1123              	.L161:
 1124 00b2 019A     		ldr	r2, [sp, #4]
 1125 00b4 1FFA83FE 		uxth	lr, r3
 1126 00b8 12F80E20 		ldrb	r2, [r2, lr]	@ zero_extendqisi2
 1127 00bc 32B1     		cbz	r2, .L163
 1128 00be 10F80E10 		ldrb	r1, [r0, lr]	@ zero_extendqisi2
 1129 00c2 19B1     		cbz	r1, .L163
 1130 00c4 8A42     		cmp	r2, r1
 1131 00c6 03F10103 		add	r3, r3, #1
 1132 00ca F2D0     		beq	.L161
 1133              	.L163:
 1134 00cc A389     		ldrh	r3, [r4, #12]
 1135 00ce 7345     		cmp	r3, lr
 1136 00d0 27D1     		bne	.L160
 1137 00d2 15B3     		cbz	r5, .L165
 1138 00d4 012D     		cmp	r5, #1
 1139 00d6 03D1     		bne	.L166
 1140 00d8 5946     		mov	r1, fp
 1141 00da 2046     		mov	r0, r4
 1142 00dc FFF7FEFF 		bl	shellWriteString
 1143              	.L166:
 1144 00e0 07EB0818 		add	r8, r7, r8, lsl #4
 1145 00e4 4146     		mov	r1, r8
 1146 00e6 2046     		mov	r0, r4
 1147 00e8 FFF7FEFF 		bl	shellListItem
 1148 00ec 4046     		mov	r0, r8
 1149 00ee FFF7FEFF 		bl	shellGetCommandName
 1150 00f2 8046     		mov	r8, r0
 1151 00f4 4846     		mov	r0, r9
 1152 00f6 FFF7FEFF 		bl	shellGetCommandName
 1153 00fa 0023     		movs	r3, #0
 1154              	.L167:
 1155 00fc 1FFA83FC 		uxth	ip, r3
 1156 0100 18F80C10 		ldrb	r1, [r8, ip]	@ zero_extendqisi2
 1157 0104 31B1     		cbz	r1, .L168
 1158 0106 10F80C20 		ldrb	r2, [r0, ip]	@ zero_extendqisi2
 1159 010a 1AB1     		cbz	r2, .L168
 1160 010c 9142     		cmp	r1, r2
 1161 010e 03F10103 		add	r3, r3, #1
 1162 0112 F3D0     		beq	.L167
 1163              	.L168:
 1164 0114 E245     		cmp	r10, ip
 1165 0116 28BF     		it	cs
 1166 0118 E246     		movcs	r10, ip
 1167              	.L165:
 1168 011a 0135     		adds	r5, r5, #1
ARM GAS  C:\Users\CL\AppData\Local\Temp\cc0DkSVB.s 			page 21


 1169 011c DDF80880 		ldr	r8, [sp, #8]
 1170 0120 ADB2     		uxth	r5, r5
 1171              	.L160:
 1172 0122 0136     		adds	r6, r6, #1
 1173 0124 84E7     		b	.L159
 1174              	.L157:
 1175 0126 05B0     		add	sp, sp, #20
 1176              		@ sp needed
 1177 0128 BDE8F08F 		pop	{r4, r5, r6, r7, r8, r9, r10, fp, pc}
 1178              	.L189:
 1179              		.align	2
 1180              	.L188:
 1181 012c 02000000 		.word	.LC2
 1183              		.section	.text.shellDown,"ax",%progbits
 1184              		.align	1
 1185              		.global	shellDown
 1186              		.syntax unified
 1187              		.thumb
 1188              		.thumb_func
 1190              	shellDown:
 1191              		@ args = 0, pretend = 0, frame = 0
 1192              		@ frame_needed = 0, uses_anonymous_args = 0
 1193 0000 B0F85430 		ldrh	r3, [r0, #84]
 1194 0004 0133     		adds	r3, r3, #1
 1195 0006 1BB2     		sxth	r3, r3
 1196 0008 002B     		cmp	r3, #0
 1197 000a 10B5     		push	{r4, lr}
 1198 000c 0446     		mov	r4, r0
 1199 000e A0F85430 		strh	r3, [r0, #84]	@ movhi
 1200 0012 03DD     		ble	.L191
 1201 0014 0023     		movs	r3, #0
 1202 0016 A0F85430 		strh	r3, [r0, #84]	@ movhi
 1203              	.L190:
 1204 001a 10BD     		pop	{r4, pc}
 1205              	.L191:
 1206 001c FFF7FEFF 		bl	shellClearCommandLine
 1207 0020 B4F95420 		ldrsh	r2, [r4, #84]
 1208 0024 0AB9     		cbnz	r2, .L193
 1209 0026 E260     		str	r2, [r4, #12]
 1210 0028 F7E7     		b	.L190
 1211              	.L193:
 1212 002a B4F85230 		ldrh	r3, [r4, #82]
 1213 002e 2069     		ldr	r0, [r4, #16]
 1214 0030 0533     		adds	r3, r3, #5
 1215 0032 1344     		add	r3, r3, r2
 1216 0034 0522     		movs	r2, #5
 1217 0036 93FBF2F2 		sdiv	r2, r3, r2
 1218 003a 02EB8202 		add	r2, r2, r2, lsl #2
 1219 003e 9B1A     		subs	r3, r3, r2
 1220 0040 04EB8303 		add	r3, r4, r3, lsl #2
 1221 0044 D96B     		ldr	r1, [r3, #60]
 1222 0046 FFF7FEFF 		bl	shellStringCopy
 1223 004a A081     		strh	r0, [r4, #12]	@ movhi
 1224 004c 0028     		cmp	r0, #0
 1225 004e E4D0     		beq	.L190
 1226 0050 E081     		strh	r0, [r4, #14]	@ movhi
 1227 0052 2169     		ldr	r1, [r4, #16]
ARM GAS  C:\Users\CL\AppData\Local\Temp\cc0DkSVB.s 			page 22


 1228 0054 2046     		mov	r0, r4
 1229 0056 BDE81040 		pop	{r4, lr}
 1230 005a FFF7FEBF 		b	shellWriteString
 1232              		.section	.rodata.shellInsertByte.str1.1,"aMS",%progbits,1
 1233              	.LC21:
 1234 0000 0D0A5761 		.ascii	"\015\012Warning: Command is too long\015\012\000"
 1234      726E696E 
 1234      673A2043 
 1234      6F6D6D61 
 1234      6E642069 
 1235              		.section	.text.shellInsertByte,"ax",%progbits
 1236              		.align	1
 1237              		.global	shellInsertByte
 1238              		.syntax unified
 1239              		.thumb
 1240              		.thumb_func
 1242              	shellInsertByte:
 1243              		@ args = 0, pretend = 0, frame = 0
 1244              		@ frame_needed = 0, uses_anonymous_args = 0
 1245 0000 F8B5     		push	{r3, r4, r5, r6, r7, lr}
 1246 0002 858E     		ldrh	r5, [r0, #52]
 1247 0004 8389     		ldrh	r3, [r0, #12]
 1248 0006 013D     		subs	r5, r5, #1
 1249 0008 AB42     		cmp	r3, r5
 1250 000a 0446     		mov	r4, r0
 1251 000c 0A46     		mov	r2, r1
 1252 000e 0BDB     		blt	.L198
 1253 0010 2A49     		ldr	r1, .L211
 1254 0012 FFF7FEFF 		bl	shellWriteString
 1255 0016 2046     		mov	r0, r4
 1256 0018 FFF7FEFF 		bl	shellWritePrompt.constprop.0
 1257 001c 2169     		ldr	r1, [r4, #16]
 1258 001e 2046     		mov	r0, r4
 1259 0020 BDE8F840 		pop	{r3, r4, r5, r6, r7, lr}
 1260 0024 FFF7FEBF 		b	shellWriteString
 1261              	.L198:
 1262 0028 C089     		ldrh	r0, [r0, #14]
 1263 002a 8342     		cmp	r3, r0
 1264 002c 0FD1     		bne	.L199
 1265 002e 2069     		ldr	r0, [r4, #16]
 1266 0030 5D1C     		adds	r5, r3, #1
 1267 0032 A581     		strh	r5, [r4, #12]	@ movhi
 1268 0034 C154     		strb	r1, [r0, r3]
 1269 0036 A389     		ldrh	r3, [r4, #12]
 1270 0038 2269     		ldr	r2, [r4, #16]
 1271 003a 0020     		movs	r0, #0
 1272 003c D054     		strb	r0, [r2, r3]
 1273 003e E389     		ldrh	r3, [r4, #14]
 1274 0040 A06E     		ldr	r0, [r4, #104]
 1275 0042 0133     		adds	r3, r3, #1
 1276 0044 E381     		strh	r3, [r4, #14]	@ movhi
 1277 0046 BDE8F840 		pop	{r3, r4, r5, r6, r7, lr}
 1278 004a FFF7FEBF 		b	shellWriteByte.isra.0
 1279              	.L199:
 1280 004e 1ED9     		bls	.L197
 1281 0050 1B1A     		subs	r3, r3, r0
 1282 0052 9FB2     		uxth	r7, r3
ARM GAS  C:\Users\CL\AppData\Local\Temp\cc0DkSVB.s 			page 23


 1283 0054 0021     		movs	r1, #0
 1284 0056 1BB2     		sxth	r3, r3
 1285              	.L202:
 1286 0058 781A     		subs	r0, r7, r1
 1287 005a 00B2     		sxth	r0, r0
 1288 005c 0028     		cmp	r0, #0
 1289 005e 2669     		ldr	r6, [r4, #16]
 1290 0060 E589     		ldrh	r5, [r4, #14]
 1291 0062 15DC     		bgt	.L203
 1292 0064 6B1C     		adds	r3, r5, #1
 1293 0066 E381     		strh	r3, [r4, #14]	@ movhi
 1294 0068 7255     		strb	r2, [r6, r5]
 1295 006a A389     		ldrh	r3, [r4, #12]
 1296 006c 2269     		ldr	r2, [r4, #16]
 1297 006e 0133     		adds	r3, r3, #1
 1298 0070 9BB2     		uxth	r3, r3
 1299 0072 0021     		movs	r1, #0
 1300 0074 A381     		strh	r3, [r4, #12]	@ movhi
 1301 0076 D154     		strb	r1, [r2, r3]
 1302 0078 E689     		ldrh	r6, [r4, #14]
 1303 007a 013E     		subs	r6, r6, #1
 1304              	.L209:
 1305 007c A589     		ldrh	r5, [r4, #12]
 1306 007e 36B2     		sxth	r6, r6
 1307 0080 AE42     		cmp	r6, r5
 1308 0082 0DDB     		blt	.L205
 1309 0084 E389     		ldrh	r3, [r4, #14]
 1310 0086 ED1A     		subs	r5, r5, r3
 1311              	.L210:
 1312 0088 2DB2     		sxth	r5, r5
 1313 008a 002D     		cmp	r5, #0
 1314 008c 0FDC     		bgt	.L207
 1315              	.L197:
 1316 008e F8BD     		pop	{r3, r4, r5, r6, r7, pc}
 1317              	.L203:
 1318 0090 581A     		subs	r0, r3, r1
 1319 0092 2844     		add	r0, r0, r5
 1320 0094 3518     		adds	r5, r6, r0
 1321 0096 0131     		adds	r1, r1, #1
 1322 0098 15F8015C 		ldrb	r5, [r5, #-1]	@ zero_extendqisi2
 1323 009c 3554     		strb	r5, [r6, r0]
 1324 009e DBE7     		b	.L202
 1325              	.L205:
 1326 00a0 2369     		ldr	r3, [r4, #16]
 1327 00a2 A06E     		ldr	r0, [r4, #104]
 1328 00a4 995D     		ldrb	r1, [r3, r6]	@ zero_extendqisi2
 1329 00a6 FFF7FEFF 		bl	shellWriteByte.isra.0
 1330 00aa 0136     		adds	r6, r6, #1
 1331 00ac E6E7     		b	.L209
 1332              	.L207:
 1333 00ae A06E     		ldr	r0, [r4, #104]
 1334 00b0 0821     		movs	r1, #8
 1335 00b2 FFF7FEFF 		bl	shellWriteByte.isra.0
 1336 00b6 013D     		subs	r5, r5, #1
 1337 00b8 E6E7     		b	.L210
 1338              	.L212:
 1339 00ba 00BF     		.align	2
ARM GAS  C:\Users\CL\AppData\Local\Temp\cc0DkSVB.s 			page 24


 1340              	.L211:
 1341 00bc 00000000 		.word	.LC21
 1343              		.section	.text.shellDeleteByte,"ax",%progbits
 1344              		.align	1
 1345              		.global	shellDeleteByte
 1346              		.syntax unified
 1347              		.thumb
 1348              		.thumb_func
 1350              	shellDeleteByte:
 1351              		@ args = 0, pretend = 0, frame = 0
 1352              		@ frame_needed = 0, uses_anonymous_args = 0
 1353 0000 38B5     		push	{r3, r4, r5, lr}
 1354 0002 4D1C     		adds	r5, r1, #1
 1355 0004 C389     		ldrh	r3, [r0, #14]
 1356 0006 6A42     		rsbs	r2, r5, #0
 1357 0008 0446     		mov	r4, r0
 1358 000a 6A41     		adcs	r2, r2, r5
 1359 000c 0BB9     		cbnz	r3, .L214
 1360 000e 0129     		cmp	r1, #1
 1361 0010 3DD0     		beq	.L213
 1362              	.L214:
 1363 0012 A089     		ldrh	r0, [r4, #12]
 1364 0014 8342     		cmp	r3, r0
 1365 0016 16D1     		bne	.L231
 1366 0018 481C     		adds	r0, r1, #1
 1367 001a 38D0     		beq	.L213
 1368 001c 0129     		cmp	r1, #1
 1369 001e 12D1     		bne	.L231
 1370 0020 013B     		subs	r3, r3, #1
 1371 0022 E381     		strh	r3, [r4, #14]	@ movhi
 1372 0024 2269     		ldr	r2, [r4, #16]
 1373 0026 9BB2     		uxth	r3, r3
 1374 0028 0020     		movs	r0, #0
 1375 002a A381     		strh	r3, [r4, #12]	@ movhi
 1376 002c D054     		strb	r0, [r2, r3]
 1377 002e 2046     		mov	r0, r4
 1378 0030 BDE83840 		pop	{r3, r4, r5, lr}
 1379 0034 FFF7FEBF 		b	shellDeleteCommandLine
 1380              	.L219:
 1381 0038 2069     		ldr	r0, [r4, #16]
 1382 003a 1344     		add	r3, r3, r2
 1383 003c 0132     		adds	r2, r2, #1
 1384 003e C55C     		ldrb	r5, [r0, r3]	@ zero_extendqisi2
 1385 0040 0344     		add	r3, r3, r0
 1386 0042 03F8015C 		strb	r5, [r3, #-1]
 1387              	.L231:
 1388 0046 A089     		ldrh	r0, [r4, #12]
 1389 0048 E389     		ldrh	r3, [r4, #14]
 1390 004a 12B2     		sxth	r2, r2
 1391 004c C51A     		subs	r5, r0, r3
 1392 004e AA42     		cmp	r2, r5
 1393 0050 F2DB     		blt	.L219
 1394 0052 0138     		subs	r0, r0, #1
 1395 0054 0131     		adds	r1, r1, #1
 1396 0056 A081     		strh	r0, [r4, #12]	@ movhi
 1397 0058 05D0     		beq	.L220
 1398 005a 013B     		subs	r3, r3, #1
ARM GAS  C:\Users\CL\AppData\Local\Temp\cc0DkSVB.s 			page 25


 1399 005c A06E     		ldr	r0, [r4, #104]
 1400 005e E381     		strh	r3, [r4, #14]	@ movhi
 1401 0060 0821     		movs	r1, #8
 1402 0062 FFF7FEFF 		bl	shellWriteByte.isra.0
 1403              	.L220:
 1404 0066 A389     		ldrh	r3, [r4, #12]
 1405 0068 2269     		ldr	r2, [r4, #16]
 1406 006a 0021     		movs	r1, #0
 1407 006c D154     		strb	r1, [r2, r3]
 1408 006e B4F90E50 		ldrsh	r5, [r4, #14]
 1409              	.L221:
 1410 0072 A389     		ldrh	r3, [r4, #12]
 1411 0074 A06E     		ldr	r0, [r4, #104]
 1412 0076 9D42     		cmp	r5, r3
 1413 0078 0ADB     		blt	.L222
 1414 007a 2021     		movs	r1, #32
 1415 007c FFF7FEFF 		bl	shellWriteByte.isra.0
 1416 0080 A589     		ldrh	r5, [r4, #12]
 1417 0082 E389     		ldrh	r3, [r4, #14]
 1418 0084 0135     		adds	r5, r5, #1
 1419 0086 ED1A     		subs	r5, r5, r3
 1420              	.L232:
 1421 0088 2DB2     		sxth	r5, r5
 1422 008a 002D     		cmp	r5, #0
 1423 008c 07DC     		bgt	.L224
 1424              	.L213:
 1425 008e 38BD     		pop	{r3, r4, r5, pc}
 1426              	.L222:
 1427 0090 2369     		ldr	r3, [r4, #16]
 1428 0092 595D     		ldrb	r1, [r3, r5]	@ zero_extendqisi2
 1429 0094 0135     		adds	r5, r5, #1
 1430 0096 FFF7FEFF 		bl	shellWriteByte.isra.0
 1431 009a 2DB2     		sxth	r5, r5
 1432 009c E9E7     		b	.L221
 1433              	.L224:
 1434 009e A06E     		ldr	r0, [r4, #104]
 1435 00a0 0821     		movs	r1, #8
 1436 00a2 FFF7FEFF 		bl	shellWriteByte.isra.0
 1437 00a6 013D     		subs	r5, r5, #1
 1438 00a8 EEE7     		b	.L232
 1440              		.section	.text.shellBackspace,"ax",%progbits
 1441              		.align	1
 1442              		.global	shellBackspace
 1443              		.syntax unified
 1444              		.thumb
 1445              		.thumb_func
 1447              	shellBackspace:
 1448              		@ args = 0, pretend = 0, frame = 0
 1449              		@ frame_needed = 0, uses_anonymous_args = 0
 1450              		@ link register save eliminated.
 1451 0000 0121     		movs	r1, #1
 1452 0002 FFF7FEBF 		b	shellDeleteByte
 1454              		.section	.text.shellDelete,"ax",%progbits
 1455              		.align	1
 1456              		.global	shellDelete
 1457              		.syntax unified
 1458              		.thumb
ARM GAS  C:\Users\CL\AppData\Local\Temp\cc0DkSVB.s 			page 26


 1459              		.thumb_func
 1461              	shellDelete:
 1462              		@ args = 0, pretend = 0, frame = 0
 1463              		@ frame_needed = 0, uses_anonymous_args = 0
 1464              		@ link register save eliminated.
 1465 0000 4FF0FF31 		mov	r1, #-1
 1466 0004 FFF7FEBF 		b	shellDeleteByte
 1468              		.section	.text.shellSeekCommand,"ax",%progbits
 1469              		.align	1
 1470              		.global	shellSeekCommand
 1471              		.syntax unified
 1472              		.thumb
 1473              		.thumb_func
 1475              	shellSeekCommand:
 1476              		@ args = 0, pretend = 0, frame = 0
 1477              		@ frame_needed = 0, uses_anonymous_args = 0
 1478 0000 2DE9F843 		push	{r3, r4, r5, r6, r7, r8, r9, lr}
 1479 0004 856D     		ldr	r5, [r0, #88]
 1480 0006 9846     		mov	r8, r3
 1481 0008 531B     		subs	r3, r2, r5
 1482 000a B0F85C50 		ldrh	r5, [r0, #92]
 1483 000e A5EB1315 		sub	r5, r5, r3, lsr #4
 1484 0012 ADB2     		uxth	r5, r5
 1485 0014 0646     		mov	r6, r0
 1486 0016 0F46     		mov	r7, r1
 1487 0018 1446     		mov	r4, r2
 1488 001a 02EB0515 		add	r5, r2, r5, lsl #4
 1489              	.L236:
 1490 001e AC42     		cmp	r4, r5
 1491 0020 02D1     		bne	.L241
 1492 0022 4FF00009 		mov	r9, #0
 1493 0026 19E0     		b	.L235
 1494              	.L241:
 1495 0028 6378     		ldrb	r3, [r4, #1]	@ zero_extendqisi2
 1496 002a 03F00F03 		and	r3, r3, #15
 1497 002e 092B     		cmp	r3, #9
 1498 0030 A146     		mov	r9, r4
 1499 0032 01D1     		bne	.L237
 1500              	.L238:
 1501 0034 1034     		adds	r4, r4, #16
 1502 0036 F2E7     		b	.L236
 1503              	.L237:
 1504 0038 2146     		mov	r1, r4
 1505 003a 3046     		mov	r0, r6
 1506 003c FFF7FEFF 		bl	shellCheckPermission
 1507 0040 0028     		cmp	r0, #0
 1508 0042 F7D1     		bne	.L238
 1509 0044 2046     		mov	r0, r4
 1510 0046 FFF7FEFF 		bl	shellGetCommandName
 1511 004a 0146     		mov	r1, r0
 1512 004c B8F1000F 		cmp	r8, #0
 1513 0050 07D1     		bne	.L239
 1514 0052 3846     		mov	r0, r7
 1515 0054 FFF7FEFF 		bl	strcmp
 1516              	.L249:
 1517 0058 0028     		cmp	r0, #0
 1518 005a EBD1     		bne	.L238
ARM GAS  C:\Users\CL\AppData\Local\Temp\cc0DkSVB.s 			page 27


 1519              	.L235:
 1520 005c 4846     		mov	r0, r9
 1521 005e BDE8F883 		pop	{r3, r4, r5, r6, r7, r8, r9, pc}
 1522              	.L239:
 1523 0062 4246     		mov	r2, r8
 1524 0064 3846     		mov	r0, r7
 1525 0066 FFF7FEFF 		bl	strncmp
 1526 006a F5E7     		b	.L249
 1528              		.section	.rodata.shellHelp.str1.1,"aMS",%progbits,1
 1529              	.LC22:
 1530 0000 636F6D6D 		.ascii	"command help of \000"
 1530      616E6420 
 1530      68656C70 
 1530      206F6620 
 1530      00
 1531              	.LC23:
 1532 0011 436F6D6D 		.ascii	"Command not Found\015\012\000"
 1532      616E6420 
 1532      6E6F7420 
 1532      466F756E 
 1532      640D0A00 
 1533              		.section	.text.shellHelp,"ax",%progbits
 1534              		.align	1
 1535              		.global	shellHelp
 1536              		.syntax unified
 1537              		.thumb
 1538              		.thumb_func
 1540              	shellHelp:
 1541              		@ args = 0, pretend = 0, frame = 0
 1542              		@ frame_needed = 0, uses_anonymous_args = 0
 1543 0000 70B5     		push	{r4, r5, r6, lr}
 1544 0002 0646     		mov	r6, r0
 1545 0004 0D46     		mov	r5, r1
 1546 0006 FFF7FEFF 		bl	shellGetCurrent
 1547 000a 0446     		mov	r4, r0
 1548 000c 40B3     		cbz	r0, .L250
 1549 000e 012E     		cmp	r6, #1
 1550 0010 03D1     		bne	.L252
 1551 0012 BDE87040 		pop	{r4, r5, r6, lr}
 1552 0016 FFF7FEBF 		b	shellListCommand
 1553              	.L252:
 1554 001a 21DD     		ble	.L250
 1555 001c 6968     		ldr	r1, [r5, #4]
 1556 001e 826D     		ldr	r2, [r0, #88]
 1557 0020 0023     		movs	r3, #0
 1558 0022 FFF7FEFF 		bl	shellSeekCommand
 1559 0026 0546     		mov	r5, r0
 1560 0028 C0B1     		cbz	r0, .L253
 1561 002a 0E49     		ldr	r1, .L260
 1562 002c 2046     		mov	r0, r4
 1563 002e FFF7FEFF 		bl	shellWriteString
 1564 0032 2846     		mov	r0, r5
 1565 0034 FFF7FEFF 		bl	shellGetCommandName
 1566 0038 0146     		mov	r1, r0
 1567 003a 2046     		mov	r0, r4
 1568 003c FFF7FEFF 		bl	shellWriteString
 1569 0040 0949     		ldr	r1, .L260+4
ARM GAS  C:\Users\CL\AppData\Local\Temp\cc0DkSVB.s 			page 28


 1570 0042 2046     		mov	r0, r4
 1571 0044 FFF7FEFF 		bl	shellWriteString
 1572 0048 E968     		ldr	r1, [r5, #12]
 1573 004a 2046     		mov	r0, r4
 1574 004c FFF7FEFF 		bl	shellWriteString
 1575 0050 0549     		ldr	r1, .L260+4
 1576              	.L259:
 1577 0052 2046     		mov	r0, r4
 1578 0054 BDE87040 		pop	{r4, r5, r6, lr}
 1579 0058 FFF7FEBF 		b	shellWriteString
 1580              	.L253:
 1581 005c 0349     		ldr	r1, .L260+8
 1582 005e F8E7     		b	.L259
 1583              	.L250:
 1584 0060 70BD     		pop	{r4, r5, r6, pc}
 1585              	.L261:
 1586 0062 00BF     		.align	2
 1587              	.L260:
 1588 0064 00000000 		.word	.LC22
 1589 0068 02000000 		.word	.LC2
 1590 006c 11000000 		.word	.LC23
 1592              		.section	.text.shellGetVarValue,"ax",%progbits
 1593              		.align	1
 1594              		.global	shellGetVarValue
 1595              		.syntax unified
 1596              		.thumb
 1597              		.thumb_func
 1599              	shellGetVarValue:
 1600              		@ args = 0, pretend = 0, frame = 0
 1601              		@ frame_needed = 0, uses_anonymous_args = 0
 1602              		@ link register save eliminated.
 1603 0000 4B78     		ldrb	r3, [r1, #1]	@ zero_extendqisi2
 1604 0002 03F00F03 		and	r3, r3, #15
 1605 0006 023B     		subs	r3, r3, #2
 1606 0008 052B     		cmp	r3, #5
 1607 000a 15D8     		bhi	.L270
 1608 000c DFE803F0 		tbb	[pc, r3]
 1609              	.L265:
 1610 0010 03       		.byte	(.L269-.L265)/2
 1611 0011 06       		.byte	(.L268-.L265)/2
 1612 0012 0A       		.byte	(.L267-.L265)/2
 1613 0013 0D       		.byte	(.L266-.L265)/2
 1614 0014 0D       		.byte	(.L266-.L265)/2
 1615 0015 0F       		.byte	(.L264-.L265)/2
 1616              		.p2align 1
 1617              	.L269:
 1618 0016 8B68     		ldr	r3, [r1, #8]
 1619 0018 1868     		ldr	r0, [r3]
 1620 001a 7047     		bx	lr
 1621              	.L268:
 1622 001c 8B68     		ldr	r3, [r1, #8]
 1623 001e B3F90000 		ldrsh	r0, [r3]
 1624 0022 7047     		bx	lr
 1625              	.L267:
 1626 0024 8B68     		ldr	r3, [r1, #8]
 1627 0026 1878     		ldrb	r0, [r3]	@ zero_extendqisi2
 1628 0028 7047     		bx	lr
ARM GAS  C:\Users\CL\AppData\Local\Temp\cc0DkSVB.s 			page 29


 1629              	.L266:
 1630 002a 8868     		ldr	r0, [r1, #8]
 1631 002c 7047     		bx	lr
 1632              	.L264:
 1633 002e 8A68     		ldr	r2, [r1, #8]
 1634 0030 5368     		ldr	r3, [r2, #4]
 1635 0032 0BB1     		cbz	r3, .L270
 1636 0034 1068     		ldr	r0, [r2]
 1637 0036 1847     		bx	r3
 1638              	.L270:
 1639 0038 0020     		movs	r0, #0
 1640 003a 7047     		bx	lr
 1642              		.section	.rodata.shellShowVar.str1.1,"aMS",%progbits,1
 1643              	.LC24:
 1644 0000 203D2000 		.ascii	" = \000"
 1645              	.LC25:
 1646 0004 2200     		.ascii	"\"\000"
 1647              		.section	.text.shellShowVar,"ax",%progbits
 1648              		.align	1
 1649              		.syntax unified
 1650              		.thumb
 1651              		.thumb_func
 1653              	shellShowVar:
 1654              		@ args = 0, pretend = 0, frame = 16
 1655              		@ frame_needed = 0, uses_anonymous_args = 0
 1656 0000 7FB5     		push	{r0, r1, r2, r3, r4, r5, r6, lr}
 1657 0002 234A     		ldr	r2, .L276
 1658 0004 0446     		mov	r4, r0
 1659 0006 0E46     		mov	r6, r1
 1660 0008 1068     		ldr	r0, [r2]	@ unaligned
 1661 000a 5168     		ldr	r1, [r2, #4]	@ unaligned
 1662 000c 01AB     		add	r3, sp, #4
 1663 000e 03C3     		stmia	r3!, {r0, r1}
 1664 0010 9068     		ldr	r0, [r2, #8]	@ unaligned
 1665 0012 1860     		str	r0, [r3]
 1666 0014 3146     		mov	r1, r6
 1667 0016 2046     		mov	r0, r4
 1668 0018 FFF7FEFF 		bl	shellGetVarValue
 1669 001c 7168     		ldr	r1, [r6, #4]
 1670 001e 0546     		mov	r5, r0
 1671 0020 2046     		mov	r0, r4
 1672 0022 FFF7FEFF 		bl	shellWriteString
 1673 0026 1B49     		ldr	r1, .L276+4
 1674 0028 2046     		mov	r0, r4
 1675 002a FFF7FEFF 		bl	shellWriteString
 1676 002e 7378     		ldrb	r3, [r6, #1]	@ zero_extendqisi2
 1677 0030 03F00F03 		and	r3, r3, #15
 1678 0034 052B     		cmp	r3, #5
 1679 0036 12D1     		bne	.L273
 1680 0038 1749     		ldr	r1, .L276+8
 1681 003a 2046     		mov	r0, r4
 1682 003c FFF7FEFF 		bl	shellWriteString
 1683 0040 2946     		mov	r1, r5
 1684 0042 2046     		mov	r0, r4
 1685 0044 FFF7FEFF 		bl	shellWriteString
 1686 0048 1349     		ldr	r1, .L276+8
 1687              	.L275:
ARM GAS  C:\Users\CL\AppData\Local\Temp\cc0DkSVB.s 			page 30


 1688 004a 2046     		mov	r0, r4
 1689 004c FFF7FEFF 		bl	shellWriteString
 1690 0050 1249     		ldr	r1, .L276+12
 1691 0052 2046     		mov	r0, r4
 1692 0054 FFF7FEFF 		bl	shellWriteString
 1693 0058 2846     		mov	r0, r5
 1694 005a 04B0     		add	sp, sp, #16
 1695              		@ sp needed
 1696 005c 70BD     		pop	{r4, r5, r6, pc}
 1697              	.L273:
 1698 005e 01A9     		add	r1, sp, #4
 1699 0060 2846     		mov	r0, r5
 1700 0062 FFF7FEFF 		bl	shellToDec
 1701 0066 C0F10B00 		rsb	r0, r0, #11
 1702 006a 0144     		add	r1, r1, r0
 1703 006c 2046     		mov	r0, r4
 1704 006e FFF7FEFF 		bl	shellWriteString
 1705 0072 0B49     		ldr	r1, .L276+16
 1706 0074 2046     		mov	r0, r4
 1707 0076 FFF7FEFF 		bl	shellWriteString
 1708 007a 4FF03033 		mov	r3, #808464432
 1709 007e 01A9     		add	r1, sp, #4
 1710 0080 2846     		mov	r0, r5
 1711 0082 CDE90133 		strd	r3, r3, [sp, #4]
 1712 0086 CDF80B30 		str	r3, [sp, #11]	@ unaligned
 1713 008a FFF7FEFF 		bl	shellToHex
 1714 008e DCE7     		b	.L275
 1715              	.L277:
 1716              		.align	2
 1717              	.L276:
 1718 0090 0E000000 		.word	.LC6
 1719 0094 00000000 		.word	.LC24
 1720 0098 04000000 		.word	.LC25
 1721 009c 02000000 		.word	.LC2
 1722 00a0 09000000 		.word	.LC8
 1724              		.section	.rodata.shellSetVarValue.str1.1,"aMS",%progbits,1
 1725              	.LC26:
 1726 0000 63616E27 		.ascii	"can't set read only var\015\012\000"
 1726      74207365 
 1726      74207265 
 1726      6164206F 
 1726      6E6C7920 
 1727              	.LC27:
 1728 001a 63616E27 		.ascii	"can't set pointer\015\012\000"
 1728      74207365 
 1728      7420706F 
 1728      696E7465 
 1728      720D0A00 
 1729              		.section	.text.shellSetVarValue,"ax",%progbits
 1730              		.align	1
 1731              		.global	shellSetVarValue
 1732              		.syntax unified
 1733              		.thumb
 1734              		.thumb_func
 1736              	shellSetVarValue:
 1737              		@ args = 0, pretend = 0, frame = 0
 1738              		@ frame_needed = 0, uses_anonymous_args = 0
ARM GAS  C:\Users\CL\AppData\Local\Temp\cc0DkSVB.s 			page 31


 1739 0000 38B5     		push	{r3, r4, r5, lr}
 1740 0002 0C46     		mov	r4, r1
 1741 0004 1146     		mov	r1, r2
 1742 0006 6378     		ldrb	r3, [r4, #1]	@ zero_extendqisi2
 1743 0008 5A06     		lsls	r2, r3, #25
 1744 000a 0546     		mov	r5, r0
 1745 000c 03D5     		bpl	.L279
 1746 000e 1649     		ldr	r1, .L293
 1747              	.L292:
 1748 0010 FFF7FEFF 		bl	shellWriteString
 1749 0014 0BE0     		b	.L280
 1750              	.L279:
 1751 0016 03F00F03 		and	r3, r3, #15
 1752 001a 023B     		subs	r3, r3, #2
 1753 001c 052B     		cmp	r3, #5
 1754 001e 06D8     		bhi	.L280
 1755 0020 DFE803F0 		tbb	[pc, r3]
 1756              	.L282:
 1757 0024 03       		.byte	(.L287-.L282)/2
 1758 0025 0B       		.byte	(.L286-.L282)/2
 1759 0026 0E       		.byte	(.L285-.L282)/2
 1760 0027 11       		.byte	(.L284-.L282)/2
 1761 0028 15       		.byte	(.L283-.L282)/2
 1762 0029 17       		.byte	(.L281-.L282)/2
 1763              		.p2align 1
 1764              	.L287:
 1765 002a A368     		ldr	r3, [r4, #8]
 1766 002c 1960     		str	r1, [r3]
 1767              	.L280:
 1768 002e 2146     		mov	r1, r4
 1769 0030 2846     		mov	r0, r5
 1770 0032 BDE83840 		pop	{r3, r4, r5, lr}
 1771 0036 FFF7FEBF 		b	shellShowVar
 1772              	.L286:
 1773 003a A368     		ldr	r3, [r4, #8]
 1774 003c 1980     		strh	r1, [r3]	@ movhi
 1775 003e F6E7     		b	.L280
 1776              	.L285:
 1777 0040 A368     		ldr	r3, [r4, #8]
 1778 0042 1970     		strb	r1, [r3]
 1779 0044 F3E7     		b	.L280
 1780              	.L284:
 1781 0046 A068     		ldr	r0, [r4, #8]
 1782 0048 FFF7FEFF 		bl	shellStringCopy
 1783 004c EFE7     		b	.L280
 1784              	.L283:
 1785 004e 0749     		ldr	r1, .L293+4
 1786 0050 DEE7     		b	.L292
 1787              	.L281:
 1788 0052 A268     		ldr	r2, [r4, #8]
 1789 0054 9368     		ldr	r3, [r2, #8]
 1790 0056 002B     		cmp	r3, #0
 1791 0058 E9D0     		beq	.L280
 1792 005a 1068     		ldr	r0, [r2]
 1793 005c 08B1     		cbz	r0, .L288
 1794 005e 9847     		blx	r3
 1795 0060 E5E7     		b	.L280
ARM GAS  C:\Users\CL\AppData\Local\Temp\cc0DkSVB.s 			page 32


 1796              	.L288:
 1797 0062 0846     		mov	r0, r1
 1798 0064 9847     		blx	r3
 1799 0066 E2E7     		b	.L280
 1800              	.L294:
 1801              		.align	2
 1802              	.L293:
 1803 0068 00000000 		.word	.LC26
 1804 006c 1A000000 		.word	.LC27
 1806              		.section	.rodata.shellSetVar.str1.1,"aMS",%progbits,1
 1807              	.LC28:
 1808 0000 56617220 		.ascii	"Var not Fount\015\012\000"
 1808      6E6F7420 
 1808      466F756E 
 1808      740D0A00 
 1809              	.LC29:
 1810 0010 20697320 		.ascii	" is not a var\015\012\000"
 1810      6E6F7420 
 1810      61207661 
 1810      720D0A00 
 1811              		.section	.text.shellSetVar,"ax",%progbits
 1812              		.align	1
 1813              		.global	shellSetVar
 1814              		.syntax unified
 1815              		.thumb
 1816              		.thumb_func
 1818              	shellSetVar:
 1819              		@ args = 0, pretend = 0, frame = 0
 1820              		@ frame_needed = 0, uses_anonymous_args = 0
 1821 0000 70B5     		push	{r4, r5, r6, lr}
 1822 0002 0546     		mov	r5, r0
 1823 0004 0E46     		mov	r6, r1
 1824 0006 FFF7FEFF 		bl	shellGetCurrent
 1825 000a 0446     		mov	r4, r0
 1826 000c 50B1     		cbz	r0, .L295
 1827 000e 2946     		mov	r1, r5
 1828 0010 826D     		ldr	r2, [r0, #88]
 1829 0012 0023     		movs	r3, #0
 1830 0014 FFF7FEFF 		bl	shellSeekCommand
 1831 0018 0146     		mov	r1, r0
 1832 001a 28B9     		cbnz	r0, .L297
 1833 001c 0B49     		ldr	r1, .L302
 1834              	.L301:
 1835 001e 2046     		mov	r0, r4
 1836 0020 FFF7FEFF 		bl	shellWriteString
 1837              	.L295:
 1838 0024 0020     		movs	r0, #0
 1839 0026 70BD     		pop	{r4, r5, r6, pc}
 1840              	.L297:
 1841 0028 4378     		ldrb	r3, [r0, #1]	@ zero_extendqisi2
 1842 002a 0E33     		adds	r3, r3, #14
 1843 002c 03F00F03 		and	r3, r3, #15
 1844 0030 052B     		cmp	r3, #5
 1845 0032 05D9     		bls	.L298
 1846 0034 2946     		mov	r1, r5
 1847 0036 2046     		mov	r0, r4
 1848 0038 FFF7FEFF 		bl	shellWriteString
ARM GAS  C:\Users\CL\AppData\Local\Temp\cc0DkSVB.s 			page 33


 1849 003c 0449     		ldr	r1, .L302+4
 1850 003e EEE7     		b	.L301
 1851              	.L298:
 1852 0040 3246     		mov	r2, r6
 1853 0042 2046     		mov	r0, r4
 1854 0044 BDE87040 		pop	{r4, r5, r6, lr}
 1855 0048 FFF7FEBF 		b	shellSetVarValue
 1856              	.L303:
 1857              		.align	2
 1858              	.L302:
 1859 004c 00000000 		.word	.LC28
 1860 0050 10000000 		.word	.LC29
 1862              		.section	.rodata.shellSetUser.str1.1,"aMS",%progbits,1
 1863              	.LC30:
 1864 0000 0D0A205F 		.ascii	"\015\012 _         _   _                  _        "
 1864      20202020 
 1864      20202020 
 1864      205F2020 
 1864      205F2020 
 1865 002d 20205F20 		.ascii	"  _ _ \015\012| |    ___| |_| |_ ___ _ __   ___| |_"
 1865      5F200D0A 
 1865      7C207C20 
 1865      2020205F 
 1865      5F5F7C20 
 1866 005a 5F202020 		.ascii	"_   ___| | |\015\012| |   / _ \\ __| __/ _ \\ '__| "
 1866      5F5F5F7C 
 1866      207C207C 
 1866      0D0A7C20 
 1866      7C202020 
 1867 0085 2F205F5F 		.ascii	"/ __| '_ \\ / _ \\ | |\015\012| |__|  __/ |_| ||  _"
 1867      7C20275F 
 1867      205C202F 
 1867      205F205C 
 1867      207C207C 
 1868 00b0 5F2F207C 		.ascii	"_/ |    \\__ \\ | | |  __/ | |\015\012|_____\\___|\\"
 1868      20202020 
 1868      5C5F5F20 
 1868      5C207C20 
 1868      7C207C20 
 1869 00da 5F5F7C5C 		.ascii	"__|\\__\\___|_|    |___/_| |_|\\___|_|_|\015\012\015"
 1869      5F5F5C5F 
 1869      5F5F7C5F 
 1869      7C202020 
 1869      207C5F5F 
 1870 0102 0A427569 		.ascii	"\012Build:       Sep 15 2023 14:10:10\015\012Versio"
 1870      6C643A20 
 1870      20202020 
 1870      20205365 
 1870      70203135 
 1871 012c 6E3A2020 		.ascii	"n:     V0.9\015\012Copyright:   (c) 2020 Letter\015"
 1871      20202056 
 1871      302E390D 
 1871      0A436F70 
 1871      79726967 
 1872 0156 0A00     		.ascii	"\012\000"
 1873              		.section	.text.shellSetUser,"ax",%progbits
 1874              		.align	1
ARM GAS  C:\Users\CL\AppData\Local\Temp\cc0DkSVB.s 			page 34


 1875              		.global	shellSetUser
 1876              		.syntax unified
 1877              		.thumb
 1878              		.thumb_func
 1880              	shellSetUser:
 1881              		@ args = 0, pretend = 0, frame = 0
 1882              		@ frame_needed = 0, uses_anonymous_args = 0
 1883 0000 10B5     		push	{r4, lr}
 1884 0002 0446     		mov	r4, r0
 1885 0004 0160     		str	r1, [r0]
 1886 0006 8868     		ldr	r0, [r1, #8]
 1887 0008 F0B1     		cbz	r0, .L308
 1888 000a 0378     		ldrb	r3, [r0]	@ zero_extendqisi2
 1889 000c E3B1     		cbz	r3, .L308
 1890 000e E38E     		ldrh	r3, [r4, #54]
 1891 0010 012B     		cmp	r3, #1
 1892 0012 1BD9     		bls	.L309
 1893 0014 A169     		ldr	r1, [r4, #24]
 1894 0016 FFF7FEFF 		bl	strcmp
 1895 001a B0FA80F0 		clz	r0, r0
 1896 001e 4009     		lsrs	r0, r0, #5
 1897              	.L305:
 1898 0020 94F86030 		ldrb	r3, [r4, #96]	@ zero_extendqisi2
 1899 0024 0B49     		ldr	r1, .L310
 1900 0026 60F30003 		bfi	r3, r0, #0, #1
 1901 002a 84F86030 		strb	r3, [r4, #96]
 1902 002e 2046     		mov	r0, r4
 1903 0030 FFF7FEFF 		bl	shellWriteString
 1904 0034 94F86030 		ldrb	r3, [r4, #96]	@ zero_extendqisi2
 1905 0038 DB07     		lsls	r3, r3, #31
 1906 003a 09D5     		bpl	.L304
 1907 003c 2046     		mov	r0, r4
 1908 003e 0649     		ldr	r1, .L310+4
 1909 0040 BDE81040 		pop	{r4, lr}
 1910 0044 FFF7FEBF 		b	shellWriteString
 1911              	.L308:
 1912 0048 0120     		movs	r0, #1
 1913 004a E9E7     		b	.L305
 1914              	.L309:
 1915 004c 0020     		movs	r0, #0
 1916 004e E7E7     		b	.L305
 1917              	.L304:
 1918 0050 10BD     		pop	{r4, pc}
 1919              	.L311:
 1920 0052 00BF     		.align	2
 1921              	.L310:
 1922 0054 00000000 		.word	.LC0
 1923 0058 00000000 		.word	.LC30
 1925              		.section	.rodata.shellInit.str1.1,"aMS",%progbits,1
 1926              	.LC31:
 1927 0000 6C657474 		.ascii	"letter\000"
 1927      657200
 1928              		.section	.text.shellInit,"ax",%progbits
 1929              		.align	1
 1930              		.global	shellInit
 1931              		.syntax unified
 1932              		.thumb
ARM GAS  C:\Users\CL\AppData\Local\Temp\cc0DkSVB.s 			page 35


 1933              		.thumb_func
 1935              	shellInit:
 1936              		@ args = 0, pretend = 0, frame = 0
 1937              		@ frame_needed = 0, uses_anonymous_args = 0
 1938 0000 0023     		movs	r3, #0
 1939 0002 10B5     		push	{r4, lr}
 1940 0004 0446     		mov	r4, r0
 1941 0006 C360     		str	r3, [r0, #12]
 1942 0008 0360     		str	r3, [r0]
 1943 000a 90F86000 		ldrb	r0, [r0, #96]	@ zero_extendqisi2
 1944 000e 2161     		str	r1, [r4, #16]
 1945 0010 40F00100 		orr	r0, r0, #1
 1946 0014 84F86000 		strb	r0, [r4, #96]
 1947 0018 2365     		str	r3, [r4, #80]
 1948 001a 0620     		movs	r0, #6
 1949 001c A4F85430 		strh	r3, [r4, #84]	@ movhi
 1950 0020 B2FBF0F2 		udiv	r2, r2, r0
 1951 0024 04F13C03 		add	r3, r4, #60
 1952 0028 A286     		strh	r2, [r4, #52]	@ movhi
 1953 002a 1144     		add	r1, r1, r2
 1954 002c 04F15000 		add	r0, r4, #80
 1955              	.L313:
 1956 0030 43F8041B 		str	r1, [r3], #4
 1957 0034 8342     		cmp	r3, r0
 1958 0036 1144     		add	r1, r1, r2
 1959 0038 FAD1     		bne	.L313
 1960 003a 114A     		ldr	r2, .L319
 1961 003c 114B     		ldr	r3, .L319+4
 1962 003e A265     		str	r2, [r4, #88]
 1963 0040 9B1A     		subs	r3, r3, r2
 1964 0042 114A     		ldr	r2, .L319+8
 1965 0044 1B09     		lsrs	r3, r3, #4
 1966 0046 A4F85C30 		strh	r3, [r4, #92]	@ movhi
 1967 004a 1146     		mov	r1, r2
 1968 004c 0023     		movs	r3, #0
 1969              	.L316:
 1970 004e 52F8040B 		ldr	r0, [r2], #4
 1971 0052 80B9     		cbnz	r0, .L314
 1972 0054 41F82340 		str	r4, [r1, r3, lsl #2]
 1973              	.L315:
 1974 0058 094A     		ldr	r2, .L319
 1975 005a 0C49     		ldr	r1, .L319+12
 1976 005c 0023     		movs	r3, #0
 1977 005e 2046     		mov	r0, r4
 1978 0060 FFF7FEFF 		bl	shellSeekCommand
 1979 0064 0146     		mov	r1, r0
 1980 0066 2046     		mov	r0, r4
 1981 0068 FFF7FEFF 		bl	shellSetUser
 1982 006c 2046     		mov	r0, r4
 1983 006e BDE81040 		pop	{r4, lr}
 1984 0072 FFF7FEBF 		b	shellWritePrompt.constprop.0
 1985              	.L314:
 1986 0076 0133     		adds	r3, r3, #1
 1987 0078 052B     		cmp	r3, #5
 1988 007a E8D1     		bne	.L316
 1989 007c ECE7     		b	.L315
 1990              	.L320:
ARM GAS  C:\Users\CL\AppData\Local\Temp\cc0DkSVB.s 			page 36


 1991 007e 00BF     		.align	2
 1992              	.L319:
 1993 0080 00000000 		.word	_shell_command_start
 1994 0084 00000000 		.word	_shell_command_end
 1995 0088 00000000 		.word	.LANCHOR0
 1996 008c 00000000 		.word	.LC31
 1998              		.section	.text.shellRunCommand,"ax",%progbits
 1999              		.align	1
 2000              		.global	shellRunCommand
 2001              		.syntax unified
 2002              		.thumb
 2003              		.thumb_func
 2005              	shellRunCommand:
 2006              		@ args = 0, pretend = 0, frame = 0
 2007              		@ frame_needed = 0, uses_anonymous_args = 0
 2008 0000 90F86030 		ldrb	r3, [r0, #96]	@ zero_extendqisi2
 2009 0004 43F00203 		orr	r3, r3, #2
 2010 0008 2DE9F041 		push	{r4, r5, r6, r7, r8, lr}
 2011 000c 80F86030 		strb	r3, [r0, #96]
 2012 0010 4B78     		ldrb	r3, [r1, #1]	@ zero_extendqisi2
 2013 0012 13F00F05 		ands	r5, r3, #15
 2014 0016 0446     		mov	r4, r0
 2015 0018 0E46     		mov	r6, r1
 2016 001a 32D1     		bne	.L332
 2017 001c A846     		mov	r8, r5
 2018 001e 17E0     		b	.L322
 2019              	.L326:
 2020 0020 ABB2     		uxth	r3, r5
 2021 0022 04EB8303 		add	r3, r4, r3, lsl #2
 2022 0026 0135     		adds	r5, r5, #1
 2023 0028 5A69     		ldr	r2, [r3, #20]
 2024 002a 1178     		ldrb	r1, [r2]	@ zero_extendqisi2
 2025 002c 2229     		cmp	r1, #34
 2026 002e 01BF     		itttt	eq
 2027 0030 82F80080 		strbeq	r8, [r2]
 2028 0034 5A69     		ldreq	r2, [r3, #20]
 2029 0036 0132     		addeq	r2, r2, #1
 2030 0038 5A61     		streq	r2, [r3, #20]
 2031 003a 5F69     		ldr	r7, [r3, #20]
 2032 003c 3846     		mov	r0, r7
 2033 003e FFF7FEFF 		bl	strlen
 2034 0042 80B2     		uxth	r0, r0
 2035 0044 0138     		subs	r0, r0, #1
 2036 0046 3B5C     		ldrb	r3, [r7, r0]	@ zero_extendqisi2
 2037 0048 222B     		cmp	r3, #34
 2038 004a 08BF     		it	eq
 2039 004c 07F80080 		strbeq	r8, [r7, r0]
 2040              	.L322:
 2041 0050 E08E     		ldrh	r0, [r4, #54]
 2042 0052 ABB2     		uxth	r3, r5
 2043 0054 9842     		cmp	r0, r3
 2044 0056 E3D8     		bhi	.L326
 2045 0058 B368     		ldr	r3, [r6, #8]
 2046 005a 04F11401 		add	r1, r4, #20
 2047 005e 9847     		blx	r3
 2048              	.L335:
 2049 0060 7378     		ldrb	r3, [r6, #1]	@ zero_extendqisi2
ARM GAS  C:\Users\CL\AppData\Local\Temp\cc0DkSVB.s 			page 37


 2050 0062 9B06     		lsls	r3, r3, #26
 2051 0064 0546     		mov	r5, r0
 2052 0066 03D4     		bmi	.L327
 2053 0068 0146     		mov	r1, r0
 2054 006a 2046     		mov	r0, r4
 2055 006c FFF7FEFF 		bl	shellWriteReturnValue
 2056              	.L327:
 2057 0070 94F86030 		ldrb	r3, [r4, #96]	@ zero_extendqisi2
 2058 0074 6FF34103 		bfc	r3, #1, #1
 2059 0078 84F86030 		strb	r3, [r4, #96]
 2060 007c 2846     		mov	r0, r5
 2061 007e BDE8F081 		pop	{r4, r5, r6, r7, r8, pc}
 2062              	.L332:
 2063 0082 012D     		cmp	r5, #1
 2064 0084 05D1     		bne	.L328
 2065 0086 C28E     		ldrh	r2, [r0, #54]
 2066 0088 00F11403 		add	r3, r0, #20
 2067 008c FFF7FEFF 		bl	shellExtRun
 2068 0090 E6E7     		b	.L335
 2069              	.L328:
 2070 0092 0E33     		adds	r3, r3, #14
 2071 0094 03F00F03 		and	r3, r3, #15
 2072 0098 052B     		cmp	r3, #5
 2073 009a 03D8     		bhi	.L329
 2074 009c FFF7FEFF 		bl	shellShowVar
 2075              	.L331:
 2076 00a0 0025     		movs	r5, #0
 2077 00a2 E5E7     		b	.L327
 2078              	.L329:
 2079 00a4 082D     		cmp	r5, #8
 2080 00a6 FBD1     		bne	.L331
 2081 00a8 FFF7FEFF 		bl	shellSetUser
 2082 00ac F8E7     		b	.L331
 2084              		.section	.text.shellNormalInput,"ax",%progbits
 2085              		.align	1
 2086              		.global	shellNormalInput
 2087              		.syntax unified
 2088              		.thumb
 2089              		.thumb_func
 2091              	shellNormalInput:
 2092              		@ args = 0, pretend = 0, frame = 0
 2093              		@ frame_needed = 0, uses_anonymous_args = 0
 2094              		@ link register save eliminated.
 2095 0000 90F86020 		ldrb	r2, [r0, #96]	@ zero_extendqisi2
 2096 0004 6FF38202 		bfc	r2, #2, #1
 2097 0008 80F86020 		strb	r2, [r0, #96]
 2098 000c FFF7FEBF 		b	shellInsertByte
 2100              		.section	.rodata.shellExec.str1.1,"aMS",%progbits,1
 2101              	.LC32:
 2102 0000 0D0A7061 		.ascii	"\015\012password error\015\012\000"
 2102      7373776F 
 2102      72642065 
 2102      72726F72 
 2102      0D0A00
 2103              		.section	.text.shellExec,"ax",%progbits
 2104              		.align	1
 2105              		.global	shellExec
ARM GAS  C:\Users\CL\AppData\Local\Temp\cc0DkSVB.s 			page 38


 2106              		.syntax unified
 2107              		.thumb
 2108              		.thumb_func
 2110              	shellExec:
 2111              		@ args = 0, pretend = 0, frame = 0
 2112              		@ frame_needed = 0, uses_anonymous_args = 0
 2113 0000 8289     		ldrh	r2, [r0, #12]
 2114 0002 F8B5     		push	{r3, r4, r5, r6, r7, lr}
 2115 0004 0446     		mov	r4, r0
 2116 0006 002A     		cmp	r2, #0
 2117 0008 00F09A80 		beq	.L337
 2118 000c 0169     		ldr	r1, [r0, #16]
 2119 000e 0023     		movs	r3, #0
 2120 0010 8B54     		strb	r3, [r1, r2]
 2121 0012 90F86050 		ldrb	r5, [r0, #96]	@ zero_extendqisi2
 2122 0016 15F00106 		ands	r6, r5, #1
 2123 001a 00F08180 		beq	.L340
 2124 001e A0F85430 		strh	r3, [r0, #84]	@ movhi
 2125 0022 B0F85030 		ldrh	r3, [r0, #80]
 2126 0026 B0F85250 		ldrh	r5, [r0, #82]
 2127 002a 4BB1     		cbz	r3, .L341
 2128 002c 002D     		cmp	r5, #0
 2129 002e 46D0     		beq	.L359
 2130 0030 6B1E     		subs	r3, r5, #1
 2131              	.L342:
 2132 0032 04EB8303 		add	r3, r4, r3, lsl #2
 2133 0036 2169     		ldr	r1, [r4, #16]
 2134 0038 D86B     		ldr	r0, [r3, #60]
 2135 003a FFF7FEFF 		bl	strcmp
 2136 003e D8B1     		cbz	r0, .L343
 2137              	.L341:
 2138 0040 04EB8505 		add	r5, r4, r5, lsl #2
 2139 0044 2169     		ldr	r1, [r4, #16]
 2140 0046 E86B     		ldr	r0, [r5, #60]
 2141 0048 FFF7FEFF 		bl	shellStringCopy
 2142 004c 20B1     		cbz	r0, .L344
 2143 004e B4F85230 		ldrh	r3, [r4, #82]
 2144 0052 0133     		adds	r3, r3, #1
 2145 0054 A4F85230 		strh	r3, [r4, #82]	@ movhi
 2146              	.L344:
 2147 0058 B4F85030 		ldrh	r3, [r4, #80]
 2148 005c 0133     		adds	r3, r3, #1
 2149 005e 9BB2     		uxth	r3, r3
 2150 0060 052B     		cmp	r3, #5
 2151 0062 88BF     		it	hi
 2152 0064 0523     		movhi	r3, #5
 2153 0066 A4F85030 		strh	r3, [r4, #80]	@ movhi
 2154 006a B4F85230 		ldrh	r3, [r4, #82]
 2155 006e 042B     		cmp	r3, #4
 2156 0070 84BF     		itt	hi
 2157 0072 0023     		movhi	r3, #0
 2158 0074 A4F85230 		strhhi	r3, [r4, #82]	@ movhi
 2159              	.L343:
 2160 0078 2022     		movs	r2, #32
 2161 007a 0021     		movs	r1, #0
 2162 007c 04F11400 		add	r0, r4, #20
 2163 0080 FFF7FEFF 		bl	memset
ARM GAS  C:\Users\CL\AppData\Local\Temp\cc0DkSVB.s 			page 39


 2164 0084 0023     		movs	r3, #0
 2165 0086 E386     		strh	r3, [r4, #54]	@ movhi
 2166 0088 3246     		mov	r2, r6
 2167 008a 9C46     		mov	ip, r3
 2168              	.L348:
 2169 008c A189     		ldrh	r1, [r4, #12]
 2170 008e 9942     		cmp	r1, r3
 2171 0090 17D8     		bhi	.L354
 2172 0092 E38E     		ldrh	r3, [r4, #54]
 2173 0094 0025     		movs	r5, #0
 2174 0096 E560     		str	r5, [r4, #12]
 2175 0098 002B     		cmp	r3, #0
 2176 009a 51D0     		beq	.L337
 2177 009c 2A49     		ldr	r1, .L378
 2178 009e 2046     		mov	r0, r4
 2179 00a0 FFF7FEFF 		bl	shellWriteString
 2180 00a4 6169     		ldr	r1, [r4, #20]
 2181 00a6 A26D     		ldr	r2, [r4, #88]
 2182 00a8 2B46     		mov	r3, r5
 2183 00aa 2046     		mov	r0, r4
 2184 00ac FFF7FEFF 		bl	shellSeekCommand
 2185 00b0 0146     		mov	r1, r0
 2186 00b2 78B3     		cbz	r0, .L356
 2187 00b4 2046     		mov	r0, r4
 2188 00b6 BDE8F840 		pop	{r3, r4, r5, r6, r7, lr}
 2189 00ba FFF7FEBF 		b	shellRunCommand
 2190              	.L359:
 2191 00be 0423     		movs	r3, #4
 2192 00c0 B7E7     		b	.L342
 2193              	.L354:
 2194 00c2 2069     		ldr	r0, [r4, #16]
 2195 00c4 C75C     		ldrb	r7, [r0, r3]	@ zero_extendqisi2
 2196 00c6 27F02001 		bic	r1, r7, #32
 2197 00ca 5CEA0101 		orrs	r1, ip, r1
 2198 00ce 00EB0305 		add	r5, r0, r3
 2199 00d2 19D0     		beq	.L349
 2200 00d4 222F     		cmp	r7, #34
 2201 00d6 0CD1     		bne	.L350
 2202 00d8 012A     		cmp	r2, #1
 2203 00da 8CF0010C 		eor	ip, ip, #1
 2204 00de 16D1     		bne	.L352
 2205              	.L351:
 2206 00e0 E28E     		ldrh	r2, [r4, #54]
 2207 00e2 072A     		cmp	r2, #7
 2208 00e4 9FBF     		itttt	ls
 2209 00e6 511C     		addls	r1, r2, #1
 2210 00e8 04EB8202 		addls	r2, r4, r2, lsl #2
 2211 00ec E186     		strhls	r1, [r4, #54]	@ movhi
 2212 00ee 5561     		strls	r5, [r2, #20]
 2213 00f0 01E0     		b	.L353
 2214              	.L350:
 2215 00f2 012A     		cmp	r2, #1
 2216 00f4 F4D0     		beq	.L351
 2217              	.L353:
 2218 00f6 2A78     		ldrb	r2, [r5]	@ zero_extendqisi2
 2219 00f8 5C2A     		cmp	r2, #92
 2220 00fa 03D1     		bne	.L360
ARM GAS  C:\Users\CL\AppData\Local\Temp\cc0DkSVB.s 			page 40


 2221 00fc 6A78     		ldrb	r2, [r5, #1]	@ zero_extendqisi2
 2222 00fe 32B1     		cbz	r2, .L352
 2223 0100 0133     		adds	r3, r3, #1
 2224 0102 9BB2     		uxth	r3, r3
 2225              	.L360:
 2226 0104 0022     		movs	r2, #0
 2227 0106 02E0     		b	.L352
 2228              	.L349:
 2229 0108 C154     		strb	r1, [r0, r3]
 2230 010a 3246     		mov	r2, r6
 2231 010c 8C46     		mov	ip, r1
 2232              	.L352:
 2233 010e 0133     		adds	r3, r3, #1
 2234 0110 9BB2     		uxth	r3, r3
 2235 0112 BBE7     		b	.L348
 2236              	.L356:
 2237 0114 2046     		mov	r0, r4
 2238 0116 0D49     		ldr	r1, .L378+4
 2239 0118 BDE8F840 		pop	{r3, r4, r5, r6, r7, lr}
 2240 011c FFF7FEBF 		b	shellWriteString
 2241              	.L340:
 2242 0120 0368     		ldr	r3, [r0]
 2243 0122 0069     		ldr	r0, [r0, #16]
 2244 0124 9968     		ldr	r1, [r3, #8]
 2245 0126 FFF7FEFF 		bl	strcmp
 2246 012a 50B9     		cbnz	r0, .L357
 2247 012c 45F00105 		orr	r5, r5, #1
 2248 0130 0749     		ldr	r1, .L378+8
 2249 0132 84F86050 		strb	r5, [r4, #96]
 2250              	.L377:
 2251 0136 2046     		mov	r0, r4
 2252 0138 FFF7FEFF 		bl	shellWriteString
 2253 013c 0023     		movs	r3, #0
 2254 013e E360     		str	r3, [r4, #12]
 2255              	.L337:
 2256 0140 F8BD     		pop	{r3, r4, r5, r6, r7, pc}
 2257              	.L357:
 2258 0142 0449     		ldr	r1, .L378+12
 2259 0144 F7E7     		b	.L377
 2260              	.L379:
 2261 0146 00BF     		.align	2
 2262              	.L378:
 2263 0148 02000000 		.word	.LC2
 2264 014c 11000000 		.word	.LC23
 2265 0150 00000000 		.word	.LC30
 2266 0154 00000000 		.word	.LC32
 2268              		.section	.text.shellEnter,"ax",%progbits
 2269              		.align	1
 2270              		.global	shellEnter
 2271              		.syntax unified
 2272              		.thumb
 2273              		.thumb_func
 2275              	shellEnter:
 2276              		@ args = 0, pretend = 0, frame = 0
 2277              		@ frame_needed = 0, uses_anonymous_args = 0
 2278 0000 10B5     		push	{r4, lr}
 2279 0002 0446     		mov	r4, r0
ARM GAS  C:\Users\CL\AppData\Local\Temp\cc0DkSVB.s 			page 41


 2280 0004 FFF7FEFF 		bl	shellExec
 2281 0008 2046     		mov	r0, r4
 2282 000a BDE81040 		pop	{r4, lr}
 2283 000e FFF7FEBF 		b	shellWritePrompt.constprop.0
 2285              		.section	.text.shellHandler,"ax",%progbits
 2286              		.align	1
 2287              		.global	shellHandler
 2288              		.syntax unified
 2289              		.thumb
 2290              		.thumb_func
 2292              	shellHandler:
 2293              		@ args = 0, pretend = 0, frame = 8
 2294              		@ frame_needed = 0, uses_anonymous_args = 0
 2295 0000 2DE9F74F 		push	{r0, r1, r2, r4, r5, r6, r7, r8, r9, r10, fp, lr}
 2296 0004 0446     		mov	r4, r0
 2297 0006 0D46     		mov	r5, r1
 2298 0008 0029     		cmp	r1, #0
 2299 000a 52D0     		beq	.L381
 2300 000c 836B     		ldr	r3, [r0, #56]
 2301 000e 13F47F4F 		tst	r3, #65280
 2302 0012 26D1     		bne	.L393
 2303 0014 13F47F07 		ands	r7, r3, #16711680
 2304 0018 27D1     		bne	.L394
 2305 001a 03F07F43 		and	r3, r3, #-16777216
 2306 001e 002B     		cmp	r3, #0
 2307 0020 16BF     		itet	ne
 2308 0022 4FF07F47 		movne	r7, #-16777216
 2309 0026 1826     		moveq	r6, #24
 2310 0028 1026     		movne	r6, #16
 2311              	.L384:
 2312 002a A36D     		ldr	r3, [r4, #88]
 2313 002c 0193     		str	r3, [sp, #4]
 2314 002e 4FF0FF08 		mov	r8, #255
 2315 0032 A6F10803 		sub	r3, r6, #8
 2316 0036 B4F85CA0 		ldrh	r10, [r4, #92]
 2317 003a 08FA06FB 		lsl	fp, r8, r6
 2318 003e 4FF00009 		mov	r9, #0
 2319 0042 08FA03F8 		lsl	r8, r8, r3
 2320              	.L385:
 2321 0046 0FFA89F1 		sxth	r1, r9
 2322 004a 5145     		cmp	r1, r10
 2323 004c 10DB     		blt	.L391
 2324 004e 85B3     		cbz	r5, .L381
 2325 0050 0023     		movs	r3, #0
 2326 0052 2946     		mov	r1, r5
 2327 0054 2046     		mov	r0, r4
 2328 0056 A363     		str	r3, [r4, #56]
 2329 0058 03B0     		add	sp, sp, #12
 2330              		@ sp needed
 2331 005a BDE8F04F 		pop	{r4, r5, r6, r7, r8, r9, r10, fp, lr}
 2332 005e FFF7FEBF 		b	shellNormalInput
 2333              	.L393:
 2334 0062 6FF0FF07 		mvn	r7, #255
 2335 0066 0026     		movs	r6, #0
 2336 0068 DFE7     		b	.L384
 2337              	.L394:
 2338 006a 1A4F     		ldr	r7, .L402
ARM GAS  C:\Users\CL\AppData\Local\Temp\cc0DkSVB.s 			page 42


 2339 006c 0826     		movs	r6, #8
 2340 006e DCE7     		b	.L384
 2341              	.L391:
 2342 0070 019B     		ldr	r3, [sp, #4]
 2343 0072 03EB0111 		add	r1, r3, r1, lsl #4
 2344 0076 4B78     		ldrb	r3, [r1, #1]	@ zero_extendqisi2
 2345 0078 03F00F03 		and	r3, r3, #15
 2346 007c 092B     		cmp	r3, #9
 2347 007e 1FD1     		bne	.L386
 2348 0080 2046     		mov	r0, r4
 2349 0082 FFF7FEFF 		bl	shellCheckPermission
 2350 0086 D8B9     		cbnz	r0, .L386
 2351 0088 D1F804C0 		ldr	ip, [r1, #4]
 2352 008c A36B     		ldr	r3, [r4, #56]
 2353 008e 0CEA0702 		and	r2, ip, r7
 2354 0092 9A42     		cmp	r2, r3
 2355 0094 14D1     		bne	.L386
 2356 0096 05FA06F3 		lsl	r3, r5, r6
 2357 009a 0CEA0B0E 		and	lr, ip, fp
 2358 009e 9E45     		cmp	lr, r3
 2359 00a0 0ED1     		bne	.L386
 2360 00a2 42EA0E02 		orr	r2, r2, lr
 2361 00a6 A263     		str	r2, [r4, #56]
 2362 00a8 36B9     		cbnz	r6, .L387
 2363              	.L390:
 2364 00aa 8B68     		ldr	r3, [r1, #8]
 2365 00ac 5BB9     		cbnz	r3, .L388
 2366              	.L389:
 2367 00ae 0023     		movs	r3, #0
 2368 00b0 A363     		str	r3, [r4, #56]
 2369              	.L381:
 2370 00b2 03B0     		add	sp, sp, #12
 2371              		@ sp needed
 2372 00b4 BDE8F08F 		pop	{r4, r5, r6, r7, r8, r9, r10, fp, pc}
 2373              	.L387:
 2374 00b8 1CEA080F 		tst	ip, r8
 2375 00bc F5D0     		beq	.L390
 2376 00be 0546     		mov	r5, r0
 2377              	.L386:
 2378 00c0 09F10109 		add	r9, r9, #1
 2379 00c4 BFE7     		b	.L385
 2380              	.L388:
 2381 00c6 044A     		ldr	r2, .L402+4
 2382 00c8 0021     		movs	r1, #0
 2383 00ca 1180     		strh	r1, [r2]	@ movhi
 2384 00cc 2046     		mov	r0, r4
 2385 00ce 9847     		blx	r3
 2386 00d0 EDE7     		b	.L389
 2387              	.L403:
 2388 00d2 00BF     		.align	2
 2389              	.L402:
 2390 00d4 0000FFFF 		.word	-65536
 2391 00d8 00000000 		.word	.LANCHOR2
 2393              		.section	.text.shellTask,"ax",%progbits
 2394              		.align	1
 2395              		.global	shellTask
 2396              		.syntax unified
ARM GAS  C:\Users\CL\AppData\Local\Temp\cc0DkSVB.s 			page 43


 2397              		.thumb
 2398              		.thumb_func
 2400              	shellTask:
 2401              		@ args = 0, pretend = 0, frame = 8
 2402              		@ frame_needed = 0, uses_anonymous_args = 0
 2403 0000 13B5     		push	{r0, r1, r4, lr}
 2404 0002 0446     		mov	r4, r0
 2405              	.L406:
 2406 0004 636E     		ldr	r3, [r4, #100]
 2407 0006 03B9     		cbnz	r3, .L411
 2408              	.L410:
 2409 0008 FEE7     		b	.L410
 2410              	.L411:
 2411 000a 0121     		movs	r1, #1
 2412 000c 0DF10700 		add	r0, sp, #7
 2413 0010 9847     		blx	r3
 2414 0012 0128     		cmp	r0, #1
 2415 0014 F6D1     		bne	.L406
 2416 0016 9DF80710 		ldrb	r1, [sp, #7]	@ zero_extendqisi2
 2417 001a 2046     		mov	r0, r4
 2418 001c FFF7FEFF 		bl	shellHandler
 2419 0020 F0E7     		b	.L406
 2421              		.section	.text.shellRun,"ax",%progbits
 2422              		.align	1
 2423              		.global	shellRun
 2424              		.syntax unified
 2425              		.thumb
 2426              		.thumb_func
 2428              	shellRun:
 2429              		@ args = 0, pretend = 0, frame = 8
 2430              		@ frame_needed = 0, uses_anonymous_args = 0
 2431 0000 37B5     		push	{r0, r1, r2, r4, r5, lr}
 2432 0002 0446     		mov	r4, r0
 2433 0004 88B1     		cbz	r0, .L416
 2434 0006 81B1     		cbz	r1, .L416
 2435 0008 90F86050 		ldrb	r5, [r0, #96]	@ zero_extendqisi2
 2436 000c 0191     		str	r1, [sp, #4]
 2437 000e 0846     		mov	r0, r1
 2438 0010 FFF7FEFF 		bl	strlen
 2439 0014 A38E     		ldrh	r3, [r4, #52]
 2440 0016 0199     		ldr	r1, [sp, #4]
 2441 0018 013B     		subs	r3, r3, #1
 2442 001a 9842     		cmp	r0, r3
 2443 001c C5F34005 		ubfx	r5, r5, #1, #1
 2444 0020 06D9     		bls	.L414
 2445 0022 0B49     		ldr	r1, .L417
 2446 0024 2046     		mov	r0, r4
 2447 0026 FFF7FEFF 		bl	shellWriteString
 2448              	.L416:
 2449 002a 4FF0FF30 		mov	r0, #-1
 2450 002e 0DE0     		b	.L412
 2451              	.L414:
 2452 0030 2069     		ldr	r0, [r4, #16]
 2453 0032 FFF7FEFF 		bl	shellStringCopy
 2454 0036 A081     		strh	r0, [r4, #12]	@ movhi
 2455 0038 2046     		mov	r0, r4
 2456 003a FFF7FEFF 		bl	shellExec
ARM GAS  C:\Users\CL\AppData\Local\Temp\cc0DkSVB.s 			page 44


 2457 003e 94F86030 		ldrb	r3, [r4, #96]	@ zero_extendqisi2
 2458 0042 65F34103 		bfi	r3, r5, #1, #1
 2459 0046 84F86030 		strb	r3, [r4, #96]
 2460 004a 0020     		movs	r0, #0
 2461              	.L412:
 2462 004c 03B0     		add	sp, sp, #12
 2463              		@ sp needed
 2464 004e 30BD     		pop	{r4, r5, pc}
 2465              	.L418:
 2466              		.align	2
 2467              	.L417:
 2468 0050 00000000 		.word	.LC21
 2470              		.global	shellCommandclear
 2471              		.global	shellDescclear
 2472              		.global	shellCmdclear
 2473              		.global	shellCommandkeys
 2474              		.global	shellDesckeys
 2475              		.global	shellCmdkeys
 2476              		.global	shellCommandvars
 2477              		.global	shellDescvars
 2478              		.global	shellCmdvars
 2479              		.global	shellCommandcmds
 2480              		.global	shellDesccmds
 2481              		.global	shellCmdcmds
 2482              		.global	shellCommandusers
 2483              		.global	shellDescusers
 2484              		.global	shellCmdusers
 2485              		.global	shellCommandhelp
 2486              		.global	shellDeschelp
 2487              		.global	shellCmdhelp
 2488              		.global	shellKey0x0D000000
 2489              		.global	shellDesc0x0D000000
 2490              		.global	shellKey0x0A000000
 2491              		.global	shellDesc0x0A000000
 2492              		.global	shellKey0x1B5B337E
 2493              		.global	shellDesc0x1B5B337E
 2494              		.global	shellKey0x7F000000
 2495              		.global	shellDesc0x7F000000
 2496              		.global	shellKey0x08000000
 2497              		.global	shellDesc0x08000000
 2498              		.global	shellKey0x09000000
 2499              		.global	shellDesc0x09000000
 2500              		.global	shellKey0x1B5B4400
 2501              		.global	shellDesc0x1B5B4400
 2502              		.global	shellKey0x1B5B4300
 2503              		.global	shellDesc0x1B5B4300
 2504              		.global	shellKey0x1B5B4200
 2505              		.global	shellDesc0x1B5B4200
 2506              		.global	shellKey0x1B5B4100
 2507              		.global	shellDesc0x1B5B4100
 2508              		.global	shellCommandsetVar
 2509              		.global	shellDescsetVar
 2510              		.global	shellCmdsetVar
 2511              		.global	shellUserDefault
 2512              		.global	shellDesDefaultUser
 2513              		.global	shellPasswordDefaultUser
 2514              		.global	shellCmdDefaultUser
ARM GAS  C:\Users\CL\AppData\Local\Temp\cc0DkSVB.s 			page 45


 2515              		.global	shellidle_cnt
 2516              		.section	.bss.buffer.0,"aw",%nobits
 2517              		.set	.LANCHOR1,. + 0
 2520              	buffer.0:
 2521 0000 00000000 		.space	9
 2521      00000000 
 2521      00
 2522              		.section	.bss.shellList,"aw",%nobits
 2523              		.align	2
 2524              		.set	.LANCHOR0,. + 0
 2527              	shellList:
 2528 0000 00000000 		.space	20
 2528      00000000 
 2528      00000000 
 2528      00000000 
 2528      00000000 
 2529              		.section	.bss.shellidle_cnt,"aw",%nobits
 2530              		.align	1
 2531              		.set	.LANCHOR2,. + 0
 2534              	shellidle_cnt:
 2535 0000 0000     		.space	2
 2536              		.section	.rodata.shellCmdDefaultUser,"a"
 2539              	shellCmdDefaultUser:
 2540 0000 6C657474 		.ascii	"letter\000"
 2540      657200
 2541              		.section	.rodata.shellCmdclear,"a"
 2544              	shellCmdclear:
 2545 0000 636C6561 		.ascii	"clear\000"
 2545      7200
 2546              		.section	.rodata.shellCmdcmds,"a"
 2549              	shellCmdcmds:
 2550 0000 636D6473 		.ascii	"cmds\000"
 2550      00
 2551              		.section	.rodata.shellCmdhelp,"a"
 2554              	shellCmdhelp:
 2555 0000 68656C70 		.ascii	"help\000"
 2555      00
 2556              		.section	.rodata.shellCmdkeys,"a"
 2559              	shellCmdkeys:
 2560 0000 6B657973 		.ascii	"keys\000"
 2560      00
 2561              		.section	.rodata.shellCmdsetVar,"a"
 2564              	shellCmdsetVar:
 2565 0000 73657456 		.ascii	"setVar\000"
 2565      617200
 2566              		.section	.rodata.shellCmdusers,"a"
 2569              	shellCmdusers:
 2570 0000 75736572 		.ascii	"users\000"
 2570      7300
 2571              		.section	.rodata.shellCmdvars,"a"
 2574              	shellCmdvars:
 2575 0000 76617273 		.ascii	"vars\000"
 2575      00
 2576              		.section	.rodata.shellDesDefaultUser,"a"
 2579              	shellDesDefaultUser:
 2580 0000 64656661 		.ascii	"default user\000"
 2580      756C7420 
ARM GAS  C:\Users\CL\AppData\Local\Temp\cc0DkSVB.s 			page 46


 2580      75736572 
 2580      00
 2581              		.section	.rodata.shellDesc0x08000000,"a"
 2584              	shellDesc0x08000000:
 2585 0000 6261636B 		.ascii	"backspace\000"
 2585      73706163 
 2585      6500
 2586              		.section	.rodata.shellDesc0x09000000,"a"
 2589              	shellDesc0x09000000:
 2590 0000 74616200 		.ascii	"tab\000"
 2591              		.section	.rodata.shellDesc0x0A000000,"a"
 2594              	shellDesc0x0A000000:
 2595 0000 656E7465 		.ascii	"enter\000"
 2595      7200
 2596              		.section	.rodata.shellDesc0x0D000000,"a"
 2599              	shellDesc0x0D000000:
 2600 0000 656E7465 		.ascii	"enter\000"
 2600      7200
 2601              		.section	.rodata.shellDesc0x1B5B337E,"a"
 2604              	shellDesc0x1B5B337E:
 2605 0000 64656C65 		.ascii	"delete\000"
 2605      746500
 2606              		.section	.rodata.shellDesc0x1B5B4100,"a"
 2609              	shellDesc0x1B5B4100:
 2610 0000 757000   		.ascii	"up\000"
 2611              		.section	.rodata.shellDesc0x1B5B4200,"a"
 2614              	shellDesc0x1B5B4200:
 2615 0000 646F776E 		.ascii	"down\000"
 2615      00
 2616              		.section	.rodata.shellDesc0x1B5B4300,"a"
 2619              	shellDesc0x1B5B4300:
 2620 0000 72696768 		.ascii	"right\000"
 2620      7400
 2621              		.section	.rodata.shellDesc0x1B5B4400,"a"
 2624              	shellDesc0x1B5B4400:
 2625 0000 6C656674 		.ascii	"left\000"
 2625      00
 2626              		.section	.rodata.shellDesc0x7F000000,"a"
 2629              	shellDesc0x7F000000:
 2630 0000 6261636B 		.ascii	"backspace\000"
 2630      73706163 
 2630      6500
 2631              		.section	.rodata.shellDescclear,"a"
 2634              	shellDescclear:
 2635 0000 636C6561 		.ascii	"clear console\000"
 2635      7220636F 
 2635      6E736F6C 
 2635      6500
 2636              		.section	.rodata.shellDesccmds,"a"
 2639              	shellDesccmds:
 2640 0000 6C697374 		.ascii	"list all cmd\000"
 2640      20616C6C 
 2640      20636D64 
 2640      00
 2641              		.section	.rodata.shellDeschelp,"a"
 2644              	shellDeschelp:
 2645 0000 73686F77 		.ascii	"show command info\015\012help [cmd]\000"
ARM GAS  C:\Users\CL\AppData\Local\Temp\cc0DkSVB.s 			page 47


 2645      20636F6D 
 2645      6D616E64 
 2645      20696E66 
 2645      6F0D0A68 
 2646              		.section	.rodata.shellDesckeys,"a"
 2649              	shellDesckeys:
 2650 0000 6C697374 		.ascii	"list all key\000"
 2650      20616C6C 
 2650      206B6579 
 2650      00
 2651              		.section	.rodata.shellDescsetVar,"a"
 2654              	shellDescsetVar:
 2655 0000 73657420 		.ascii	"set var\000"
 2655      76617200 
 2656              		.section	.rodata.shellDescusers,"a"
 2659              	shellDescusers:
 2660 0000 6C697374 		.ascii	"list all user\000"
 2660      20616C6C 
 2660      20757365 
 2660      7200
 2661              		.section	.rodata.shellDescvars,"a"
 2664              	shellDescvars:
 2665 0000 6C697374 		.ascii	"list all var\000"
 2665      20616C6C 
 2665      20766172 
 2665      00
 2666              		.section	.rodata.shellPasswordDefaultUser,"a"
 2669              	shellPasswordDefaultUser:
 2670 0000 00       		.space	1
 2671              		.section	shellCommand,"a"
 2674              	shellCommandclear:
 2675 0000 00210000 		.4byte	8448
 2676 0004 00000000 		.4byte	shellCmdclear
 2677 0008 00000000 		.4byte	shellClear
 2678 000c 00000000 		.4byte	shellDescclear
 2681              	shellCommandkeys:
 2682 0010 00210000 		.4byte	8448
 2683 0014 00000000 		.4byte	shellCmdkeys
 2684 0018 00000000 		.4byte	shellKeys
 2685 001c 00000000 		.4byte	shellDesckeys
 2688              	shellCommandvars:
 2689 0020 00210000 		.4byte	8448
 2690 0024 00000000 		.4byte	shellCmdvars
 2691 0028 00000000 		.4byte	shellVars
 2692 002c 00000000 		.4byte	shellDescvars
 2695              	shellCommandcmds:
 2696 0030 00210000 		.4byte	8448
 2697 0034 00000000 		.4byte	shellCmdcmds
 2698 0038 00000000 		.4byte	shellCmds
 2699 003c 00000000 		.4byte	shellDesccmds
 2702              	shellCommandusers:
 2703 0040 00210000 		.4byte	8448
 2704 0044 00000000 		.4byte	shellCmdusers
 2705 0048 00000000 		.4byte	shellUsers
 2706 004c 00000000 		.4byte	shellDescusers
 2709              	shellCommandhelp:
 2710 0050 00200000 		.4byte	8192
ARM GAS  C:\Users\CL\AppData\Local\Temp\cc0DkSVB.s 			page 48


 2711 0054 00000000 		.4byte	shellCmdhelp
 2712 0058 00000000 		.4byte	shellHelp
 2713 005c 00000000 		.4byte	shellDeschelp
 2716              	shellKey0x0D000000:
 2717 0060 00190000 		.4byte	6400
 2718 0064 0000000D 		.4byte	218103808
 2719 0068 00000000 		.4byte	shellEnter
 2720 006c 00000000 		.4byte	shellDesc0x0D000000
 2723              	shellKey0x0A000000:
 2724 0070 00190000 		.4byte	6400
 2725 0074 0000000A 		.4byte	167772160
 2726 0078 00000000 		.4byte	shellEnter
 2727 007c 00000000 		.4byte	shellDesc0x0A000000
 2730              	shellKey0x1B5B337E:
 2731 0080 00190000 		.4byte	6400
 2732 0084 7E335B1B 		.4byte	458961790
 2733 0088 00000000 		.4byte	shellDelete
 2734 008c 00000000 		.4byte	shellDesc0x1B5B337E
 2737              	shellKey0x7F000000:
 2738 0090 00190000 		.4byte	6400
 2739 0094 0000007F 		.4byte	2130706432
 2740 0098 00000000 		.4byte	shellBackspace
 2741 009c 00000000 		.4byte	shellDesc0x7F000000
 2744              	shellKey0x08000000:
 2745 00a0 00190000 		.4byte	6400
 2746 00a4 00000008 		.4byte	134217728
 2747 00a8 00000000 		.4byte	shellBackspace
 2748 00ac 00000000 		.4byte	shellDesc0x08000000
 2751              	shellKey0x09000000:
 2752 00b0 00090000 		.4byte	2304
 2753 00b4 00000009 		.4byte	150994944
 2754 00b8 00000000 		.4byte	shellTab
 2755 00bc 00000000 		.4byte	shellDesc0x09000000
 2758              	shellKey0x1B5B4400:
 2759 00c0 00190000 		.4byte	6400
 2760 00c4 00445B1B 		.4byte	458966016
 2761 00c8 00000000 		.4byte	shellLeft
 2762 00cc 00000000 		.4byte	shellDesc0x1B5B4400
 2765              	shellKey0x1B5B4300:
 2766 00d0 00190000 		.4byte	6400
 2767 00d4 00435B1B 		.4byte	458965760
 2768 00d8 00000000 		.4byte	shellRight
 2769 00dc 00000000 		.4byte	shellDesc0x1B5B4300
 2772              	shellKey0x1B5B4200:
 2773 00e0 00090000 		.4byte	2304
 2774 00e4 00425B1B 		.4byte	458965504
 2775 00e8 00000000 		.4byte	shellDown
 2776 00ec 00000000 		.4byte	shellDesc0x1B5B4200
 2779              	shellKey0x1B5B4100:
 2780 00f0 00090000 		.4byte	2304
 2781 00f4 00415B1B 		.4byte	458965248
 2782 00f8 00000000 		.4byte	shellUp
 2783 00fc 00000000 		.4byte	shellDesc0x1B5B4100
 2786              	shellCommandsetVar:
 2787 0100 00210000 		.4byte	8448
 2788 0104 00000000 		.4byte	shellCmdsetVar
 2789 0108 00000000 		.4byte	shellSetVar
ARM GAS  C:\Users\CL\AppData\Local\Temp\cc0DkSVB.s 			page 49


 2790 010c 00000000 		.4byte	shellDescsetVar
 2793              	shellUserDefault:
 2794 0110 00080000 		.4byte	2048
 2795 0114 00000000 		.4byte	shellCmdDefaultUser
 2796 0118 00000000 		.4byte	shellPasswordDefaultUser
 2797 011c 00000000 		.4byte	shellDesDefaultUser
 2798              		.ident	"GCC: (GNU Arm Embedded Toolchain 10.3-2021.10) 10.3.1 20210824 (release)"
ARM GAS  C:\Users\CL\AppData\Local\Temp\cc0DkSVB.s 			page 50


DEFINED SYMBOLS
                            *ABS*:00000000 shell.c
C:\Users\CL\AppData\Local\Temp\cc0DkSVB.s:18     .text.shellStringCopy:00000000 $t
C:\Users\CL\AppData\Local\Temp\cc0DkSVB.s:23     .text.shellStringCopy:00000000 shellStringCopy
C:\Users\CL\AppData\Local\Temp\cc0DkSVB.s:43     .text.shellWriteByte.isra.0:00000000 $t
C:\Users\CL\AppData\Local\Temp\cc0DkSVB.s:48     .text.shellWriteByte.isra.0:00000000 shellWriteByte.isra.0
C:\Users\CL\AppData\Local\Temp\cc0DkSVB.s:62     .text.shellLeft:00000000 $t
C:\Users\CL\AppData\Local\Temp\cc0DkSVB.s:68     .text.shellLeft:00000000 shellLeft
C:\Users\CL\AppData\Local\Temp\cc0DkSVB.s:85     .text.shellRight:00000000 $t
C:\Users\CL\AppData\Local\Temp\cc0DkSVB.s:91     .text.shellRight:00000000 shellRight
C:\Users\CL\AppData\Local\Temp\cc0DkSVB.s:109    .text.shellRemove:00000000 $t
C:\Users\CL\AppData\Local\Temp\cc0DkSVB.s:115    .text.shellRemove:00000000 shellRemove
C:\Users\CL\AppData\Local\Temp\cc0DkSVB.s:138    .text.shellRemove:00000020 $d
C:\Users\CL\AppData\Local\Temp\cc0DkSVB.s:141    .text.shellGetCurrent:00000000 $t
C:\Users\CL\AppData\Local\Temp\cc0DkSVB.s:147    .text.shellGetCurrent:00000000 shellGetCurrent
C:\Users\CL\AppData\Local\Temp\cc0DkSVB.s:170    .text.shellGetCurrent:00000020 $d
C:\Users\CL\AppData\Local\Temp\cc0DkSVB.s:173    .text.shellWriteString:00000000 $t
C:\Users\CL\AppData\Local\Temp\cc0DkSVB.s:179    .text.shellWriteString:00000000 shellWriteString
C:\Users\CL\AppData\Local\Temp\cc0DkSVB.s:207    .text.shellClear:00000000 $t
C:\Users\CL\AppData\Local\Temp\cc0DkSVB.s:213    .text.shellClear:00000000 shellClear
C:\Users\CL\AppData\Local\Temp\cc0DkSVB.s:227    .text.shellClear:00000014 $d
C:\Users\CL\AppData\Local\Temp\cc0DkSVB.s:241    .text.shellWritePrompt.constprop.0:00000000 $t
C:\Users\CL\AppData\Local\Temp\cc0DkSVB.s:246    .text.shellWritePrompt.constprop.0:00000000 shellWritePrompt.constprop.0
C:\Users\CL\AppData\Local\Temp\cc0DkSVB.s:281    .text.shellWritePrompt.constprop.0:00000044 $d
C:\Users\CL\AppData\Local\Temp\cc0DkSVB.s:288    .text.shellPrint:00000000 $t
C:\Users\CL\AppData\Local\Temp\cc0DkSVB.s:294    .text.shellPrint:00000000 shellPrint
C:\Users\CL\AppData\Local\Temp\cc0DkSVB.s:323    .text.shellCheckPermission:00000000 $t
C:\Users\CL\AppData\Local\Temp\cc0DkSVB.s:329    .text.shellCheckPermission:00000000 shellCheckPermission
C:\Users\CL\AppData\Local\Temp\cc0DkSVB.s:360    .text.shellToHex:00000000 $t
C:\Users\CL\AppData\Local\Temp\cc0DkSVB.s:366    .text.shellToHex:00000000 shellToHex
C:\Users\CL\AppData\Local\Temp\cc0DkSVB.s:391    .text.shellGetCommandName:00000000 $t
C:\Users\CL\AppData\Local\Temp\cc0DkSVB.s:396    .text.shellGetCommandName:00000000 shellGetCommandName
C:\Users\CL\AppData\Local\Temp\cc0DkSVB.s:421    .text.shellGetCommandName:0000002c $d
C:\Users\CL\AppData\Local\Temp\cc0DkSVB.s:424    .text.shellToDec:00000000 $t
C:\Users\CL\AppData\Local\Temp\cc0DkSVB.s:430    .text.shellToDec:00000000 shellToDec
C:\Users\CL\AppData\Local\Temp\cc0DkSVB.s:477    .text.shellWriteReturnValue:00000000 $t
C:\Users\CL\AppData\Local\Temp\cc0DkSVB.s:482    .text.shellWriteReturnValue:00000000 shellWriteReturnValue
C:\Users\CL\AppData\Local\Temp\cc0DkSVB.s:526    .text.shellWriteReturnValue:00000060 $d
C:\Users\CL\AppData\Local\Temp\cc0DkSVB.s:547    .text.shellListItem:00000000 $t
C:\Users\CL\AppData\Local\Temp\cc0DkSVB.s:553    .text.shellListItem:00000000 shellListItem
C:\Users\CL\AppData\Local\Temp\cc0DkSVB.s:653    .text.shellListItem:000000c8 $d
C:\Users\CL\AppData\Local\Temp\cc0DkSVB.s:666    .text.shellListCommand:00000000 $t
C:\Users\CL\AppData\Local\Temp\cc0DkSVB.s:672    .text.shellListCommand:00000000 shellListCommand
C:\Users\CL\AppData\Local\Temp\cc0DkSVB.s:704    .text.shellListCommand:0000003c $d
C:\Users\CL\AppData\Local\Temp\cc0DkSVB.s:707    .text.shellCmds:00000000 $t
C:\Users\CL\AppData\Local\Temp\cc0DkSVB.s:713    .text.shellCmds:00000000 shellCmds
C:\Users\CL\AppData\Local\Temp\cc0DkSVB.s:728    .text.shellListVar:00000000 $t
C:\Users\CL\AppData\Local\Temp\cc0DkSVB.s:734    .text.shellListVar:00000000 shellListVar
C:\Users\CL\AppData\Local\Temp\cc0DkSVB.s:767    .text.shellListVar:0000003c $d
C:\Users\CL\AppData\Local\Temp\cc0DkSVB.s:770    .text.shellVars:00000000 $t
C:\Users\CL\AppData\Local\Temp\cc0DkSVB.s:776    .text.shellVars:00000000 shellVars
C:\Users\CL\AppData\Local\Temp\cc0DkSVB.s:791    .text.shellListUser:00000000 $t
C:\Users\CL\AppData\Local\Temp\cc0DkSVB.s:797    .text.shellListUser:00000000 shellListUser
C:\Users\CL\AppData\Local\Temp\cc0DkSVB.s:829    .text.shellListUser:0000003c $d
C:\Users\CL\AppData\Local\Temp\cc0DkSVB.s:832    .text.shellUsers:00000000 $t
C:\Users\CL\AppData\Local\Temp\cc0DkSVB.s:838    .text.shellUsers:00000000 shellUsers
C:\Users\CL\AppData\Local\Temp\cc0DkSVB.s:853    .text.shellListKey:00000000 $t
ARM GAS  C:\Users\CL\AppData\Local\Temp\cc0DkSVB.s 			page 51


C:\Users\CL\AppData\Local\Temp\cc0DkSVB.s:859    .text.shellListKey:00000000 shellListKey
C:\Users\CL\AppData\Local\Temp\cc0DkSVB.s:891    .text.shellListKey:0000003c $d
C:\Users\CL\AppData\Local\Temp\cc0DkSVB.s:894    .text.shellKeys:00000000 $t
C:\Users\CL\AppData\Local\Temp\cc0DkSVB.s:900    .text.shellKeys:00000000 shellKeys
C:\Users\CL\AppData\Local\Temp\cc0DkSVB.s:912    .text.shellListAll:00000000 $t
C:\Users\CL\AppData\Local\Temp\cc0DkSVB.s:918    .text.shellListAll:00000000 shellListAll
C:\Users\CL\AppData\Local\Temp\cc0DkSVB.s:928    .text.shellDeleteCommandLine:00000000 $t
C:\Users\CL\AppData\Local\Temp\cc0DkSVB.s:934    .text.shellDeleteCommandLine:00000000 shellDeleteCommandLine
C:\Users\CL\AppData\Local\Temp\cc0DkSVB.s:954    .text.shellDeleteCommandLine:0000001c $d
C:\Users\CL\AppData\Local\Temp\cc0DkSVB.s:957    .text.shellClearCommandLine:00000000 $t
C:\Users\CL\AppData\Local\Temp\cc0DkSVB.s:963    .text.shellClearCommandLine:00000000 shellClearCommandLine
C:\Users\CL\AppData\Local\Temp\cc0DkSVB.s:987    .text.shellUp:00000000 $t
C:\Users\CL\AppData\Local\Temp\cc0DkSVB.s:993    .text.shellUp:00000000 shellUp
C:\Users\CL\AppData\Local\Temp\cc0DkSVB.s:1038   .text.shellTab:00000000 $t
C:\Users\CL\AppData\Local\Temp\cc0DkSVB.s:1044   .text.shellTab:00000000 shellTab
C:\Users\CL\AppData\Local\Temp\cc0DkSVB.s:1181   .text.shellTab:0000012c $d
C:\Users\CL\AppData\Local\Temp\cc0DkSVB.s:1184   .text.shellDown:00000000 $t
C:\Users\CL\AppData\Local\Temp\cc0DkSVB.s:1190   .text.shellDown:00000000 shellDown
C:\Users\CL\AppData\Local\Temp\cc0DkSVB.s:1236   .text.shellInsertByte:00000000 $t
C:\Users\CL\AppData\Local\Temp\cc0DkSVB.s:1242   .text.shellInsertByte:00000000 shellInsertByte
C:\Users\CL\AppData\Local\Temp\cc0DkSVB.s:1341   .text.shellInsertByte:000000bc $d
C:\Users\CL\AppData\Local\Temp\cc0DkSVB.s:1344   .text.shellDeleteByte:00000000 $t
C:\Users\CL\AppData\Local\Temp\cc0DkSVB.s:1350   .text.shellDeleteByte:00000000 shellDeleteByte
C:\Users\CL\AppData\Local\Temp\cc0DkSVB.s:1441   .text.shellBackspace:00000000 $t
C:\Users\CL\AppData\Local\Temp\cc0DkSVB.s:1447   .text.shellBackspace:00000000 shellBackspace
C:\Users\CL\AppData\Local\Temp\cc0DkSVB.s:1455   .text.shellDelete:00000000 $t
C:\Users\CL\AppData\Local\Temp\cc0DkSVB.s:1461   .text.shellDelete:00000000 shellDelete
C:\Users\CL\AppData\Local\Temp\cc0DkSVB.s:1469   .text.shellSeekCommand:00000000 $t
C:\Users\CL\AppData\Local\Temp\cc0DkSVB.s:1475   .text.shellSeekCommand:00000000 shellSeekCommand
C:\Users\CL\AppData\Local\Temp\cc0DkSVB.s:1534   .text.shellHelp:00000000 $t
C:\Users\CL\AppData\Local\Temp\cc0DkSVB.s:1540   .text.shellHelp:00000000 shellHelp
C:\Users\CL\AppData\Local\Temp\cc0DkSVB.s:1588   .text.shellHelp:00000064 $d
C:\Users\CL\AppData\Local\Temp\cc0DkSVB.s:1593   .text.shellGetVarValue:00000000 $t
C:\Users\CL\AppData\Local\Temp\cc0DkSVB.s:1599   .text.shellGetVarValue:00000000 shellGetVarValue
C:\Users\CL\AppData\Local\Temp\cc0DkSVB.s:1610   .text.shellGetVarValue:00000010 $d
C:\Users\CL\AppData\Local\Temp\cc0DkSVB.s:1616   .text.shellGetVarValue:00000016 $t
C:\Users\CL\AppData\Local\Temp\cc0DkSVB.s:1648   .text.shellShowVar:00000000 $t
C:\Users\CL\AppData\Local\Temp\cc0DkSVB.s:1653   .text.shellShowVar:00000000 shellShowVar
C:\Users\CL\AppData\Local\Temp\cc0DkSVB.s:1718   .text.shellShowVar:00000090 $d
C:\Users\CL\AppData\Local\Temp\cc0DkSVB.s:1730   .text.shellSetVarValue:00000000 $t
C:\Users\CL\AppData\Local\Temp\cc0DkSVB.s:1736   .text.shellSetVarValue:00000000 shellSetVarValue
C:\Users\CL\AppData\Local\Temp\cc0DkSVB.s:1757   .text.shellSetVarValue:00000024 $d
C:\Users\CL\AppData\Local\Temp\cc0DkSVB.s:1763   .text.shellSetVarValue:0000002a $t
C:\Users\CL\AppData\Local\Temp\cc0DkSVB.s:1803   .text.shellSetVarValue:00000068 $d
C:\Users\CL\AppData\Local\Temp\cc0DkSVB.s:1812   .text.shellSetVar:00000000 $t
C:\Users\CL\AppData\Local\Temp\cc0DkSVB.s:1818   .text.shellSetVar:00000000 shellSetVar
C:\Users\CL\AppData\Local\Temp\cc0DkSVB.s:1859   .text.shellSetVar:0000004c $d
C:\Users\CL\AppData\Local\Temp\cc0DkSVB.s:1874   .text.shellSetUser:00000000 $t
C:\Users\CL\AppData\Local\Temp\cc0DkSVB.s:1880   .text.shellSetUser:00000000 shellSetUser
C:\Users\CL\AppData\Local\Temp\cc0DkSVB.s:1922   .text.shellSetUser:00000054 $d
C:\Users\CL\AppData\Local\Temp\cc0DkSVB.s:1929   .text.shellInit:00000000 $t
C:\Users\CL\AppData\Local\Temp\cc0DkSVB.s:1935   .text.shellInit:00000000 shellInit
C:\Users\CL\AppData\Local\Temp\cc0DkSVB.s:1993   .text.shellInit:00000080 $d
C:\Users\CL\AppData\Local\Temp\cc0DkSVB.s:1999   .text.shellRunCommand:00000000 $t
C:\Users\CL\AppData\Local\Temp\cc0DkSVB.s:2005   .text.shellRunCommand:00000000 shellRunCommand
C:\Users\CL\AppData\Local\Temp\cc0DkSVB.s:2085   .text.shellNormalInput:00000000 $t
C:\Users\CL\AppData\Local\Temp\cc0DkSVB.s:2091   .text.shellNormalInput:00000000 shellNormalInput
ARM GAS  C:\Users\CL\AppData\Local\Temp\cc0DkSVB.s 			page 52


C:\Users\CL\AppData\Local\Temp\cc0DkSVB.s:2104   .text.shellExec:00000000 $t
C:\Users\CL\AppData\Local\Temp\cc0DkSVB.s:2110   .text.shellExec:00000000 shellExec
C:\Users\CL\AppData\Local\Temp\cc0DkSVB.s:2263   .text.shellExec:00000148 $d
C:\Users\CL\AppData\Local\Temp\cc0DkSVB.s:2269   .text.shellEnter:00000000 $t
C:\Users\CL\AppData\Local\Temp\cc0DkSVB.s:2275   .text.shellEnter:00000000 shellEnter
C:\Users\CL\AppData\Local\Temp\cc0DkSVB.s:2286   .text.shellHandler:00000000 $t
C:\Users\CL\AppData\Local\Temp\cc0DkSVB.s:2292   .text.shellHandler:00000000 shellHandler
C:\Users\CL\AppData\Local\Temp\cc0DkSVB.s:2390   .text.shellHandler:000000d4 $d
C:\Users\CL\AppData\Local\Temp\cc0DkSVB.s:2394   .text.shellTask:00000000 $t
C:\Users\CL\AppData\Local\Temp\cc0DkSVB.s:2400   .text.shellTask:00000000 shellTask
C:\Users\CL\AppData\Local\Temp\cc0DkSVB.s:2422   .text.shellRun:00000000 $t
C:\Users\CL\AppData\Local\Temp\cc0DkSVB.s:2428   .text.shellRun:00000000 shellRun
C:\Users\CL\AppData\Local\Temp\cc0DkSVB.s:2468   .text.shellRun:00000050 $d
C:\Users\CL\AppData\Local\Temp\cc0DkSVB.s:2674   shellCommand:00000000 shellCommandclear
C:\Users\CL\AppData\Local\Temp\cc0DkSVB.s:2634   .rodata.shellDescclear:00000000 shellDescclear
C:\Users\CL\AppData\Local\Temp\cc0DkSVB.s:2544   .rodata.shellCmdclear:00000000 shellCmdclear
C:\Users\CL\AppData\Local\Temp\cc0DkSVB.s:2681   shellCommand:00000010 shellCommandkeys
C:\Users\CL\AppData\Local\Temp\cc0DkSVB.s:2649   .rodata.shellDesckeys:00000000 shellDesckeys
C:\Users\CL\AppData\Local\Temp\cc0DkSVB.s:2559   .rodata.shellCmdkeys:00000000 shellCmdkeys
C:\Users\CL\AppData\Local\Temp\cc0DkSVB.s:2688   shellCommand:00000020 shellCommandvars
C:\Users\CL\AppData\Local\Temp\cc0DkSVB.s:2664   .rodata.shellDescvars:00000000 shellDescvars
C:\Users\CL\AppData\Local\Temp\cc0DkSVB.s:2574   .rodata.shellCmdvars:00000000 shellCmdvars
C:\Users\CL\AppData\Local\Temp\cc0DkSVB.s:2695   shellCommand:00000030 shellCommandcmds
C:\Users\CL\AppData\Local\Temp\cc0DkSVB.s:2639   .rodata.shellDesccmds:00000000 shellDesccmds
C:\Users\CL\AppData\Local\Temp\cc0DkSVB.s:2549   .rodata.shellCmdcmds:00000000 shellCmdcmds
C:\Users\CL\AppData\Local\Temp\cc0DkSVB.s:2702   shellCommand:00000040 shellCommandusers
C:\Users\CL\AppData\Local\Temp\cc0DkSVB.s:2659   .rodata.shellDescusers:00000000 shellDescusers
C:\Users\CL\AppData\Local\Temp\cc0DkSVB.s:2569   .rodata.shellCmdusers:00000000 shellCmdusers
C:\Users\CL\AppData\Local\Temp\cc0DkSVB.s:2709   shellCommand:00000050 shellCommandhelp
C:\Users\CL\AppData\Local\Temp\cc0DkSVB.s:2644   .rodata.shellDeschelp:00000000 shellDeschelp
C:\Users\CL\AppData\Local\Temp\cc0DkSVB.s:2554   .rodata.shellCmdhelp:00000000 shellCmdhelp
C:\Users\CL\AppData\Local\Temp\cc0DkSVB.s:2716   shellCommand:00000060 shellKey0x0D000000
C:\Users\CL\AppData\Local\Temp\cc0DkSVB.s:2599   .rodata.shellDesc0x0D000000:00000000 shellDesc0x0D000000
C:\Users\CL\AppData\Local\Temp\cc0DkSVB.s:2723   shellCommand:00000070 shellKey0x0A000000
C:\Users\CL\AppData\Local\Temp\cc0DkSVB.s:2594   .rodata.shellDesc0x0A000000:00000000 shellDesc0x0A000000
C:\Users\CL\AppData\Local\Temp\cc0DkSVB.s:2730   shellCommand:00000080 shellKey0x1B5B337E
C:\Users\CL\AppData\Local\Temp\cc0DkSVB.s:2604   .rodata.shellDesc0x1B5B337E:00000000 shellDesc0x1B5B337E
C:\Users\CL\AppData\Local\Temp\cc0DkSVB.s:2737   shellCommand:00000090 shellKey0x7F000000
C:\Users\CL\AppData\Local\Temp\cc0DkSVB.s:2629   .rodata.shellDesc0x7F000000:00000000 shellDesc0x7F000000
C:\Users\CL\AppData\Local\Temp\cc0DkSVB.s:2744   shellCommand:000000a0 shellKey0x08000000
C:\Users\CL\AppData\Local\Temp\cc0DkSVB.s:2584   .rodata.shellDesc0x08000000:00000000 shellDesc0x08000000
C:\Users\CL\AppData\Local\Temp\cc0DkSVB.s:2751   shellCommand:000000b0 shellKey0x09000000
C:\Users\CL\AppData\Local\Temp\cc0DkSVB.s:2589   .rodata.shellDesc0x09000000:00000000 shellDesc0x09000000
C:\Users\CL\AppData\Local\Temp\cc0DkSVB.s:2758   shellCommand:000000c0 shellKey0x1B5B4400
C:\Users\CL\AppData\Local\Temp\cc0DkSVB.s:2624   .rodata.shellDesc0x1B5B4400:00000000 shellDesc0x1B5B4400
C:\Users\CL\AppData\Local\Temp\cc0DkSVB.s:2765   shellCommand:000000d0 shellKey0x1B5B4300
C:\Users\CL\AppData\Local\Temp\cc0DkSVB.s:2619   .rodata.shellDesc0x1B5B4300:00000000 shellDesc0x1B5B4300
C:\Users\CL\AppData\Local\Temp\cc0DkSVB.s:2772   shellCommand:000000e0 shellKey0x1B5B4200
C:\Users\CL\AppData\Local\Temp\cc0DkSVB.s:2614   .rodata.shellDesc0x1B5B4200:00000000 shellDesc0x1B5B4200
C:\Users\CL\AppData\Local\Temp\cc0DkSVB.s:2779   shellCommand:000000f0 shellKey0x1B5B4100
C:\Users\CL\AppData\Local\Temp\cc0DkSVB.s:2609   .rodata.shellDesc0x1B5B4100:00000000 shellDesc0x1B5B4100
C:\Users\CL\AppData\Local\Temp\cc0DkSVB.s:2786   shellCommand:00000100 shellCommandsetVar
C:\Users\CL\AppData\Local\Temp\cc0DkSVB.s:2654   .rodata.shellDescsetVar:00000000 shellDescsetVar
C:\Users\CL\AppData\Local\Temp\cc0DkSVB.s:2564   .rodata.shellCmdsetVar:00000000 shellCmdsetVar
C:\Users\CL\AppData\Local\Temp\cc0DkSVB.s:2793   shellCommand:00000110 shellUserDefault
C:\Users\CL\AppData\Local\Temp\cc0DkSVB.s:2579   .rodata.shellDesDefaultUser:00000000 shellDesDefaultUser
C:\Users\CL\AppData\Local\Temp\cc0DkSVB.s:2669   .rodata.shellPasswordDefaultUser:00000000 shellPasswordDefaultUser
ARM GAS  C:\Users\CL\AppData\Local\Temp\cc0DkSVB.s 			page 53


C:\Users\CL\AppData\Local\Temp\cc0DkSVB.s:2539   .rodata.shellCmdDefaultUser:00000000 shellCmdDefaultUser
C:\Users\CL\AppData\Local\Temp\cc0DkSVB.s:2534   .bss.shellidle_cnt:00000000 shellidle_cnt
C:\Users\CL\AppData\Local\Temp\cc0DkSVB.s:2520   .bss.buffer.0:00000000 buffer.0
C:\Users\CL\AppData\Local\Temp\cc0DkSVB.s:2521   .bss.buffer.0:00000000 $d
C:\Users\CL\AppData\Local\Temp\cc0DkSVB.s:2523   .bss.shellList:00000000 $d
C:\Users\CL\AppData\Local\Temp\cc0DkSVB.s:2527   .bss.shellList:00000000 shellList
C:\Users\CL\AppData\Local\Temp\cc0DkSVB.s:2530   .bss.shellidle_cnt:00000000 $d
C:\Users\CL\AppData\Local\Temp\cc0DkSVB.s:2670   .rodata.shellPasswordDefaultUser:00000000 $d

UNDEFINED SYMBOLS
vsnprintf
strcmp
strncmp
_shell_command_start
_shell_command_end
strlen
shellExtRun
memset
