ARM GAS  /var/folders/h7/llxr0vxd5sd9z74__7r6nx9r0000gn/T//ccSPSBV9.s 			page 1


   1              		.cpu cortex-m4
   2              		.arch armv7e-m
   3              		.fpu fpv4-sp-d16
   4              		.eabi_attribute 27, 1
   5              		.eabi_attribute 28, 1
   6              		.eabi_attribute 20, 1
   7              		.eabi_attribute 21, 1
   8              		.eabi_attribute 23, 3
   9              		.eabi_attribute 24, 1
  10              		.eabi_attribute 25, 1
  11              		.eabi_attribute 26, 1
  12              		.eabi_attribute 30, 1
  13              		.eabi_attribute 34, 1
  14              		.eabi_attribute 18, 4
  15              		.file	"shell.c"
  16              		.text
  17              	.Ltext0:
  18              		.cfi_sections	.debug_frame
  19              		.file 1 "ThirdParty/Letter-shell/Src/shell.c"
  20              		.section	.text.shellAdd,"ax",%progbits
  21              		.align	1
  22              		.syntax unified
  23              		.thumb
  24              		.thumb_func
  26              	shellAdd:
  27              	.LVL0:
  28              	.LFB4:
   1:ThirdParty/Letter-shell/Src/shell.c **** /**
   2:ThirdParty/Letter-shell/Src/shell.c ****  * @file shell.c
   3:ThirdParty/Letter-shell/Src/shell.c ****  * @author Letter (NevermindZZT@gmail.com)
   4:ThirdParty/Letter-shell/Src/shell.c ****  * @version 3.0.0
   5:ThirdParty/Letter-shell/Src/shell.c ****  * @date 2019-12-30
   6:ThirdParty/Letter-shell/Src/shell.c ****  * 
   7:ThirdParty/Letter-shell/Src/shell.c ****  * @copyright (c) 2020 Letter
   8:ThirdParty/Letter-shell/Src/shell.c ****  * 
   9:ThirdParty/Letter-shell/Src/shell.c ****  */
  10:ThirdParty/Letter-shell/Src/shell.c **** 
  11:ThirdParty/Letter-shell/Src/shell.c **** #include "shell.h"
  12:ThirdParty/Letter-shell/Src/shell.c **** #include "string.h"
  13:ThirdParty/Letter-shell/Src/shell.c **** #include "stdio.h"
  14:ThirdParty/Letter-shell/Src/shell.c **** #include "stdarg.h"
  15:ThirdParty/Letter-shell/Src/shell.c **** #include "shell_ext.h"
  16:ThirdParty/Letter-shell/Src/shell.c **** 
  17:ThirdParty/Letter-shell/Src/shell.c **** 
  18:ThirdParty/Letter-shell/Src/shell.c **** #if SHELL_USING_CMD_EXPORT == 1
  19:ThirdParty/Letter-shell/Src/shell.c **** /**
  20:ThirdParty/Letter-shell/Src/shell.c ****  * @brief 默认用户
  21:ThirdParty/Letter-shell/Src/shell.c ****  */
  22:ThirdParty/Letter-shell/Src/shell.c **** const char shellCmdDefaultUser[] = SHELL_DEFAULT_USER;
  23:ThirdParty/Letter-shell/Src/shell.c **** const char shellPasswordDefaultUser[] = SHELL_DEFAULT_USER_PASSWORD;
  24:ThirdParty/Letter-shell/Src/shell.c **** const char shellDesDefaultUser[] = "default user";
  25:ThirdParty/Letter-shell/Src/shell.c **** SHELL_USED const ShellCommand shellUserDefault SHELL_SECTION("shellCommand") =
  26:ThirdParty/Letter-shell/Src/shell.c **** {
  27:ThirdParty/Letter-shell/Src/shell.c ****     .attr.value = SHELL_CMD_PERMISSION(0)|SHELL_CMD_TYPE(SHELL_TYPE_USER),
  28:ThirdParty/Letter-shell/Src/shell.c ****     .data.user.name = shellCmdDefaultUser,
  29:ThirdParty/Letter-shell/Src/shell.c ****     .data.user.password = shellPasswordDefaultUser,
  30:ThirdParty/Letter-shell/Src/shell.c ****     .data.user.desc = shellDesDefaultUser
ARM GAS  /var/folders/h7/llxr0vxd5sd9z74__7r6nx9r0000gn/T//ccSPSBV9.s 			page 2


  31:ThirdParty/Letter-shell/Src/shell.c **** };
  32:ThirdParty/Letter-shell/Src/shell.c **** #endif
  33:ThirdParty/Letter-shell/Src/shell.c **** 
  34:ThirdParty/Letter-shell/Src/shell.c **** #if SHELL_USING_CMD_EXPORT == 1
  35:ThirdParty/Letter-shell/Src/shell.c ****     #if defined(__CC_ARM) || (defined(__ARMCC_VERSION) && __ARMCC_VERSION >= 6000000)
  36:ThirdParty/Letter-shell/Src/shell.c ****         extern const unsigned int shellCommand$$Base;
  37:ThirdParty/Letter-shell/Src/shell.c ****         extern const unsigned int shellCommand$$Limit;
  38:ThirdParty/Letter-shell/Src/shell.c ****     #elif defined(__ICCARM__) || defined(__ICCRX__)
  39:ThirdParty/Letter-shell/Src/shell.c ****         #pragma section="shellCommand"
  40:ThirdParty/Letter-shell/Src/shell.c ****     #elif defined(__GNUC__)
  41:ThirdParty/Letter-shell/Src/shell.c ****         extern const unsigned int _shell_command_start;
  42:ThirdParty/Letter-shell/Src/shell.c ****         extern const unsigned int _shell_command_end;
  43:ThirdParty/Letter-shell/Src/shell.c ****     #endif
  44:ThirdParty/Letter-shell/Src/shell.c **** #else
  45:ThirdParty/Letter-shell/Src/shell.c ****     extern const ShellCommand shellCommandList[];
  46:ThirdParty/Letter-shell/Src/shell.c ****     extern const unsigned short shellCommandCount;
  47:ThirdParty/Letter-shell/Src/shell.c **** #endif
  48:ThirdParty/Letter-shell/Src/shell.c **** 
  49:ThirdParty/Letter-shell/Src/shell.c **** 
  50:ThirdParty/Letter-shell/Src/shell.c **** /**
  51:ThirdParty/Letter-shell/Src/shell.c ****  * @brief shell 常量文本索引
  52:ThirdParty/Letter-shell/Src/shell.c ****  */
  53:ThirdParty/Letter-shell/Src/shell.c **** enum
  54:ThirdParty/Letter-shell/Src/shell.c **** {
  55:ThirdParty/Letter-shell/Src/shell.c **** #if SHELL_SHOW_INFO == 1
  56:ThirdParty/Letter-shell/Src/shell.c ****     SHELL_TEXT_INFO,                                    /**< shell信息 */
  57:ThirdParty/Letter-shell/Src/shell.c **** #endif
  58:ThirdParty/Letter-shell/Src/shell.c ****     SHELL_TEXT_CMD_TOO_LONG,                            /**< 命令过长 */
  59:ThirdParty/Letter-shell/Src/shell.c ****     SHELL_TEXT_CMD_LIST,                                /**< 可执行命令列表标题 */
  60:ThirdParty/Letter-shell/Src/shell.c ****     SHELL_TEXT_VAR_LIST,                                /**< 变量列表标题 */
  61:ThirdParty/Letter-shell/Src/shell.c ****     SHELL_TEXT_USER_LIST,                               /**< 用户列表标题 */
  62:ThirdParty/Letter-shell/Src/shell.c ****     SHELL_TEXT_KEY_LIST,                                /**< 按键列表标题 */
  63:ThirdParty/Letter-shell/Src/shell.c ****     SHELL_TEXT_CMD_NOT_FOUND,                           /**< 命令未找到 */
  64:ThirdParty/Letter-shell/Src/shell.c ****     SHELL_TEXT_POINT_CANNOT_MODIFY,                     /**< 指针变量不允许修改 */
  65:ThirdParty/Letter-shell/Src/shell.c ****     SHELL_TEXT_VAR_READ_ONLY_CANNOT_MODIFY,             /**< 只读变量不允许修改 */
  66:ThirdParty/Letter-shell/Src/shell.c ****     SHELL_TEXT_NOT_VAR,                                 /**< 命令不是变量 */
  67:ThirdParty/Letter-shell/Src/shell.c ****     SHELL_TEXT_VAR_NOT_FOUND,                           /**< 变量未找到 */
  68:ThirdParty/Letter-shell/Src/shell.c ****     SHELL_TEXT_HELP_HEADER,                             /**< help头 */
  69:ThirdParty/Letter-shell/Src/shell.c ****     SHELL_TEXT_PASSWORD_HINT,                           /**< 密码输入提示 */
  70:ThirdParty/Letter-shell/Src/shell.c ****     SHELL_TEXT_PASSWORD_ERROR,                          /**< 密码错误 */
  71:ThirdParty/Letter-shell/Src/shell.c ****     SHELL_TEXT_CLEAR_CONSOLE,                           /**< 清空控制台 */
  72:ThirdParty/Letter-shell/Src/shell.c ****     SHELL_TEXT_CLEAR_LINE,                              /**< 清空当前行 */
  73:ThirdParty/Letter-shell/Src/shell.c ****     SHELL_TEXT_TYPE_CMD,                                /**< 命令类型 */
  74:ThirdParty/Letter-shell/Src/shell.c ****     SHELL_TEXT_TYPE_VAR,                                /**< 变量类型 */
  75:ThirdParty/Letter-shell/Src/shell.c ****     SHELL_TEXT_TYPE_USER,                               /**< 用户类型 */
  76:ThirdParty/Letter-shell/Src/shell.c ****     SHELL_TEXT_TYPE_KEY,                                /**< 按键类型 */
  77:ThirdParty/Letter-shell/Src/shell.c ****     SHELL_TEXT_TYPE_NONE,                               /**< 非法类型 */
  78:ThirdParty/Letter-shell/Src/shell.c **** #if SHELL_EXEC_UNDEF_FUNC == 1
  79:ThirdParty/Letter-shell/Src/shell.c ****     SHELL_TEXT_PARAM_ERROR,                             /**< 参数错误 */
  80:ThirdParty/Letter-shell/Src/shell.c **** #endif
  81:ThirdParty/Letter-shell/Src/shell.c **** };
  82:ThirdParty/Letter-shell/Src/shell.c **** 
  83:ThirdParty/Letter-shell/Src/shell.c **** 
  84:ThirdParty/Letter-shell/Src/shell.c **** static const char *shellText[] =
  85:ThirdParty/Letter-shell/Src/shell.c **** {
  86:ThirdParty/Letter-shell/Src/shell.c **** #if SHELL_SHOW_INFO == 1
  87:ThirdParty/Letter-shell/Src/shell.c ****     [SHELL_TEXT_INFO] =
ARM GAS  /var/folders/h7/llxr0vxd5sd9z74__7r6nx9r0000gn/T//ccSPSBV9.s 			page 3


  88:ThirdParty/Letter-shell/Src/shell.c ****         "\r\n"
  89:ThirdParty/Letter-shell/Src/shell.c ****         " _         _   _                  _          _ _ \r\n"
  90:ThirdParty/Letter-shell/Src/shell.c ****         "| |    ___| |_| |_ ___ _ __   ___| |__   ___| | |\r\n"
  91:ThirdParty/Letter-shell/Src/shell.c ****         "| |   / _ \\ __| __/ _ \\ '__| / __| '_ \\ / _ \\ | |\r\n"
  92:ThirdParty/Letter-shell/Src/shell.c ****         "| |__|  __/ |_| ||  __/ |    \\__ \\ | | |  __/ | |\r\n"
  93:ThirdParty/Letter-shell/Src/shell.c ****         "|_____\\___|\\__|\\__\\___|_|    |___/_| |_|\\___|_|_|\r\n"
  94:ThirdParty/Letter-shell/Src/shell.c ****         "\r\n"
  95:ThirdParty/Letter-shell/Src/shell.c ****         "Build:       "__DATE__" "__TIME__"\r\n"
  96:ThirdParty/Letter-shell/Src/shell.c ****         "Version:     "SHELL_VERSION"\r\n"
  97:ThirdParty/Letter-shell/Src/shell.c ****         "Copyright:   (c) 2020 Letter\r\n",
  98:ThirdParty/Letter-shell/Src/shell.c **** #endif
  99:ThirdParty/Letter-shell/Src/shell.c ****     [SHELL_TEXT_CMD_TOO_LONG] = 
 100:ThirdParty/Letter-shell/Src/shell.c ****         "\r\nWarning: Command is too long\r\n",
 101:ThirdParty/Letter-shell/Src/shell.c ****     [SHELL_TEXT_CMD_LIST] = 
 102:ThirdParty/Letter-shell/Src/shell.c ****         "\r\nCommand List:\r\n",
 103:ThirdParty/Letter-shell/Src/shell.c ****     [SHELL_TEXT_VAR_LIST] = 
 104:ThirdParty/Letter-shell/Src/shell.c ****         "\r\nVar List:\r\n",
 105:ThirdParty/Letter-shell/Src/shell.c ****     [SHELL_TEXT_USER_LIST] = 
 106:ThirdParty/Letter-shell/Src/shell.c ****         "\r\nUser List:\r\n",
 107:ThirdParty/Letter-shell/Src/shell.c ****     [SHELL_TEXT_KEY_LIST] =
 108:ThirdParty/Letter-shell/Src/shell.c ****         "\r\nKey List:\r\n",
 109:ThirdParty/Letter-shell/Src/shell.c ****     [SHELL_TEXT_CMD_NOT_FOUND] = 
 110:ThirdParty/Letter-shell/Src/shell.c ****         "Command not Found\r\n",
 111:ThirdParty/Letter-shell/Src/shell.c ****     [SHELL_TEXT_POINT_CANNOT_MODIFY] = 
 112:ThirdParty/Letter-shell/Src/shell.c ****         "can't set pointer\r\n",
 113:ThirdParty/Letter-shell/Src/shell.c ****     [SHELL_TEXT_VAR_READ_ONLY_CANNOT_MODIFY] = 
 114:ThirdParty/Letter-shell/Src/shell.c ****         "can't set read only var\r\n",
 115:ThirdParty/Letter-shell/Src/shell.c ****     [SHELL_TEXT_NOT_VAR] =
 116:ThirdParty/Letter-shell/Src/shell.c ****         " is not a var\r\n",
 117:ThirdParty/Letter-shell/Src/shell.c ****     [SHELL_TEXT_VAR_NOT_FOUND] = 
 118:ThirdParty/Letter-shell/Src/shell.c ****         "Var not Fount\r\n",
 119:ThirdParty/Letter-shell/Src/shell.c ****     [SHELL_TEXT_HELP_HEADER] =
 120:ThirdParty/Letter-shell/Src/shell.c ****         "command help of ",
 121:ThirdParty/Letter-shell/Src/shell.c ****     [SHELL_TEXT_PASSWORD_HINT] = 
 122:ThirdParty/Letter-shell/Src/shell.c ****         "Please input password:",
 123:ThirdParty/Letter-shell/Src/shell.c ****     [SHELL_TEXT_PASSWORD_ERROR] = 
 124:ThirdParty/Letter-shell/Src/shell.c ****         "\r\npassword error\r\n",
 125:ThirdParty/Letter-shell/Src/shell.c ****     [SHELL_TEXT_CLEAR_CONSOLE] = 
 126:ThirdParty/Letter-shell/Src/shell.c ****         "\033[2J\033[1H",
 127:ThirdParty/Letter-shell/Src/shell.c ****     [SHELL_TEXT_CLEAR_LINE] = 
 128:ThirdParty/Letter-shell/Src/shell.c ****         "\033[2K\r",
 129:ThirdParty/Letter-shell/Src/shell.c ****     [SHELL_TEXT_TYPE_CMD] = 
 130:ThirdParty/Letter-shell/Src/shell.c ****         "CMD ",
 131:ThirdParty/Letter-shell/Src/shell.c ****     [SHELL_TEXT_TYPE_VAR] = 
 132:ThirdParty/Letter-shell/Src/shell.c ****         "VAR ",
 133:ThirdParty/Letter-shell/Src/shell.c ****     [SHELL_TEXT_TYPE_USER] = 
 134:ThirdParty/Letter-shell/Src/shell.c ****         "USER",
 135:ThirdParty/Letter-shell/Src/shell.c ****     [SHELL_TEXT_TYPE_KEY] = 
 136:ThirdParty/Letter-shell/Src/shell.c ****         "KEY ",
 137:ThirdParty/Letter-shell/Src/shell.c ****     [SHELL_TEXT_TYPE_NONE] = 
 138:ThirdParty/Letter-shell/Src/shell.c ****         "NONE",
 139:ThirdParty/Letter-shell/Src/shell.c **** #if SHELL_EXEC_UNDEF_FUNC == 1
 140:ThirdParty/Letter-shell/Src/shell.c ****     [SHELL_TEXT_PARAM_ERROR] = 
 141:ThirdParty/Letter-shell/Src/shell.c ****         "Parameter error\r\n",
 142:ThirdParty/Letter-shell/Src/shell.c **** #endif
 143:ThirdParty/Letter-shell/Src/shell.c **** };
 144:ThirdParty/Letter-shell/Src/shell.c **** 
ARM GAS  /var/folders/h7/llxr0vxd5sd9z74__7r6nx9r0000gn/T//ccSPSBV9.s 			page 4


 145:ThirdParty/Letter-shell/Src/shell.c **** 
 146:ThirdParty/Letter-shell/Src/shell.c **** /**
 147:ThirdParty/Letter-shell/Src/shell.c ****  * @brief shell对象表
 148:ThirdParty/Letter-shell/Src/shell.c ****  */
 149:ThirdParty/Letter-shell/Src/shell.c **** static Shell *shellList[SHELL_MAX_NUMBER] = {NULL};
 150:ThirdParty/Letter-shell/Src/shell.c **** 
 151:ThirdParty/Letter-shell/Src/shell.c **** 
 152:ThirdParty/Letter-shell/Src/shell.c **** static void shellAdd(Shell *shell);
 153:ThirdParty/Letter-shell/Src/shell.c **** static void shellWritePrompt(Shell *shell, unsigned char newline);
 154:ThirdParty/Letter-shell/Src/shell.c **** static void shellWriteReturnValue(Shell *shell, int value);
 155:ThirdParty/Letter-shell/Src/shell.c **** static int shellShowVar(Shell *shell, ShellCommand *command);
 156:ThirdParty/Letter-shell/Src/shell.c **** void shellSetUser(Shell *shell, const ShellCommand *user);
 157:ThirdParty/Letter-shell/Src/shell.c **** ShellCommand* shellSeekCommand(Shell *shell,
 158:ThirdParty/Letter-shell/Src/shell.c ****                                const char *cmd,
 159:ThirdParty/Letter-shell/Src/shell.c ****                                ShellCommand *base,
 160:ThirdParty/Letter-shell/Src/shell.c ****                                unsigned short compareLength);
 161:ThirdParty/Letter-shell/Src/shell.c **** static void shellWriteCommandHelp(Shell *shell, char *cmd);
 162:ThirdParty/Letter-shell/Src/shell.c **** 
 163:ThirdParty/Letter-shell/Src/shell.c **** /**
 164:ThirdParty/Letter-shell/Src/shell.c ****  * @brief shell 初始化
 165:ThirdParty/Letter-shell/Src/shell.c ****  * 
 166:ThirdParty/Letter-shell/Src/shell.c ****  * @param shell shell对象
 167:ThirdParty/Letter-shell/Src/shell.c ****  */
 168:ThirdParty/Letter-shell/Src/shell.c **** void shellInit(Shell *shell, char *buffer, unsigned short size)
 169:ThirdParty/Letter-shell/Src/shell.c **** {
 170:ThirdParty/Letter-shell/Src/shell.c ****     shell->parser.length = 0;
 171:ThirdParty/Letter-shell/Src/shell.c ****     shell->parser.cursor = 0;
 172:ThirdParty/Letter-shell/Src/shell.c ****     shell->info.user = NULL;
 173:ThirdParty/Letter-shell/Src/shell.c ****     shell->status.isChecked = 1;
 174:ThirdParty/Letter-shell/Src/shell.c **** 
 175:ThirdParty/Letter-shell/Src/shell.c ****     shell->parser.buffer = buffer;
 176:ThirdParty/Letter-shell/Src/shell.c ****     shell->parser.bufferSize = size / (SHELL_HISTORY_MAX_NUMBER + 1);
 177:ThirdParty/Letter-shell/Src/shell.c ****     
 178:ThirdParty/Letter-shell/Src/shell.c **** #if SHELL_HISTORY_MAX_NUMBER > 0
 179:ThirdParty/Letter-shell/Src/shell.c ****     shell->history.offset = 0;
 180:ThirdParty/Letter-shell/Src/shell.c ****     shell->history.number = 0;
 181:ThirdParty/Letter-shell/Src/shell.c ****     shell->history.record = 0;
 182:ThirdParty/Letter-shell/Src/shell.c ****     for (short i = 0; i < SHELL_HISTORY_MAX_NUMBER; i++)
 183:ThirdParty/Letter-shell/Src/shell.c ****     {
 184:ThirdParty/Letter-shell/Src/shell.c ****         shell->history.item[i] = buffer + shell->parser.bufferSize * (i + 1);
 185:ThirdParty/Letter-shell/Src/shell.c ****     }
 186:ThirdParty/Letter-shell/Src/shell.c **** #endif /** SHELL_HISTORY_MAX_NUMBER > 0 */
 187:ThirdParty/Letter-shell/Src/shell.c **** 
 188:ThirdParty/Letter-shell/Src/shell.c **** #if SHELL_USING_CMD_EXPORT == 1
 189:ThirdParty/Letter-shell/Src/shell.c ****     #if defined(__CC_ARM) || (defined(__ARMCC_VERSION) && __ARMCC_VERSION >= 6000000)
 190:ThirdParty/Letter-shell/Src/shell.c ****         shell->commandList.base = (ShellCommand *)(&shellCommand$$Base);
 191:ThirdParty/Letter-shell/Src/shell.c ****         shell->commandList.count = ((unsigned int)(&shellCommand$$Limit)
 192:ThirdParty/Letter-shell/Src/shell.c ****                                 - (unsigned int)(&shellCommand$$Base))
 193:ThirdParty/Letter-shell/Src/shell.c ****                                 / sizeof(ShellCommand);
 194:ThirdParty/Letter-shell/Src/shell.c **** 
 195:ThirdParty/Letter-shell/Src/shell.c ****     #elif defined(__ICCARM__) || defined(__ICCRX__)
 196:ThirdParty/Letter-shell/Src/shell.c ****         shell->commandList.base = (ShellCommand *)(__section_begin("shellCommand"));
 197:ThirdParty/Letter-shell/Src/shell.c ****         shell->commandList.count = ((unsigned int)(__section_end("shellCommand"))
 198:ThirdParty/Letter-shell/Src/shell.c ****                                 - (unsigned int)(__section_begin("shellCommand")))
 199:ThirdParty/Letter-shell/Src/shell.c ****                                 / sizeof(ShellCommand);
 200:ThirdParty/Letter-shell/Src/shell.c ****     #elif defined(__GNUC__)
 201:ThirdParty/Letter-shell/Src/shell.c ****         shell->commandList.base = (ShellCommand *)(&_shell_command_start);
ARM GAS  /var/folders/h7/llxr0vxd5sd9z74__7r6nx9r0000gn/T//ccSPSBV9.s 			page 5


 202:ThirdParty/Letter-shell/Src/shell.c ****         shell->commandList.count = ((unsigned int)(&_shell_command_end)
 203:ThirdParty/Letter-shell/Src/shell.c ****                                 - (unsigned int)(&_shell_command_start))
 204:ThirdParty/Letter-shell/Src/shell.c ****                                 / sizeof(ShellCommand);
 205:ThirdParty/Letter-shell/Src/shell.c ****     #else
 206:ThirdParty/Letter-shell/Src/shell.c ****         #error not supported compiler, please use command table mode
 207:ThirdParty/Letter-shell/Src/shell.c ****     #endif
 208:ThirdParty/Letter-shell/Src/shell.c **** #else
 209:ThirdParty/Letter-shell/Src/shell.c ****     shell->commandList.base = (ShellCommand *)shellCommandList;
 210:ThirdParty/Letter-shell/Src/shell.c ****     shell->commandList.count = shellCommandCount;
 211:ThirdParty/Letter-shell/Src/shell.c **** #endif
 212:ThirdParty/Letter-shell/Src/shell.c **** 
 213:ThirdParty/Letter-shell/Src/shell.c ****     shellAdd(shell);
 214:ThirdParty/Letter-shell/Src/shell.c **** 
 215:ThirdParty/Letter-shell/Src/shell.c ****     shellSetUser(shell, shellSeekCommand(shell,
 216:ThirdParty/Letter-shell/Src/shell.c ****                                          SHELL_DEFAULT_USER,
 217:ThirdParty/Letter-shell/Src/shell.c ****                                          shell->commandList.base,
 218:ThirdParty/Letter-shell/Src/shell.c ****                                          0));
 219:ThirdParty/Letter-shell/Src/shell.c ****     shellWritePrompt(shell, 1);
 220:ThirdParty/Letter-shell/Src/shell.c **** }
 221:ThirdParty/Letter-shell/Src/shell.c **** 
 222:ThirdParty/Letter-shell/Src/shell.c **** 
 223:ThirdParty/Letter-shell/Src/shell.c **** /**
 224:ThirdParty/Letter-shell/Src/shell.c ****  * @brief 添加shell
 225:ThirdParty/Letter-shell/Src/shell.c ****  * 
 226:ThirdParty/Letter-shell/Src/shell.c ****  * @param shell shell对象
 227:ThirdParty/Letter-shell/Src/shell.c ****  */
 228:ThirdParty/Letter-shell/Src/shell.c **** static void shellAdd(Shell *shell)
 229:ThirdParty/Letter-shell/Src/shell.c **** {
  29              		.loc 1 229 1 view -0
  30              		.cfi_startproc
  31              		@ args = 0, pretend = 0, frame = 0
  32              		@ frame_needed = 0, uses_anonymous_args = 0
  33              		@ link register save eliminated.
 230:ThirdParty/Letter-shell/Src/shell.c ****     for (short i = 0; i < SHELL_MAX_NUMBER; i++)
  34              		.loc 1 230 5 view .LVU1
  35              	.LBB2:
  36              		.loc 1 230 10 view .LVU2
  37              		.loc 1 230 16 is_stmt 0 view .LVU3
  38 0000 0023     		movs	r3, #0
  39              	.LVL1:
  40              	.L2:
  41              		.loc 1 230 25 is_stmt 1 discriminator 1 view .LVU4
  42 0002 042B     		cmp	r3, #4
  43 0004 0ADC     		bgt	.L6
 231:ThirdParty/Letter-shell/Src/shell.c ****     {
 232:ThirdParty/Letter-shell/Src/shell.c ****         if (shellList[i] == NULL)
  44              		.loc 1 232 9 view .LVU5
  45              		.loc 1 232 22 is_stmt 0 view .LVU6
  46 0006 064A     		ldr	r2, .L8
  47 0008 52F82320 		ldr	r2, [r2, r3, lsl #2]
  48              		.loc 1 232 12 view .LVU7
  49 000c 12B1     		cbz	r2, .L7
 230:ThirdParty/Letter-shell/Src/shell.c ****     for (short i = 0; i < SHELL_MAX_NUMBER; i++)
  50              		.loc 1 230 46 is_stmt 1 discriminator 2 view .LVU8
  51 000e 0133     		adds	r3, r3, #1
  52              	.LVL2:
 230:ThirdParty/Letter-shell/Src/shell.c ****     for (short i = 0; i < SHELL_MAX_NUMBER; i++)
ARM GAS  /var/folders/h7/llxr0vxd5sd9z74__7r6nx9r0000gn/T//ccSPSBV9.s 			page 6


  53              		.loc 1 230 46 is_stmt 0 discriminator 2 view .LVU9
  54 0010 1BB2     		sxth	r3, r3
  55              	.LVL3:
 230:ThirdParty/Letter-shell/Src/shell.c ****     for (short i = 0; i < SHELL_MAX_NUMBER; i++)
  56              		.loc 1 230 46 discriminator 2 view .LVU10
  57 0012 F6E7     		b	.L2
  58              	.L7:
 233:ThirdParty/Letter-shell/Src/shell.c ****         {
 234:ThirdParty/Letter-shell/Src/shell.c ****             shellList[i] = shell;
  59              		.loc 1 234 13 is_stmt 1 view .LVU11
  60              		.loc 1 234 26 is_stmt 0 view .LVU12
  61 0014 024A     		ldr	r2, .L8
  62 0016 42F82300 		str	r0, [r2, r3, lsl #2]
 235:ThirdParty/Letter-shell/Src/shell.c ****             return;
  63              		.loc 1 235 13 is_stmt 1 view .LVU13
  64 001a 7047     		bx	lr
  65              	.L6:
  66              		.loc 1 235 13 is_stmt 0 view .LVU14
  67              	.LBE2:
 236:ThirdParty/Letter-shell/Src/shell.c ****         }
 237:ThirdParty/Letter-shell/Src/shell.c ****     }
 238:ThirdParty/Letter-shell/Src/shell.c **** }
  68              		.loc 1 238 1 view .LVU15
  69 001c 7047     		bx	lr
  70              	.L9:
  71 001e 00BF     		.align	2
  72              	.L8:
  73 0020 00000000 		.word	shellList
  74              		.cfi_endproc
  75              	.LFE4:
  77              		.section	.text.shellWriteByte,"ax",%progbits
  78              		.align	1
  79              		.syntax unified
  80              		.thumb
  81              		.thumb_func
  83              	shellWriteByte:
  84              	.LVL4:
  85              	.LFB7:
 239:ThirdParty/Letter-shell/Src/shell.c **** 
 240:ThirdParty/Letter-shell/Src/shell.c **** /**
 241:ThirdParty/Letter-shell/Src/shell.c ****  * @brief 移除shell
 242:ThirdParty/Letter-shell/Src/shell.c ****  * 
 243:ThirdParty/Letter-shell/Src/shell.c ****  * @param shell shell对象
 244:ThirdParty/Letter-shell/Src/shell.c ****  * 
 245:ThirdParty/Letter-shell/Src/shell.c ****  */
 246:ThirdParty/Letter-shell/Src/shell.c **** void shellRemove(Shell *shell)
 247:ThirdParty/Letter-shell/Src/shell.c **** {
 248:ThirdParty/Letter-shell/Src/shell.c ****     for (short i = 0; i < SHELL_MAX_NUMBER; i++)
 249:ThirdParty/Letter-shell/Src/shell.c ****     {
 250:ThirdParty/Letter-shell/Src/shell.c ****         if (shellList[i] == shell)
 251:ThirdParty/Letter-shell/Src/shell.c ****         {
 252:ThirdParty/Letter-shell/Src/shell.c ****             shellList[i] = NULL;
 253:ThirdParty/Letter-shell/Src/shell.c ****             return;
 254:ThirdParty/Letter-shell/Src/shell.c ****         }
 255:ThirdParty/Letter-shell/Src/shell.c ****     }
 256:ThirdParty/Letter-shell/Src/shell.c **** }
 257:ThirdParty/Letter-shell/Src/shell.c **** 
ARM GAS  /var/folders/h7/llxr0vxd5sd9z74__7r6nx9r0000gn/T//ccSPSBV9.s 			page 7


 258:ThirdParty/Letter-shell/Src/shell.c **** /**
 259:ThirdParty/Letter-shell/Src/shell.c ****  * @brief 获取当前活动shell
 260:ThirdParty/Letter-shell/Src/shell.c ****  * 
 261:ThirdParty/Letter-shell/Src/shell.c ****  * @return Shell* 当前活动shell对象
 262:ThirdParty/Letter-shell/Src/shell.c ****  */
 263:ThirdParty/Letter-shell/Src/shell.c **** Shell* shellGetCurrent(void)
 264:ThirdParty/Letter-shell/Src/shell.c **** {
 265:ThirdParty/Letter-shell/Src/shell.c ****     for (short i = 0; i < SHELL_MAX_NUMBER; i++)
 266:ThirdParty/Letter-shell/Src/shell.c ****     {
 267:ThirdParty/Letter-shell/Src/shell.c ****         if (shellList[i] && shellList[i]->status.isActive)
 268:ThirdParty/Letter-shell/Src/shell.c ****         {
 269:ThirdParty/Letter-shell/Src/shell.c ****             return shellList[i];
 270:ThirdParty/Letter-shell/Src/shell.c ****         }
 271:ThirdParty/Letter-shell/Src/shell.c ****     }
 272:ThirdParty/Letter-shell/Src/shell.c ****     return NULL;
 273:ThirdParty/Letter-shell/Src/shell.c **** }
 274:ThirdParty/Letter-shell/Src/shell.c **** 
 275:ThirdParty/Letter-shell/Src/shell.c **** 
 276:ThirdParty/Letter-shell/Src/shell.c **** /**
 277:ThirdParty/Letter-shell/Src/shell.c ****  * @brief shell写字符
 278:ThirdParty/Letter-shell/Src/shell.c ****  * 
 279:ThirdParty/Letter-shell/Src/shell.c ****  * @param shell shell对象
 280:ThirdParty/Letter-shell/Src/shell.c ****  * @param data 字符数据
 281:ThirdParty/Letter-shell/Src/shell.c ****  */
 282:ThirdParty/Letter-shell/Src/shell.c **** static void shellWriteByte(Shell *shell, char data)
 283:ThirdParty/Letter-shell/Src/shell.c **** {
  86              		.loc 1 283 1 is_stmt 1 view -0
  87              		.cfi_startproc
  88              		@ args = 0, pretend = 0, frame = 8
  89              		@ frame_needed = 0, uses_anonymous_args = 0
  90              		.loc 1 283 1 is_stmt 0 view .LVU17
  91 0000 00B5     		push	{lr}
  92              	.LCFI0:
  93              		.cfi_def_cfa_offset 4
  94              		.cfi_offset 14, -4
  95 0002 83B0     		sub	sp, sp, #12
  96              	.LCFI1:
  97              		.cfi_def_cfa_offset 16
  98 0004 8DF80710 		strb	r1, [sp, #7]
 284:ThirdParty/Letter-shell/Src/shell.c ****     shell->write(&data, 1);
  99              		.loc 1 284 5 is_stmt 1 view .LVU18
 100              		.loc 1 284 10 is_stmt 0 view .LVU19
 101 0008 836E     		ldr	r3, [r0, #104]
 102              		.loc 1 284 5 view .LVU20
 103 000a 0121     		movs	r1, #1
 104              	.LVL5:
 105              		.loc 1 284 5 view .LVU21
 106 000c 0DF10700 		add	r0, sp, #7
 107              	.LVL6:
 108              		.loc 1 284 5 view .LVU22
 109 0010 9847     		blx	r3
 110              	.LVL7:
 285:ThirdParty/Letter-shell/Src/shell.c **** }
 111              		.loc 1 285 1 view .LVU23
 112 0012 03B0     		add	sp, sp, #12
 113              	.LCFI2:
 114              		.cfi_def_cfa_offset 4
ARM GAS  /var/folders/h7/llxr0vxd5sd9z74__7r6nx9r0000gn/T//ccSPSBV9.s 			page 8


 115              		@ sp needed
 116 0014 5DF804FB 		ldr	pc, [sp], #4
 117              		.cfi_endproc
 118              	.LFE7:
 120              		.section	.rodata.shellWriteCommandDesc.str1.4,"aMS",%progbits,1
 121              		.align	2
 122              	.LC0:
 123 0000 2E2E2E00 		.ascii	"...\000"
 124              		.section	.text.shellWriteCommandDesc,"ax",%progbits
 125              		.align	1
 126              		.syntax unified
 127              		.thumb
 128              		.thumb_func
 130              	shellWriteCommandDesc:
 131              	.LVL8:
 132              	.LFB9:
 286:ThirdParty/Letter-shell/Src/shell.c **** 
 287:ThirdParty/Letter-shell/Src/shell.c **** 
 288:ThirdParty/Letter-shell/Src/shell.c **** /**
 289:ThirdParty/Letter-shell/Src/shell.c ****  * @brief shell 写字符串
 290:ThirdParty/Letter-shell/Src/shell.c ****  * 
 291:ThirdParty/Letter-shell/Src/shell.c ****  * @param shell shell对象
 292:ThirdParty/Letter-shell/Src/shell.c ****  * @param string 字符串数据
 293:ThirdParty/Letter-shell/Src/shell.c ****  * 
 294:ThirdParty/Letter-shell/Src/shell.c ****  * @return unsigned short 写入字符的数量
 295:ThirdParty/Letter-shell/Src/shell.c ****  */
 296:ThirdParty/Letter-shell/Src/shell.c **** unsigned short shellWriteString(Shell *shell, const char *string)
 297:ThirdParty/Letter-shell/Src/shell.c **** {
 298:ThirdParty/Letter-shell/Src/shell.c ****     unsigned short count = 0;
 299:ThirdParty/Letter-shell/Src/shell.c ****     const char *p = string;
 300:ThirdParty/Letter-shell/Src/shell.c ****     SHELL_ASSERT(shell->write, return 0);
 301:ThirdParty/Letter-shell/Src/shell.c ****     while(*p++)
 302:ThirdParty/Letter-shell/Src/shell.c ****     {
 303:ThirdParty/Letter-shell/Src/shell.c ****         count ++;
 304:ThirdParty/Letter-shell/Src/shell.c ****     }
 305:ThirdParty/Letter-shell/Src/shell.c ****     return shell->write((char *)string, count);
 306:ThirdParty/Letter-shell/Src/shell.c **** }
 307:ThirdParty/Letter-shell/Src/shell.c **** 
 308:ThirdParty/Letter-shell/Src/shell.c **** 
 309:ThirdParty/Letter-shell/Src/shell.c **** /**
 310:ThirdParty/Letter-shell/Src/shell.c ****  * @brief shell 写命令描述字符串
 311:ThirdParty/Letter-shell/Src/shell.c ****  * 
 312:ThirdParty/Letter-shell/Src/shell.c ****  * @param shell shell对象
 313:ThirdParty/Letter-shell/Src/shell.c ****  * @param string 字符串数据
 314:ThirdParty/Letter-shell/Src/shell.c ****  * 
 315:ThirdParty/Letter-shell/Src/shell.c ****  * @return unsigned short 写入字符的数量
 316:ThirdParty/Letter-shell/Src/shell.c ****  */
 317:ThirdParty/Letter-shell/Src/shell.c **** static unsigned short shellWriteCommandDesc(Shell *shell, const char *string)
 318:ThirdParty/Letter-shell/Src/shell.c **** {
 133              		.loc 1 318 1 is_stmt 1 view -0
 134              		.cfi_startproc
 135              		@ args = 0, pretend = 0, frame = 0
 136              		@ frame_needed = 0, uses_anonymous_args = 0
 137              		.loc 1 318 1 is_stmt 0 view .LVU25
 138 0000 70B5     		push	{r4, r5, r6, lr}
 139              	.LCFI3:
 140              		.cfi_def_cfa_offset 16
ARM GAS  /var/folders/h7/llxr0vxd5sd9z74__7r6nx9r0000gn/T//ccSPSBV9.s 			page 9


 141              		.cfi_offset 4, -16
 142              		.cfi_offset 5, -12
 143              		.cfi_offset 6, -8
 144              		.cfi_offset 14, -4
 145 0002 0546     		mov	r5, r0
 319:ThirdParty/Letter-shell/Src/shell.c ****     unsigned short count = 0;
 146              		.loc 1 319 5 is_stmt 1 view .LVU26
 147              	.LVL9:
 320:ThirdParty/Letter-shell/Src/shell.c ****     const char *p = string;
 148              		.loc 1 320 5 view .LVU27
 321:ThirdParty/Letter-shell/Src/shell.c ****     SHELL_ASSERT(shell->write, return 0);
 149              		.loc 1 321 5 view .LVU28
 150 0004 866E     		ldr	r6, [r0, #104]
 151 0006 DEB1     		cbz	r6, .L19
 152 0008 0846     		mov	r0, r1
 153              	.LVL10:
 320:ThirdParty/Letter-shell/Src/shell.c ****     const char *p = string;
 154              		.loc 1 320 17 is_stmt 0 view .LVU29
 155 000a 0A46     		mov	r2, r1
 319:ThirdParty/Letter-shell/Src/shell.c ****     unsigned short count = 0;
 156              		.loc 1 319 20 view .LVU30
 157 000c 0024     		movs	r4, #0
 158              	.LVL11:
 159              	.L14:
 322:ThirdParty/Letter-shell/Src/shell.c ****     while (*p && *p != '\r' && *p != '\n')
 160              		.loc 1 322 29 is_stmt 1 view .LVU31
 161              		.loc 1 322 12 is_stmt 0 view .LVU32
 162 000e 1378     		ldrb	r3, [r2]	@ zero_extendqisi2
 163              		.loc 1 322 29 view .LVU33
 164 0010 3BB1     		cbz	r3, .L15
 165              		.loc 1 322 15 discriminator 1 view .LVU34
 166 0012 0D2B     		cmp	r3, #13
 167 0014 05D0     		beq	.L15
 168              		.loc 1 322 29 discriminator 2 view .LVU35
 169 0016 0A2B     		cmp	r3, #10
 170 0018 03D0     		beq	.L15
 323:ThirdParty/Letter-shell/Src/shell.c ****     {
 324:ThirdParty/Letter-shell/Src/shell.c ****         p++;
 171              		.loc 1 324 9 is_stmt 1 view .LVU36
 172              		.loc 1 324 10 is_stmt 0 view .LVU37
 173 001a 0132     		adds	r2, r2, #1
 174              	.LVL12:
 325:ThirdParty/Letter-shell/Src/shell.c ****         count++;
 175              		.loc 1 325 9 is_stmt 1 view .LVU38
 176              		.loc 1 325 14 is_stmt 0 view .LVU39
 177 001c 0134     		adds	r4, r4, #1
 178              	.LVL13:
 179              		.loc 1 325 14 view .LVU40
 180 001e A4B2     		uxth	r4, r4
 181              	.LVL14:
 182              		.loc 1 325 14 view .LVU41
 183 0020 F5E7     		b	.L14
 184              	.L15:
 326:ThirdParty/Letter-shell/Src/shell.c ****     }
 327:ThirdParty/Letter-shell/Src/shell.c ****     
 328:ThirdParty/Letter-shell/Src/shell.c ****     if (count > 36)
 185              		.loc 1 328 5 is_stmt 1 view .LVU42
ARM GAS  /var/folders/h7/llxr0vxd5sd9z74__7r6nx9r0000gn/T//ccSPSBV9.s 			page 10


 186              		.loc 1 328 8 is_stmt 0 view .LVU43
 187 0022 242C     		cmp	r4, #36
 188 0024 09D9     		bls	.L17
 329:ThirdParty/Letter-shell/Src/shell.c ****     {
 330:ThirdParty/Letter-shell/Src/shell.c ****         shell->write((char *)string, 36);
 189              		.loc 1 330 9 is_stmt 1 view .LVU44
 190 0026 2421     		movs	r1, #36
 191 0028 B047     		blx	r6
 192              	.LVL15:
 331:ThirdParty/Letter-shell/Src/shell.c ****         shell->write("...", 3);
 193              		.loc 1 331 9 view .LVU45
 194              		.loc 1 331 14 is_stmt 0 view .LVU46
 195 002a AB6E     		ldr	r3, [r5, #104]
 196              		.loc 1 331 9 view .LVU47
 197 002c 0321     		movs	r1, #3
 198 002e 0648     		ldr	r0, .L22
 199 0030 9847     		blx	r3
 200              	.LVL16:
 201              	.L18:
 332:ThirdParty/Letter-shell/Src/shell.c ****     }
 333:ThirdParty/Letter-shell/Src/shell.c ****     else
 334:ThirdParty/Letter-shell/Src/shell.c ****     {
 335:ThirdParty/Letter-shell/Src/shell.c ****         shell->write((char *)string, count);
 336:ThirdParty/Letter-shell/Src/shell.c ****     }
 337:ThirdParty/Letter-shell/Src/shell.c ****     return count > 36 ? 36 : 39;
 202              		.loc 1 337 5 is_stmt 1 view .LVU48
 203              		.loc 1 337 28 is_stmt 0 view .LVU49
 204 0032 242C     		cmp	r4, #36
 205 0034 06D9     		bls	.L20
 206 0036 2420     		movs	r0, #36
 207              	.LVL17:
 208              	.L13:
 338:ThirdParty/Letter-shell/Src/shell.c **** }
 209              		.loc 1 338 1 view .LVU50
 210 0038 70BD     		pop	{r4, r5, r6, pc}
 211              	.LVL18:
 212              	.L17:
 335:ThirdParty/Letter-shell/Src/shell.c ****     }
 213              		.loc 1 335 9 is_stmt 1 view .LVU51
 214 003a 2146     		mov	r1, r4
 215 003c B047     		blx	r6
 216              	.LVL19:
 335:ThirdParty/Letter-shell/Src/shell.c ****     }
 217              		.loc 1 335 9 is_stmt 0 view .LVU52
 218 003e F8E7     		b	.L18
 219              	.LVL20:
 220              	.L19:
 321:ThirdParty/Letter-shell/Src/shell.c ****     while (*p && *p != '\r' && *p != '\n')
 221              		.loc 1 321 5 view .LVU53
 222 0040 0020     		movs	r0, #0
 223              	.LVL21:
 321:ThirdParty/Letter-shell/Src/shell.c ****     while (*p && *p != '\r' && *p != '\n')
 224              		.loc 1 321 5 view .LVU54
 225 0042 F9E7     		b	.L13
 226              	.LVL22:
 227              	.L20:
 337:ThirdParty/Letter-shell/Src/shell.c **** }
ARM GAS  /var/folders/h7/llxr0vxd5sd9z74__7r6nx9r0000gn/T//ccSPSBV9.s 			page 11


 228              		.loc 1 337 28 view .LVU55
 229 0044 2720     		movs	r0, #39
 230 0046 F7E7     		b	.L13
 231              	.L23:
 232              		.align	2
 233              	.L22:
 234 0048 00000000 		.word	.LC0
 235              		.cfi_endproc
 236              	.LFE9:
 238              		.section	.text.shellStringCopy,"ax",%progbits
 239              		.align	1
 240              		.syntax unified
 241              		.thumb
 242              		.thumb_func
 244              	shellStringCopy:
 245              	.LVL23:
 246              	.LFB15:
 339:ThirdParty/Letter-shell/Src/shell.c **** 
 340:ThirdParty/Letter-shell/Src/shell.c **** 
 341:ThirdParty/Letter-shell/Src/shell.c **** /**
 342:ThirdParty/Letter-shell/Src/shell.c ****  * @brief shell写命令提示符
 343:ThirdParty/Letter-shell/Src/shell.c ****  * 
 344:ThirdParty/Letter-shell/Src/shell.c ****  * @param shell shell对象
 345:ThirdParty/Letter-shell/Src/shell.c ****  * @param newline 新行
 346:ThirdParty/Letter-shell/Src/shell.c ****  * 
 347:ThirdParty/Letter-shell/Src/shell.c ****  */
 348:ThirdParty/Letter-shell/Src/shell.c **** static void shellWritePrompt(Shell *shell, unsigned char newline)
 349:ThirdParty/Letter-shell/Src/shell.c **** {
 350:ThirdParty/Letter-shell/Src/shell.c ****     if (shell->status.isChecked)
 351:ThirdParty/Letter-shell/Src/shell.c ****     {
 352:ThirdParty/Letter-shell/Src/shell.c ****         if (newline)
 353:ThirdParty/Letter-shell/Src/shell.c ****         {
 354:ThirdParty/Letter-shell/Src/shell.c ****             shellWriteString(shell, "\r\n");
 355:ThirdParty/Letter-shell/Src/shell.c ****         }
 356:ThirdParty/Letter-shell/Src/shell.c ****         shellWriteString(shell, shell->info.user->data.user.name);
 357:ThirdParty/Letter-shell/Src/shell.c ****         shellWriteString(shell, ":");
 358:ThirdParty/Letter-shell/Src/shell.c ****         shellWriteString(shell, shell->info.path ? shell->info.path : "/");
 359:ThirdParty/Letter-shell/Src/shell.c ****         shellWriteString(shell, "$ ");
 360:ThirdParty/Letter-shell/Src/shell.c ****     }
 361:ThirdParty/Letter-shell/Src/shell.c ****     else
 362:ThirdParty/Letter-shell/Src/shell.c ****     {
 363:ThirdParty/Letter-shell/Src/shell.c ****         shellWriteString(shell, shellText[SHELL_TEXT_PASSWORD_HINT]);
 364:ThirdParty/Letter-shell/Src/shell.c ****     }
 365:ThirdParty/Letter-shell/Src/shell.c **** }
 366:ThirdParty/Letter-shell/Src/shell.c **** 
 367:ThirdParty/Letter-shell/Src/shell.c **** 
 368:ThirdParty/Letter-shell/Src/shell.c **** #if SHELL_PRINT_BUFFER > 0
 369:ThirdParty/Letter-shell/Src/shell.c **** /**
 370:ThirdParty/Letter-shell/Src/shell.c ****  * @brief shell格式化输出
 371:ThirdParty/Letter-shell/Src/shell.c ****  * 
 372:ThirdParty/Letter-shell/Src/shell.c ****  * @param shell shell对象
 373:ThirdParty/Letter-shell/Src/shell.c ****  * @param fmt 格式化字符串
 374:ThirdParty/Letter-shell/Src/shell.c ****  * @param ... 参数
 375:ThirdParty/Letter-shell/Src/shell.c ****  */
 376:ThirdParty/Letter-shell/Src/shell.c **** void shellPrint(Shell *shell, const char *fmt, ...)
 377:ThirdParty/Letter-shell/Src/shell.c **** {
 378:ThirdParty/Letter-shell/Src/shell.c ****     char buffer[SHELL_PRINT_BUFFER];
ARM GAS  /var/folders/h7/llxr0vxd5sd9z74__7r6nx9r0000gn/T//ccSPSBV9.s 			page 12


 379:ThirdParty/Letter-shell/Src/shell.c ****     va_list vargs;
 380:ThirdParty/Letter-shell/Src/shell.c ****     int len;
 381:ThirdParty/Letter-shell/Src/shell.c **** 
 382:ThirdParty/Letter-shell/Src/shell.c ****     SHELL_ASSERT(shell, return);
 383:ThirdParty/Letter-shell/Src/shell.c **** 
 384:ThirdParty/Letter-shell/Src/shell.c ****     va_start(vargs, fmt);
 385:ThirdParty/Letter-shell/Src/shell.c ****     len = vsnprintf(buffer, SHELL_PRINT_BUFFER, fmt, vargs);
 386:ThirdParty/Letter-shell/Src/shell.c ****     va_end(vargs);
 387:ThirdParty/Letter-shell/Src/shell.c ****     if (len > SHELL_PRINT_BUFFER)
 388:ThirdParty/Letter-shell/Src/shell.c ****     {
 389:ThirdParty/Letter-shell/Src/shell.c ****         len = SHELL_PRINT_BUFFER;
 390:ThirdParty/Letter-shell/Src/shell.c ****     }
 391:ThirdParty/Letter-shell/Src/shell.c ****     shell->write(buffer, len);
 392:ThirdParty/Letter-shell/Src/shell.c **** }
 393:ThirdParty/Letter-shell/Src/shell.c **** #endif
 394:ThirdParty/Letter-shell/Src/shell.c **** 
 395:ThirdParty/Letter-shell/Src/shell.c **** 
 396:ThirdParty/Letter-shell/Src/shell.c **** #if SHELL_SCAN_BUFFER > 0
 397:ThirdParty/Letter-shell/Src/shell.c **** /**
 398:ThirdParty/Letter-shell/Src/shell.c ****  * @brief shell格式化输入
 399:ThirdParty/Letter-shell/Src/shell.c ****  * 
 400:ThirdParty/Letter-shell/Src/shell.c ****  * @param shell shell对象
 401:ThirdParty/Letter-shell/Src/shell.c ****  * @param fmt 格式化字符串
 402:ThirdParty/Letter-shell/Src/shell.c ****  * @param ... 参数
 403:ThirdParty/Letter-shell/Src/shell.c ****  */
 404:ThirdParty/Letter-shell/Src/shell.c **** void shellScan(Shell *shell, char *fmt, ...)
 405:ThirdParty/Letter-shell/Src/shell.c **** {
 406:ThirdParty/Letter-shell/Src/shell.c ****     char buffer[SHELL_SCAN_BUFFER];
 407:ThirdParty/Letter-shell/Src/shell.c ****     va_list vargs;
 408:ThirdParty/Letter-shell/Src/shell.c ****     short index = 0;
 409:ThirdParty/Letter-shell/Src/shell.c **** 
 410:ThirdParty/Letter-shell/Src/shell.c ****     SHELL_ASSERT(shell, return);
 411:ThirdParty/Letter-shell/Src/shell.c **** 
 412:ThirdParty/Letter-shell/Src/shell.c ****     if (shell->read)
 413:ThirdParty/Letter-shell/Src/shell.c ****     {
 414:ThirdParty/Letter-shell/Src/shell.c ****         do {
 415:ThirdParty/Letter-shell/Src/shell.c ****             if (shell->read(&buffer[index], 1) == 1)
 416:ThirdParty/Letter-shell/Src/shell.c ****             {
 417:ThirdParty/Letter-shell/Src/shell.c ****                 shell->write(&buffer[index], 1);
 418:ThirdParty/Letter-shell/Src/shell.c ****                 index++;
 419:ThirdParty/Letter-shell/Src/shell.c ****             }
 420:ThirdParty/Letter-shell/Src/shell.c ****         } while (buffer[index -1] != '\r' && buffer[index -1] != '\n' && index < SHELL_SCAN_BUFFER)
 421:ThirdParty/Letter-shell/Src/shell.c ****         shellWriteString(shell, "\r\n");
 422:ThirdParty/Letter-shell/Src/shell.c ****         buffer[index] = '\0';
 423:ThirdParty/Letter-shell/Src/shell.c ****     }
 424:ThirdParty/Letter-shell/Src/shell.c **** 
 425:ThirdParty/Letter-shell/Src/shell.c ****     va_start(vargs, fmt);
 426:ThirdParty/Letter-shell/Src/shell.c ****     vsscanf(buffer, fmt, vargs);
 427:ThirdParty/Letter-shell/Src/shell.c ****     va_end(vargs);
 428:ThirdParty/Letter-shell/Src/shell.c **** }
 429:ThirdParty/Letter-shell/Src/shell.c **** #endif
 430:ThirdParty/Letter-shell/Src/shell.c **** 
 431:ThirdParty/Letter-shell/Src/shell.c **** 
 432:ThirdParty/Letter-shell/Src/shell.c **** /**
 433:ThirdParty/Letter-shell/Src/shell.c ****  * @brief shell 检查命令权限
 434:ThirdParty/Letter-shell/Src/shell.c ****  * 
 435:ThirdParty/Letter-shell/Src/shell.c ****  * @param shell shell对象
ARM GAS  /var/folders/h7/llxr0vxd5sd9z74__7r6nx9r0000gn/T//ccSPSBV9.s 			page 13


 436:ThirdParty/Letter-shell/Src/shell.c ****  * @param command ShellCommand
 437:ThirdParty/Letter-shell/Src/shell.c ****  * 
 438:ThirdParty/Letter-shell/Src/shell.c ****  * @return signed char 0 当前用户具有该命令权限
 439:ThirdParty/Letter-shell/Src/shell.c ****  * @return signec char -1 当前用户不具有该命令权限
 440:ThirdParty/Letter-shell/Src/shell.c ****  */
 441:ThirdParty/Letter-shell/Src/shell.c **** signed char shellCheckPermission(Shell *shell, ShellCommand *command)
 442:ThirdParty/Letter-shell/Src/shell.c **** {
 443:ThirdParty/Letter-shell/Src/shell.c ****     return ((!command->attr.attrs.permission
 444:ThirdParty/Letter-shell/Src/shell.c ****                 || command->attr.attrs.type == SHELL_TYPE_USER
 445:ThirdParty/Letter-shell/Src/shell.c ****                 || (shell->info.user
 446:ThirdParty/Letter-shell/Src/shell.c ****                     && (command->attr.attrs.permission 
 447:ThirdParty/Letter-shell/Src/shell.c ****                         & shell->info.user->attr.attrs.permission)))
 448:ThirdParty/Letter-shell/Src/shell.c ****             && (shell->status.isChecked
 449:ThirdParty/Letter-shell/Src/shell.c ****                 || command->attr.attrs.enableUnchecked))
 450:ThirdParty/Letter-shell/Src/shell.c ****             ? 0 : -1;
 451:ThirdParty/Letter-shell/Src/shell.c **** }
 452:ThirdParty/Letter-shell/Src/shell.c **** 
 453:ThirdParty/Letter-shell/Src/shell.c **** 
 454:ThirdParty/Letter-shell/Src/shell.c **** /**
 455:ThirdParty/Letter-shell/Src/shell.c ****  * @brief int转16进制字符串
 456:ThirdParty/Letter-shell/Src/shell.c ****  * 
 457:ThirdParty/Letter-shell/Src/shell.c ****  * @param value 数值
 458:ThirdParty/Letter-shell/Src/shell.c ****  * @param buffer 缓冲
 459:ThirdParty/Letter-shell/Src/shell.c ****  * 
 460:ThirdParty/Letter-shell/Src/shell.c ****  * @return signed char 转换后有效数据长度
 461:ThirdParty/Letter-shell/Src/shell.c ****  */
 462:ThirdParty/Letter-shell/Src/shell.c **** signed char shellToHex(unsigned int value, char *buffer)
 463:ThirdParty/Letter-shell/Src/shell.c **** {
 464:ThirdParty/Letter-shell/Src/shell.c ****     char byte;
 465:ThirdParty/Letter-shell/Src/shell.c ****     unsigned char i = 8;
 466:ThirdParty/Letter-shell/Src/shell.c ****     buffer[8] = 0;
 467:ThirdParty/Letter-shell/Src/shell.c ****     while (value)
 468:ThirdParty/Letter-shell/Src/shell.c ****     {
 469:ThirdParty/Letter-shell/Src/shell.c ****         byte = value & 0x0000000F;
 470:ThirdParty/Letter-shell/Src/shell.c ****         buffer[--i] = (byte > 9) ? (byte + 87) : (byte + 48);
 471:ThirdParty/Letter-shell/Src/shell.c ****         value >>= 4;
 472:ThirdParty/Letter-shell/Src/shell.c ****     }
 473:ThirdParty/Letter-shell/Src/shell.c ****     return 8 - i;
 474:ThirdParty/Letter-shell/Src/shell.c **** }
 475:ThirdParty/Letter-shell/Src/shell.c **** 
 476:ThirdParty/Letter-shell/Src/shell.c **** 
 477:ThirdParty/Letter-shell/Src/shell.c **** /**
 478:ThirdParty/Letter-shell/Src/shell.c **** * @brief int转10进制字符串
 479:ThirdParty/Letter-shell/Src/shell.c ****  * 
 480:ThirdParty/Letter-shell/Src/shell.c ****  * @param value 数值
 481:ThirdParty/Letter-shell/Src/shell.c ****  * @param buffer 缓冲
 482:ThirdParty/Letter-shell/Src/shell.c ****  * 
 483:ThirdParty/Letter-shell/Src/shell.c ****  * @return signed char 转换后有效数据长度
 484:ThirdParty/Letter-shell/Src/shell.c ****  */
 485:ThirdParty/Letter-shell/Src/shell.c **** signed char shellToDec(int value, char *buffer)
 486:ThirdParty/Letter-shell/Src/shell.c **** {
 487:ThirdParty/Letter-shell/Src/shell.c ****     unsigned char i = 11;
 488:ThirdParty/Letter-shell/Src/shell.c ****     int v = value;
 489:ThirdParty/Letter-shell/Src/shell.c ****     if (value < 0)
 490:ThirdParty/Letter-shell/Src/shell.c ****     {
 491:ThirdParty/Letter-shell/Src/shell.c ****         v = -value;
 492:ThirdParty/Letter-shell/Src/shell.c ****     }
ARM GAS  /var/folders/h7/llxr0vxd5sd9z74__7r6nx9r0000gn/T//ccSPSBV9.s 			page 14


 493:ThirdParty/Letter-shell/Src/shell.c ****     buffer[11] = 0;
 494:ThirdParty/Letter-shell/Src/shell.c ****     while (v)
 495:ThirdParty/Letter-shell/Src/shell.c ****     {
 496:ThirdParty/Letter-shell/Src/shell.c ****         buffer[--i] = v % 10 + 48;
 497:ThirdParty/Letter-shell/Src/shell.c ****         v /= 10;
 498:ThirdParty/Letter-shell/Src/shell.c ****     }
 499:ThirdParty/Letter-shell/Src/shell.c ****     if (value < 0)
 500:ThirdParty/Letter-shell/Src/shell.c ****     {
 501:ThirdParty/Letter-shell/Src/shell.c ****         buffer[--i] = '-';
 502:ThirdParty/Letter-shell/Src/shell.c ****     }
 503:ThirdParty/Letter-shell/Src/shell.c ****     if (value == 0) {
 504:ThirdParty/Letter-shell/Src/shell.c ****         buffer[--i] = '0';
 505:ThirdParty/Letter-shell/Src/shell.c ****     }
 506:ThirdParty/Letter-shell/Src/shell.c ****     return 11 - i;
 507:ThirdParty/Letter-shell/Src/shell.c **** }
 508:ThirdParty/Letter-shell/Src/shell.c **** 
 509:ThirdParty/Letter-shell/Src/shell.c **** 
 510:ThirdParty/Letter-shell/Src/shell.c **** /**
 511:ThirdParty/Letter-shell/Src/shell.c ****  * @brief shell字符串复制
 512:ThirdParty/Letter-shell/Src/shell.c ****  * 
 513:ThirdParty/Letter-shell/Src/shell.c ****  * @param dest 目标字符串
 514:ThirdParty/Letter-shell/Src/shell.c ****  * @param src 源字符串
 515:ThirdParty/Letter-shell/Src/shell.c ****  * @return unsigned short 字符串长度
 516:ThirdParty/Letter-shell/Src/shell.c ****  */
 517:ThirdParty/Letter-shell/Src/shell.c **** static unsigned short shellStringCopy(char *dest, char* src)
 518:ThirdParty/Letter-shell/Src/shell.c **** {
 247              		.loc 1 518 1 is_stmt 1 view -0
 248              		.cfi_startproc
 249              		@ args = 0, pretend = 0, frame = 0
 250              		@ frame_needed = 0, uses_anonymous_args = 0
 251              		@ link register save eliminated.
 252              		.loc 1 518 1 is_stmt 0 view .LVU57
 253 0000 0246     		mov	r2, r0
 519:ThirdParty/Letter-shell/Src/shell.c ****     unsigned short count = 0;
 254              		.loc 1 519 5 is_stmt 1 view .LVU58
 255              	.LVL24:
 520:ThirdParty/Letter-shell/Src/shell.c ****     while (*(src + count))
 256              		.loc 1 520 5 view .LVU59
 519:ThirdParty/Letter-shell/Src/shell.c ****     unsigned short count = 0;
 257              		.loc 1 519 20 is_stmt 0 view .LVU60
 258 0002 0020     		movs	r0, #0
 259              	.LVL25:
 260              		.loc 1 520 11 view .LVU61
 261 0004 02E0     		b	.L25
 262              	.LVL26:
 263              	.L26:
 521:ThirdParty/Letter-shell/Src/shell.c ****     {
 522:ThirdParty/Letter-shell/Src/shell.c ****         *(dest + count) = *(src + count);
 264              		.loc 1 522 9 is_stmt 1 view .LVU62
 265              		.loc 1 522 25 is_stmt 0 view .LVU63
 266 0006 1354     		strb	r3, [r2, r0]
 523:ThirdParty/Letter-shell/Src/shell.c ****         count++;
 267              		.loc 1 523 9 is_stmt 1 view .LVU64
 268              		.loc 1 523 14 is_stmt 0 view .LVU65
 269 0008 0130     		adds	r0, r0, #1
 270              	.LVL27:
 271              		.loc 1 523 14 view .LVU66
ARM GAS  /var/folders/h7/llxr0vxd5sd9z74__7r6nx9r0000gn/T//ccSPSBV9.s 			page 15


 272 000a 80B2     		uxth	r0, r0
 273              	.LVL28:
 274              	.L25:
 520:ThirdParty/Letter-shell/Src/shell.c ****     while (*(src + count))
 275              		.loc 1 520 12 is_stmt 1 view .LVU67
 276 000c 0B5C     		ldrb	r3, [r1, r0]	@ zero_extendqisi2
 277 000e 002B     		cmp	r3, #0
 278 0010 F9D1     		bne	.L26
 524:ThirdParty/Letter-shell/Src/shell.c ****     }
 525:ThirdParty/Letter-shell/Src/shell.c ****     *(dest + count) = 0;
 279              		.loc 1 525 5 view .LVU68
 280              		.loc 1 525 21 is_stmt 0 view .LVU69
 281 0012 1354     		strb	r3, [r2, r0]
 526:ThirdParty/Letter-shell/Src/shell.c ****     return count;
 282              		.loc 1 526 5 is_stmt 1 view .LVU70
 527:ThirdParty/Letter-shell/Src/shell.c **** }
 283              		.loc 1 527 1 is_stmt 0 view .LVU71
 284 0014 7047     		bx	lr
 285              		.cfi_endproc
 286              	.LFE15:
 288              		.section	.text.shellStringCompare,"ax",%progbits
 289              		.align	1
 290              		.syntax unified
 291              		.thumb
 292              		.thumb_func
 294              	shellStringCompare:
 295              	.LVL29:
 296              	.LFB16:
 528:ThirdParty/Letter-shell/Src/shell.c **** 
 529:ThirdParty/Letter-shell/Src/shell.c **** 
 530:ThirdParty/Letter-shell/Src/shell.c **** /**
 531:ThirdParty/Letter-shell/Src/shell.c ****  * @brief shell字符串比较
 532:ThirdParty/Letter-shell/Src/shell.c ****  * 
 533:ThirdParty/Letter-shell/Src/shell.c ****  * @param dest 目标字符串
 534:ThirdParty/Letter-shell/Src/shell.c ****  * @param src 源字符串
 535:ThirdParty/Letter-shell/Src/shell.c ****  * @return unsigned short 匹配长度
 536:ThirdParty/Letter-shell/Src/shell.c ****  */
 537:ThirdParty/Letter-shell/Src/shell.c **** static unsigned short shellStringCompare(char* dest, char *src)
 538:ThirdParty/Letter-shell/Src/shell.c **** {
 297              		.loc 1 538 1 is_stmt 1 view -0
 298              		.cfi_startproc
 299              		@ args = 0, pretend = 0, frame = 0
 300              		@ frame_needed = 0, uses_anonymous_args = 0
 301              		@ link register save eliminated.
 302              		.loc 1 538 1 is_stmt 0 view .LVU73
 303 0000 8446     		mov	ip, r0
 539:ThirdParty/Letter-shell/Src/shell.c ****     unsigned short match = 0;
 304              		.loc 1 539 5 is_stmt 1 view .LVU74
 305              	.LVL30:
 540:ThirdParty/Letter-shell/Src/shell.c ****     unsigned short i = 0;
 306              		.loc 1 540 5 view .LVU75
 541:ThirdParty/Letter-shell/Src/shell.c **** 
 542:ThirdParty/Letter-shell/Src/shell.c ****     while (*(dest +i) && *(src + i))
 307              		.loc 1 542 5 view .LVU76
 540:ThirdParty/Letter-shell/Src/shell.c ****     unsigned short i = 0;
 308              		.loc 1 540 20 is_stmt 0 view .LVU77
 309 0002 0023     		movs	r3, #0
ARM GAS  /var/folders/h7/llxr0vxd5sd9z74__7r6nx9r0000gn/T//ccSPSBV9.s 			page 16


 539:ThirdParty/Letter-shell/Src/shell.c ****     unsigned short i = 0;
 310              		.loc 1 539 20 view .LVU78
 311 0004 1846     		mov	r0, r3
 312              	.LVL31:
 313              		.loc 1 542 23 is_stmt 1 view .LVU79
 314              		.loc 1 542 12 is_stmt 0 view .LVU80
 315 0006 1CF80320 		ldrb	r2, [ip, r3]	@ zero_extendqisi2
 316              		.loc 1 542 23 view .LVU81
 317 000a 7AB1     		cbz	r2, .L36
 538:ThirdParty/Letter-shell/Src/shell.c ****     unsigned short match = 0;
 318              		.loc 1 538 1 view .LVU82
 319 000c 10B4     		push	{r4}
 320              	.LCFI4:
 321              		.cfi_def_cfa_offset 4
 322              		.cfi_offset 4, -4
 323              	.LVL32:
 324              	.L33:
 325              		.loc 1 542 26 discriminator 1 view .LVU83
 326 000e CC5C     		ldrb	r4, [r1, r3]	@ zero_extendqisi2
 327              		.loc 1 542 23 discriminator 1 view .LVU84
 328 0010 4CB1     		cbz	r4, .L29
 543:ThirdParty/Letter-shell/Src/shell.c ****     {
 544:ThirdParty/Letter-shell/Src/shell.c ****         if (*(dest + i) != *(src +i))
 329              		.loc 1 544 9 is_stmt 1 view .LVU85
 330              		.loc 1 544 12 is_stmt 0 view .LVU86
 331 0012 A242     		cmp	r2, r4
 332 0014 07D1     		bne	.L29
 545:ThirdParty/Letter-shell/Src/shell.c ****         {
 546:ThirdParty/Letter-shell/Src/shell.c ****             break;
 547:ThirdParty/Letter-shell/Src/shell.c ****         }
 548:ThirdParty/Letter-shell/Src/shell.c ****         match ++;
 333              		.loc 1 548 9 is_stmt 1 view .LVU87
 334              		.loc 1 548 15 is_stmt 0 view .LVU88
 335 0016 0130     		adds	r0, r0, #1
 336 0018 80B2     		uxth	r0, r0
 337              	.LVL33:
 549:ThirdParty/Letter-shell/Src/shell.c ****         i++;
 338              		.loc 1 549 9 is_stmt 1 view .LVU89
 339              		.loc 1 549 10 is_stmt 0 view .LVU90
 340 001a 0133     		adds	r3, r3, #1
 341              	.LVL34:
 342              		.loc 1 549 10 view .LVU91
 343 001c 9BB2     		uxth	r3, r3
 344              	.LVL35:
 542:ThirdParty/Letter-shell/Src/shell.c ****     {
 345              		.loc 1 542 23 is_stmt 1 view .LVU92
 542:ThirdParty/Letter-shell/Src/shell.c ****     {
 346              		.loc 1 542 12 is_stmt 0 view .LVU93
 347 001e 1CF80320 		ldrb	r2, [ip, r3]	@ zero_extendqisi2
 542:ThirdParty/Letter-shell/Src/shell.c ****     {
 348              		.loc 1 542 23 view .LVU94
 349 0022 002A     		cmp	r2, #0
 350 0024 F3D1     		bne	.L33
 351              	.LVL36:
 352              	.L29:
 550:ThirdParty/Letter-shell/Src/shell.c ****     }
 551:ThirdParty/Letter-shell/Src/shell.c ****     return match;
ARM GAS  /var/folders/h7/llxr0vxd5sd9z74__7r6nx9r0000gn/T//ccSPSBV9.s 			page 17


 353              		.loc 1 551 5 is_stmt 1 view .LVU95
 552:ThirdParty/Letter-shell/Src/shell.c **** }
 354              		.loc 1 552 1 is_stmt 0 view .LVU96
 355 0026 5DF8044B 		ldr	r4, [sp], #4
 356              	.LCFI5:
 357              		.cfi_restore 4
 358              		.cfi_def_cfa_offset 0
 359 002a 7047     		bx	lr
 360              	.LVL37:
 361              	.L36:
 551:ThirdParty/Letter-shell/Src/shell.c **** }
 362              		.loc 1 551 5 is_stmt 1 view .LVU97
 363              		.loc 1 552 1 is_stmt 0 view .LVU98
 364 002c 7047     		bx	lr
 365              		.cfi_endproc
 366              	.LFE16:
 368              		.section	.text.shellGetCommandDesc,"ax",%progbits
 369              		.align	1
 370              		.syntax unified
 371              		.thumb
 372              		.thumb_func
 374              	shellGetCommandDesc:
 375              	.LVL38:
 376              	.LFB18:
 553:ThirdParty/Letter-shell/Src/shell.c **** 
 554:ThirdParty/Letter-shell/Src/shell.c **** 
 555:ThirdParty/Letter-shell/Src/shell.c **** /**
 556:ThirdParty/Letter-shell/Src/shell.c ****  * @brief shell获取命令名
 557:ThirdParty/Letter-shell/Src/shell.c ****  * 
 558:ThirdParty/Letter-shell/Src/shell.c ****  * @param command 命令
 559:ThirdParty/Letter-shell/Src/shell.c ****  * @return const char* 命令名
 560:ThirdParty/Letter-shell/Src/shell.c ****  */
 561:ThirdParty/Letter-shell/Src/shell.c **** static const char* shellGetCommandName(ShellCommand *command)
 562:ThirdParty/Letter-shell/Src/shell.c **** {
 563:ThirdParty/Letter-shell/Src/shell.c ****     static char buffer[9];
 564:ThirdParty/Letter-shell/Src/shell.c ****     for (unsigned char i = 0; i < 9; i++)
 565:ThirdParty/Letter-shell/Src/shell.c ****     {
 566:ThirdParty/Letter-shell/Src/shell.c ****         buffer[i] = '0';
 567:ThirdParty/Letter-shell/Src/shell.c ****     }
 568:ThirdParty/Letter-shell/Src/shell.c ****     if (command->attr.attrs.type <= SHELL_TYPE_CMD_FUNC)
 569:ThirdParty/Letter-shell/Src/shell.c ****     {
 570:ThirdParty/Letter-shell/Src/shell.c ****         return command->data.cmd.name;
 571:ThirdParty/Letter-shell/Src/shell.c ****     }
 572:ThirdParty/Letter-shell/Src/shell.c ****     else if (command->attr.attrs.type <= SHELL_TYPE_VAR_NODE)
 573:ThirdParty/Letter-shell/Src/shell.c ****     {
 574:ThirdParty/Letter-shell/Src/shell.c ****         return command->data.var.name;
 575:ThirdParty/Letter-shell/Src/shell.c ****     }
 576:ThirdParty/Letter-shell/Src/shell.c ****     else if (command->attr.attrs.type <= SHELL_TYPE_USER)
 577:ThirdParty/Letter-shell/Src/shell.c ****     {
 578:ThirdParty/Letter-shell/Src/shell.c ****         return command->data.user.name;
 579:ThirdParty/Letter-shell/Src/shell.c ****     }
 580:ThirdParty/Letter-shell/Src/shell.c **** #if SHELL_USING_FUNC_SIGNATURE == 1
 581:ThirdParty/Letter-shell/Src/shell.c ****     else if (command->attr.attrs.type == SHELL_TYPE_PARAM_PARSER)
 582:ThirdParty/Letter-shell/Src/shell.c ****     {
 583:ThirdParty/Letter-shell/Src/shell.c ****         return command->data.paramParser.type;
 584:ThirdParty/Letter-shell/Src/shell.c ****     }
 585:ThirdParty/Letter-shell/Src/shell.c **** #endif
ARM GAS  /var/folders/h7/llxr0vxd5sd9z74__7r6nx9r0000gn/T//ccSPSBV9.s 			page 18


 586:ThirdParty/Letter-shell/Src/shell.c ****     else
 587:ThirdParty/Letter-shell/Src/shell.c ****     {
 588:ThirdParty/Letter-shell/Src/shell.c ****         shellToHex(command->data.key.value, buffer);
 589:ThirdParty/Letter-shell/Src/shell.c ****         return buffer;
 590:ThirdParty/Letter-shell/Src/shell.c ****     }
 591:ThirdParty/Letter-shell/Src/shell.c **** }
 592:ThirdParty/Letter-shell/Src/shell.c **** 
 593:ThirdParty/Letter-shell/Src/shell.c **** 
 594:ThirdParty/Letter-shell/Src/shell.c **** /**
 595:ThirdParty/Letter-shell/Src/shell.c ****  * @brief shell获取命令描述
 596:ThirdParty/Letter-shell/Src/shell.c ****  * 
 597:ThirdParty/Letter-shell/Src/shell.c ****  * @param command 命令
 598:ThirdParty/Letter-shell/Src/shell.c ****  * @return const char* 命令描述
 599:ThirdParty/Letter-shell/Src/shell.c ****  */
 600:ThirdParty/Letter-shell/Src/shell.c **** static const char* shellGetCommandDesc(ShellCommand *command)
 601:ThirdParty/Letter-shell/Src/shell.c **** {
 377              		.loc 1 601 1 is_stmt 1 view -0
 378              		.cfi_startproc
 379              		@ args = 0, pretend = 0, frame = 0
 380              		@ frame_needed = 0, uses_anonymous_args = 0
 381              		@ link register save eliminated.
 602:ThirdParty/Letter-shell/Src/shell.c ****     if (command->attr.attrs.type <= SHELL_TYPE_CMD_FUNC)
 382              		.loc 1 602 5 view .LVU100
 383              		.loc 1 602 28 is_stmt 0 view .LVU101
 384 0000 4378     		ldrb	r3, [r0, #1]	@ zero_extendqisi2
 385 0002 03F00F03 		and	r3, r3, #15
 386              		.loc 1 602 8 view .LVU102
 387 0006 012B     		cmp	r3, #1
 388 0008 05D9     		bls	.L42
 603:ThirdParty/Letter-shell/Src/shell.c ****     {
 604:ThirdParty/Letter-shell/Src/shell.c ****         return command->data.cmd.desc;
 605:ThirdParty/Letter-shell/Src/shell.c ****     }
 606:ThirdParty/Letter-shell/Src/shell.c ****     else if (command->attr.attrs.type <= SHELL_TYPE_VAR_NODE)
 389              		.loc 1 606 10 is_stmt 1 view .LVU103
 390              		.loc 1 606 13 is_stmt 0 view .LVU104
 391 000a 072B     		cmp	r3, #7
 392 000c 05D9     		bls	.L43
 607:ThirdParty/Letter-shell/Src/shell.c ****     {
 608:ThirdParty/Letter-shell/Src/shell.c ****         return command->data.var.desc;
 609:ThirdParty/Letter-shell/Src/shell.c ****     }
 610:ThirdParty/Letter-shell/Src/shell.c ****     else if (command->attr.attrs.type <= SHELL_TYPE_USER)
 393              		.loc 1 610 10 is_stmt 1 view .LVU105
 394              		.loc 1 610 13 is_stmt 0 view .LVU106
 395 000e 082B     		cmp	r3, #8
 396 0010 05D8     		bhi	.L41
 611:ThirdParty/Letter-shell/Src/shell.c ****     {
 612:ThirdParty/Letter-shell/Src/shell.c ****         return command->data.user.desc;
 397              		.loc 1 612 9 is_stmt 1 view .LVU107
 398              		.loc 1 612 34 is_stmt 0 view .LVU108
 399 0012 C068     		ldr	r0, [r0, #12]
 400              	.LVL39:
 401              		.loc 1 612 34 view .LVU109
 402 0014 7047     		bx	lr
 403              	.LVL40:
 404              	.L42:
 604:ThirdParty/Letter-shell/Src/shell.c ****     }
 405              		.loc 1 604 9 is_stmt 1 view .LVU110
ARM GAS  /var/folders/h7/llxr0vxd5sd9z74__7r6nx9r0000gn/T//ccSPSBV9.s 			page 19


 604:ThirdParty/Letter-shell/Src/shell.c ****     }
 406              		.loc 1 604 33 is_stmt 0 view .LVU111
 407 0016 C068     		ldr	r0, [r0, #12]
 408              	.LVL41:
 604:ThirdParty/Letter-shell/Src/shell.c ****     }
 409              		.loc 1 604 33 view .LVU112
 410 0018 7047     		bx	lr
 411              	.LVL42:
 412              	.L43:
 608:ThirdParty/Letter-shell/Src/shell.c ****     }
 413              		.loc 1 608 9 is_stmt 1 view .LVU113
 608:ThirdParty/Letter-shell/Src/shell.c ****     }
 414              		.loc 1 608 33 is_stmt 0 view .LVU114
 415 001a C068     		ldr	r0, [r0, #12]
 416              	.LVL43:
 608:ThirdParty/Letter-shell/Src/shell.c ****     }
 417              		.loc 1 608 33 view .LVU115
 418 001c 7047     		bx	lr
 419              	.LVL44:
 420              	.L41:
 613:ThirdParty/Letter-shell/Src/shell.c ****     }
 614:ThirdParty/Letter-shell/Src/shell.c ****     else
 615:ThirdParty/Letter-shell/Src/shell.c ****     {
 616:ThirdParty/Letter-shell/Src/shell.c ****         return command->data.key.desc;
 421              		.loc 1 616 9 is_stmt 1 view .LVU116
 422              		.loc 1 616 33 is_stmt 0 view .LVU117
 423 001e C068     		ldr	r0, [r0, #12]
 424              	.LVL45:
 617:ThirdParty/Letter-shell/Src/shell.c ****     }
 618:ThirdParty/Letter-shell/Src/shell.c **** }
 425              		.loc 1 618 1 view .LVU118
 426 0020 7047     		bx	lr
 427              		.cfi_endproc
 428              	.LFE18:
 430              		.section	.text.shellParserParam,"ax",%progbits
 431              		.align	1
 432              		.syntax unified
 433              		.thumb
 434              		.thumb_func
 436              	shellParserParam:
 437              	.LVL46:
 438              	.LFB29:
 619:ThirdParty/Letter-shell/Src/shell.c **** 
 620:ThirdParty/Letter-shell/Src/shell.c **** /**
 621:ThirdParty/Letter-shell/Src/shell.c ****  * @brief shell 列出命令条目
 622:ThirdParty/Letter-shell/Src/shell.c ****  * 
 623:ThirdParty/Letter-shell/Src/shell.c ****  * @param shell shell对象
 624:ThirdParty/Letter-shell/Src/shell.c ****  * @param item 命令条目
 625:ThirdParty/Letter-shell/Src/shell.c ****  */
 626:ThirdParty/Letter-shell/Src/shell.c **** void shellListItem(Shell *shell, ShellCommand *item)
 627:ThirdParty/Letter-shell/Src/shell.c **** {
 628:ThirdParty/Letter-shell/Src/shell.c ****     short spaceLength;
 629:ThirdParty/Letter-shell/Src/shell.c **** 
 630:ThirdParty/Letter-shell/Src/shell.c ****     spaceLength = 22 - shellWriteString(shell, shellGetCommandName(item));
 631:ThirdParty/Letter-shell/Src/shell.c ****     spaceLength = (spaceLength > 0) ? spaceLength : 4;
 632:ThirdParty/Letter-shell/Src/shell.c ****     do {
 633:ThirdParty/Letter-shell/Src/shell.c ****         shellWriteByte(shell, ' ');
ARM GAS  /var/folders/h7/llxr0vxd5sd9z74__7r6nx9r0000gn/T//ccSPSBV9.s 			page 20


 634:ThirdParty/Letter-shell/Src/shell.c ****     } while (--spaceLength);
 635:ThirdParty/Letter-shell/Src/shell.c ****     if (item->attr.attrs.type <= SHELL_TYPE_CMD_FUNC)
 636:ThirdParty/Letter-shell/Src/shell.c ****     {
 637:ThirdParty/Letter-shell/Src/shell.c ****         shellWriteString(shell, shellText[SHELL_TEXT_TYPE_CMD]);
 638:ThirdParty/Letter-shell/Src/shell.c ****     }
 639:ThirdParty/Letter-shell/Src/shell.c ****     else if (item->attr.attrs.type <= SHELL_TYPE_VAR_NODE)
 640:ThirdParty/Letter-shell/Src/shell.c ****     {
 641:ThirdParty/Letter-shell/Src/shell.c ****         shellWriteString(shell, shellText[SHELL_TEXT_TYPE_VAR]);
 642:ThirdParty/Letter-shell/Src/shell.c ****     }
 643:ThirdParty/Letter-shell/Src/shell.c ****     else if (item->attr.attrs.type <= SHELL_TYPE_USER)
 644:ThirdParty/Letter-shell/Src/shell.c ****     {
 645:ThirdParty/Letter-shell/Src/shell.c ****         shellWriteString(shell, shellText[SHELL_TEXT_TYPE_USER]);
 646:ThirdParty/Letter-shell/Src/shell.c ****     }
 647:ThirdParty/Letter-shell/Src/shell.c ****     else if (item->attr.attrs.type <= SHELL_TYPE_KEY)
 648:ThirdParty/Letter-shell/Src/shell.c ****     {
 649:ThirdParty/Letter-shell/Src/shell.c ****         shellWriteString(shell, shellText[SHELL_TEXT_TYPE_KEY]);
 650:ThirdParty/Letter-shell/Src/shell.c ****     }
 651:ThirdParty/Letter-shell/Src/shell.c ****     else
 652:ThirdParty/Letter-shell/Src/shell.c ****     {
 653:ThirdParty/Letter-shell/Src/shell.c ****         shellWriteString(shell, shellText[SHELL_TEXT_TYPE_NONE]);
 654:ThirdParty/Letter-shell/Src/shell.c ****     }
 655:ThirdParty/Letter-shell/Src/shell.c **** #if SHELL_HELP_SHOW_PERMISSION == 1
 656:ThirdParty/Letter-shell/Src/shell.c ****     shellWriteString(shell, "  ");
 657:ThirdParty/Letter-shell/Src/shell.c ****     for (signed char i = 7; i >= 0; i--)
 658:ThirdParty/Letter-shell/Src/shell.c ****     {
 659:ThirdParty/Letter-shell/Src/shell.c ****         shellWriteByte(shell, item->attr.attrs.permission & (1 << i) ? 'x' : '-');
 660:ThirdParty/Letter-shell/Src/shell.c ****     }
 661:ThirdParty/Letter-shell/Src/shell.c **** #endif
 662:ThirdParty/Letter-shell/Src/shell.c ****     shellWriteString(shell, "  ");
 663:ThirdParty/Letter-shell/Src/shell.c ****     shellWriteCommandDesc(shell, shellGetCommandDesc(item));
 664:ThirdParty/Letter-shell/Src/shell.c ****     shellWriteString(shell, "\r\n");
 665:ThirdParty/Letter-shell/Src/shell.c **** }
 666:ThirdParty/Letter-shell/Src/shell.c **** 
 667:ThirdParty/Letter-shell/Src/shell.c **** 
 668:ThirdParty/Letter-shell/Src/shell.c **** /**
 669:ThirdParty/Letter-shell/Src/shell.c ****  * @brief shell列出可执行命令
 670:ThirdParty/Letter-shell/Src/shell.c ****  * 
 671:ThirdParty/Letter-shell/Src/shell.c ****  * @param shell shell对象
 672:ThirdParty/Letter-shell/Src/shell.c ****  */
 673:ThirdParty/Letter-shell/Src/shell.c **** void shellListCommand(Shell *shell)
 674:ThirdParty/Letter-shell/Src/shell.c **** {
 675:ThirdParty/Letter-shell/Src/shell.c ****     ShellCommand *base = (ShellCommand *)shell->commandList.base;
 676:ThirdParty/Letter-shell/Src/shell.c ****     shellWriteString(shell, shellText[SHELL_TEXT_CMD_LIST]);
 677:ThirdParty/Letter-shell/Src/shell.c ****     for (short i = 0; i < shell->commandList.count; i++)
 678:ThirdParty/Letter-shell/Src/shell.c ****     {
 679:ThirdParty/Letter-shell/Src/shell.c ****         if (base[i].attr.attrs.type <= SHELL_TYPE_CMD_FUNC
 680:ThirdParty/Letter-shell/Src/shell.c ****             && shellCheckPermission(shell, &base[i]) == 0)
 681:ThirdParty/Letter-shell/Src/shell.c ****         {
 682:ThirdParty/Letter-shell/Src/shell.c ****             shellListItem(shell, &base[i]);
 683:ThirdParty/Letter-shell/Src/shell.c ****         }
 684:ThirdParty/Letter-shell/Src/shell.c ****     }
 685:ThirdParty/Letter-shell/Src/shell.c **** }
 686:ThirdParty/Letter-shell/Src/shell.c **** 
 687:ThirdParty/Letter-shell/Src/shell.c **** 
 688:ThirdParty/Letter-shell/Src/shell.c **** /**
 689:ThirdParty/Letter-shell/Src/shell.c ****  * @brief shell列出变量
 690:ThirdParty/Letter-shell/Src/shell.c ****  * 
ARM GAS  /var/folders/h7/llxr0vxd5sd9z74__7r6nx9r0000gn/T//ccSPSBV9.s 			page 21


 691:ThirdParty/Letter-shell/Src/shell.c ****  * @param shell shell对象
 692:ThirdParty/Letter-shell/Src/shell.c ****  */
 693:ThirdParty/Letter-shell/Src/shell.c **** void shellListVar(Shell *shell)
 694:ThirdParty/Letter-shell/Src/shell.c **** {
 695:ThirdParty/Letter-shell/Src/shell.c ****     ShellCommand *base = (ShellCommand *)shell->commandList.base;
 696:ThirdParty/Letter-shell/Src/shell.c ****     shellWriteString(shell, shellText[SHELL_TEXT_VAR_LIST]);
 697:ThirdParty/Letter-shell/Src/shell.c ****     for (short i = 0; i < shell->commandList.count; i++)
 698:ThirdParty/Letter-shell/Src/shell.c ****     {
 699:ThirdParty/Letter-shell/Src/shell.c ****         if (base[i].attr.attrs.type > SHELL_TYPE_CMD_FUNC
 700:ThirdParty/Letter-shell/Src/shell.c ****             && base[i].attr.attrs.type <= SHELL_TYPE_VAR_NODE
 701:ThirdParty/Letter-shell/Src/shell.c ****             && shellCheckPermission(shell, &base[i]) == 0)
 702:ThirdParty/Letter-shell/Src/shell.c ****         {
 703:ThirdParty/Letter-shell/Src/shell.c ****             shellListItem(shell, &base[i]);
 704:ThirdParty/Letter-shell/Src/shell.c ****         }
 705:ThirdParty/Letter-shell/Src/shell.c ****     }
 706:ThirdParty/Letter-shell/Src/shell.c **** }
 707:ThirdParty/Letter-shell/Src/shell.c **** 
 708:ThirdParty/Letter-shell/Src/shell.c **** 
 709:ThirdParty/Letter-shell/Src/shell.c **** /**
 710:ThirdParty/Letter-shell/Src/shell.c ****  * @brief shell列出用户
 711:ThirdParty/Letter-shell/Src/shell.c ****  * 
 712:ThirdParty/Letter-shell/Src/shell.c ****  * @param shell shell对象
 713:ThirdParty/Letter-shell/Src/shell.c ****  */
 714:ThirdParty/Letter-shell/Src/shell.c **** void shellListUser(Shell *shell)
 715:ThirdParty/Letter-shell/Src/shell.c **** {
 716:ThirdParty/Letter-shell/Src/shell.c ****     ShellCommand *base = (ShellCommand *)shell->commandList.base;
 717:ThirdParty/Letter-shell/Src/shell.c ****     shellWriteString(shell, shellText[SHELL_TEXT_USER_LIST]);
 718:ThirdParty/Letter-shell/Src/shell.c ****     for (short i = 0; i < shell->commandList.count; i++)
 719:ThirdParty/Letter-shell/Src/shell.c ****     {
 720:ThirdParty/Letter-shell/Src/shell.c ****         if (base[i].attr.attrs.type > SHELL_TYPE_VAR_NODE
 721:ThirdParty/Letter-shell/Src/shell.c ****             && base[i].attr.attrs.type <= SHELL_TYPE_USER
 722:ThirdParty/Letter-shell/Src/shell.c ****             && shellCheckPermission(shell, &base[i]) == 0)
 723:ThirdParty/Letter-shell/Src/shell.c ****         {
 724:ThirdParty/Letter-shell/Src/shell.c ****             shellListItem(shell, &base[i]);
 725:ThirdParty/Letter-shell/Src/shell.c ****         }
 726:ThirdParty/Letter-shell/Src/shell.c ****     }
 727:ThirdParty/Letter-shell/Src/shell.c **** }
 728:ThirdParty/Letter-shell/Src/shell.c **** 
 729:ThirdParty/Letter-shell/Src/shell.c **** 
 730:ThirdParty/Letter-shell/Src/shell.c **** /**
 731:ThirdParty/Letter-shell/Src/shell.c ****  * @brief shell列出按键
 732:ThirdParty/Letter-shell/Src/shell.c ****  * 
 733:ThirdParty/Letter-shell/Src/shell.c ****  * @param shell shell对象
 734:ThirdParty/Letter-shell/Src/shell.c ****  */
 735:ThirdParty/Letter-shell/Src/shell.c **** void shellListKey(Shell *shell)
 736:ThirdParty/Letter-shell/Src/shell.c **** {
 737:ThirdParty/Letter-shell/Src/shell.c ****     ShellCommand *base = (ShellCommand *)shell->commandList.base;
 738:ThirdParty/Letter-shell/Src/shell.c ****     shellWriteString(shell, shellText[SHELL_TEXT_KEY_LIST]);
 739:ThirdParty/Letter-shell/Src/shell.c ****     for (short i = 0; i < shell->commandList.count; i++)
 740:ThirdParty/Letter-shell/Src/shell.c ****     {
 741:ThirdParty/Letter-shell/Src/shell.c ****         if (base[i].attr.attrs.type > SHELL_TYPE_USER
 742:ThirdParty/Letter-shell/Src/shell.c ****             && base[i].attr.attrs.type <= SHELL_TYPE_KEY
 743:ThirdParty/Letter-shell/Src/shell.c ****             && shellCheckPermission(shell, &base[i]) == 0)
 744:ThirdParty/Letter-shell/Src/shell.c ****         {
 745:ThirdParty/Letter-shell/Src/shell.c ****             shellListItem(shell, &base[i]);
 746:ThirdParty/Letter-shell/Src/shell.c ****         }
 747:ThirdParty/Letter-shell/Src/shell.c ****     }
ARM GAS  /var/folders/h7/llxr0vxd5sd9z74__7r6nx9r0000gn/T//ccSPSBV9.s 			page 22


 748:ThirdParty/Letter-shell/Src/shell.c **** }
 749:ThirdParty/Letter-shell/Src/shell.c **** 
 750:ThirdParty/Letter-shell/Src/shell.c **** 
 751:ThirdParty/Letter-shell/Src/shell.c **** /**
 752:ThirdParty/Letter-shell/Src/shell.c ****  * @brief shell列出所有命令
 753:ThirdParty/Letter-shell/Src/shell.c ****  * 
 754:ThirdParty/Letter-shell/Src/shell.c ****  * @param shell shell对象
 755:ThirdParty/Letter-shell/Src/shell.c ****  */
 756:ThirdParty/Letter-shell/Src/shell.c **** void shellListAll(Shell *shell)
 757:ThirdParty/Letter-shell/Src/shell.c **** {
 758:ThirdParty/Letter-shell/Src/shell.c **** #if SHELL_HELP_LIST_USER == 1
 759:ThirdParty/Letter-shell/Src/shell.c ****     shellListUser(shell);
 760:ThirdParty/Letter-shell/Src/shell.c **** #endif
 761:ThirdParty/Letter-shell/Src/shell.c ****     shellListCommand(shell);
 762:ThirdParty/Letter-shell/Src/shell.c **** #if SHELL_HELP_LIST_VAR == 1
 763:ThirdParty/Letter-shell/Src/shell.c ****     shellListVar(shell);
 764:ThirdParty/Letter-shell/Src/shell.c **** #endif
 765:ThirdParty/Letter-shell/Src/shell.c **** #if SHELL_HELP_LIST_KEY == 1
 766:ThirdParty/Letter-shell/Src/shell.c ****     shellListKey(shell);
 767:ThirdParty/Letter-shell/Src/shell.c **** #endif
 768:ThirdParty/Letter-shell/Src/shell.c **** }
 769:ThirdParty/Letter-shell/Src/shell.c **** 
 770:ThirdParty/Letter-shell/Src/shell.c **** 
 771:ThirdParty/Letter-shell/Src/shell.c **** /**
 772:ThirdParty/Letter-shell/Src/shell.c ****  * @brief shell删除命令行数据
 773:ThirdParty/Letter-shell/Src/shell.c ****  * 
 774:ThirdParty/Letter-shell/Src/shell.c ****  * @param shell shell对象
 775:ThirdParty/Letter-shell/Src/shell.c ****  * @param length 删除长度
 776:ThirdParty/Letter-shell/Src/shell.c ****  */
 777:ThirdParty/Letter-shell/Src/shell.c **** void shellDeleteCommandLine(Shell *shell, unsigned char length)
 778:ThirdParty/Letter-shell/Src/shell.c **** {
 779:ThirdParty/Letter-shell/Src/shell.c ****     while (length--)
 780:ThirdParty/Letter-shell/Src/shell.c ****     {
 781:ThirdParty/Letter-shell/Src/shell.c ****         shellWriteString(shell, "\b \b");
 782:ThirdParty/Letter-shell/Src/shell.c ****     }
 783:ThirdParty/Letter-shell/Src/shell.c **** }
 784:ThirdParty/Letter-shell/Src/shell.c **** 
 785:ThirdParty/Letter-shell/Src/shell.c **** 
 786:ThirdParty/Letter-shell/Src/shell.c **** /**
 787:ThirdParty/Letter-shell/Src/shell.c ****  * @brief shell 清空命令行输入
 788:ThirdParty/Letter-shell/Src/shell.c ****  * 
 789:ThirdParty/Letter-shell/Src/shell.c ****  * @param shell shell对象
 790:ThirdParty/Letter-shell/Src/shell.c ****  */
 791:ThirdParty/Letter-shell/Src/shell.c **** void shellClearCommandLine(Shell *shell)
 792:ThirdParty/Letter-shell/Src/shell.c **** {
 793:ThirdParty/Letter-shell/Src/shell.c ****     for (short i = shell->parser.length - shell->parser.cursor; i > 0; i--)
 794:ThirdParty/Letter-shell/Src/shell.c ****     {
 795:ThirdParty/Letter-shell/Src/shell.c ****         shellWriteByte(shell, ' ');
 796:ThirdParty/Letter-shell/Src/shell.c ****     }
 797:ThirdParty/Letter-shell/Src/shell.c ****     shellDeleteCommandLine(shell, shell->parser.length);
 798:ThirdParty/Letter-shell/Src/shell.c **** }
 799:ThirdParty/Letter-shell/Src/shell.c **** 
 800:ThirdParty/Letter-shell/Src/shell.c **** 
 801:ThirdParty/Letter-shell/Src/shell.c **** /**
 802:ThirdParty/Letter-shell/Src/shell.c ****  * @brief shell插入一个字符到光标位置
 803:ThirdParty/Letter-shell/Src/shell.c ****  * 
 804:ThirdParty/Letter-shell/Src/shell.c ****  * @param shell shell对象
ARM GAS  /var/folders/h7/llxr0vxd5sd9z74__7r6nx9r0000gn/T//ccSPSBV9.s 			page 23


 805:ThirdParty/Letter-shell/Src/shell.c ****  * @param data 字符数据
 806:ThirdParty/Letter-shell/Src/shell.c ****  */
 807:ThirdParty/Letter-shell/Src/shell.c **** void shellInsertByte(Shell *shell, char data)
 808:ThirdParty/Letter-shell/Src/shell.c **** {
 809:ThirdParty/Letter-shell/Src/shell.c ****     /* 判断输入数据是否过长 */
 810:ThirdParty/Letter-shell/Src/shell.c ****     if (shell->parser.length >= shell->parser.bufferSize - 1)
 811:ThirdParty/Letter-shell/Src/shell.c ****     {
 812:ThirdParty/Letter-shell/Src/shell.c ****         shellWriteString(shell, shellText[SHELL_TEXT_CMD_TOO_LONG]);
 813:ThirdParty/Letter-shell/Src/shell.c ****         shellWritePrompt(shell, 1);
 814:ThirdParty/Letter-shell/Src/shell.c ****         shellWriteString(shell, shell->parser.buffer);
 815:ThirdParty/Letter-shell/Src/shell.c ****         return;
 816:ThirdParty/Letter-shell/Src/shell.c ****     }
 817:ThirdParty/Letter-shell/Src/shell.c **** 
 818:ThirdParty/Letter-shell/Src/shell.c ****     /* 插入数据 */
 819:ThirdParty/Letter-shell/Src/shell.c ****     if (shell->parser.cursor == shell->parser.length)
 820:ThirdParty/Letter-shell/Src/shell.c ****     {
 821:ThirdParty/Letter-shell/Src/shell.c ****         shell->parser.buffer[shell->parser.length++] = data;
 822:ThirdParty/Letter-shell/Src/shell.c ****         shell->parser.buffer[shell->parser.length] = 0;
 823:ThirdParty/Letter-shell/Src/shell.c ****         shell->parser.cursor++;
 824:ThirdParty/Letter-shell/Src/shell.c ****         shellWriteByte(shell, data);
 825:ThirdParty/Letter-shell/Src/shell.c ****     }
 826:ThirdParty/Letter-shell/Src/shell.c ****     else if (shell->parser.cursor < shell->parser.length)
 827:ThirdParty/Letter-shell/Src/shell.c ****     {
 828:ThirdParty/Letter-shell/Src/shell.c ****         for (short i = shell->parser.length - shell->parser.cursor; i > 0; i--)
 829:ThirdParty/Letter-shell/Src/shell.c ****         {
 830:ThirdParty/Letter-shell/Src/shell.c ****             shell->parser.buffer[shell->parser.cursor + i] = 
 831:ThirdParty/Letter-shell/Src/shell.c ****                 shell->parser.buffer[shell->parser.cursor + i - 1];
 832:ThirdParty/Letter-shell/Src/shell.c ****         }
 833:ThirdParty/Letter-shell/Src/shell.c ****         shell->parser.buffer[shell->parser.cursor++] = data;
 834:ThirdParty/Letter-shell/Src/shell.c ****         shell->parser.buffer[++shell->parser.length] = 0;
 835:ThirdParty/Letter-shell/Src/shell.c ****         for (short i = shell->parser.cursor - 1; i < shell->parser.length; i++)
 836:ThirdParty/Letter-shell/Src/shell.c ****         {
 837:ThirdParty/Letter-shell/Src/shell.c ****             shellWriteByte(shell, shell->parser.buffer[i]);
 838:ThirdParty/Letter-shell/Src/shell.c ****         }
 839:ThirdParty/Letter-shell/Src/shell.c ****         for (short i = shell->parser.length - shell->parser.cursor; i > 0; i--)
 840:ThirdParty/Letter-shell/Src/shell.c ****         {
 841:ThirdParty/Letter-shell/Src/shell.c ****             shellWriteByte(shell, '\b');
 842:ThirdParty/Letter-shell/Src/shell.c ****         }
 843:ThirdParty/Letter-shell/Src/shell.c ****     }
 844:ThirdParty/Letter-shell/Src/shell.c **** }
 845:ThirdParty/Letter-shell/Src/shell.c **** 
 846:ThirdParty/Letter-shell/Src/shell.c **** 
 847:ThirdParty/Letter-shell/Src/shell.c **** /**
 848:ThirdParty/Letter-shell/Src/shell.c ****  * @brief shell 删除字节
 849:ThirdParty/Letter-shell/Src/shell.c ****  * 
 850:ThirdParty/Letter-shell/Src/shell.c ****  * @param shell shell对象
 851:ThirdParty/Letter-shell/Src/shell.c ****  * @param direction 删除方向 {@code 1}删除光标前字符 {@code -1}删除光标处字符
 852:ThirdParty/Letter-shell/Src/shell.c ****  */
 853:ThirdParty/Letter-shell/Src/shell.c **** void shellDeleteByte(Shell *shell, signed char direction)
 854:ThirdParty/Letter-shell/Src/shell.c **** {
 855:ThirdParty/Letter-shell/Src/shell.c ****     char offset = (direction == -1) ? 1 : 0;
 856:ThirdParty/Letter-shell/Src/shell.c **** 
 857:ThirdParty/Letter-shell/Src/shell.c ****     if ((shell->parser.cursor == 0 && direction == 1)
 858:ThirdParty/Letter-shell/Src/shell.c ****         || (shell->parser.cursor == shell->parser.length && direction == -1))
 859:ThirdParty/Letter-shell/Src/shell.c ****     {
 860:ThirdParty/Letter-shell/Src/shell.c ****         return;
 861:ThirdParty/Letter-shell/Src/shell.c ****     }
ARM GAS  /var/folders/h7/llxr0vxd5sd9z74__7r6nx9r0000gn/T//ccSPSBV9.s 			page 24


 862:ThirdParty/Letter-shell/Src/shell.c ****     if (shell->parser.cursor == shell->parser.length && direction == 1)
 863:ThirdParty/Letter-shell/Src/shell.c ****     {
 864:ThirdParty/Letter-shell/Src/shell.c ****         shell->parser.cursor--;
 865:ThirdParty/Letter-shell/Src/shell.c ****         shell->parser.length--;
 866:ThirdParty/Letter-shell/Src/shell.c ****         shell->parser.buffer[shell->parser.length] = 0;
 867:ThirdParty/Letter-shell/Src/shell.c ****         shellDeleteCommandLine(shell, 1);
 868:ThirdParty/Letter-shell/Src/shell.c ****     }
 869:ThirdParty/Letter-shell/Src/shell.c ****     else
 870:ThirdParty/Letter-shell/Src/shell.c ****     {
 871:ThirdParty/Letter-shell/Src/shell.c ****         for (short i = offset; i < shell->parser.length - shell->parser.cursor; i++)
 872:ThirdParty/Letter-shell/Src/shell.c ****         {
 873:ThirdParty/Letter-shell/Src/shell.c ****             shell->parser.buffer[shell->parser.cursor + i - 1] = 
 874:ThirdParty/Letter-shell/Src/shell.c ****                 shell->parser.buffer[shell->parser.cursor + i];
 875:ThirdParty/Letter-shell/Src/shell.c ****         }
 876:ThirdParty/Letter-shell/Src/shell.c ****         shell->parser.length--;
 877:ThirdParty/Letter-shell/Src/shell.c ****         if (!offset)
 878:ThirdParty/Letter-shell/Src/shell.c ****         {
 879:ThirdParty/Letter-shell/Src/shell.c ****             shell->parser.cursor--;
 880:ThirdParty/Letter-shell/Src/shell.c ****             shellWriteByte(shell, '\b');
 881:ThirdParty/Letter-shell/Src/shell.c ****         }
 882:ThirdParty/Letter-shell/Src/shell.c ****         shell->parser.buffer[shell->parser.length] = 0;
 883:ThirdParty/Letter-shell/Src/shell.c ****         for (short i = shell->parser.cursor; i < shell->parser.length; i++)
 884:ThirdParty/Letter-shell/Src/shell.c ****         {
 885:ThirdParty/Letter-shell/Src/shell.c ****             shellWriteByte(shell, shell->parser.buffer[i]);
 886:ThirdParty/Letter-shell/Src/shell.c ****         }
 887:ThirdParty/Letter-shell/Src/shell.c ****         shellWriteByte(shell, ' ');
 888:ThirdParty/Letter-shell/Src/shell.c ****         for (short i = shell->parser.length - shell->parser.cursor + 1; i > 0; i--)
 889:ThirdParty/Letter-shell/Src/shell.c ****         {
 890:ThirdParty/Letter-shell/Src/shell.c ****             shellWriteByte(shell, '\b');
 891:ThirdParty/Letter-shell/Src/shell.c ****         }
 892:ThirdParty/Letter-shell/Src/shell.c ****     }
 893:ThirdParty/Letter-shell/Src/shell.c **** }
 894:ThirdParty/Letter-shell/Src/shell.c **** 
 895:ThirdParty/Letter-shell/Src/shell.c **** 
 896:ThirdParty/Letter-shell/Src/shell.c **** /**
 897:ThirdParty/Letter-shell/Src/shell.c ****  * @brief shell 解析参数
 898:ThirdParty/Letter-shell/Src/shell.c ****  * 
 899:ThirdParty/Letter-shell/Src/shell.c ****  * @param shell shell对象
 900:ThirdParty/Letter-shell/Src/shell.c ****  */
 901:ThirdParty/Letter-shell/Src/shell.c **** static void shellParserParam(Shell *shell)
 902:ThirdParty/Letter-shell/Src/shell.c **** {
 439              		.loc 1 902 1 is_stmt 1 view -0
 440              		.cfi_startproc
 441              		@ args = 0, pretend = 0, frame = 0
 442              		@ frame_needed = 0, uses_anonymous_args = 0
 443              		.loc 1 902 1 is_stmt 0 view .LVU120
 444 0000 30B5     		push	{r4, r5, lr}
 445              	.LCFI6:
 446              		.cfi_def_cfa_offset 12
 447              		.cfi_offset 4, -12
 448              		.cfi_offset 5, -8
 449              		.cfi_offset 14, -4
 903:ThirdParty/Letter-shell/Src/shell.c ****     unsigned char quotes = 0;
 450              		.loc 1 903 5 is_stmt 1 view .LVU121
 451              	.LVL47:
 904:ThirdParty/Letter-shell/Src/shell.c ****     unsigned char record = 1;
 452              		.loc 1 904 5 view .LVU122
ARM GAS  /var/folders/h7/llxr0vxd5sd9z74__7r6nx9r0000gn/T//ccSPSBV9.s 			page 25


 905:ThirdParty/Letter-shell/Src/shell.c **** 
 906:ThirdParty/Letter-shell/Src/shell.c ****     for (short i = 0; i < SHELL_PARAMETER_MAX_NUMBER; i++)
 453              		.loc 1 906 5 view .LVU123
 454              	.LBB3:
 455              		.loc 1 906 10 view .LVU124
 456              		.loc 1 906 16 is_stmt 0 view .LVU125
 457 0002 0023     		movs	r3, #0
 458              		.loc 1 906 5 view .LVU126
 459 0004 06E0     		b	.L45
 460              	.LVL48:
 461              	.L46:
 907:ThirdParty/Letter-shell/Src/shell.c ****     {
 908:ThirdParty/Letter-shell/Src/shell.c ****         shell->parser.param[i] = NULL;
 462              		.loc 1 908 9 is_stmt 1 discriminator 3 view .LVU127
 463              		.loc 1 908 32 is_stmt 0 discriminator 3 view .LVU128
 464 0006 1A1D     		adds	r2, r3, #4
 465 0008 00EB8202 		add	r2, r0, r2, lsl #2
 466 000c 0021     		movs	r1, #0
 467 000e 5160     		str	r1, [r2, #4]
 906:ThirdParty/Letter-shell/Src/shell.c ****     {
 468              		.loc 1 906 56 is_stmt 1 discriminator 3 view .LVU129
 469 0010 0133     		adds	r3, r3, #1
 470              	.LVL49:
 906:ThirdParty/Letter-shell/Src/shell.c ****     {
 471              		.loc 1 906 56 is_stmt 0 discriminator 3 view .LVU130
 472 0012 1BB2     		sxth	r3, r3
 473              	.LVL50:
 474              	.L45:
 906:ThirdParty/Letter-shell/Src/shell.c ****     {
 475              		.loc 1 906 25 is_stmt 1 discriminator 1 view .LVU131
 476 0014 072B     		cmp	r3, #7
 477 0016 F6DD     		ble	.L46
 478              	.LBE3:
 909:ThirdParty/Letter-shell/Src/shell.c ****     }
 910:ThirdParty/Letter-shell/Src/shell.c **** 
 911:ThirdParty/Letter-shell/Src/shell.c ****     shell->parser.paramCount = 0;
 479              		.loc 1 911 5 view .LVU132
 480              		.loc 1 911 30 is_stmt 0 view .LVU133
 481 0018 0021     		movs	r1, #0
 482 001a C186     		strh	r1, [r0, #54]	@ movhi
 912:ThirdParty/Letter-shell/Src/shell.c ****     for (unsigned short i = 0; i < shell->parser.length; i++)
 483              		.loc 1 912 5 is_stmt 1 view .LVU134
 484              	.LBB4:
 485              		.loc 1 912 10 view .LVU135
 486              	.LVL51:
 487              		.loc 1 912 25 is_stmt 0 view .LVU136
 488 001c 0B46     		mov	r3, r1
 489              	.LVL52:
 490              		.loc 1 912 25 view .LVU137
 491              	.LBE4:
 904:ThirdParty/Letter-shell/Src/shell.c **** 
 492              		.loc 1 904 19 view .LVU138
 493 001e 0125     		movs	r5, #1
 494              	.LBB5:
 495              		.loc 1 912 5 view .LVU139
 496 0020 0DE0     		b	.L47
 497              	.LVL53:
ARM GAS  /var/folders/h7/llxr0vxd5sd9z74__7r6nx9r0000gn/T//ccSPSBV9.s 			page 26


 498              	.L48:
 913:ThirdParty/Letter-shell/Src/shell.c ****     {
 914:ThirdParty/Letter-shell/Src/shell.c ****         if (quotes != 0
 915:ThirdParty/Letter-shell/Src/shell.c ****             || (shell->parser.buffer[i] != ' '
 916:ThirdParty/Letter-shell/Src/shell.c ****                 && shell->parser.buffer[i] != 0))
 917:ThirdParty/Letter-shell/Src/shell.c ****         {
 918:ThirdParty/Letter-shell/Src/shell.c ****             if (shell->parser.buffer[i] == '\"')
 499              		.loc 1 918 13 is_stmt 1 view .LVU140
 500              		.loc 1 918 30 is_stmt 0 view .LVU141
 501 0022 0269     		ldr	r2, [r0, #16]
 502              		.loc 1 918 37 view .LVU142
 503 0024 9E46     		mov	lr, r3
 504 0026 D418     		adds	r4, r2, r3
 505 0028 12F803C0 		ldrb	ip, [r2, r3]	@ zero_extendqisi2
 506              		.loc 1 918 16 view .LVU143
 507 002c BCF1220F 		cmp	ip, #34
 508 0030 15D0     		beq	.L56
 509              	.L50:
 919:ThirdParty/Letter-shell/Src/shell.c ****             {
 920:ThirdParty/Letter-shell/Src/shell.c ****                 quotes = quotes ? 0 : 1;
 921:ThirdParty/Letter-shell/Src/shell.c ****             }
 922:ThirdParty/Letter-shell/Src/shell.c ****             if (record == 1)
 510              		.loc 1 922 13 is_stmt 1 view .LVU144
 511              		.loc 1 922 16 is_stmt 0 view .LVU145
 512 0032 BDB9     		cbnz	r5, .L57
 513              	.LVL54:
 514              	.L51:
 923:ThirdParty/Letter-shell/Src/shell.c ****             {
 924:ThirdParty/Letter-shell/Src/shell.c ****                 if (shell->parser.paramCount < SHELL_PARAMETER_MAX_NUMBER)
 925:ThirdParty/Letter-shell/Src/shell.c ****                 {
 926:ThirdParty/Letter-shell/Src/shell.c ****                     shell->parser.param[shell->parser.paramCount++] =
 927:ThirdParty/Letter-shell/Src/shell.c ****                         &(shell->parser.buffer[i]);
 928:ThirdParty/Letter-shell/Src/shell.c ****                 }
 929:ThirdParty/Letter-shell/Src/shell.c ****                 record = 0;
 930:ThirdParty/Letter-shell/Src/shell.c ****             }
 931:ThirdParty/Letter-shell/Src/shell.c ****             if (shell->parser.buffer[i] == '\\'
 515              		.loc 1 931 13 is_stmt 1 view .LVU146
 516              		.loc 1 931 37 is_stmt 0 view .LVU147
 517 0034 2478     		ldrb	r4, [r4]	@ zero_extendqisi2
 518              		.loc 1 931 16 view .LVU148
 519 0036 5C2C     		cmp	r4, #92
 520 0038 23D0     		beq	.L58
 521              	.LVL55:
 522              	.L52:
 912:ThirdParty/Letter-shell/Src/shell.c ****     {
 523              		.loc 1 912 59 is_stmt 1 discriminator 2 view .LVU149
 524 003a 0133     		adds	r3, r3, #1
 525              	.LVL56:
 912:ThirdParty/Letter-shell/Src/shell.c ****     {
 526              		.loc 1 912 59 is_stmt 0 discriminator 2 view .LVU150
 527 003c 9BB2     		uxth	r3, r3
 528              	.LVL57:
 529              	.L47:
 912:ThirdParty/Letter-shell/Src/shell.c ****     {
 530              		.loc 1 912 34 is_stmt 1 discriminator 1 view .LVU151
 912:ThirdParty/Letter-shell/Src/shell.c ****     {
 531              		.loc 1 912 49 is_stmt 0 discriminator 1 view .LVU152
ARM GAS  /var/folders/h7/llxr0vxd5sd9z74__7r6nx9r0000gn/T//ccSPSBV9.s 			page 27


 532 003e 8289     		ldrh	r2, [r0, #12]
 912:ThirdParty/Letter-shell/Src/shell.c ****     {
 533              		.loc 1 912 34 discriminator 1 view .LVU153
 534 0040 9A42     		cmp	r2, r3
 535 0042 25D9     		bls	.L59
 914:ThirdParty/Letter-shell/Src/shell.c ****             || (shell->parser.buffer[i] != ' '
 536              		.loc 1 914 9 is_stmt 1 view .LVU154
 914:ThirdParty/Letter-shell/Src/shell.c ****             || (shell->parser.buffer[i] != ' '
 537              		.loc 1 914 12 is_stmt 0 view .LVU155
 538 0044 0029     		cmp	r1, #0
 539 0046 ECD1     		bne	.L48
 915:ThirdParty/Letter-shell/Src/shell.c ****                 && shell->parser.buffer[i] != 0))
 540              		.loc 1 915 30 view .LVU156
 541 0048 0269     		ldr	r2, [r0, #16]
 915:ThirdParty/Letter-shell/Src/shell.c ****                 && shell->parser.buffer[i] != 0))
 542              		.loc 1 915 37 view .LVU157
 543 004a D418     		adds	r4, r2, r3
 544 004c D25C     		ldrb	r2, [r2, r3]	@ zero_extendqisi2
 915:ThirdParty/Letter-shell/Src/shell.c ****                 && shell->parser.buffer[i] != 0))
 545              		.loc 1 915 13 view .LVU158
 546 004e 202A     		cmp	r2, #32
 547 0050 01D0     		beq	.L49
 916:ThirdParty/Letter-shell/Src/shell.c ****         {
 548              		.loc 1 916 17 view .LVU159
 549 0052 002A     		cmp	r2, #0
 550 0054 E5D1     		bne	.L48
 551              	.L49:
 932:ThirdParty/Letter-shell/Src/shell.c ****                 && shell->parser.buffer[i + 1] != 0)
 933:ThirdParty/Letter-shell/Src/shell.c ****             {
 934:ThirdParty/Letter-shell/Src/shell.c ****                 i++;
 935:ThirdParty/Letter-shell/Src/shell.c ****             }
 936:ThirdParty/Letter-shell/Src/shell.c ****         }
 937:ThirdParty/Letter-shell/Src/shell.c ****         else
 938:ThirdParty/Letter-shell/Src/shell.c ****         {
 939:ThirdParty/Letter-shell/Src/shell.c ****             shell->parser.buffer[i] = 0;
 552              		.loc 1 939 13 is_stmt 1 view .LVU160
 553              		.loc 1 939 37 is_stmt 0 view .LVU161
 554 0056 0022     		movs	r2, #0
 555 0058 2270     		strb	r2, [r4]
 940:ThirdParty/Letter-shell/Src/shell.c ****             record = 1;
 556              		.loc 1 940 13 is_stmt 1 view .LVU162
 557              	.LVL58:
 558              		.loc 1 940 20 is_stmt 0 view .LVU163
 559 005a 0125     		movs	r5, #1
 560 005c EDE7     		b	.L52
 561              	.LVL59:
 562              	.L56:
 920:ThirdParty/Letter-shell/Src/shell.c ****             }
 563              		.loc 1 920 17 is_stmt 1 view .LVU164
 920:ThirdParty/Letter-shell/Src/shell.c ****             }
 564              		.loc 1 920 37 is_stmt 0 view .LVU165
 565 005e 81F00101 		eor	r1, r1, #1
 566              	.LVL60:
 920:ThirdParty/Letter-shell/Src/shell.c ****             }
 567              		.loc 1 920 37 view .LVU166
 568 0062 E6E7     		b	.L50
 569              	.L57:
ARM GAS  /var/folders/h7/llxr0vxd5sd9z74__7r6nx9r0000gn/T//ccSPSBV9.s 			page 28


 924:ThirdParty/Letter-shell/Src/shell.c ****                 {
 570              		.loc 1 924 17 is_stmt 1 view .LVU167
 924:ThirdParty/Letter-shell/Src/shell.c ****                 {
 571              		.loc 1 924 34 is_stmt 0 view .LVU168
 572 0064 C58E     		ldrh	r5, [r0, #54]
 573              	.LVL61:
 924:ThirdParty/Letter-shell/Src/shell.c ****                 {
 574              		.loc 1 924 20 view .LVU169
 575 0066 072D     		cmp	r5, #7
 576 0068 09D8     		bhi	.L54
 926:ThirdParty/Letter-shell/Src/shell.c ****                         &(shell->parser.buffer[i]);
 577              		.loc 1 926 21 is_stmt 1 view .LVU170
 926:ThirdParty/Letter-shell/Src/shell.c ****                         &(shell->parser.buffer[i]);
 578              		.loc 1 926 65 is_stmt 0 view .LVU171
 579 006a 05F1010C 		add	ip, r5, #1
 580 006e A0F836C0 		strh	ip, [r0, #54]	@ movhi
 926:ThirdParty/Letter-shell/Src/shell.c ****                         &(shell->parser.buffer[i]);
 581              		.loc 1 926 69 view .LVU172
 582 0072 0435     		adds	r5, r5, #4
 583 0074 00EB8505 		add	r5, r0, r5, lsl #2
 584 0078 6C60     		str	r4, [r5, #4]
 929:ThirdParty/Letter-shell/Src/shell.c ****             }
 585              		.loc 1 929 24 view .LVU173
 586 007a 0025     		movs	r5, #0
 587 007c DAE7     		b	.L51
 588              	.L54:
 589 007e 0025     		movs	r5, #0
 590 0080 D8E7     		b	.L51
 591              	.LVL62:
 592              	.L58:
 932:ThirdParty/Letter-shell/Src/shell.c ****             {
 593              		.loc 1 932 40 view .LVU174
 594 0082 7244     		add	r2, r2, lr
 595 0084 5278     		ldrb	r2, [r2, #1]	@ zero_extendqisi2
 932:ThirdParty/Letter-shell/Src/shell.c ****             {
 596              		.loc 1 932 17 view .LVU175
 597 0086 002A     		cmp	r2, #0
 598 0088 D7D0     		beq	.L52
 934:ThirdParty/Letter-shell/Src/shell.c ****             }
 599              		.loc 1 934 17 is_stmt 1 view .LVU176
 934:ThirdParty/Letter-shell/Src/shell.c ****             }
 600              		.loc 1 934 18 is_stmt 0 view .LVU177
 601 008a 0133     		adds	r3, r3, #1
 602              	.LVL63:
 934:ThirdParty/Letter-shell/Src/shell.c ****             }
 603              		.loc 1 934 18 view .LVU178
 604 008c 9BB2     		uxth	r3, r3
 605              	.LVL64:
 934:ThirdParty/Letter-shell/Src/shell.c ****             }
 606              		.loc 1 934 18 view .LVU179
 607 008e D4E7     		b	.L52
 608              	.L59:
 934:ThirdParty/Letter-shell/Src/shell.c ****             }
 609              		.loc 1 934 18 view .LVU180
 610              	.LBE5:
 941:ThirdParty/Letter-shell/Src/shell.c ****         }
 942:ThirdParty/Letter-shell/Src/shell.c ****     }
ARM GAS  /var/folders/h7/llxr0vxd5sd9z74__7r6nx9r0000gn/T//ccSPSBV9.s 			page 29


 943:ThirdParty/Letter-shell/Src/shell.c **** }
 611              		.loc 1 943 1 view .LVU181
 612 0090 30BD     		pop	{r4, r5, pc}
 613              		.loc 1 943 1 view .LVU182
 614              		.cfi_endproc
 615              	.LFE29:
 617              		.section	.text.shellRight,"ax",%progbits
 618              		.align	1
 619              		.global	shellRight
 620              		.syntax unified
 621              		.thumb
 622              		.thumb_func
 624              	shellRight:
 625              	.LVL65:
 626              	.LFB46:
 944:ThirdParty/Letter-shell/Src/shell.c **** 
 945:ThirdParty/Letter-shell/Src/shell.c **** 
 946:ThirdParty/Letter-shell/Src/shell.c **** /**
 947:ThirdParty/Letter-shell/Src/shell.c ****  * @brief shell去除字符串参数头尾的双引号
 948:ThirdParty/Letter-shell/Src/shell.c ****  * 
 949:ThirdParty/Letter-shell/Src/shell.c ****  * @param shell shell对象
 950:ThirdParty/Letter-shell/Src/shell.c ****  */
 951:ThirdParty/Letter-shell/Src/shell.c **** static void shellRemoveParamQuotes(Shell *shell)
 952:ThirdParty/Letter-shell/Src/shell.c **** {
 953:ThirdParty/Letter-shell/Src/shell.c ****     unsigned short paramLength;
 954:ThirdParty/Letter-shell/Src/shell.c ****     for (unsigned short i = 0; i < shell->parser.paramCount; i++)
 955:ThirdParty/Letter-shell/Src/shell.c ****     {
 956:ThirdParty/Letter-shell/Src/shell.c ****         if (shell->parser.param[i][0] == '\"')
 957:ThirdParty/Letter-shell/Src/shell.c ****         {
 958:ThirdParty/Letter-shell/Src/shell.c ****             shell->parser.param[i][0] = 0;
 959:ThirdParty/Letter-shell/Src/shell.c ****             shell->parser.param[i] = &shell->parser.param[i][1];
 960:ThirdParty/Letter-shell/Src/shell.c ****         }
 961:ThirdParty/Letter-shell/Src/shell.c ****         paramLength = strlen(shell->parser.param[i]);
 962:ThirdParty/Letter-shell/Src/shell.c ****         if (shell->parser.param[i][paramLength - 1] == '\"')
 963:ThirdParty/Letter-shell/Src/shell.c ****         {
 964:ThirdParty/Letter-shell/Src/shell.c ****             shell->parser.param[i][paramLength - 1] = 0;
 965:ThirdParty/Letter-shell/Src/shell.c ****         }
 966:ThirdParty/Letter-shell/Src/shell.c ****     }
 967:ThirdParty/Letter-shell/Src/shell.c **** }
 968:ThirdParty/Letter-shell/Src/shell.c **** 
 969:ThirdParty/Letter-shell/Src/shell.c **** 
 970:ThirdParty/Letter-shell/Src/shell.c **** /**
 971:ThirdParty/Letter-shell/Src/shell.c ****  * @brief shell匹配命令
 972:ThirdParty/Letter-shell/Src/shell.c ****  * 
 973:ThirdParty/Letter-shell/Src/shell.c ****  * @param shell shell对象
 974:ThirdParty/Letter-shell/Src/shell.c ****  * @param cmd 命令
 975:ThirdParty/Letter-shell/Src/shell.c ****  * @param base 匹配命令表基址
 976:ThirdParty/Letter-shell/Src/shell.c ****  * @param compareLength 匹配字符串长度
 977:ThirdParty/Letter-shell/Src/shell.c ****  * @return ShellCommand* 匹配到的命令
 978:ThirdParty/Letter-shell/Src/shell.c ****  */
 979:ThirdParty/Letter-shell/Src/shell.c **** ShellCommand* shellSeekCommand(Shell *shell,
 980:ThirdParty/Letter-shell/Src/shell.c ****                                const char *cmd,
 981:ThirdParty/Letter-shell/Src/shell.c ****                                ShellCommand *base,
 982:ThirdParty/Letter-shell/Src/shell.c ****                                unsigned short compareLength)
 983:ThirdParty/Letter-shell/Src/shell.c **** {
 984:ThirdParty/Letter-shell/Src/shell.c ****     const char *name;
 985:ThirdParty/Letter-shell/Src/shell.c ****     unsigned short count = shell->commandList.count -
ARM GAS  /var/folders/h7/llxr0vxd5sd9z74__7r6nx9r0000gn/T//ccSPSBV9.s 			page 30


 986:ThirdParty/Letter-shell/Src/shell.c ****         ((int)base - (int)shell->commandList.base) / sizeof(ShellCommand);
 987:ThirdParty/Letter-shell/Src/shell.c ****     for (unsigned short i = 0; i < count; i++)
 988:ThirdParty/Letter-shell/Src/shell.c ****     {
 989:ThirdParty/Letter-shell/Src/shell.c ****         if (base[i].attr.attrs.type == SHELL_TYPE_KEY
 990:ThirdParty/Letter-shell/Src/shell.c ****             || shellCheckPermission(shell, &base[i]) != 0)
 991:ThirdParty/Letter-shell/Src/shell.c ****         {
 992:ThirdParty/Letter-shell/Src/shell.c ****             continue;
 993:ThirdParty/Letter-shell/Src/shell.c ****         }
 994:ThirdParty/Letter-shell/Src/shell.c ****         name = shellGetCommandName(&base[i]);
 995:ThirdParty/Letter-shell/Src/shell.c ****         if (!compareLength)
 996:ThirdParty/Letter-shell/Src/shell.c ****         {
 997:ThirdParty/Letter-shell/Src/shell.c ****             if (strcmp(cmd, name) == 0)
 998:ThirdParty/Letter-shell/Src/shell.c ****             {
 999:ThirdParty/Letter-shell/Src/shell.c ****                 return &base[i];
1000:ThirdParty/Letter-shell/Src/shell.c ****             }
1001:ThirdParty/Letter-shell/Src/shell.c ****         }
1002:ThirdParty/Letter-shell/Src/shell.c ****         else
1003:ThirdParty/Letter-shell/Src/shell.c ****         {
1004:ThirdParty/Letter-shell/Src/shell.c ****             if (strncmp(cmd, name, compareLength) == 0)
1005:ThirdParty/Letter-shell/Src/shell.c ****             {
1006:ThirdParty/Letter-shell/Src/shell.c ****                 return &base[i];
1007:ThirdParty/Letter-shell/Src/shell.c ****             }
1008:ThirdParty/Letter-shell/Src/shell.c ****         }
1009:ThirdParty/Letter-shell/Src/shell.c ****     }
1010:ThirdParty/Letter-shell/Src/shell.c ****     return NULL;
1011:ThirdParty/Letter-shell/Src/shell.c **** }
1012:ThirdParty/Letter-shell/Src/shell.c **** 
1013:ThirdParty/Letter-shell/Src/shell.c **** 
1014:ThirdParty/Letter-shell/Src/shell.c **** /**
1015:ThirdParty/Letter-shell/Src/shell.c ****  * @brief shell 获取变量值
1016:ThirdParty/Letter-shell/Src/shell.c ****  * 
1017:ThirdParty/Letter-shell/Src/shell.c ****  * @param shell shell对象
1018:ThirdParty/Letter-shell/Src/shell.c ****  * @param command 命令
1019:ThirdParty/Letter-shell/Src/shell.c ****  * @return int 变量值
1020:ThirdParty/Letter-shell/Src/shell.c ****  */
1021:ThirdParty/Letter-shell/Src/shell.c **** int shellGetVarValue(Shell *shell, ShellCommand *command)
1022:ThirdParty/Letter-shell/Src/shell.c **** {
1023:ThirdParty/Letter-shell/Src/shell.c ****     int value = 0;
1024:ThirdParty/Letter-shell/Src/shell.c ****     switch (command->attr.attrs.type)
1025:ThirdParty/Letter-shell/Src/shell.c ****     {
1026:ThirdParty/Letter-shell/Src/shell.c ****     case SHELL_TYPE_VAR_INT:
1027:ThirdParty/Letter-shell/Src/shell.c ****         value = *((int *)(command->data.var.value));
1028:ThirdParty/Letter-shell/Src/shell.c ****         break;
1029:ThirdParty/Letter-shell/Src/shell.c ****     case SHELL_TYPE_VAR_SHORT:
1030:ThirdParty/Letter-shell/Src/shell.c ****         value = *((short *)(command->data.var.value));
1031:ThirdParty/Letter-shell/Src/shell.c ****         break;
1032:ThirdParty/Letter-shell/Src/shell.c ****     case SHELL_TYPE_VAR_CHAR:
1033:ThirdParty/Letter-shell/Src/shell.c ****         value = *((char *)(command->data.var.value));
1034:ThirdParty/Letter-shell/Src/shell.c ****         break;
1035:ThirdParty/Letter-shell/Src/shell.c ****     case SHELL_TYPE_VAR_STRING:
1036:ThirdParty/Letter-shell/Src/shell.c ****     case SHELL_TYPE_VAR_POINT:
1037:ThirdParty/Letter-shell/Src/shell.c ****         value = (int)(command->data.var.value);
1038:ThirdParty/Letter-shell/Src/shell.c ****         break;
1039:ThirdParty/Letter-shell/Src/shell.c ****     case SHELL_TYPE_VAR_NODE:
1040:ThirdParty/Letter-shell/Src/shell.c ****         value = ((ShellNodeVarAttr *)command->data.var.value)->get ?
1041:ThirdParty/Letter-shell/Src/shell.c ****                     ((ShellNodeVarAttr *)command->data.var.value)
1042:ThirdParty/Letter-shell/Src/shell.c ****                         ->get(((ShellNodeVarAttr *)command->data.var.value)->var) : 0;
ARM GAS  /var/folders/h7/llxr0vxd5sd9z74__7r6nx9r0000gn/T//ccSPSBV9.s 			page 31


1043:ThirdParty/Letter-shell/Src/shell.c ****         break;
1044:ThirdParty/Letter-shell/Src/shell.c ****     default:
1045:ThirdParty/Letter-shell/Src/shell.c ****         break;
1046:ThirdParty/Letter-shell/Src/shell.c ****     }
1047:ThirdParty/Letter-shell/Src/shell.c ****     return value;
1048:ThirdParty/Letter-shell/Src/shell.c **** }
1049:ThirdParty/Letter-shell/Src/shell.c **** 
1050:ThirdParty/Letter-shell/Src/shell.c **** 
1051:ThirdParty/Letter-shell/Src/shell.c **** /**
1052:ThirdParty/Letter-shell/Src/shell.c ****  * @brief shell设置变量值
1053:ThirdParty/Letter-shell/Src/shell.c ****  * 
1054:ThirdParty/Letter-shell/Src/shell.c ****  * @param shell shell对象
1055:ThirdParty/Letter-shell/Src/shell.c ****  * @param command 命令
1056:ThirdParty/Letter-shell/Src/shell.c ****  * @param value 值
1057:ThirdParty/Letter-shell/Src/shell.c ****  * @return int 返回变量值
1058:ThirdParty/Letter-shell/Src/shell.c ****  */
1059:ThirdParty/Letter-shell/Src/shell.c **** int shellSetVarValue(Shell *shell, ShellCommand *command, int value)
1060:ThirdParty/Letter-shell/Src/shell.c **** {
1061:ThirdParty/Letter-shell/Src/shell.c ****     if (command->attr.attrs.readOnly)
1062:ThirdParty/Letter-shell/Src/shell.c ****     {
1063:ThirdParty/Letter-shell/Src/shell.c ****         shellWriteString(shell, shellText[SHELL_TEXT_VAR_READ_ONLY_CANNOT_MODIFY]);
1064:ThirdParty/Letter-shell/Src/shell.c ****     }
1065:ThirdParty/Letter-shell/Src/shell.c ****     else
1066:ThirdParty/Letter-shell/Src/shell.c ****     {
1067:ThirdParty/Letter-shell/Src/shell.c ****         switch (command->attr.attrs.type)
1068:ThirdParty/Letter-shell/Src/shell.c ****         {
1069:ThirdParty/Letter-shell/Src/shell.c ****         case SHELL_TYPE_VAR_INT:
1070:ThirdParty/Letter-shell/Src/shell.c ****             *((int *)(command->data.var.value)) = value;
1071:ThirdParty/Letter-shell/Src/shell.c ****             break;
1072:ThirdParty/Letter-shell/Src/shell.c ****         case SHELL_TYPE_VAR_SHORT:
1073:ThirdParty/Letter-shell/Src/shell.c ****             *((short *)(command->data.var.value)) = value;
1074:ThirdParty/Letter-shell/Src/shell.c ****             break;
1075:ThirdParty/Letter-shell/Src/shell.c ****         case SHELL_TYPE_VAR_CHAR:
1076:ThirdParty/Letter-shell/Src/shell.c ****             *((char *)(command->data.var.value)) = value;
1077:ThirdParty/Letter-shell/Src/shell.c ****             break;
1078:ThirdParty/Letter-shell/Src/shell.c ****         case SHELL_TYPE_VAR_STRING:
1079:ThirdParty/Letter-shell/Src/shell.c ****             shellStringCopy(((char *)(command->data.var.value)), (char *)value);
1080:ThirdParty/Letter-shell/Src/shell.c ****             break;
1081:ThirdParty/Letter-shell/Src/shell.c ****         case SHELL_TYPE_VAR_POINT:
1082:ThirdParty/Letter-shell/Src/shell.c ****             shellWriteString(shell, shellText[SHELL_TEXT_POINT_CANNOT_MODIFY]);
1083:ThirdParty/Letter-shell/Src/shell.c ****             break;
1084:ThirdParty/Letter-shell/Src/shell.c ****         case SHELL_TYPE_VAR_NODE:
1085:ThirdParty/Letter-shell/Src/shell.c ****             if (((ShellNodeVarAttr *)command->data.var.value)->set)
1086:ThirdParty/Letter-shell/Src/shell.c ****             {
1087:ThirdParty/Letter-shell/Src/shell.c ****                 if (((ShellNodeVarAttr *)command->data.var.value)->var)
1088:ThirdParty/Letter-shell/Src/shell.c ****                 {
1089:ThirdParty/Letter-shell/Src/shell.c ****                     ((ShellNodeVarAttr *)command->data.var.value)
1090:ThirdParty/Letter-shell/Src/shell.c ****                         ->set(((ShellNodeVarAttr *)command->data.var.value)->var, value);
1091:ThirdParty/Letter-shell/Src/shell.c ****                 }
1092:ThirdParty/Letter-shell/Src/shell.c ****                 else
1093:ThirdParty/Letter-shell/Src/shell.c ****                 {
1094:ThirdParty/Letter-shell/Src/shell.c ****                     ((ShellNodeVarAttr *)command->data.var.value)->set(value);
1095:ThirdParty/Letter-shell/Src/shell.c ****                 }
1096:ThirdParty/Letter-shell/Src/shell.c ****             }
1097:ThirdParty/Letter-shell/Src/shell.c ****             break;
1098:ThirdParty/Letter-shell/Src/shell.c ****         default:
1099:ThirdParty/Letter-shell/Src/shell.c ****             break;
ARM GAS  /var/folders/h7/llxr0vxd5sd9z74__7r6nx9r0000gn/T//ccSPSBV9.s 			page 32


1100:ThirdParty/Letter-shell/Src/shell.c ****         }
1101:ThirdParty/Letter-shell/Src/shell.c ****     }
1102:ThirdParty/Letter-shell/Src/shell.c ****     return shellShowVar(shell, command);
1103:ThirdParty/Letter-shell/Src/shell.c **** }
1104:ThirdParty/Letter-shell/Src/shell.c **** 
1105:ThirdParty/Letter-shell/Src/shell.c **** 
1106:ThirdParty/Letter-shell/Src/shell.c **** /**
1107:ThirdParty/Letter-shell/Src/shell.c ****  * @brief shell变量输出
1108:ThirdParty/Letter-shell/Src/shell.c ****  * 
1109:ThirdParty/Letter-shell/Src/shell.c ****  * @param shell shell对象
1110:ThirdParty/Letter-shell/Src/shell.c ****  * @param command 命令
1111:ThirdParty/Letter-shell/Src/shell.c ****  * @return int 返回变量值
1112:ThirdParty/Letter-shell/Src/shell.c ****  */
1113:ThirdParty/Letter-shell/Src/shell.c **** static int shellShowVar(Shell *shell, ShellCommand *command)
1114:ThirdParty/Letter-shell/Src/shell.c **** {
1115:ThirdParty/Letter-shell/Src/shell.c ****     char buffer[12] = "00000000000";
1116:ThirdParty/Letter-shell/Src/shell.c ****     int value = shellGetVarValue(shell, command);
1117:ThirdParty/Letter-shell/Src/shell.c ****     
1118:ThirdParty/Letter-shell/Src/shell.c ****     shellWriteString(shell, command->data.var.name);
1119:ThirdParty/Letter-shell/Src/shell.c ****     shellWriteString(shell, " = ");
1120:ThirdParty/Letter-shell/Src/shell.c **** 
1121:ThirdParty/Letter-shell/Src/shell.c ****     switch (command->attr.attrs.type)
1122:ThirdParty/Letter-shell/Src/shell.c ****     {
1123:ThirdParty/Letter-shell/Src/shell.c ****     case SHELL_TYPE_VAR_STRING:
1124:ThirdParty/Letter-shell/Src/shell.c ****         shellWriteString(shell, "\"");
1125:ThirdParty/Letter-shell/Src/shell.c ****         shellWriteString(shell, (char *)value);
1126:ThirdParty/Letter-shell/Src/shell.c ****         shellWriteString(shell, "\"");
1127:ThirdParty/Letter-shell/Src/shell.c ****         break;
1128:ThirdParty/Letter-shell/Src/shell.c ****     // case SHELL_TYPE_VAR_INT:
1129:ThirdParty/Letter-shell/Src/shell.c ****     // case SHELL_TYPE_VAR_SHORT:
1130:ThirdParty/Letter-shell/Src/shell.c ****     // case SHELL_TYPE_VAR_CHAR:
1131:ThirdParty/Letter-shell/Src/shell.c ****     // case SHELL_TYPE_VAR_POINT:
1132:ThirdParty/Letter-shell/Src/shell.c ****     default:
1133:ThirdParty/Letter-shell/Src/shell.c ****         shellWriteString(shell, &buffer[11 - shellToDec(value, buffer)]);
1134:ThirdParty/Letter-shell/Src/shell.c ****         shellWriteString(shell, ", 0x");
1135:ThirdParty/Letter-shell/Src/shell.c ****         for (short i = 0; i < 11; i++)
1136:ThirdParty/Letter-shell/Src/shell.c ****         {
1137:ThirdParty/Letter-shell/Src/shell.c ****             buffer[i] = '0';
1138:ThirdParty/Letter-shell/Src/shell.c ****         }
1139:ThirdParty/Letter-shell/Src/shell.c ****         shellToHex(value, buffer);
1140:ThirdParty/Letter-shell/Src/shell.c ****         shellWriteString(shell, buffer);
1141:ThirdParty/Letter-shell/Src/shell.c ****         break;
1142:ThirdParty/Letter-shell/Src/shell.c ****     }
1143:ThirdParty/Letter-shell/Src/shell.c **** 
1144:ThirdParty/Letter-shell/Src/shell.c ****     shellWriteString(shell, "\r\n");
1145:ThirdParty/Letter-shell/Src/shell.c ****     return value;
1146:ThirdParty/Letter-shell/Src/shell.c **** }
1147:ThirdParty/Letter-shell/Src/shell.c **** 
1148:ThirdParty/Letter-shell/Src/shell.c **** 
1149:ThirdParty/Letter-shell/Src/shell.c **** /**
1150:ThirdParty/Letter-shell/Src/shell.c ****  * @brief shell设置变量
1151:ThirdParty/Letter-shell/Src/shell.c ****  * 
1152:ThirdParty/Letter-shell/Src/shell.c ****  * @param name 变量名
1153:ThirdParty/Letter-shell/Src/shell.c ****  * @param value 变量值
1154:ThirdParty/Letter-shell/Src/shell.c ****  * @return int 返回变量值
1155:ThirdParty/Letter-shell/Src/shell.c ****  */
1156:ThirdParty/Letter-shell/Src/shell.c **** int shellSetVar(char *name, int value)
ARM GAS  /var/folders/h7/llxr0vxd5sd9z74__7r6nx9r0000gn/T//ccSPSBV9.s 			page 33


1157:ThirdParty/Letter-shell/Src/shell.c **** {
1158:ThirdParty/Letter-shell/Src/shell.c ****     Shell *shell = shellGetCurrent();
1159:ThirdParty/Letter-shell/Src/shell.c ****     if (shell == NULL)
1160:ThirdParty/Letter-shell/Src/shell.c ****     {
1161:ThirdParty/Letter-shell/Src/shell.c ****         return 0;
1162:ThirdParty/Letter-shell/Src/shell.c ****     }
1163:ThirdParty/Letter-shell/Src/shell.c ****     ShellCommand *command = shellSeekCommand(shell,
1164:ThirdParty/Letter-shell/Src/shell.c ****                                              name,
1165:ThirdParty/Letter-shell/Src/shell.c ****                                              shell->commandList.base,
1166:ThirdParty/Letter-shell/Src/shell.c ****                                              0);
1167:ThirdParty/Letter-shell/Src/shell.c ****     if (!command)
1168:ThirdParty/Letter-shell/Src/shell.c ****     {
1169:ThirdParty/Letter-shell/Src/shell.c ****         shellWriteString(shell, shellText[SHELL_TEXT_VAR_NOT_FOUND]);
1170:ThirdParty/Letter-shell/Src/shell.c ****         return 0;
1171:ThirdParty/Letter-shell/Src/shell.c ****     }
1172:ThirdParty/Letter-shell/Src/shell.c ****     if (command->attr.attrs.type < SHELL_TYPE_VAR_INT
1173:ThirdParty/Letter-shell/Src/shell.c ****         || command->attr.attrs.type > SHELL_TYPE_VAR_NODE)
1174:ThirdParty/Letter-shell/Src/shell.c ****     {
1175:ThirdParty/Letter-shell/Src/shell.c ****         shellWriteString(shell, name);
1176:ThirdParty/Letter-shell/Src/shell.c ****         shellWriteString(shell, shellText[SHELL_TEXT_NOT_VAR]);
1177:ThirdParty/Letter-shell/Src/shell.c ****         return 0;
1178:ThirdParty/Letter-shell/Src/shell.c ****     }
1179:ThirdParty/Letter-shell/Src/shell.c ****     return shellSetVarValue(shell, command, value);
1180:ThirdParty/Letter-shell/Src/shell.c **** }
1181:ThirdParty/Letter-shell/Src/shell.c **** SHELL_EXPORT_CMD(
1182:ThirdParty/Letter-shell/Src/shell.c **** SHELL_CMD_PERMISSION(0)|SHELL_CMD_TYPE(SHELL_TYPE_CMD_FUNC)|SHELL_CMD_DISABLE_RETURN,
1183:ThirdParty/Letter-shell/Src/shell.c **** setVar, shellSetVar, set var);
1184:ThirdParty/Letter-shell/Src/shell.c **** 
1185:ThirdParty/Letter-shell/Src/shell.c **** 
1186:ThirdParty/Letter-shell/Src/shell.c **** /**
1187:ThirdParty/Letter-shell/Src/shell.c ****  * @brief shell运行命令
1188:ThirdParty/Letter-shell/Src/shell.c ****  * 
1189:ThirdParty/Letter-shell/Src/shell.c ****  * @param shell shell对象
1190:ThirdParty/Letter-shell/Src/shell.c ****  * @param command 命令
1191:ThirdParty/Letter-shell/Src/shell.c ****  * 
1192:ThirdParty/Letter-shell/Src/shell.c ****  * @return unsigned int 命令返回值
1193:ThirdParty/Letter-shell/Src/shell.c ****  */
1194:ThirdParty/Letter-shell/Src/shell.c **** unsigned int shellRunCommand(Shell *shell, ShellCommand *command)
1195:ThirdParty/Letter-shell/Src/shell.c **** {
1196:ThirdParty/Letter-shell/Src/shell.c ****     int returnValue = 0;
1197:ThirdParty/Letter-shell/Src/shell.c ****     shell->status.isActive = 1;
1198:ThirdParty/Letter-shell/Src/shell.c ****     if (command->attr.attrs.type == SHELL_TYPE_CMD_MAIN)
1199:ThirdParty/Letter-shell/Src/shell.c ****     {
1200:ThirdParty/Letter-shell/Src/shell.c ****         shellRemoveParamQuotes(shell);
1201:ThirdParty/Letter-shell/Src/shell.c ****         returnValue = command->data.cmd.function(shell->parser.paramCount,
1202:ThirdParty/Letter-shell/Src/shell.c ****                                                  shell->parser.param);
1203:ThirdParty/Letter-shell/Src/shell.c ****         if (!command->attr.attrs.disableReturn)
1204:ThirdParty/Letter-shell/Src/shell.c ****         {
1205:ThirdParty/Letter-shell/Src/shell.c ****             shellWriteReturnValue(shell, returnValue);
1206:ThirdParty/Letter-shell/Src/shell.c ****         }
1207:ThirdParty/Letter-shell/Src/shell.c ****     }
1208:ThirdParty/Letter-shell/Src/shell.c ****     else if (command->attr.attrs.type == SHELL_TYPE_CMD_FUNC)
1209:ThirdParty/Letter-shell/Src/shell.c ****     {
1210:ThirdParty/Letter-shell/Src/shell.c ****         returnValue = shellExtRun(shell,
1211:ThirdParty/Letter-shell/Src/shell.c ****                                   command,
1212:ThirdParty/Letter-shell/Src/shell.c ****                                   shell->parser.paramCount,
1213:ThirdParty/Letter-shell/Src/shell.c ****                                   shell->parser.param);
ARM GAS  /var/folders/h7/llxr0vxd5sd9z74__7r6nx9r0000gn/T//ccSPSBV9.s 			page 34


1214:ThirdParty/Letter-shell/Src/shell.c ****         if (!command->attr.attrs.disableReturn)
1215:ThirdParty/Letter-shell/Src/shell.c ****         {
1216:ThirdParty/Letter-shell/Src/shell.c ****             shellWriteReturnValue(shell, returnValue);
1217:ThirdParty/Letter-shell/Src/shell.c ****         }
1218:ThirdParty/Letter-shell/Src/shell.c ****     }
1219:ThirdParty/Letter-shell/Src/shell.c ****     else if (command->attr.attrs.type >= SHELL_TYPE_VAR_INT
1220:ThirdParty/Letter-shell/Src/shell.c ****         && command->attr.attrs.type <= SHELL_TYPE_VAR_NODE)
1221:ThirdParty/Letter-shell/Src/shell.c ****     {
1222:ThirdParty/Letter-shell/Src/shell.c ****         shellShowVar(shell, command);
1223:ThirdParty/Letter-shell/Src/shell.c ****     }
1224:ThirdParty/Letter-shell/Src/shell.c ****     else if (command->attr.attrs.type == SHELL_TYPE_USER)
1225:ThirdParty/Letter-shell/Src/shell.c ****     {
1226:ThirdParty/Letter-shell/Src/shell.c ****         shellSetUser(shell, command);
1227:ThirdParty/Letter-shell/Src/shell.c ****     }
1228:ThirdParty/Letter-shell/Src/shell.c ****     shell->status.isActive = 0;
1229:ThirdParty/Letter-shell/Src/shell.c **** 
1230:ThirdParty/Letter-shell/Src/shell.c ****     return returnValue;
1231:ThirdParty/Letter-shell/Src/shell.c **** }
1232:ThirdParty/Letter-shell/Src/shell.c **** 
1233:ThirdParty/Letter-shell/Src/shell.c **** 
1234:ThirdParty/Letter-shell/Src/shell.c **** /**
1235:ThirdParty/Letter-shell/Src/shell.c ****  * @brief shell校验密码
1236:ThirdParty/Letter-shell/Src/shell.c ****  * 
1237:ThirdParty/Letter-shell/Src/shell.c ****  * @param shell shell对象
1238:ThirdParty/Letter-shell/Src/shell.c ****  */
1239:ThirdParty/Letter-shell/Src/shell.c **** static void shellCheckPassword(Shell *shell)
1240:ThirdParty/Letter-shell/Src/shell.c **** {
1241:ThirdParty/Letter-shell/Src/shell.c ****     if (strcmp(shell->parser.buffer, shell->info.user->data.user.password) == 0)
1242:ThirdParty/Letter-shell/Src/shell.c ****     {
1243:ThirdParty/Letter-shell/Src/shell.c ****         shell->status.isChecked = 1;
1244:ThirdParty/Letter-shell/Src/shell.c ****     #if SHELL_SHOW_INFO == 1
1245:ThirdParty/Letter-shell/Src/shell.c ****         shellWriteString(shell, shellText[SHELL_TEXT_INFO]);
1246:ThirdParty/Letter-shell/Src/shell.c ****     #endif
1247:ThirdParty/Letter-shell/Src/shell.c ****     }
1248:ThirdParty/Letter-shell/Src/shell.c ****     else
1249:ThirdParty/Letter-shell/Src/shell.c ****     {
1250:ThirdParty/Letter-shell/Src/shell.c ****         shellWriteString(shell, shellText[SHELL_TEXT_PASSWORD_ERROR]);
1251:ThirdParty/Letter-shell/Src/shell.c ****     }
1252:ThirdParty/Letter-shell/Src/shell.c ****     shell->parser.length = 0;
1253:ThirdParty/Letter-shell/Src/shell.c ****     shell->parser.cursor = 0;
1254:ThirdParty/Letter-shell/Src/shell.c **** }
1255:ThirdParty/Letter-shell/Src/shell.c **** 
1256:ThirdParty/Letter-shell/Src/shell.c **** 
1257:ThirdParty/Letter-shell/Src/shell.c **** /**
1258:ThirdParty/Letter-shell/Src/shell.c ****  * @brief shell设置用户
1259:ThirdParty/Letter-shell/Src/shell.c ****  * 
1260:ThirdParty/Letter-shell/Src/shell.c ****  * @param shell shell对象
1261:ThirdParty/Letter-shell/Src/shell.c ****  * @param user 用户
1262:ThirdParty/Letter-shell/Src/shell.c ****  */
1263:ThirdParty/Letter-shell/Src/shell.c **** void shellSetUser(Shell *shell, const ShellCommand *user)
1264:ThirdParty/Letter-shell/Src/shell.c **** {
1265:ThirdParty/Letter-shell/Src/shell.c ****     shell->info.user = user;
1266:ThirdParty/Letter-shell/Src/shell.c ****     shell->status.isChecked = 
1267:ThirdParty/Letter-shell/Src/shell.c ****         ((user->data.user.password && strlen(user->data.user.password) != 0)
1268:ThirdParty/Letter-shell/Src/shell.c ****             && (shell->parser.paramCount < 2
1269:ThirdParty/Letter-shell/Src/shell.c ****                 || strcmp(user->data.user.password, shell->parser.param[1]) != 0))
1270:ThirdParty/Letter-shell/Src/shell.c ****          ? 0 : 1;
ARM GAS  /var/folders/h7/llxr0vxd5sd9z74__7r6nx9r0000gn/T//ccSPSBV9.s 			page 35


1271:ThirdParty/Letter-shell/Src/shell.c ****         
1272:ThirdParty/Letter-shell/Src/shell.c **** #if SHELL_CLS_WHEN_LOGIN == 1
1273:ThirdParty/Letter-shell/Src/shell.c ****     shellWriteString(shell, shellText[SHELL_TEXT_CLEAR_CONSOLE]);
1274:ThirdParty/Letter-shell/Src/shell.c **** #endif
1275:ThirdParty/Letter-shell/Src/shell.c **** #if SHELL_SHOW_INFO == 1
1276:ThirdParty/Letter-shell/Src/shell.c ****     if (shell->status.isChecked)
1277:ThirdParty/Letter-shell/Src/shell.c ****     {
1278:ThirdParty/Letter-shell/Src/shell.c ****         shellWriteString(shell, shellText[SHELL_TEXT_INFO]);
1279:ThirdParty/Letter-shell/Src/shell.c ****     }
1280:ThirdParty/Letter-shell/Src/shell.c **** #endif
1281:ThirdParty/Letter-shell/Src/shell.c **** }
1282:ThirdParty/Letter-shell/Src/shell.c **** 
1283:ThirdParty/Letter-shell/Src/shell.c **** 
1284:ThirdParty/Letter-shell/Src/shell.c **** /**
1285:ThirdParty/Letter-shell/Src/shell.c ****  * @brief shell写返回值
1286:ThirdParty/Letter-shell/Src/shell.c ****  * 
1287:ThirdParty/Letter-shell/Src/shell.c ****  * @param shell shell对象
1288:ThirdParty/Letter-shell/Src/shell.c ****  * @param value 返回值
1289:ThirdParty/Letter-shell/Src/shell.c ****  */
1290:ThirdParty/Letter-shell/Src/shell.c **** static void shellWriteReturnValue(Shell *shell, int value)
1291:ThirdParty/Letter-shell/Src/shell.c **** {
1292:ThirdParty/Letter-shell/Src/shell.c ****     char buffer[12] = "00000000000";
1293:ThirdParty/Letter-shell/Src/shell.c ****     shellWriteString(shell, "Return: ");
1294:ThirdParty/Letter-shell/Src/shell.c ****     shellWriteString(shell, &buffer[11 - shellToDec(value, buffer)]);
1295:ThirdParty/Letter-shell/Src/shell.c ****     shellWriteString(shell, ", 0x");
1296:ThirdParty/Letter-shell/Src/shell.c ****     for (short i = 0; i < 11; i++)
1297:ThirdParty/Letter-shell/Src/shell.c ****     {
1298:ThirdParty/Letter-shell/Src/shell.c ****         buffer[i] = '0';
1299:ThirdParty/Letter-shell/Src/shell.c ****     }
1300:ThirdParty/Letter-shell/Src/shell.c ****     shellToHex(value, buffer);
1301:ThirdParty/Letter-shell/Src/shell.c ****     shellWriteString(shell, buffer);
1302:ThirdParty/Letter-shell/Src/shell.c ****     shellWriteString(shell, "\r\n");
1303:ThirdParty/Letter-shell/Src/shell.c **** #if SHELL_KEEP_RETURN_VALUE == 1
1304:ThirdParty/Letter-shell/Src/shell.c ****     shell->info.retVal = value;
1305:ThirdParty/Letter-shell/Src/shell.c **** #endif
1306:ThirdParty/Letter-shell/Src/shell.c **** }
1307:ThirdParty/Letter-shell/Src/shell.c **** 
1308:ThirdParty/Letter-shell/Src/shell.c **** 
1309:ThirdParty/Letter-shell/Src/shell.c **** #if SHELL_HISTORY_MAX_NUMBER > 0
1310:ThirdParty/Letter-shell/Src/shell.c **** /**
1311:ThirdParty/Letter-shell/Src/shell.c ****  * @brief shell历史记录添加
1312:ThirdParty/Letter-shell/Src/shell.c ****  * 
1313:ThirdParty/Letter-shell/Src/shell.c ****  * @param shell shell对象
1314:ThirdParty/Letter-shell/Src/shell.c ****  */
1315:ThirdParty/Letter-shell/Src/shell.c **** static void shellHistoryAdd(Shell *shell)
1316:ThirdParty/Letter-shell/Src/shell.c **** {
1317:ThirdParty/Letter-shell/Src/shell.c ****     shell->history.offset = 0;
1318:ThirdParty/Letter-shell/Src/shell.c ****     if (shell->history.number > 0
1319:ThirdParty/Letter-shell/Src/shell.c ****         && strcmp(shell->history.item[(shell->history.record == 0 ? 
1320:ThirdParty/Letter-shell/Src/shell.c ****                 SHELL_HISTORY_MAX_NUMBER : shell->history.record) - 1],
1321:ThirdParty/Letter-shell/Src/shell.c ****                 shell->parser.buffer) == 0)
1322:ThirdParty/Letter-shell/Src/shell.c ****     {
1323:ThirdParty/Letter-shell/Src/shell.c ****         return;
1324:ThirdParty/Letter-shell/Src/shell.c ****     }
1325:ThirdParty/Letter-shell/Src/shell.c ****     if (shellStringCopy(shell->history.item[shell->history.record],
1326:ThirdParty/Letter-shell/Src/shell.c ****                         shell->parser.buffer) != 0)
1327:ThirdParty/Letter-shell/Src/shell.c ****     {
ARM GAS  /var/folders/h7/llxr0vxd5sd9z74__7r6nx9r0000gn/T//ccSPSBV9.s 			page 36


1328:ThirdParty/Letter-shell/Src/shell.c ****         shell->history.record++;
1329:ThirdParty/Letter-shell/Src/shell.c ****     }
1330:ThirdParty/Letter-shell/Src/shell.c ****     if (++shell->history.number > SHELL_HISTORY_MAX_NUMBER)
1331:ThirdParty/Letter-shell/Src/shell.c ****     {
1332:ThirdParty/Letter-shell/Src/shell.c ****         shell->history.number = SHELL_HISTORY_MAX_NUMBER;
1333:ThirdParty/Letter-shell/Src/shell.c ****     }
1334:ThirdParty/Letter-shell/Src/shell.c ****     if (shell->history.record >= SHELL_HISTORY_MAX_NUMBER)
1335:ThirdParty/Letter-shell/Src/shell.c ****     {
1336:ThirdParty/Letter-shell/Src/shell.c ****         shell->history.record = 0;
1337:ThirdParty/Letter-shell/Src/shell.c ****     }
1338:ThirdParty/Letter-shell/Src/shell.c **** }
1339:ThirdParty/Letter-shell/Src/shell.c **** 
1340:ThirdParty/Letter-shell/Src/shell.c **** 
1341:ThirdParty/Letter-shell/Src/shell.c **** /**
1342:ThirdParty/Letter-shell/Src/shell.c ****  * @brief shell历史记录查找
1343:ThirdParty/Letter-shell/Src/shell.c ****  * 
1344:ThirdParty/Letter-shell/Src/shell.c ****  * @param shell shell对象
1345:ThirdParty/Letter-shell/Src/shell.c ****  * @param dir 方向 {@code <0}往上查找 {@code >0}往下查找
1346:ThirdParty/Letter-shell/Src/shell.c ****  */
1347:ThirdParty/Letter-shell/Src/shell.c **** static void shellHistory(Shell *shell, signed char dir)
1348:ThirdParty/Letter-shell/Src/shell.c **** {
1349:ThirdParty/Letter-shell/Src/shell.c ****     if (dir > 0)
1350:ThirdParty/Letter-shell/Src/shell.c ****     {
1351:ThirdParty/Letter-shell/Src/shell.c ****         if (shell->history.offset-- <= 
1352:ThirdParty/Letter-shell/Src/shell.c ****             -((shell->history.number > shell->history.record) ?
1353:ThirdParty/Letter-shell/Src/shell.c ****                 shell->history.number : shell->history.record))
1354:ThirdParty/Letter-shell/Src/shell.c ****         {
1355:ThirdParty/Letter-shell/Src/shell.c ****             shell->history.offset = -((shell->history.number > shell->history.record)
1356:ThirdParty/Letter-shell/Src/shell.c ****                                     ? shell->history.number : shell->history.record);
1357:ThirdParty/Letter-shell/Src/shell.c ****         }
1358:ThirdParty/Letter-shell/Src/shell.c ****     }
1359:ThirdParty/Letter-shell/Src/shell.c ****     else if (dir < 0)
1360:ThirdParty/Letter-shell/Src/shell.c ****     {
1361:ThirdParty/Letter-shell/Src/shell.c ****         if (++shell->history.offset > 0)
1362:ThirdParty/Letter-shell/Src/shell.c ****         {
1363:ThirdParty/Letter-shell/Src/shell.c ****             shell->history.offset = 0;
1364:ThirdParty/Letter-shell/Src/shell.c ****             return;
1365:ThirdParty/Letter-shell/Src/shell.c ****         }
1366:ThirdParty/Letter-shell/Src/shell.c ****     }
1367:ThirdParty/Letter-shell/Src/shell.c ****     else
1368:ThirdParty/Letter-shell/Src/shell.c ****     {
1369:ThirdParty/Letter-shell/Src/shell.c ****         return;
1370:ThirdParty/Letter-shell/Src/shell.c ****     }
1371:ThirdParty/Letter-shell/Src/shell.c ****     shellClearCommandLine(shell);
1372:ThirdParty/Letter-shell/Src/shell.c ****     if (shell->history.offset == 0)
1373:ThirdParty/Letter-shell/Src/shell.c ****     {
1374:ThirdParty/Letter-shell/Src/shell.c ****         shell->parser.cursor = shell->parser.length = 0;
1375:ThirdParty/Letter-shell/Src/shell.c ****     }
1376:ThirdParty/Letter-shell/Src/shell.c ****     else
1377:ThirdParty/Letter-shell/Src/shell.c ****     {
1378:ThirdParty/Letter-shell/Src/shell.c ****         if ((shell->parser.length = shellStringCopy(shell->parser.buffer,
1379:ThirdParty/Letter-shell/Src/shell.c ****                 shell->history.item[(shell->history.record + SHELL_HISTORY_MAX_NUMBER
1380:ThirdParty/Letter-shell/Src/shell.c ****                     + shell->history.offset) % SHELL_HISTORY_MAX_NUMBER])) == 0)
1381:ThirdParty/Letter-shell/Src/shell.c ****         {
1382:ThirdParty/Letter-shell/Src/shell.c ****             return;
1383:ThirdParty/Letter-shell/Src/shell.c ****         }
1384:ThirdParty/Letter-shell/Src/shell.c ****         shell->parser.cursor = shell->parser.length;
ARM GAS  /var/folders/h7/llxr0vxd5sd9z74__7r6nx9r0000gn/T//ccSPSBV9.s 			page 37


1385:ThirdParty/Letter-shell/Src/shell.c ****         shellWriteString(shell, shell->parser.buffer);
1386:ThirdParty/Letter-shell/Src/shell.c ****     }
1387:ThirdParty/Letter-shell/Src/shell.c ****     
1388:ThirdParty/Letter-shell/Src/shell.c **** }
1389:ThirdParty/Letter-shell/Src/shell.c **** #endif /** SHELL_HISTORY_MAX_NUMBER > 0 */
1390:ThirdParty/Letter-shell/Src/shell.c **** 
1391:ThirdParty/Letter-shell/Src/shell.c **** 
1392:ThirdParty/Letter-shell/Src/shell.c **** /**
1393:ThirdParty/Letter-shell/Src/shell.c ****  * @brief shell 常规输入
1394:ThirdParty/Letter-shell/Src/shell.c ****  * 
1395:ThirdParty/Letter-shell/Src/shell.c ****  * @param shell shell 对象
1396:ThirdParty/Letter-shell/Src/shell.c ****  * @param data 输入字符
1397:ThirdParty/Letter-shell/Src/shell.c ****  */
1398:ThirdParty/Letter-shell/Src/shell.c **** void shellNormalInput(Shell *shell, char data)
1399:ThirdParty/Letter-shell/Src/shell.c **** {
1400:ThirdParty/Letter-shell/Src/shell.c ****     shell->status.tabFlag = 0;
1401:ThirdParty/Letter-shell/Src/shell.c ****     shellInsertByte(shell, data);
1402:ThirdParty/Letter-shell/Src/shell.c **** }
1403:ThirdParty/Letter-shell/Src/shell.c **** 
1404:ThirdParty/Letter-shell/Src/shell.c **** 
1405:ThirdParty/Letter-shell/Src/shell.c **** /**
1406:ThirdParty/Letter-shell/Src/shell.c ****  * @brief shell运行命令
1407:ThirdParty/Letter-shell/Src/shell.c ****  * 
1408:ThirdParty/Letter-shell/Src/shell.c ****  * @param shell shell对象
1409:ThirdParty/Letter-shell/Src/shell.c ****  */
1410:ThirdParty/Letter-shell/Src/shell.c **** void shellExec(Shell *shell)
1411:ThirdParty/Letter-shell/Src/shell.c **** {
1412:ThirdParty/Letter-shell/Src/shell.c ****     
1413:ThirdParty/Letter-shell/Src/shell.c ****     if (shell->parser.length == 0)
1414:ThirdParty/Letter-shell/Src/shell.c ****     {
1415:ThirdParty/Letter-shell/Src/shell.c ****         return;
1416:ThirdParty/Letter-shell/Src/shell.c ****     }
1417:ThirdParty/Letter-shell/Src/shell.c **** 
1418:ThirdParty/Letter-shell/Src/shell.c ****     shell->parser.buffer[shell->parser.length] = 0;
1419:ThirdParty/Letter-shell/Src/shell.c **** 
1420:ThirdParty/Letter-shell/Src/shell.c ****     if (shell->status.isChecked)
1421:ThirdParty/Letter-shell/Src/shell.c ****     {
1422:ThirdParty/Letter-shell/Src/shell.c ****     #if SHELL_HISTORY_MAX_NUMBER > 0
1423:ThirdParty/Letter-shell/Src/shell.c ****         shellHistoryAdd(shell);
1424:ThirdParty/Letter-shell/Src/shell.c ****     #endif /** SHELL_HISTORY_MAX_NUMBER > 0 */
1425:ThirdParty/Letter-shell/Src/shell.c ****         shellParserParam(shell);
1426:ThirdParty/Letter-shell/Src/shell.c ****         shell->parser.length = shell->parser.cursor = 0;
1427:ThirdParty/Letter-shell/Src/shell.c ****         if (shell->parser.paramCount == 0)
1428:ThirdParty/Letter-shell/Src/shell.c ****         {
1429:ThirdParty/Letter-shell/Src/shell.c ****             return;
1430:ThirdParty/Letter-shell/Src/shell.c ****         }
1431:ThirdParty/Letter-shell/Src/shell.c ****         shellWriteString(shell, "\r\n");
1432:ThirdParty/Letter-shell/Src/shell.c **** 
1433:ThirdParty/Letter-shell/Src/shell.c ****         ShellCommand *command = shellSeekCommand(shell,
1434:ThirdParty/Letter-shell/Src/shell.c ****                                                  shell->parser.param[0],
1435:ThirdParty/Letter-shell/Src/shell.c ****                                                  shell->commandList.base,
1436:ThirdParty/Letter-shell/Src/shell.c ****                                                  0);
1437:ThirdParty/Letter-shell/Src/shell.c ****         if (command != NULL)
1438:ThirdParty/Letter-shell/Src/shell.c ****         {
1439:ThirdParty/Letter-shell/Src/shell.c ****             shellRunCommand(shell, command);
1440:ThirdParty/Letter-shell/Src/shell.c ****         }
1441:ThirdParty/Letter-shell/Src/shell.c ****         else
ARM GAS  /var/folders/h7/llxr0vxd5sd9z74__7r6nx9r0000gn/T//ccSPSBV9.s 			page 38


1442:ThirdParty/Letter-shell/Src/shell.c ****         {
1443:ThirdParty/Letter-shell/Src/shell.c ****             shellWriteString(shell, shellText[SHELL_TEXT_CMD_NOT_FOUND]);
1444:ThirdParty/Letter-shell/Src/shell.c ****         }
1445:ThirdParty/Letter-shell/Src/shell.c ****     }
1446:ThirdParty/Letter-shell/Src/shell.c ****     else
1447:ThirdParty/Letter-shell/Src/shell.c ****     {
1448:ThirdParty/Letter-shell/Src/shell.c ****         shellCheckPassword(shell);
1449:ThirdParty/Letter-shell/Src/shell.c ****     }
1450:ThirdParty/Letter-shell/Src/shell.c **** }
1451:ThirdParty/Letter-shell/Src/shell.c **** 
1452:ThirdParty/Letter-shell/Src/shell.c **** 
1453:ThirdParty/Letter-shell/Src/shell.c **** #if SHELL_HISTORY_MAX_NUMBER > 0
1454:ThirdParty/Letter-shell/Src/shell.c **** /**
1455:ThirdParty/Letter-shell/Src/shell.c ****  * @brief shell上方向键输入
1456:ThirdParty/Letter-shell/Src/shell.c ****  * 
1457:ThirdParty/Letter-shell/Src/shell.c ****  * @param shell shell对象
1458:ThirdParty/Letter-shell/Src/shell.c ****  */
1459:ThirdParty/Letter-shell/Src/shell.c **** void shellUp(Shell *shell)
1460:ThirdParty/Letter-shell/Src/shell.c **** {
1461:ThirdParty/Letter-shell/Src/shell.c ****     shellHistory(shell, 1);
1462:ThirdParty/Letter-shell/Src/shell.c **** }
1463:ThirdParty/Letter-shell/Src/shell.c **** SHELL_EXPORT_KEY(SHELL_CMD_PERMISSION(0), 0x1B5B4100, shellUp, up);
1464:ThirdParty/Letter-shell/Src/shell.c **** 
1465:ThirdParty/Letter-shell/Src/shell.c **** 
1466:ThirdParty/Letter-shell/Src/shell.c **** /**
1467:ThirdParty/Letter-shell/Src/shell.c ****  * @brief shell下方向键输入
1468:ThirdParty/Letter-shell/Src/shell.c ****  * 
1469:ThirdParty/Letter-shell/Src/shell.c ****  * @param shell shell对象
1470:ThirdParty/Letter-shell/Src/shell.c ****  */
1471:ThirdParty/Letter-shell/Src/shell.c **** void shellDown(Shell *shell)
1472:ThirdParty/Letter-shell/Src/shell.c **** {
1473:ThirdParty/Letter-shell/Src/shell.c ****     shellHistory(shell, -1);
1474:ThirdParty/Letter-shell/Src/shell.c **** }
1475:ThirdParty/Letter-shell/Src/shell.c **** SHELL_EXPORT_KEY(SHELL_CMD_PERMISSION(0), 0x1B5B4200, shellDown, down);
1476:ThirdParty/Letter-shell/Src/shell.c **** #endif /** SHELL_HISTORY_MAX_NUMBER > 0 */
1477:ThirdParty/Letter-shell/Src/shell.c **** 
1478:ThirdParty/Letter-shell/Src/shell.c **** 
1479:ThirdParty/Letter-shell/Src/shell.c **** /**
1480:ThirdParty/Letter-shell/Src/shell.c ****  * @brief shell右方向键输入
1481:ThirdParty/Letter-shell/Src/shell.c ****  * 
1482:ThirdParty/Letter-shell/Src/shell.c ****  * @param shell shell对象
1483:ThirdParty/Letter-shell/Src/shell.c ****  */
1484:ThirdParty/Letter-shell/Src/shell.c **** void shellRight(Shell *shell)
1485:ThirdParty/Letter-shell/Src/shell.c **** {
 627              		.loc 1 1485 1 is_stmt 1 view -0
 628              		.cfi_startproc
 629              		@ args = 0, pretend = 0, frame = 0
 630              		@ frame_needed = 0, uses_anonymous_args = 0
 631              		.loc 1 1485 1 is_stmt 0 view .LVU184
 632 0000 08B5     		push	{r3, lr}
 633              	.LCFI7:
 634              		.cfi_def_cfa_offset 8
 635              		.cfi_offset 3, -8
 636              		.cfi_offset 14, -4
1486:ThirdParty/Letter-shell/Src/shell.c ****     if (shell->parser.cursor < shell->parser.length)
 637              		.loc 1 1486 5 is_stmt 1 view .LVU185
 638              		.loc 1 1486 22 is_stmt 0 view .LVU186
ARM GAS  /var/folders/h7/llxr0vxd5sd9z74__7r6nx9r0000gn/T//ccSPSBV9.s 			page 39


 639 0002 C389     		ldrh	r3, [r0, #14]
 640              		.loc 1 1486 45 view .LVU187
 641 0004 8289     		ldrh	r2, [r0, #12]
 642              		.loc 1 1486 8 view .LVU188
 643 0006 9342     		cmp	r3, r2
 644 0008 00D3     		bcc	.L63
 645              	.LVL66:
 646              	.L60:
1487:ThirdParty/Letter-shell/Src/shell.c ****     {
1488:ThirdParty/Letter-shell/Src/shell.c ****         shellWriteByte(shell, shell->parser.buffer[shell->parser.cursor++]);
1489:ThirdParty/Letter-shell/Src/shell.c ****     }
1490:ThirdParty/Letter-shell/Src/shell.c **** }
 647              		.loc 1 1490 1 view .LVU189
 648 000a 08BD     		pop	{r3, pc}
 649              	.LVL67:
 650              	.L63:
1488:ThirdParty/Letter-shell/Src/shell.c ****     }
 651              		.loc 1 1488 9 is_stmt 1 view .LVU190
1488:ThirdParty/Letter-shell/Src/shell.c ****     }
 652              		.loc 1 1488 44 is_stmt 0 view .LVU191
 653 000c 0269     		ldr	r2, [r0, #16]
1488:ThirdParty/Letter-shell/Src/shell.c ****     }
 654              		.loc 1 1488 72 view .LVU192
 655 000e 591C     		adds	r1, r3, #1
 656 0010 C181     		strh	r1, [r0, #14]	@ movhi
1488:ThirdParty/Letter-shell/Src/shell.c ****     }
 657              		.loc 1 1488 9 view .LVU193
 658 0012 D15C     		ldrb	r1, [r2, r3]	@ zero_extendqisi2
 659 0014 FFF7FEFF 		bl	shellWriteByte
 660              	.LVL68:
 661              		.loc 1 1490 1 view .LVU194
 662 0018 F7E7     		b	.L60
 663              		.cfi_endproc
 664              	.LFE46:
 666              		.section	.text.shellLeft,"ax",%progbits
 667              		.align	1
 668              		.global	shellLeft
 669              		.syntax unified
 670              		.thumb
 671              		.thumb_func
 673              	shellLeft:
 674              	.LVL69:
 675              	.LFB47:
1491:ThirdParty/Letter-shell/Src/shell.c **** SHELL_EXPORT_KEY(SHELL_CMD_PERMISSION(0)|SHELL_CMD_ENABLE_UNCHECKED,
1492:ThirdParty/Letter-shell/Src/shell.c **** 0x1B5B4300, shellRight, right);
1493:ThirdParty/Letter-shell/Src/shell.c **** 
1494:ThirdParty/Letter-shell/Src/shell.c **** 
1495:ThirdParty/Letter-shell/Src/shell.c **** /**
1496:ThirdParty/Letter-shell/Src/shell.c ****  * @brief shell左方向键输入
1497:ThirdParty/Letter-shell/Src/shell.c ****  * 
1498:ThirdParty/Letter-shell/Src/shell.c ****  * @param shell shell对象
1499:ThirdParty/Letter-shell/Src/shell.c ****  */
1500:ThirdParty/Letter-shell/Src/shell.c **** void shellLeft(Shell *shell)
1501:ThirdParty/Letter-shell/Src/shell.c **** {
 676              		.loc 1 1501 1 is_stmt 1 view -0
 677              		.cfi_startproc
 678              		@ args = 0, pretend = 0, frame = 0
ARM GAS  /var/folders/h7/llxr0vxd5sd9z74__7r6nx9r0000gn/T//ccSPSBV9.s 			page 40


 679              		@ frame_needed = 0, uses_anonymous_args = 0
1502:ThirdParty/Letter-shell/Src/shell.c ****     if (shell->parser.cursor > 0)
 680              		.loc 1 1502 5 view .LVU196
 681              		.loc 1 1502 22 is_stmt 0 view .LVU197
 682 0000 C389     		ldrh	r3, [r0, #14]
 683              		.loc 1 1502 8 view .LVU198
 684 0002 03B9     		cbnz	r3, .L70
 685 0004 7047     		bx	lr
 686              	.L70:
1501:ThirdParty/Letter-shell/Src/shell.c ****     if (shell->parser.cursor > 0)
 687              		.loc 1 1501 1 view .LVU199
 688 0006 10B5     		push	{r4, lr}
 689              	.LCFI8:
 690              		.cfi_def_cfa_offset 8
 691              		.cfi_offset 4, -8
 692              		.cfi_offset 14, -4
 693 0008 0446     		mov	r4, r0
1503:ThirdParty/Letter-shell/Src/shell.c ****     {
1504:ThirdParty/Letter-shell/Src/shell.c ****         shellWriteByte(shell, '\b');
 694              		.loc 1 1504 9 is_stmt 1 view .LVU200
 695 000a 0821     		movs	r1, #8
 696 000c FFF7FEFF 		bl	shellWriteByte
 697              	.LVL70:
1505:ThirdParty/Letter-shell/Src/shell.c ****         shell->parser.cursor--;
 698              		.loc 1 1505 9 view .LVU201
 699              		.loc 1 1505 22 is_stmt 0 view .LVU202
 700 0010 E389     		ldrh	r3, [r4, #14]
 701              		.loc 1 1505 29 view .LVU203
 702 0012 013B     		subs	r3, r3, #1
 703 0014 E381     		strh	r3, [r4, #14]	@ movhi
1506:ThirdParty/Letter-shell/Src/shell.c ****     }
1507:ThirdParty/Letter-shell/Src/shell.c **** }
 704              		.loc 1 1507 1 view .LVU204
 705 0016 10BD     		pop	{r4, pc}
 706              		.loc 1 1507 1 view .LVU205
 707              		.cfi_endproc
 708              	.LFE47:
 710              		.section	.text.shellHistoryAdd,"ax",%progbits
 711              		.align	1
 712              		.syntax unified
 713              		.thumb
 714              		.thumb_func
 716              	shellHistoryAdd:
 717              	.LVL71:
 718              	.LFB40:
1316:ThirdParty/Letter-shell/Src/shell.c ****     shell->history.offset = 0;
 719              		.loc 1 1316 1 is_stmt 1 view -0
 720              		.cfi_startproc
 721              		@ args = 0, pretend = 0, frame = 0
 722              		@ frame_needed = 0, uses_anonymous_args = 0
1316:ThirdParty/Letter-shell/Src/shell.c ****     shell->history.offset = 0;
 723              		.loc 1 1316 1 is_stmt 0 view .LVU207
 724 0000 10B5     		push	{r4, lr}
 725              	.LCFI9:
 726              		.cfi_def_cfa_offset 8
 727              		.cfi_offset 4, -8
 728              		.cfi_offset 14, -4
ARM GAS  /var/folders/h7/llxr0vxd5sd9z74__7r6nx9r0000gn/T//ccSPSBV9.s 			page 41


 729 0002 0446     		mov	r4, r0
1317:ThirdParty/Letter-shell/Src/shell.c ****     if (shell->history.number > 0
 730              		.loc 1 1317 5 is_stmt 1 view .LVU208
1317:ThirdParty/Letter-shell/Src/shell.c ****     if (shell->history.number > 0
 731              		.loc 1 1317 27 is_stmt 0 view .LVU209
 732 0004 0023     		movs	r3, #0
 733 0006 A0F85430 		strh	r3, [r0, #84]	@ movhi
1318:ThirdParty/Letter-shell/Src/shell.c ****         && strcmp(shell->history.item[(shell->history.record == 0 ? 
 734              		.loc 1 1318 5 is_stmt 1 view .LVU210
1318:ThirdParty/Letter-shell/Src/shell.c ****         && strcmp(shell->history.item[(shell->history.record == 0 ? 
 735              		.loc 1 1318 23 is_stmt 0 view .LVU211
 736 000a B0F85030 		ldrh	r3, [r0, #80]
1318:ThirdParty/Letter-shell/Src/shell.c ****         && strcmp(shell->history.item[(shell->history.record == 0 ? 
 737              		.loc 1 1318 8 view .LVU212
 738 000e 5BB1     		cbz	r3, .L72
1319:ThirdParty/Letter-shell/Src/shell.c ****                 SHELL_HISTORY_MAX_NUMBER : shell->history.record) - 1],
 739              		.loc 1 1319 54 view .LVU213
 740 0010 B0F85230 		ldrh	r3, [r0, #82]
1320:ThirdParty/Letter-shell/Src/shell.c ****                 shell->parser.buffer) == 0)
 741              		.loc 1 1320 67 view .LVU214
 742 0014 53B3     		cbz	r3, .L77
1320:ThirdParty/Letter-shell/Src/shell.c ****                 shell->parser.buffer) == 0)
 743              		.loc 1 1320 67 discriminator 1 view .LVU215
 744 0016 013B     		subs	r3, r3, #1
 745              	.L73:
1319:ThirdParty/Letter-shell/Src/shell.c ****                 SHELL_HISTORY_MAX_NUMBER : shell->history.record) - 1],
 746              		.loc 1 1319 38 view .LVU216
 747 0018 0E33     		adds	r3, r3, #14
 748 001a 04EB8303 		add	r3, r4, r3, lsl #2
1319:ThirdParty/Letter-shell/Src/shell.c ****                 SHELL_HISTORY_MAX_NUMBER : shell->history.record) - 1],
 749              		.loc 1 1319 12 view .LVU217
 750 001e 2169     		ldr	r1, [r4, #16]
 751 0020 5868     		ldr	r0, [r3, #4]
 752              	.LVL72:
1319:ThirdParty/Letter-shell/Src/shell.c ****                 SHELL_HISTORY_MAX_NUMBER : shell->history.record) - 1],
 753              		.loc 1 1319 12 view .LVU218
 754 0022 FFF7FEFF 		bl	strcmp
 755              	.LVL73:
1319:ThirdParty/Letter-shell/Src/shell.c ****                 SHELL_HISTORY_MAX_NUMBER : shell->history.record) - 1],
 756              		.loc 1 1319 9 view .LVU219
 757 0026 00B3     		cbz	r0, .L71
 758              	.L72:
1325:ThirdParty/Letter-shell/Src/shell.c ****                         shell->parser.buffer) != 0)
 759              		.loc 1 1325 5 is_stmt 1 view .LVU220
1325:ThirdParty/Letter-shell/Src/shell.c ****                         shell->parser.buffer) != 0)
 760              		.loc 1 1325 59 is_stmt 0 view .LVU221
 761 0028 B4F85230 		ldrh	r3, [r4, #82]
1325:ThirdParty/Letter-shell/Src/shell.c ****                         shell->parser.buffer) != 0)
 762              		.loc 1 1325 9 view .LVU222
 763 002c 0E33     		adds	r3, r3, #14
 764 002e 04EB8303 		add	r3, r4, r3, lsl #2
 765 0032 2169     		ldr	r1, [r4, #16]
 766 0034 5868     		ldr	r0, [r3, #4]
 767 0036 FFF7FEFF 		bl	shellStringCopy
 768              	.LVL74:
1325:ThirdParty/Letter-shell/Src/shell.c ****                         shell->parser.buffer) != 0)
 769              		.loc 1 1325 8 view .LVU223
ARM GAS  /var/folders/h7/llxr0vxd5sd9z74__7r6nx9r0000gn/T//ccSPSBV9.s 			page 42


 770 003a 20B1     		cbz	r0, .L75
1328:ThirdParty/Letter-shell/Src/shell.c ****     }
 771              		.loc 1 1328 9 is_stmt 1 view .LVU224
1328:ThirdParty/Letter-shell/Src/shell.c ****     }
 772              		.loc 1 1328 23 is_stmt 0 view .LVU225
 773 003c B4F85230 		ldrh	r3, [r4, #82]
1328:ThirdParty/Letter-shell/Src/shell.c ****     }
 774              		.loc 1 1328 30 view .LVU226
 775 0040 0133     		adds	r3, r3, #1
 776 0042 A4F85230 		strh	r3, [r4, #82]	@ movhi
 777              	.L75:
1330:ThirdParty/Letter-shell/Src/shell.c ****     {
 778              		.loc 1 1330 5 is_stmt 1 view .LVU227
1330:ThirdParty/Letter-shell/Src/shell.c ****     {
 779              		.loc 1 1330 25 is_stmt 0 view .LVU228
 780 0046 B4F85030 		ldrh	r3, [r4, #80]
1330:ThirdParty/Letter-shell/Src/shell.c ****     {
 781              		.loc 1 1330 9 view .LVU229
 782 004a 0133     		adds	r3, r3, #1
 783 004c 9BB2     		uxth	r3, r3
1330:ThirdParty/Letter-shell/Src/shell.c ****     {
 784              		.loc 1 1330 8 view .LVU230
 785 004e A4F85030 		strh	r3, [r4, #80]	@ movhi
 786 0052 052B     		cmp	r3, #5
 787 0054 02D9     		bls	.L76
1332:ThirdParty/Letter-shell/Src/shell.c ****     }
 788              		.loc 1 1332 9 is_stmt 1 view .LVU231
1332:ThirdParty/Letter-shell/Src/shell.c ****     }
 789              		.loc 1 1332 31 is_stmt 0 view .LVU232
 790 0056 0523     		movs	r3, #5
 791 0058 A4F85030 		strh	r3, [r4, #80]	@ movhi
 792              	.L76:
1334:ThirdParty/Letter-shell/Src/shell.c ****     {
 793              		.loc 1 1334 5 is_stmt 1 view .LVU233
1334:ThirdParty/Letter-shell/Src/shell.c ****     {
 794              		.loc 1 1334 23 is_stmt 0 view .LVU234
 795 005c B4F85230 		ldrh	r3, [r4, #82]
1334:ThirdParty/Letter-shell/Src/shell.c ****     {
 796              		.loc 1 1334 8 view .LVU235
 797 0060 042B     		cmp	r3, #4
 798 0062 02D9     		bls	.L71
1336:ThirdParty/Letter-shell/Src/shell.c ****     }
 799              		.loc 1 1336 9 is_stmt 1 view .LVU236
1336:ThirdParty/Letter-shell/Src/shell.c ****     }
 800              		.loc 1 1336 31 is_stmt 0 view .LVU237
 801 0064 0023     		movs	r3, #0
 802 0066 A4F85230 		strh	r3, [r4, #82]	@ movhi
 803              	.L71:
1338:ThirdParty/Letter-shell/Src/shell.c **** 
 804              		.loc 1 1338 1 view .LVU238
 805 006a 10BD     		pop	{r4, pc}
 806              	.LVL75:
 807              	.L77:
1320:ThirdParty/Letter-shell/Src/shell.c ****                 shell->parser.buffer) == 0)
 808              		.loc 1 1320 67 view .LVU239
 809 006c 0423     		movs	r3, #4
 810 006e D3E7     		b	.L73
ARM GAS  /var/folders/h7/llxr0vxd5sd9z74__7r6nx9r0000gn/T//ccSPSBV9.s 			page 43


 811              		.cfi_endproc
 812              	.LFE40:
 814              		.section	.text.shellRemoveParamQuotes,"ax",%progbits
 815              		.align	1
 816              		.syntax unified
 817              		.thumb
 818              		.thumb_func
 820              	shellRemoveParamQuotes:
 821              	.LVL76:
 822              	.LFB30:
 952:ThirdParty/Letter-shell/Src/shell.c ****     unsigned short paramLength;
 823              		.loc 1 952 1 is_stmt 1 view -0
 824              		.cfi_startproc
 825              		@ args = 0, pretend = 0, frame = 0
 826              		@ frame_needed = 0, uses_anonymous_args = 0
 952:ThirdParty/Letter-shell/Src/shell.c ****     unsigned short paramLength;
 827              		.loc 1 952 1 is_stmt 0 view .LVU241
 828 0000 70B5     		push	{r4, r5, r6, lr}
 829              	.LCFI10:
 830              		.cfi_def_cfa_offset 16
 831              		.cfi_offset 4, -16
 832              		.cfi_offset 5, -12
 833              		.cfi_offset 6, -8
 834              		.cfi_offset 14, -4
 835 0002 0546     		mov	r5, r0
 953:ThirdParty/Letter-shell/Src/shell.c ****     for (unsigned short i = 0; i < shell->parser.paramCount; i++)
 836              		.loc 1 953 5 is_stmt 1 view .LVU242
 954:ThirdParty/Letter-shell/Src/shell.c ****     {
 837              		.loc 1 954 5 view .LVU243
 838              	.LBB6:
 954:ThirdParty/Letter-shell/Src/shell.c ****     {
 839              		.loc 1 954 10 view .LVU244
 840              	.LVL77:
 954:ThirdParty/Letter-shell/Src/shell.c ****     {
 841              		.loc 1 954 25 is_stmt 0 view .LVU245
 842 0004 0024     		movs	r4, #0
 954:ThirdParty/Letter-shell/Src/shell.c ****     {
 843              		.loc 1 954 5 view .LVU246
 844 0006 0AE0     		b	.L80
 845              	.LVL78:
 846              	.L86:
 958:ThirdParty/Letter-shell/Src/shell.c ****             shell->parser.param[i] = &shell->parser.param[i][1];
 847              		.loc 1 958 13 is_stmt 1 view .LVU247
 958:ThirdParty/Letter-shell/Src/shell.c ****             shell->parser.param[i] = &shell->parser.param[i][1];
 848              		.loc 1 958 39 is_stmt 0 view .LVU248
 849 0008 0021     		movs	r1, #0
 850 000a 1170     		strb	r1, [r2]
 959:ThirdParty/Letter-shell/Src/shell.c ****         }
 851              		.loc 1 959 13 is_stmt 1 view .LVU249
 959:ThirdParty/Letter-shell/Src/shell.c ****         }
 852              		.loc 1 959 58 is_stmt 0 view .LVU250
 853 000c 221D     		adds	r2, r4, #4
 854 000e 05EB8202 		add	r2, r5, r2, lsl #2
 855 0012 5168     		ldr	r1, [r2, #4]
 959:ThirdParty/Letter-shell/Src/shell.c ****         }
 856              		.loc 1 959 38 view .LVU251
 857 0014 0131     		adds	r1, r1, #1
ARM GAS  /var/folders/h7/llxr0vxd5sd9z74__7r6nx9r0000gn/T//ccSPSBV9.s 			page 44


 959:ThirdParty/Letter-shell/Src/shell.c ****         }
 858              		.loc 1 959 36 view .LVU252
 859 0016 5160     		str	r1, [r2, #4]
 860 0018 0CE0     		b	.L81
 861              	.LVL79:
 862              	.L82:
 954:ThirdParty/Letter-shell/Src/shell.c ****     {
 863              		.loc 1 954 63 is_stmt 1 discriminator 2 view .LVU253
 864 001a 0134     		adds	r4, r4, #1
 865              	.LVL80:
 954:ThirdParty/Letter-shell/Src/shell.c ****     {
 866              		.loc 1 954 63 is_stmt 0 discriminator 2 view .LVU254
 867 001c A4B2     		uxth	r4, r4
 868              	.LVL81:
 869              	.L80:
 954:ThirdParty/Letter-shell/Src/shell.c ****     {
 870              		.loc 1 954 34 is_stmt 1 discriminator 1 view .LVU255
 954:ThirdParty/Letter-shell/Src/shell.c ****     {
 871              		.loc 1 954 49 is_stmt 0 discriminator 1 view .LVU256
 872 001e EB8E     		ldrh	r3, [r5, #54]
 954:ThirdParty/Letter-shell/Src/shell.c ****     {
 873              		.loc 1 954 34 discriminator 1 view .LVU257
 874 0020 A342     		cmp	r3, r4
 875 0022 16D9     		bls	.L85
 956:ThirdParty/Letter-shell/Src/shell.c ****         {
 876              		.loc 1 956 9 is_stmt 1 view .LVU258
 956:ThirdParty/Letter-shell/Src/shell.c ****         {
 877              		.loc 1 956 32 is_stmt 0 view .LVU259
 878 0024 2346     		mov	r3, r4
 879 0026 221D     		adds	r2, r4, #4
 880 0028 05EB8202 		add	r2, r5, r2, lsl #2
 881 002c 5268     		ldr	r2, [r2, #4]
 956:ThirdParty/Letter-shell/Src/shell.c ****         {
 882              		.loc 1 956 35 view .LVU260
 883 002e 1178     		ldrb	r1, [r2]	@ zero_extendqisi2
 956:ThirdParty/Letter-shell/Src/shell.c ****         {
 884              		.loc 1 956 12 view .LVU261
 885 0030 2229     		cmp	r1, #34
 886 0032 E9D0     		beq	.L86
 887              	.L81:
 961:ThirdParty/Letter-shell/Src/shell.c ****         if (shell->parser.param[i][paramLength - 1] == '\"')
 888              		.loc 1 961 9 is_stmt 1 view .LVU262
 961:ThirdParty/Letter-shell/Src/shell.c ****         if (shell->parser.param[i][paramLength - 1] == '\"')
 889              		.loc 1 961 49 is_stmt 0 view .LVU263
 890 0034 0433     		adds	r3, r3, #4
 891 0036 05EB8303 		add	r3, r5, r3, lsl #2
 892 003a 5E68     		ldr	r6, [r3, #4]
 961:ThirdParty/Letter-shell/Src/shell.c ****         if (shell->parser.param[i][paramLength - 1] == '\"')
 893              		.loc 1 961 23 view .LVU264
 894 003c 3046     		mov	r0, r6
 895 003e FFF7FEFF 		bl	strlen
 896              	.LVL82:
 962:ThirdParty/Letter-shell/Src/shell.c ****         {
 897              		.loc 1 962 9 is_stmt 1 view .LVU265
 962:ThirdParty/Letter-shell/Src/shell.c ****         {
 898              		.loc 1 962 35 is_stmt 0 view .LVU266
 899 0042 83B2     		uxth	r3, r0
ARM GAS  /var/folders/h7/llxr0vxd5sd9z74__7r6nx9r0000gn/T//ccSPSBV9.s 			page 45


 900 0044 013B     		subs	r3, r3, #1
 901 0046 F25C     		ldrb	r2, [r6, r3]	@ zero_extendqisi2
 962:ThirdParty/Letter-shell/Src/shell.c ****         {
 902              		.loc 1 962 12 view .LVU267
 903 0048 222A     		cmp	r2, #34
 904 004a E6D1     		bne	.L82
 964:ThirdParty/Letter-shell/Src/shell.c ****         }
 905              		.loc 1 964 13 is_stmt 1 view .LVU268
 964:ThirdParty/Letter-shell/Src/shell.c ****         }
 906              		.loc 1 964 53 is_stmt 0 view .LVU269
 907 004c 0022     		movs	r2, #0
 908 004e F254     		strb	r2, [r6, r3]
 909 0050 E3E7     		b	.L82
 910              	.LVL83:
 911              	.L85:
 964:ThirdParty/Letter-shell/Src/shell.c ****         }
 912              		.loc 1 964 53 view .LVU270
 913              	.LBE6:
 967:ThirdParty/Letter-shell/Src/shell.c **** 
 914              		.loc 1 967 1 view .LVU271
 915 0052 70BD     		pop	{r4, r5, r6, pc}
 967:ThirdParty/Letter-shell/Src/shell.c **** 
 916              		.loc 1 967 1 view .LVU272
 917              		.cfi_endproc
 918              	.LFE30:
 920              		.section	.text.shellRemove,"ax",%progbits
 921              		.align	1
 922              		.global	shellRemove
 923              		.syntax unified
 924              		.thumb
 925              		.thumb_func
 927              	shellRemove:
 928              	.LVL84:
 929              	.LFB5:
 247:ThirdParty/Letter-shell/Src/shell.c ****     for (short i = 0; i < SHELL_MAX_NUMBER; i++)
 930              		.loc 1 247 1 is_stmt 1 view -0
 931              		.cfi_startproc
 932              		@ args = 0, pretend = 0, frame = 0
 933              		@ frame_needed = 0, uses_anonymous_args = 0
 934              		@ link register save eliminated.
 248:ThirdParty/Letter-shell/Src/shell.c ****     {
 935              		.loc 1 248 5 view .LVU274
 936              	.LBB7:
 248:ThirdParty/Letter-shell/Src/shell.c ****     {
 937              		.loc 1 248 10 view .LVU275
 248:ThirdParty/Letter-shell/Src/shell.c ****     {
 938              		.loc 1 248 16 is_stmt 0 view .LVU276
 939 0000 0023     		movs	r3, #0
 940              	.LVL85:
 941              	.L88:
 248:ThirdParty/Letter-shell/Src/shell.c ****     {
 942              		.loc 1 248 25 is_stmt 1 discriminator 1 view .LVU277
 943 0002 042B     		cmp	r3, #4
 944 0004 0CDC     		bgt	.L92
 250:ThirdParty/Letter-shell/Src/shell.c ****         {
 945              		.loc 1 250 9 view .LVU278
 250:ThirdParty/Letter-shell/Src/shell.c ****         {
ARM GAS  /var/folders/h7/llxr0vxd5sd9z74__7r6nx9r0000gn/T//ccSPSBV9.s 			page 46


 946              		.loc 1 250 22 is_stmt 0 view .LVU279
 947 0006 074A     		ldr	r2, .L94
 948 0008 52F82320 		ldr	r2, [r2, r3, lsl #2]
 250:ThirdParty/Letter-shell/Src/shell.c ****         {
 949              		.loc 1 250 12 view .LVU280
 950 000c 8242     		cmp	r2, r0
 951 000e 02D0     		beq	.L93
 248:ThirdParty/Letter-shell/Src/shell.c ****     {
 952              		.loc 1 248 46 is_stmt 1 discriminator 2 view .LVU281
 953 0010 0133     		adds	r3, r3, #1
 954              	.LVL86:
 248:ThirdParty/Letter-shell/Src/shell.c ****     {
 955              		.loc 1 248 46 is_stmt 0 discriminator 2 view .LVU282
 956 0012 1BB2     		sxth	r3, r3
 957              	.LVL87:
 248:ThirdParty/Letter-shell/Src/shell.c ****     {
 958              		.loc 1 248 46 discriminator 2 view .LVU283
 959 0014 F5E7     		b	.L88
 960              	.L93:
 252:ThirdParty/Letter-shell/Src/shell.c ****             return;
 961              		.loc 1 252 13 is_stmt 1 view .LVU284
 252:ThirdParty/Letter-shell/Src/shell.c ****             return;
 962              		.loc 1 252 26 is_stmt 0 view .LVU285
 963 0016 034A     		ldr	r2, .L94
 964 0018 0021     		movs	r1, #0
 965 001a 42F82310 		str	r1, [r2, r3, lsl #2]
 253:ThirdParty/Letter-shell/Src/shell.c ****         }
 966              		.loc 1 253 13 is_stmt 1 view .LVU286
 967 001e 7047     		bx	lr
 968              	.L92:
 253:ThirdParty/Letter-shell/Src/shell.c ****         }
 969              		.loc 1 253 13 is_stmt 0 view .LVU287
 970              	.LBE7:
 256:ThirdParty/Letter-shell/Src/shell.c **** 
 971              		.loc 1 256 1 view .LVU288
 972 0020 7047     		bx	lr
 973              	.L95:
 974 0022 00BF     		.align	2
 975              	.L94:
 976 0024 00000000 		.word	shellList
 977              		.cfi_endproc
 978              	.LFE5:
 980              		.section	.text.shellGetCurrent,"ax",%progbits
 981              		.align	1
 982              		.global	shellGetCurrent
 983              		.syntax unified
 984              		.thumb
 985              		.thumb_func
 987              	shellGetCurrent:
 988              	.LFB6:
 264:ThirdParty/Letter-shell/Src/shell.c ****     for (short i = 0; i < SHELL_MAX_NUMBER; i++)
 989              		.loc 1 264 1 is_stmt 1 view -0
 990              		.cfi_startproc
 991              		@ args = 0, pretend = 0, frame = 0
 992              		@ frame_needed = 0, uses_anonymous_args = 0
 993              		@ link register save eliminated.
 265:ThirdParty/Letter-shell/Src/shell.c ****     {
ARM GAS  /var/folders/h7/llxr0vxd5sd9z74__7r6nx9r0000gn/T//ccSPSBV9.s 			page 47


 994              		.loc 1 265 5 view .LVU290
 995              	.LBB8:
 265:ThirdParty/Letter-shell/Src/shell.c ****     {
 996              		.loc 1 265 10 view .LVU291
 997              	.LVL88:
 265:ThirdParty/Letter-shell/Src/shell.c ****     {
 998              		.loc 1 265 16 is_stmt 0 view .LVU292
 999 0000 0023     		movs	r3, #0
 265:ThirdParty/Letter-shell/Src/shell.c ****     {
 1000              		.loc 1 265 5 view .LVU293
 1001 0002 01E0     		b	.L97
 1002              	.LVL89:
 1003              	.L98:
 265:ThirdParty/Letter-shell/Src/shell.c ****     {
 1004              		.loc 1 265 46 is_stmt 1 discriminator 2 view .LVU294
 1005 0004 0133     		adds	r3, r3, #1
 1006              	.LVL90:
 265:ThirdParty/Letter-shell/Src/shell.c ****     {
 1007              		.loc 1 265 46 is_stmt 0 discriminator 2 view .LVU295
 1008 0006 1BB2     		sxth	r3, r3
 1009              	.LVL91:
 1010              	.L97:
 265:ThirdParty/Letter-shell/Src/shell.c ****     {
 1011              		.loc 1 265 25 is_stmt 1 discriminator 1 view .LVU296
 1012 0008 042B     		cmp	r3, #4
 1013 000a 0ADC     		bgt	.L101
 267:ThirdParty/Letter-shell/Src/shell.c ****         {
 1014              		.loc 1 267 9 view .LVU297
 267:ThirdParty/Letter-shell/Src/shell.c ****         {
 1015              		.loc 1 267 22 is_stmt 0 view .LVU298
 1016 000c 064A     		ldr	r2, .L102
 1017 000e 52F82300 		ldr	r0, [r2, r3, lsl #2]
 267:ThirdParty/Letter-shell/Src/shell.c ****         {
 1018              		.loc 1 267 12 view .LVU299
 1019 0012 0028     		cmp	r0, #0
 1020 0014 F6D0     		beq	.L98
 267:ThirdParty/Letter-shell/Src/shell.c ****         {
 1021              		.loc 1 267 26 discriminator 1 view .LVU300
 1022 0016 90F86020 		ldrb	r2, [r0, #96]	@ zero_extendqisi2
 1023 001a 12F0020F 		tst	r2, #2
 1024 001e F1D0     		beq	.L98
 1025 0020 00E0     		b	.L96
 1026              	.L101:
 1027              	.LBE8:
 272:ThirdParty/Letter-shell/Src/shell.c **** }
 1028              		.loc 1 272 12 view .LVU301
 1029 0022 0020     		movs	r0, #0
 1030              	.L96:
 273:ThirdParty/Letter-shell/Src/shell.c **** 
 1031              		.loc 1 273 1 view .LVU302
 1032 0024 7047     		bx	lr
 1033              	.L103:
 1034 0026 00BF     		.align	2
 1035              	.L102:
 1036 0028 00000000 		.word	shellList
 1037              		.cfi_endproc
 1038              	.LFE6:
ARM GAS  /var/folders/h7/llxr0vxd5sd9z74__7r6nx9r0000gn/T//ccSPSBV9.s 			page 48


 1040              		.section	.text.shellWriteString,"ax",%progbits
 1041              		.align	1
 1042              		.global	shellWriteString
 1043              		.syntax unified
 1044              		.thumb
 1045              		.thumb_func
 1047              	shellWriteString:
 1048              	.LVL92:
 1049              	.LFB8:
 297:ThirdParty/Letter-shell/Src/shell.c ****     unsigned short count = 0;
 1050              		.loc 1 297 1 is_stmt 1 view -0
 1051              		.cfi_startproc
 1052              		@ args = 0, pretend = 0, frame = 0
 1053              		@ frame_needed = 0, uses_anonymous_args = 0
 297:ThirdParty/Letter-shell/Src/shell.c ****     unsigned short count = 0;
 1054              		.loc 1 297 1 is_stmt 0 view .LVU304
 1055 0000 10B5     		push	{r4, lr}
 1056              	.LCFI11:
 1057              		.cfi_def_cfa_offset 8
 1058              		.cfi_offset 4, -8
 1059              		.cfi_offset 14, -4
 298:ThirdParty/Letter-shell/Src/shell.c ****     const char *p = string;
 1060              		.loc 1 298 5 is_stmt 1 view .LVU305
 1061              	.LVL93:
 299:ThirdParty/Letter-shell/Src/shell.c ****     SHELL_ASSERT(shell->write, return 0);
 1062              		.loc 1 299 5 view .LVU306
 300:ThirdParty/Letter-shell/Src/shell.c ****     while(*p++)
 1063              		.loc 1 300 5 view .LVU307
 1064 0002 846E     		ldr	r4, [r0, #104]
 1065 0004 6CB1     		cbz	r4, .L108
 1066 0006 8C46     		mov	ip, r1
 299:ThirdParty/Letter-shell/Src/shell.c ****     SHELL_ASSERT(shell->write, return 0);
 1067              		.loc 1 299 17 is_stmt 0 view .LVU308
 1068 0008 0B46     		mov	r3, r1
 298:ThirdParty/Letter-shell/Src/shell.c ****     const char *p = string;
 1069              		.loc 1 298 20 view .LVU309
 1070 000a 0021     		movs	r1, #0
 1071              	.LVL94:
 298:ThirdParty/Letter-shell/Src/shell.c ****     const char *p = string;
 1072              		.loc 1 298 20 view .LVU310
 1073 000c 01E0     		b	.L106
 1074              	.LVL95:
 1075              	.L107:
 303:ThirdParty/Letter-shell/Src/shell.c ****     }
 1076              		.loc 1 303 9 is_stmt 1 view .LVU311
 303:ThirdParty/Letter-shell/Src/shell.c ****     }
 1077              		.loc 1 303 15 is_stmt 0 view .LVU312
 1078 000e 0131     		adds	r1, r1, #1
 1079              	.LVL96:
 303:ThirdParty/Letter-shell/Src/shell.c ****     }
 1080              		.loc 1 303 15 view .LVU313
 1081 0010 89B2     		uxth	r1, r1
 1082              	.LVL97:
 1083              	.L106:
 301:ThirdParty/Letter-shell/Src/shell.c ****     {
 1084              		.loc 1 301 11 is_stmt 1 view .LVU314
 301:ThirdParty/Letter-shell/Src/shell.c ****     {
ARM GAS  /var/folders/h7/llxr0vxd5sd9z74__7r6nx9r0000gn/T//ccSPSBV9.s 			page 49


 1085              		.loc 1 301 11 is_stmt 0 view .LVU315
 1086 0012 13F8012B 		ldrb	r2, [r3], #1	@ zero_extendqisi2
 1087              	.LVL98:
 301:ThirdParty/Letter-shell/Src/shell.c ****     {
 1088              		.loc 1 301 11 view .LVU316
 1089 0016 002A     		cmp	r2, #0
 1090 0018 F9D1     		bne	.L107
 305:ThirdParty/Letter-shell/Src/shell.c **** }
 1091              		.loc 1 305 5 is_stmt 1 view .LVU317
 305:ThirdParty/Letter-shell/Src/shell.c **** }
 1092              		.loc 1 305 12 is_stmt 0 view .LVU318
 1093 001a 6046     		mov	r0, ip
 1094              	.LVL99:
 305:ThirdParty/Letter-shell/Src/shell.c **** }
 1095              		.loc 1 305 12 view .LVU319
 1096 001c A047     		blx	r4
 1097              	.LVL100:
 305:ThirdParty/Letter-shell/Src/shell.c **** }
 1098              		.loc 1 305 12 view .LVU320
 1099 001e 80B2     		uxth	r0, r0
 1100              	.LVL101:
 1101              	.L105:
 306:ThirdParty/Letter-shell/Src/shell.c **** 
 1102              		.loc 1 306 1 view .LVU321
 1103 0020 10BD     		pop	{r4, pc}
 1104              	.LVL102:
 1105              	.L108:
 300:ThirdParty/Letter-shell/Src/shell.c ****     while(*p++)
 1106              		.loc 1 300 5 view .LVU322
 1107 0022 0020     		movs	r0, #0
 1108              	.LVL103:
 300:ThirdParty/Letter-shell/Src/shell.c ****     while(*p++)
 1109              		.loc 1 300 5 view .LVU323
 1110 0024 FCE7     		b	.L105
 1111              		.cfi_endproc
 1112              	.LFE8:
 1114              		.section	.rodata.shellWritePrompt.str1.4,"aMS",%progbits,1
 1115              		.align	2
 1116              	.LC1:
 1117 0000 2F00     		.ascii	"/\000"
 1118 0002 0000     		.align	2
 1119              	.LC2:
 1120 0004 0D0A00   		.ascii	"\015\012\000"
 1121 0007 00       		.align	2
 1122              	.LC3:
 1123 0008 3A00     		.ascii	":\000"
 1124 000a 0000     		.align	2
 1125              	.LC4:
 1126 000c 242000   		.ascii	"$ \000"
 1127 000f 00       		.align	2
 1128              	.LC5:
 1129 0010 506C6561 		.ascii	"Please input password:\000"
 1129      73652069 
 1129      6E707574 
 1129      20706173 
 1129      73776F72 
 1130              		.section	.text.shellWritePrompt,"ax",%progbits
ARM GAS  /var/folders/h7/llxr0vxd5sd9z74__7r6nx9r0000gn/T//ccSPSBV9.s 			page 50


 1131              		.align	1
 1132              		.syntax unified
 1133              		.thumb
 1134              		.thumb_func
 1136              	shellWritePrompt:
 1137              	.LVL104:
 1138              	.LFB10:
 349:ThirdParty/Letter-shell/Src/shell.c ****     if (shell->status.isChecked)
 1139              		.loc 1 349 1 is_stmt 1 view -0
 1140              		.cfi_startproc
 1141              		@ args = 0, pretend = 0, frame = 0
 1142              		@ frame_needed = 0, uses_anonymous_args = 0
 349:ThirdParty/Letter-shell/Src/shell.c ****     if (shell->status.isChecked)
 1143              		.loc 1 349 1 is_stmt 0 view .LVU325
 1144 0000 10B5     		push	{r4, lr}
 1145              	.LCFI12:
 1146              		.cfi_def_cfa_offset 8
 1147              		.cfi_offset 4, -8
 1148              		.cfi_offset 14, -4
 1149 0002 0446     		mov	r4, r0
 350:ThirdParty/Letter-shell/Src/shell.c ****     {
 1150              		.loc 1 350 5 is_stmt 1 view .LVU326
 350:ThirdParty/Letter-shell/Src/shell.c ****     {
 1151              		.loc 1 350 9 is_stmt 0 view .LVU327
 1152 0004 90F86030 		ldrb	r3, [r0, #96]	@ zero_extendqisi2
 350:ThirdParty/Letter-shell/Src/shell.c ****     {
 1153              		.loc 1 350 8 view .LVU328
 1154 0008 13F0010F 		tst	r3, #1
 1155 000c 19D0     		beq	.L111
 352:ThirdParty/Letter-shell/Src/shell.c ****         {
 1156              		.loc 1 352 9 is_stmt 1 view .LVU329
 352:ThirdParty/Letter-shell/Src/shell.c ****         {
 1157              		.loc 1 352 12 is_stmt 0 view .LVU330
 1158 000e 91B9     		cbnz	r1, .L116
 1159              	.LVL105:
 1160              	.L112:
 356:ThirdParty/Letter-shell/Src/shell.c ****         shellWriteString(shell, ":");
 1161              		.loc 1 356 9 is_stmt 1 view .LVU331
 356:ThirdParty/Letter-shell/Src/shell.c ****         shellWriteString(shell, ":");
 1162              		.loc 1 356 44 is_stmt 0 view .LVU332
 1163 0010 2368     		ldr	r3, [r4]
 356:ThirdParty/Letter-shell/Src/shell.c ****         shellWriteString(shell, ":");
 1164              		.loc 1 356 9 view .LVU333
 1165 0012 5968     		ldr	r1, [r3, #4]
 1166 0014 2046     		mov	r0, r4
 1167 0016 FFF7FEFF 		bl	shellWriteString
 1168              	.LVL106:
 357:ThirdParty/Letter-shell/Src/shell.c ****         shellWriteString(shell, shell->info.path ? shell->info.path : "/");
 1169              		.loc 1 357 9 is_stmt 1 view .LVU334
 1170 001a 0C49     		ldr	r1, .L118
 1171 001c 2046     		mov	r0, r4
 1172 001e FFF7FEFF 		bl	shellWriteString
 1173              	.LVL107:
 358:ThirdParty/Letter-shell/Src/shell.c ****         shellWriteString(shell, "$ ");
 1174              		.loc 1 358 9 view .LVU335
 358:ThirdParty/Letter-shell/Src/shell.c ****         shellWriteString(shell, "$ ");
 1175              		.loc 1 358 44 is_stmt 0 view .LVU336
ARM GAS  /var/folders/h7/llxr0vxd5sd9z74__7r6nx9r0000gn/T//ccSPSBV9.s 			page 51


 1176 0022 A168     		ldr	r1, [r4, #8]
 358:ThirdParty/Letter-shell/Src/shell.c ****         shellWriteString(shell, "$ ");
 1177              		.loc 1 358 9 view .LVU337
 1178 0024 59B1     		cbz	r1, .L117
 1179              	.L113:
 358:ThirdParty/Letter-shell/Src/shell.c ****         shellWriteString(shell, "$ ");
 1180              		.loc 1 358 9 discriminator 4 view .LVU338
 1181 0026 2046     		mov	r0, r4
 1182 0028 FFF7FEFF 		bl	shellWriteString
 1183              	.LVL108:
 359:ThirdParty/Letter-shell/Src/shell.c ****     }
 1184              		.loc 1 359 9 is_stmt 1 discriminator 4 view .LVU339
 1185 002c 0849     		ldr	r1, .L118+4
 1186 002e 2046     		mov	r0, r4
 1187 0030 FFF7FEFF 		bl	shellWriteString
 1188              	.LVL109:
 1189              	.L110:
 365:ThirdParty/Letter-shell/Src/shell.c **** 
 1190              		.loc 1 365 1 is_stmt 0 view .LVU340
 1191 0034 10BD     		pop	{r4, pc}
 1192              	.LVL110:
 1193              	.L116:
 354:ThirdParty/Letter-shell/Src/shell.c ****         }
 1194              		.loc 1 354 13 is_stmt 1 view .LVU341
 1195 0036 0749     		ldr	r1, .L118+8
 1196              	.LVL111:
 354:ThirdParty/Letter-shell/Src/shell.c ****         }
 1197              		.loc 1 354 13 is_stmt 0 view .LVU342
 1198 0038 FFF7FEFF 		bl	shellWriteString
 1199              	.LVL112:
 354:ThirdParty/Letter-shell/Src/shell.c ****         }
 1200              		.loc 1 354 13 view .LVU343
 1201 003c E8E7     		b	.L112
 1202              	.L117:
 358:ThirdParty/Letter-shell/Src/shell.c ****         shellWriteString(shell, "$ ");
 1203              		.loc 1 358 9 view .LVU344
 1204 003e 0649     		ldr	r1, .L118+12
 1205 0040 F1E7     		b	.L113
 1206              	.LVL113:
 1207              	.L111:
 363:ThirdParty/Letter-shell/Src/shell.c ****     }
 1208              		.loc 1 363 9 is_stmt 1 view .LVU345
 1209 0042 0649     		ldr	r1, .L118+16
 1210              	.LVL114:
 363:ThirdParty/Letter-shell/Src/shell.c ****     }
 1211              		.loc 1 363 9 is_stmt 0 view .LVU346
 1212 0044 FFF7FEFF 		bl	shellWriteString
 1213              	.LVL115:
 365:ThirdParty/Letter-shell/Src/shell.c **** 
 1214              		.loc 1 365 1 view .LVU347
 1215 0048 F4E7     		b	.L110
 1216              	.L119:
 1217 004a 00BF     		.align	2
 1218              	.L118:
 1219 004c 08000000 		.word	.LC3
 1220 0050 0C000000 		.word	.LC4
 1221 0054 04000000 		.word	.LC2
ARM GAS  /var/folders/h7/llxr0vxd5sd9z74__7r6nx9r0000gn/T//ccSPSBV9.s 			page 52


 1222 0058 00000000 		.word	.LC1
 1223 005c 10000000 		.word	.LC5
 1224              		.cfi_endproc
 1225              	.LFE10:
 1227              		.section	.rodata.shellCheckPassword.str1.4,"aMS",%progbits,1
 1228              		.align	2
 1229              	.LC6:
 1230 0000 0D0A205F 		.ascii	"\015\012 _         _   _                  _        "
 1230      20202020 
 1230      20202020 
 1230      205F2020 
 1230      205F2020 
 1231 002d 20205F20 		.ascii	"  _ _ \015\012| |    ___| |_| |_ ___ _ __   ___| |_"
 1231      5F200D0A 
 1231      7C207C20 
 1231      2020205F 
 1231      5F5F7C20 
 1232 005a 5F202020 		.ascii	"_   ___| | |\015\012| |   / _ \\ __| __/ _ \\ '__| "
 1232      5F5F5F7C 
 1232      207C207C 
 1232      0D0A7C20 
 1232      7C202020 
 1233 0085 2F205F5F 		.ascii	"/ __| '_ \\ / _ \\ | |\015\012| |__|  __/ |_| ||  _"
 1233      7C20275F 
 1233      205C202F 
 1233      205F205C 
 1233      207C207C 
 1234 00b0 5F2F207C 		.ascii	"_/ |    \\__ \\ | | |  __/ | |\015\012|_____\\___|\\"
 1234      20202020 
 1234      5C5F5F20 
 1234      5C207C20 
 1234      7C207C20 
 1235 00da 5F5F7C5C 		.ascii	"__|\\__\\___|_|    |___/_| |_|\\___|_|_|\015\012\015"
 1235      5F5F5C5F 
 1235      5F5F7C5F 
 1235      7C202020 
 1235      207C5F5F 
 1236 0102 0A427569 		.ascii	"\012Build:       Aug 27 2023 16:46:24\015\012Versio"
 1236      6C643A20 
 1236      20202020 
 1236      20204175 
 1236      67203237 
 1237 012c 6E3A2020 		.ascii	"n:     3.2.0\015\012Copyright:   (c) 2020 Letter\015"
 1237      20202033 
 1237      2E322E30 
 1237      0D0A436F 
 1237      70797269 
 1238 0157 0A00     		.ascii	"\012\000"
 1239 0159 000000   		.align	2
 1240              	.LC7:
 1241 015c 0D0A7061 		.ascii	"\015\012password error\015\012\000"
 1241      7373776F 
 1241      72642065 
 1241      72726F72 
 1241      0D0A00
 1242              		.section	.text.shellCheckPassword,"ax",%progbits
 1243              		.align	1
ARM GAS  /var/folders/h7/llxr0vxd5sd9z74__7r6nx9r0000gn/T//ccSPSBV9.s 			page 53


 1244              		.syntax unified
 1245              		.thumb
 1246              		.thumb_func
 1248              	shellCheckPassword:
 1249              	.LVL116:
 1250              	.LFB37:
1240:ThirdParty/Letter-shell/Src/shell.c ****     if (strcmp(shell->parser.buffer, shell->info.user->data.user.password) == 0)
 1251              		.loc 1 1240 1 is_stmt 1 view -0
 1252              		.cfi_startproc
 1253              		@ args = 0, pretend = 0, frame = 0
 1254              		@ frame_needed = 0, uses_anonymous_args = 0
1240:ThirdParty/Letter-shell/Src/shell.c ****     if (strcmp(shell->parser.buffer, shell->info.user->data.user.password) == 0)
 1255              		.loc 1 1240 1 is_stmt 0 view .LVU349
 1256 0000 10B5     		push	{r4, lr}
 1257              	.LCFI13:
 1258              		.cfi_def_cfa_offset 8
 1259              		.cfi_offset 4, -8
 1260              		.cfi_offset 14, -4
 1261 0002 0446     		mov	r4, r0
1241:ThirdParty/Letter-shell/Src/shell.c ****     {
 1262              		.loc 1 1241 5 is_stmt 1 view .LVU350
1241:ThirdParty/Letter-shell/Src/shell.c ****     {
 1263              		.loc 1 1241 49 is_stmt 0 view .LVU351
 1264 0004 0368     		ldr	r3, [r0]
1241:ThirdParty/Letter-shell/Src/shell.c ****     {
 1265              		.loc 1 1241 9 view .LVU352
 1266 0006 9968     		ldr	r1, [r3, #8]
 1267 0008 0069     		ldr	r0, [r0, #16]
 1268              	.LVL117:
1241:ThirdParty/Letter-shell/Src/shell.c ****     {
 1269              		.loc 1 1241 9 view .LVU353
 1270 000a FFF7FEFF 		bl	strcmp
 1271              	.LVL118:
1241:ThirdParty/Letter-shell/Src/shell.c ****     {
 1272              		.loc 1 1241 8 view .LVU354
 1273 000e 68B9     		cbnz	r0, .L121
1243:ThirdParty/Letter-shell/Src/shell.c ****     #if SHELL_SHOW_INFO == 1
 1274              		.loc 1 1243 9 is_stmt 1 view .LVU355
1243:ThirdParty/Letter-shell/Src/shell.c ****     #if SHELL_SHOW_INFO == 1
 1275              		.loc 1 1243 33 is_stmt 0 view .LVU356
 1276 0010 94F86030 		ldrb	r3, [r4, #96]	@ zero_extendqisi2
 1277 0014 43F00103 		orr	r3, r3, #1
 1278 0018 84F86030 		strb	r3, [r4, #96]
1245:ThirdParty/Letter-shell/Src/shell.c ****     #endif
 1279              		.loc 1 1245 9 is_stmt 1 view .LVU357
 1280 001c 0649     		ldr	r1, .L124
 1281 001e 2046     		mov	r0, r4
 1282 0020 FFF7FEFF 		bl	shellWriteString
 1283              	.LVL119:
 1284              	.L122:
1252:ThirdParty/Letter-shell/Src/shell.c ****     shell->parser.cursor = 0;
 1285              		.loc 1 1252 5 view .LVU358
1252:ThirdParty/Letter-shell/Src/shell.c ****     shell->parser.cursor = 0;
 1286              		.loc 1 1252 26 is_stmt 0 view .LVU359
 1287 0024 0023     		movs	r3, #0
 1288 0026 A381     		strh	r3, [r4, #12]	@ movhi
1253:ThirdParty/Letter-shell/Src/shell.c **** }
ARM GAS  /var/folders/h7/llxr0vxd5sd9z74__7r6nx9r0000gn/T//ccSPSBV9.s 			page 54


 1289              		.loc 1 1253 5 is_stmt 1 view .LVU360
1253:ThirdParty/Letter-shell/Src/shell.c **** }
 1290              		.loc 1 1253 26 is_stmt 0 view .LVU361
 1291 0028 E381     		strh	r3, [r4, #14]	@ movhi
1254:ThirdParty/Letter-shell/Src/shell.c **** 
 1292              		.loc 1 1254 1 view .LVU362
 1293 002a 10BD     		pop	{r4, pc}
 1294              	.LVL120:
 1295              	.L121:
1250:ThirdParty/Letter-shell/Src/shell.c ****     }
 1296              		.loc 1 1250 9 is_stmt 1 view .LVU363
 1297 002c 0349     		ldr	r1, .L124+4
 1298 002e 2046     		mov	r0, r4
 1299 0030 FFF7FEFF 		bl	shellWriteString
 1300              	.LVL121:
 1301 0034 F6E7     		b	.L122
 1302              	.L125:
 1303 0036 00BF     		.align	2
 1304              	.L124:
 1305 0038 00000000 		.word	.LC6
 1306 003c 5C010000 		.word	.LC7
 1307              		.cfi_endproc
 1308              	.LFE37:
 1310              		.section	.rodata.shellClear.str1.4,"aMS",%progbits,1
 1311              		.align	2
 1312              	.LC8:
 1313 0000 1B5B324A 		.ascii	"\033[2J\033[1H\000"
 1313      1B5B3148 
 1313      00
 1314              		.section	.text.shellClear,"ax",%progbits
 1315              		.align	1
 1316              		.global	shellClear
 1317              		.syntax unified
 1318              		.thumb
 1319              		.thumb_func
 1321              	shellClear:
 1322              	.LFB60:
1508:ThirdParty/Letter-shell/Src/shell.c **** SHELL_EXPORT_KEY(SHELL_CMD_PERMISSION(0)|SHELL_CMD_ENABLE_UNCHECKED,
1509:ThirdParty/Letter-shell/Src/shell.c **** 0x1B5B4400, shellLeft, left);
1510:ThirdParty/Letter-shell/Src/shell.c **** 
1511:ThirdParty/Letter-shell/Src/shell.c **** 
1512:ThirdParty/Letter-shell/Src/shell.c **** /**
1513:ThirdParty/Letter-shell/Src/shell.c ****  * @brief shell Tab按键处理
1514:ThirdParty/Letter-shell/Src/shell.c ****  * 
1515:ThirdParty/Letter-shell/Src/shell.c ****  * @param shell shell对象
1516:ThirdParty/Letter-shell/Src/shell.c ****  */
1517:ThirdParty/Letter-shell/Src/shell.c **** void shellTab(Shell *shell)
1518:ThirdParty/Letter-shell/Src/shell.c **** {
1519:ThirdParty/Letter-shell/Src/shell.c ****     unsigned short maxMatch = shell->parser.bufferSize;
1520:ThirdParty/Letter-shell/Src/shell.c ****     unsigned short lastMatchIndex = 0;
1521:ThirdParty/Letter-shell/Src/shell.c ****     unsigned short matchNum = 0;
1522:ThirdParty/Letter-shell/Src/shell.c ****     unsigned short length;
1523:ThirdParty/Letter-shell/Src/shell.c **** 
1524:ThirdParty/Letter-shell/Src/shell.c ****     if (shell->parser.length == 0)
1525:ThirdParty/Letter-shell/Src/shell.c ****     {
1526:ThirdParty/Letter-shell/Src/shell.c ****         shellListAll(shell);
1527:ThirdParty/Letter-shell/Src/shell.c ****         shellWritePrompt(shell, 1);
ARM GAS  /var/folders/h7/llxr0vxd5sd9z74__7r6nx9r0000gn/T//ccSPSBV9.s 			page 55


1528:ThirdParty/Letter-shell/Src/shell.c ****     }
1529:ThirdParty/Letter-shell/Src/shell.c ****     else if (shell->parser.length > 0)
1530:ThirdParty/Letter-shell/Src/shell.c ****     {
1531:ThirdParty/Letter-shell/Src/shell.c ****         shell->parser.buffer[shell->parser.length] = 0;
1532:ThirdParty/Letter-shell/Src/shell.c ****         ShellCommand *base = (ShellCommand *)shell->commandList.base;
1533:ThirdParty/Letter-shell/Src/shell.c ****         for (short i = 0; i < shell->commandList.count; i++)
1534:ThirdParty/Letter-shell/Src/shell.c ****         {
1535:ThirdParty/Letter-shell/Src/shell.c ****             if (shellCheckPermission(shell, &base[i]) == 0
1536:ThirdParty/Letter-shell/Src/shell.c ****                 && shellStringCompare(shell->parser.buffer,
1537:ThirdParty/Letter-shell/Src/shell.c ****                                    (char *)shellGetCommandName(&base[i]))
1538:ThirdParty/Letter-shell/Src/shell.c ****                         == shell->parser.length)
1539:ThirdParty/Letter-shell/Src/shell.c ****             {
1540:ThirdParty/Letter-shell/Src/shell.c ****                 if (matchNum != 0)
1541:ThirdParty/Letter-shell/Src/shell.c ****                 {
1542:ThirdParty/Letter-shell/Src/shell.c ****                     if (matchNum == 1)
1543:ThirdParty/Letter-shell/Src/shell.c ****                     {
1544:ThirdParty/Letter-shell/Src/shell.c ****                         shellWriteString(shell, "\r\n");
1545:ThirdParty/Letter-shell/Src/shell.c ****                     }
1546:ThirdParty/Letter-shell/Src/shell.c ****                     shellListItem(shell, &base[lastMatchIndex]);
1547:ThirdParty/Letter-shell/Src/shell.c ****                     length = 
1548:ThirdParty/Letter-shell/Src/shell.c ****                         shellStringCompare((char *)shellGetCommandName(&base[lastMatchIndex]),
1549:ThirdParty/Letter-shell/Src/shell.c ****                                            (char *)shellGetCommandName(&base[i]));
1550:ThirdParty/Letter-shell/Src/shell.c ****                     maxMatch = (maxMatch > length) ? length : maxMatch;
1551:ThirdParty/Letter-shell/Src/shell.c ****                 }
1552:ThirdParty/Letter-shell/Src/shell.c ****                 lastMatchIndex = i;
1553:ThirdParty/Letter-shell/Src/shell.c ****                 matchNum++;
1554:ThirdParty/Letter-shell/Src/shell.c ****             }
1555:ThirdParty/Letter-shell/Src/shell.c ****         }
1556:ThirdParty/Letter-shell/Src/shell.c ****         if (matchNum == 0)
1557:ThirdParty/Letter-shell/Src/shell.c ****         {
1558:ThirdParty/Letter-shell/Src/shell.c ****             return;
1559:ThirdParty/Letter-shell/Src/shell.c ****         }
1560:ThirdParty/Letter-shell/Src/shell.c ****         if (matchNum == 1)
1561:ThirdParty/Letter-shell/Src/shell.c ****         {
1562:ThirdParty/Letter-shell/Src/shell.c ****             shellClearCommandLine(shell);
1563:ThirdParty/Letter-shell/Src/shell.c ****         }
1564:ThirdParty/Letter-shell/Src/shell.c ****         if (matchNum != 0)
1565:ThirdParty/Letter-shell/Src/shell.c ****         {
1566:ThirdParty/Letter-shell/Src/shell.c ****             shell->parser.length = 
1567:ThirdParty/Letter-shell/Src/shell.c ****                 shellStringCopy(shell->parser.buffer,
1568:ThirdParty/Letter-shell/Src/shell.c ****                                 (char *)shellGetCommandName(&base[lastMatchIndex]));
1569:ThirdParty/Letter-shell/Src/shell.c ****         }
1570:ThirdParty/Letter-shell/Src/shell.c ****         if (matchNum > 1)
1571:ThirdParty/Letter-shell/Src/shell.c ****         {
1572:ThirdParty/Letter-shell/Src/shell.c ****             shellListItem(shell, &base[lastMatchIndex]);
1573:ThirdParty/Letter-shell/Src/shell.c ****             shellWritePrompt(shell, 1);
1574:ThirdParty/Letter-shell/Src/shell.c ****             shell->parser.length = maxMatch;
1575:ThirdParty/Letter-shell/Src/shell.c ****         }
1576:ThirdParty/Letter-shell/Src/shell.c ****         shell->parser.buffer[shell->parser.length] = 0;
1577:ThirdParty/Letter-shell/Src/shell.c ****         shell->parser.cursor = shell->parser.length;
1578:ThirdParty/Letter-shell/Src/shell.c ****         shellWriteString(shell, shell->parser.buffer);
1579:ThirdParty/Letter-shell/Src/shell.c ****     }
1580:ThirdParty/Letter-shell/Src/shell.c **** 
1581:ThirdParty/Letter-shell/Src/shell.c ****     if (SHELL_GET_TICK())
1582:ThirdParty/Letter-shell/Src/shell.c ****     {
1583:ThirdParty/Letter-shell/Src/shell.c ****         if (matchNum == 1
1584:ThirdParty/Letter-shell/Src/shell.c ****             && shell->status.tabFlag
ARM GAS  /var/folders/h7/llxr0vxd5sd9z74__7r6nx9r0000gn/T//ccSPSBV9.s 			page 56


1585:ThirdParty/Letter-shell/Src/shell.c ****             && SHELL_GET_TICK() - shell->info.activeTime < SHELL_DOUBLE_CLICK_TIME)
1586:ThirdParty/Letter-shell/Src/shell.c ****         {
1587:ThirdParty/Letter-shell/Src/shell.c ****         #if SHELL_QUICK_HELP == 1
1588:ThirdParty/Letter-shell/Src/shell.c ****             shellWriteString(shell, "\r\n");
1589:ThirdParty/Letter-shell/Src/shell.c ****             shellWriteCommandHelp(shell, shell->parser.buffer);
1590:ThirdParty/Letter-shell/Src/shell.c ****             shellWritePrompt(shell, 1);
1591:ThirdParty/Letter-shell/Src/shell.c ****             shellWriteString(shell, shell->parser.buffer);
1592:ThirdParty/Letter-shell/Src/shell.c ****         #else
1593:ThirdParty/Letter-shell/Src/shell.c ****             shellClearCommandLine(shell);
1594:ThirdParty/Letter-shell/Src/shell.c ****             for (short i = shell->parser.length; i >= 0; i--)
1595:ThirdParty/Letter-shell/Src/shell.c ****             {
1596:ThirdParty/Letter-shell/Src/shell.c ****                 shell->parser.buffer[i + 5] = shell->parser.buffer[i];
1597:ThirdParty/Letter-shell/Src/shell.c ****             }
1598:ThirdParty/Letter-shell/Src/shell.c ****             shellStringCopy(shell->parser.buffer, "help");
1599:ThirdParty/Letter-shell/Src/shell.c ****             shell->parser.buffer[4] = ' ';
1600:ThirdParty/Letter-shell/Src/shell.c ****             shell->parser.length += 5;
1601:ThirdParty/Letter-shell/Src/shell.c ****             shell->parser.cursor = shell->parser.length;
1602:ThirdParty/Letter-shell/Src/shell.c ****             shellWriteString(shell, shell->parser.buffer);
1603:ThirdParty/Letter-shell/Src/shell.c ****         #endif
1604:ThirdParty/Letter-shell/Src/shell.c ****         }
1605:ThirdParty/Letter-shell/Src/shell.c ****         else
1606:ThirdParty/Letter-shell/Src/shell.c ****         {
1607:ThirdParty/Letter-shell/Src/shell.c ****             shell->status.tabFlag = 1;
1608:ThirdParty/Letter-shell/Src/shell.c ****         }
1609:ThirdParty/Letter-shell/Src/shell.c ****     }
1610:ThirdParty/Letter-shell/Src/shell.c **** }
1611:ThirdParty/Letter-shell/Src/shell.c **** SHELL_EXPORT_KEY(SHELL_CMD_PERMISSION(0), 0x09000000, shellTab, tab);
1612:ThirdParty/Letter-shell/Src/shell.c **** 
1613:ThirdParty/Letter-shell/Src/shell.c **** 
1614:ThirdParty/Letter-shell/Src/shell.c **** /**
1615:ThirdParty/Letter-shell/Src/shell.c ****  * @brief shell 退格
1616:ThirdParty/Letter-shell/Src/shell.c ****  * 
1617:ThirdParty/Letter-shell/Src/shell.c ****  * @param shell shell对象
1618:ThirdParty/Letter-shell/Src/shell.c ****  */
1619:ThirdParty/Letter-shell/Src/shell.c **** void shellBackspace(Shell *shell)
1620:ThirdParty/Letter-shell/Src/shell.c **** {
1621:ThirdParty/Letter-shell/Src/shell.c ****     shellDeleteByte(shell, 1);
1622:ThirdParty/Letter-shell/Src/shell.c **** }
1623:ThirdParty/Letter-shell/Src/shell.c **** SHELL_EXPORT_KEY(SHELL_CMD_PERMISSION(0)|SHELL_CMD_ENABLE_UNCHECKED,
1624:ThirdParty/Letter-shell/Src/shell.c **** 0x08000000, shellBackspace, backspace);
1625:ThirdParty/Letter-shell/Src/shell.c **** SHELL_EXPORT_KEY(SHELL_CMD_PERMISSION(0)|SHELL_CMD_ENABLE_UNCHECKED,
1626:ThirdParty/Letter-shell/Src/shell.c **** 0x7F000000, shellBackspace, backspace);
1627:ThirdParty/Letter-shell/Src/shell.c **** 
1628:ThirdParty/Letter-shell/Src/shell.c **** 
1629:ThirdParty/Letter-shell/Src/shell.c **** /**
1630:ThirdParty/Letter-shell/Src/shell.c ****  * @brief shell 删除
1631:ThirdParty/Letter-shell/Src/shell.c ****  * 
1632:ThirdParty/Letter-shell/Src/shell.c ****  * @param shell shell对象
1633:ThirdParty/Letter-shell/Src/shell.c ****  */
1634:ThirdParty/Letter-shell/Src/shell.c **** void shellDelete(Shell *shell)
1635:ThirdParty/Letter-shell/Src/shell.c **** {
1636:ThirdParty/Letter-shell/Src/shell.c ****     shellDeleteByte(shell, -1);
1637:ThirdParty/Letter-shell/Src/shell.c **** }
1638:ThirdParty/Letter-shell/Src/shell.c **** SHELL_EXPORT_KEY(SHELL_CMD_PERMISSION(0)|SHELL_CMD_ENABLE_UNCHECKED,
1639:ThirdParty/Letter-shell/Src/shell.c **** 0x1B5B337E, shellDelete, delete);
1640:ThirdParty/Letter-shell/Src/shell.c **** 
1641:ThirdParty/Letter-shell/Src/shell.c **** 
ARM GAS  /var/folders/h7/llxr0vxd5sd9z74__7r6nx9r0000gn/T//ccSPSBV9.s 			page 57


1642:ThirdParty/Letter-shell/Src/shell.c **** /**
1643:ThirdParty/Letter-shell/Src/shell.c ****  * @brief shell 回车处理
1644:ThirdParty/Letter-shell/Src/shell.c ****  * 
1645:ThirdParty/Letter-shell/Src/shell.c ****  * @param shell shell对象
1646:ThirdParty/Letter-shell/Src/shell.c ****  */
1647:ThirdParty/Letter-shell/Src/shell.c **** void shellEnter(Shell *shell)
1648:ThirdParty/Letter-shell/Src/shell.c **** {
1649:ThirdParty/Letter-shell/Src/shell.c ****     shellExec(shell);
1650:ThirdParty/Letter-shell/Src/shell.c ****     shellWritePrompt(shell, 1);
1651:ThirdParty/Letter-shell/Src/shell.c **** }
1652:ThirdParty/Letter-shell/Src/shell.c **** #if SHELL_ENTER_LF == 1
1653:ThirdParty/Letter-shell/Src/shell.c **** SHELL_EXPORT_KEY(SHELL_CMD_PERMISSION(0)|SHELL_CMD_ENABLE_UNCHECKED,
1654:ThirdParty/Letter-shell/Src/shell.c **** 0x0A000000, shellEnter, enter);
1655:ThirdParty/Letter-shell/Src/shell.c **** #endif
1656:ThirdParty/Letter-shell/Src/shell.c **** #if SHELL_ENTER_CR == 1
1657:ThirdParty/Letter-shell/Src/shell.c **** SHELL_EXPORT_KEY(SHELL_CMD_PERMISSION(0)|SHELL_CMD_ENABLE_UNCHECKED,
1658:ThirdParty/Letter-shell/Src/shell.c **** 0x0D000000, shellEnter, enter);
1659:ThirdParty/Letter-shell/Src/shell.c **** #endif
1660:ThirdParty/Letter-shell/Src/shell.c **** #if SHELL_ENTER_CRLF == 1
1661:ThirdParty/Letter-shell/Src/shell.c **** SHELL_EXPORT_KEY(SHELL_CMD_PERMISSION(0)|SHELL_CMD_ENABLE_UNCHECKED,
1662:ThirdParty/Letter-shell/Src/shell.c **** 0x0D0A0000, shellEnter, enter);
1663:ThirdParty/Letter-shell/Src/shell.c **** #endif
1664:ThirdParty/Letter-shell/Src/shell.c **** 
1665:ThirdParty/Letter-shell/Src/shell.c **** /**
1666:ThirdParty/Letter-shell/Src/shell.c ****  * @brief shell 写命令帮助信息
1667:ThirdParty/Letter-shell/Src/shell.c ****  * 
1668:ThirdParty/Letter-shell/Src/shell.c ****  * @param shell shell对象
1669:ThirdParty/Letter-shell/Src/shell.c ****  * @param cmd 命令字符串
1670:ThirdParty/Letter-shell/Src/shell.c ****  */
1671:ThirdParty/Letter-shell/Src/shell.c **** static void shellWriteCommandHelp(Shell *shell, char *cmd)
1672:ThirdParty/Letter-shell/Src/shell.c **** {
1673:ThirdParty/Letter-shell/Src/shell.c ****     ShellCommand *command = shellSeekCommand(shell,
1674:ThirdParty/Letter-shell/Src/shell.c ****                                              cmd,
1675:ThirdParty/Letter-shell/Src/shell.c ****                                              shell->commandList.base,
1676:ThirdParty/Letter-shell/Src/shell.c ****                                              0);
1677:ThirdParty/Letter-shell/Src/shell.c ****     if (command)
1678:ThirdParty/Letter-shell/Src/shell.c ****     {
1679:ThirdParty/Letter-shell/Src/shell.c ****         shellWriteString(shell, shellText[SHELL_TEXT_HELP_HEADER]);
1680:ThirdParty/Letter-shell/Src/shell.c ****         shellWriteString(shell, shellGetCommandName(command));
1681:ThirdParty/Letter-shell/Src/shell.c ****         shellWriteString(shell, "\r\n");
1682:ThirdParty/Letter-shell/Src/shell.c ****         shellWriteString(shell, shellGetCommandDesc(command));
1683:ThirdParty/Letter-shell/Src/shell.c ****         shellWriteString(shell, "\r\n");
1684:ThirdParty/Letter-shell/Src/shell.c ****     }
1685:ThirdParty/Letter-shell/Src/shell.c ****     else
1686:ThirdParty/Letter-shell/Src/shell.c ****     {
1687:ThirdParty/Letter-shell/Src/shell.c ****         shellWriteString(shell, shellText[SHELL_TEXT_CMD_NOT_FOUND]);
1688:ThirdParty/Letter-shell/Src/shell.c ****     }
1689:ThirdParty/Letter-shell/Src/shell.c **** }
1690:ThirdParty/Letter-shell/Src/shell.c **** 
1691:ThirdParty/Letter-shell/Src/shell.c **** /**
1692:ThirdParty/Letter-shell/Src/shell.c ****  * @brief shell help
1693:ThirdParty/Letter-shell/Src/shell.c ****  * 
1694:ThirdParty/Letter-shell/Src/shell.c ****  * @param argc 参数个数
1695:ThirdParty/Letter-shell/Src/shell.c ****  * @param argv 参数
1696:ThirdParty/Letter-shell/Src/shell.c ****  */
1697:ThirdParty/Letter-shell/Src/shell.c **** void shellHelp(int argc, char *argv[])
1698:ThirdParty/Letter-shell/Src/shell.c **** {
ARM GAS  /var/folders/h7/llxr0vxd5sd9z74__7r6nx9r0000gn/T//ccSPSBV9.s 			page 58


1699:ThirdParty/Letter-shell/Src/shell.c ****     Shell *shell = shellGetCurrent();
1700:ThirdParty/Letter-shell/Src/shell.c ****     SHELL_ASSERT(shell, return);
1701:ThirdParty/Letter-shell/Src/shell.c ****     if (argc == 1)
1702:ThirdParty/Letter-shell/Src/shell.c ****     {
1703:ThirdParty/Letter-shell/Src/shell.c ****         shellListAll(shell);
1704:ThirdParty/Letter-shell/Src/shell.c ****     }
1705:ThirdParty/Letter-shell/Src/shell.c ****     else if (argc > 1)
1706:ThirdParty/Letter-shell/Src/shell.c ****     {
1707:ThirdParty/Letter-shell/Src/shell.c ****         shellWriteCommandHelp(shell, argv[1]);
1708:ThirdParty/Letter-shell/Src/shell.c ****     }
1709:ThirdParty/Letter-shell/Src/shell.c **** }
1710:ThirdParty/Letter-shell/Src/shell.c **** SHELL_EXPORT_CMD(
1711:ThirdParty/Letter-shell/Src/shell.c **** SHELL_CMD_PERMISSION(0)|SHELL_CMD_TYPE(SHELL_TYPE_CMD_MAIN)|SHELL_CMD_DISABLE_RETURN,
1712:ThirdParty/Letter-shell/Src/shell.c **** help, shellHelp, show command info\r\nhelp [cmd]);
1713:ThirdParty/Letter-shell/Src/shell.c **** 
1714:ThirdParty/Letter-shell/Src/shell.c **** /**
1715:ThirdParty/Letter-shell/Src/shell.c ****  * @brief shell 输入处理
1716:ThirdParty/Letter-shell/Src/shell.c ****  * 
1717:ThirdParty/Letter-shell/Src/shell.c ****  * @param shell shell对象
1718:ThirdParty/Letter-shell/Src/shell.c ****  * @param data 输入数据
1719:ThirdParty/Letter-shell/Src/shell.c ****  */
1720:ThirdParty/Letter-shell/Src/shell.c **** void shellHandler(Shell *shell, char data)
1721:ThirdParty/Letter-shell/Src/shell.c **** {
1722:ThirdParty/Letter-shell/Src/shell.c ****     SHELL_ASSERT(data, return);
1723:ThirdParty/Letter-shell/Src/shell.c ****     SHELL_LOCK(shell);
1724:ThirdParty/Letter-shell/Src/shell.c **** 
1725:ThirdParty/Letter-shell/Src/shell.c **** #if SHELL_LOCK_TIMEOUT > 0
1726:ThirdParty/Letter-shell/Src/shell.c ****     if (shell->info.user->data.user.password
1727:ThirdParty/Letter-shell/Src/shell.c ****         && strlen(shell->info.user->data.user.password) != 0
1728:ThirdParty/Letter-shell/Src/shell.c ****         && SHELL_GET_TICK())
1729:ThirdParty/Letter-shell/Src/shell.c ****     {
1730:ThirdParty/Letter-shell/Src/shell.c ****         if (SHELL_GET_TICK() - shell->info.activeTime > SHELL_LOCK_TIMEOUT)
1731:ThirdParty/Letter-shell/Src/shell.c ****         {
1732:ThirdParty/Letter-shell/Src/shell.c ****             shell->status.isChecked = 0;
1733:ThirdParty/Letter-shell/Src/shell.c ****         }
1734:ThirdParty/Letter-shell/Src/shell.c ****     }
1735:ThirdParty/Letter-shell/Src/shell.c **** #endif
1736:ThirdParty/Letter-shell/Src/shell.c **** 
1737:ThirdParty/Letter-shell/Src/shell.c ****     /* 根据记录的按键键值计算当前字节在按键键值中的偏移 */
1738:ThirdParty/Letter-shell/Src/shell.c ****     char keyByteOffset = 24;
1739:ThirdParty/Letter-shell/Src/shell.c ****     int keyFilter = 0x00000000;
1740:ThirdParty/Letter-shell/Src/shell.c ****     if ((shell->parser.keyValue & 0x0000FF00) != 0x00000000)
1741:ThirdParty/Letter-shell/Src/shell.c ****     {
1742:ThirdParty/Letter-shell/Src/shell.c ****         keyByteOffset = 0;
1743:ThirdParty/Letter-shell/Src/shell.c ****         keyFilter = 0xFFFFFF00;
1744:ThirdParty/Letter-shell/Src/shell.c ****     }
1745:ThirdParty/Letter-shell/Src/shell.c ****     else if ((shell->parser.keyValue & 0x00FF0000) != 0x00000000)
1746:ThirdParty/Letter-shell/Src/shell.c ****     {
1747:ThirdParty/Letter-shell/Src/shell.c ****         keyByteOffset = 8;
1748:ThirdParty/Letter-shell/Src/shell.c ****         keyFilter = 0xFFFF0000;
1749:ThirdParty/Letter-shell/Src/shell.c ****     }
1750:ThirdParty/Letter-shell/Src/shell.c ****     else if ((shell->parser.keyValue & 0xFF000000) != 0x00000000)
1751:ThirdParty/Letter-shell/Src/shell.c ****     {
1752:ThirdParty/Letter-shell/Src/shell.c ****         keyByteOffset = 16;
1753:ThirdParty/Letter-shell/Src/shell.c ****         keyFilter = 0xFF000000;
1754:ThirdParty/Letter-shell/Src/shell.c ****     }
1755:ThirdParty/Letter-shell/Src/shell.c **** 
ARM GAS  /var/folders/h7/llxr0vxd5sd9z74__7r6nx9r0000gn/T//ccSPSBV9.s 			page 59


1756:ThirdParty/Letter-shell/Src/shell.c ****     /* 遍历ShellCommand列表，尝试进行按键键值匹配 */
1757:ThirdParty/Letter-shell/Src/shell.c ****     ShellCommand *base = (ShellCommand *)shell->commandList.base;
1758:ThirdParty/Letter-shell/Src/shell.c ****     for (short i = 0; i < shell->commandList.count; i++)
1759:ThirdParty/Letter-shell/Src/shell.c ****     {
1760:ThirdParty/Letter-shell/Src/shell.c ****         /* 判断是否是按键定义并验证权限 */
1761:ThirdParty/Letter-shell/Src/shell.c ****         if (base[i].attr.attrs.type == SHELL_TYPE_KEY
1762:ThirdParty/Letter-shell/Src/shell.c ****             && shellCheckPermission(shell, &(base[i])) == 0)
1763:ThirdParty/Letter-shell/Src/shell.c ****         {
1764:ThirdParty/Letter-shell/Src/shell.c ****             /* 对输入的字节同按键键值进行匹配 */
1765:ThirdParty/Letter-shell/Src/shell.c ****             if ((base[i].data.key.value & keyFilter) == shell->parser.keyValue
1766:ThirdParty/Letter-shell/Src/shell.c ****                 && (base[i].data.key.value & (0xFF << keyByteOffset))
1767:ThirdParty/Letter-shell/Src/shell.c ****                     == (data << keyByteOffset))
1768:ThirdParty/Letter-shell/Src/shell.c ****             {
1769:ThirdParty/Letter-shell/Src/shell.c ****                 shell->parser.keyValue |= data << keyByteOffset;
1770:ThirdParty/Letter-shell/Src/shell.c ****                 data = 0x00;
1771:ThirdParty/Letter-shell/Src/shell.c ****                 if (keyByteOffset == 0 
1772:ThirdParty/Letter-shell/Src/shell.c ****                     || (base[i].data.key.value & (0xFF << (keyByteOffset - 8)))
1773:ThirdParty/Letter-shell/Src/shell.c ****                         == 0x00000000)
1774:ThirdParty/Letter-shell/Src/shell.c ****                 {
1775:ThirdParty/Letter-shell/Src/shell.c ****                     if (base[i].data.key.function)
1776:ThirdParty/Letter-shell/Src/shell.c ****                     {
1777:ThirdParty/Letter-shell/Src/shell.c ****                         base[i].data.key.function(shell);
1778:ThirdParty/Letter-shell/Src/shell.c ****                     }
1779:ThirdParty/Letter-shell/Src/shell.c ****                     shell->parser.keyValue = 0x00000000;
1780:ThirdParty/Letter-shell/Src/shell.c ****                     break;
1781:ThirdParty/Letter-shell/Src/shell.c ****                 }
1782:ThirdParty/Letter-shell/Src/shell.c ****             }
1783:ThirdParty/Letter-shell/Src/shell.c ****         }
1784:ThirdParty/Letter-shell/Src/shell.c ****     }
1785:ThirdParty/Letter-shell/Src/shell.c **** 
1786:ThirdParty/Letter-shell/Src/shell.c ****     if (data != 0x00)
1787:ThirdParty/Letter-shell/Src/shell.c ****     {
1788:ThirdParty/Letter-shell/Src/shell.c ****         shell->parser.keyValue = 0x00000000;
1789:ThirdParty/Letter-shell/Src/shell.c ****         shellNormalInput(shell, data);
1790:ThirdParty/Letter-shell/Src/shell.c ****     }
1791:ThirdParty/Letter-shell/Src/shell.c **** 
1792:ThirdParty/Letter-shell/Src/shell.c ****     if (SHELL_GET_TICK())
1793:ThirdParty/Letter-shell/Src/shell.c ****     {
1794:ThirdParty/Letter-shell/Src/shell.c ****         shell->info.activeTime = SHELL_GET_TICK();
1795:ThirdParty/Letter-shell/Src/shell.c ****     }
1796:ThirdParty/Letter-shell/Src/shell.c ****     SHELL_UNLOCK(shell);
1797:ThirdParty/Letter-shell/Src/shell.c **** }
1798:ThirdParty/Letter-shell/Src/shell.c **** 
1799:ThirdParty/Letter-shell/Src/shell.c **** 
1800:ThirdParty/Letter-shell/Src/shell.c **** #if SHELL_SUPPORT_END_LINE == 1
1801:ThirdParty/Letter-shell/Src/shell.c **** void shellWriteEndLine(Shell *shell, char *buffer, int len)
1802:ThirdParty/Letter-shell/Src/shell.c **** {
1803:ThirdParty/Letter-shell/Src/shell.c ****     SHELL_LOCK(shell);
1804:ThirdParty/Letter-shell/Src/shell.c ****     if (!shell->status.isActive)
1805:ThirdParty/Letter-shell/Src/shell.c ****     {
1806:ThirdParty/Letter-shell/Src/shell.c ****         shellWriteString(shell, shellText[SHELL_TEXT_CLEAR_LINE]);
1807:ThirdParty/Letter-shell/Src/shell.c ****     }
1808:ThirdParty/Letter-shell/Src/shell.c ****     shell->write(buffer, len);
1809:ThirdParty/Letter-shell/Src/shell.c **** 
1810:ThirdParty/Letter-shell/Src/shell.c ****     if (!shell->status.isActive)
1811:ThirdParty/Letter-shell/Src/shell.c ****     {
1812:ThirdParty/Letter-shell/Src/shell.c ****         shellWritePrompt(shell, 0);
ARM GAS  /var/folders/h7/llxr0vxd5sd9z74__7r6nx9r0000gn/T//ccSPSBV9.s 			page 60


1813:ThirdParty/Letter-shell/Src/shell.c ****         if (shell->parser.length > 0)
1814:ThirdParty/Letter-shell/Src/shell.c ****         {
1815:ThirdParty/Letter-shell/Src/shell.c ****             shellWriteString(shell, shell->parser.buffer);
1816:ThirdParty/Letter-shell/Src/shell.c ****             for (short i = 0; i < shell->parser.length - shell->parser.cursor; i++)
1817:ThirdParty/Letter-shell/Src/shell.c ****             {
1818:ThirdParty/Letter-shell/Src/shell.c ****                 shellWriteByte(shell, '\b');
1819:ThirdParty/Letter-shell/Src/shell.c ****             }
1820:ThirdParty/Letter-shell/Src/shell.c ****         }
1821:ThirdParty/Letter-shell/Src/shell.c ****     }
1822:ThirdParty/Letter-shell/Src/shell.c ****     SHELL_UNLOCK(shell);
1823:ThirdParty/Letter-shell/Src/shell.c **** }
1824:ThirdParty/Letter-shell/Src/shell.c **** #endif /** SHELL_SUPPORT_END_LINE == 1 */
1825:ThirdParty/Letter-shell/Src/shell.c **** 
1826:ThirdParty/Letter-shell/Src/shell.c **** 
1827:ThirdParty/Letter-shell/Src/shell.c **** /**
1828:ThirdParty/Letter-shell/Src/shell.c ****  * @brief shell 任务
1829:ThirdParty/Letter-shell/Src/shell.c ****  * 
1830:ThirdParty/Letter-shell/Src/shell.c ****  * @param param 参数(shell对象)
1831:ThirdParty/Letter-shell/Src/shell.c ****  * 
1832:ThirdParty/Letter-shell/Src/shell.c ****  */
1833:ThirdParty/Letter-shell/Src/shell.c **** void shellTask(void *param)
1834:ThirdParty/Letter-shell/Src/shell.c **** {
1835:ThirdParty/Letter-shell/Src/shell.c ****     Shell *shell = (Shell *)param;
1836:ThirdParty/Letter-shell/Src/shell.c ****     char data;
1837:ThirdParty/Letter-shell/Src/shell.c **** #if SHELL_TASK_WHILE == 1
1838:ThirdParty/Letter-shell/Src/shell.c ****     while(1)
1839:ThirdParty/Letter-shell/Src/shell.c ****     {
1840:ThirdParty/Letter-shell/Src/shell.c **** #endif
1841:ThirdParty/Letter-shell/Src/shell.c ****         if (shell->read && shell->read(&data, 1) == 1)
1842:ThirdParty/Letter-shell/Src/shell.c ****         {
1843:ThirdParty/Letter-shell/Src/shell.c ****             shellHandler(shell, data);
1844:ThirdParty/Letter-shell/Src/shell.c ****         }
1845:ThirdParty/Letter-shell/Src/shell.c **** #if SHELL_TASK_WHILE == 1
1846:ThirdParty/Letter-shell/Src/shell.c ****     }
1847:ThirdParty/Letter-shell/Src/shell.c **** #endif
1848:ThirdParty/Letter-shell/Src/shell.c **** }
1849:ThirdParty/Letter-shell/Src/shell.c **** 
1850:ThirdParty/Letter-shell/Src/shell.c **** 
1851:ThirdParty/Letter-shell/Src/shell.c **** /**
1852:ThirdParty/Letter-shell/Src/shell.c ****  * @brief shell 输出用户列表(shell调用)
1853:ThirdParty/Letter-shell/Src/shell.c ****  */
1854:ThirdParty/Letter-shell/Src/shell.c **** void shellUsers(void)
1855:ThirdParty/Letter-shell/Src/shell.c **** {
1856:ThirdParty/Letter-shell/Src/shell.c ****     Shell *shell = shellGetCurrent();
1857:ThirdParty/Letter-shell/Src/shell.c ****     if (shell)
1858:ThirdParty/Letter-shell/Src/shell.c ****     {
1859:ThirdParty/Letter-shell/Src/shell.c ****         shellListUser(shell);
1860:ThirdParty/Letter-shell/Src/shell.c ****     }
1861:ThirdParty/Letter-shell/Src/shell.c **** }
1862:ThirdParty/Letter-shell/Src/shell.c **** SHELL_EXPORT_CMD(
1863:ThirdParty/Letter-shell/Src/shell.c **** SHELL_CMD_PERMISSION(0)|SHELL_CMD_TYPE(SHELL_TYPE_CMD_FUNC)|SHELL_CMD_DISABLE_RETURN,
1864:ThirdParty/Letter-shell/Src/shell.c **** users, shellUsers, list all user);
1865:ThirdParty/Letter-shell/Src/shell.c **** 
1866:ThirdParty/Letter-shell/Src/shell.c **** 
1867:ThirdParty/Letter-shell/Src/shell.c **** /**
1868:ThirdParty/Letter-shell/Src/shell.c ****  * @brief shell 输出命令列表(shell调用)
1869:ThirdParty/Letter-shell/Src/shell.c ****  */
ARM GAS  /var/folders/h7/llxr0vxd5sd9z74__7r6nx9r0000gn/T//ccSPSBV9.s 			page 61


1870:ThirdParty/Letter-shell/Src/shell.c **** void shellCmds(void)
1871:ThirdParty/Letter-shell/Src/shell.c **** {
1872:ThirdParty/Letter-shell/Src/shell.c ****     Shell *shell = shellGetCurrent();
1873:ThirdParty/Letter-shell/Src/shell.c ****     if (shell)
1874:ThirdParty/Letter-shell/Src/shell.c ****     {
1875:ThirdParty/Letter-shell/Src/shell.c ****         shellListCommand(shell);
1876:ThirdParty/Letter-shell/Src/shell.c ****     }
1877:ThirdParty/Letter-shell/Src/shell.c **** }
1878:ThirdParty/Letter-shell/Src/shell.c **** SHELL_EXPORT_CMD(
1879:ThirdParty/Letter-shell/Src/shell.c **** SHELL_CMD_PERMISSION(0)|SHELL_CMD_TYPE(SHELL_TYPE_CMD_FUNC)|SHELL_CMD_DISABLE_RETURN,
1880:ThirdParty/Letter-shell/Src/shell.c **** cmds, shellCmds, list all cmd);
1881:ThirdParty/Letter-shell/Src/shell.c **** 
1882:ThirdParty/Letter-shell/Src/shell.c **** 
1883:ThirdParty/Letter-shell/Src/shell.c **** /**
1884:ThirdParty/Letter-shell/Src/shell.c ****  * @brief shell 输出变量列表(shell调用)
1885:ThirdParty/Letter-shell/Src/shell.c ****  */
1886:ThirdParty/Letter-shell/Src/shell.c **** void shellVars(void)
1887:ThirdParty/Letter-shell/Src/shell.c **** {
1888:ThirdParty/Letter-shell/Src/shell.c ****     Shell *shell = shellGetCurrent();
1889:ThirdParty/Letter-shell/Src/shell.c ****     if (shell)
1890:ThirdParty/Letter-shell/Src/shell.c ****     {
1891:ThirdParty/Letter-shell/Src/shell.c ****         shellListVar(shell);
1892:ThirdParty/Letter-shell/Src/shell.c ****     }
1893:ThirdParty/Letter-shell/Src/shell.c **** }
1894:ThirdParty/Letter-shell/Src/shell.c **** SHELL_EXPORT_CMD(
1895:ThirdParty/Letter-shell/Src/shell.c **** SHELL_CMD_PERMISSION(0)|SHELL_CMD_TYPE(SHELL_TYPE_CMD_FUNC)|SHELL_CMD_DISABLE_RETURN,
1896:ThirdParty/Letter-shell/Src/shell.c **** vars, shellVars, list all var);
1897:ThirdParty/Letter-shell/Src/shell.c **** 
1898:ThirdParty/Letter-shell/Src/shell.c **** 
1899:ThirdParty/Letter-shell/Src/shell.c **** /**
1900:ThirdParty/Letter-shell/Src/shell.c ****  * @brief shell 输出按键列表(shell调用)
1901:ThirdParty/Letter-shell/Src/shell.c ****  */
1902:ThirdParty/Letter-shell/Src/shell.c **** void shellKeys(void)
1903:ThirdParty/Letter-shell/Src/shell.c **** {
1904:ThirdParty/Letter-shell/Src/shell.c ****     Shell *shell = shellGetCurrent();
1905:ThirdParty/Letter-shell/Src/shell.c ****     if (shell)
1906:ThirdParty/Letter-shell/Src/shell.c ****     {
1907:ThirdParty/Letter-shell/Src/shell.c ****         shellListKey(shell);
1908:ThirdParty/Letter-shell/Src/shell.c ****     }
1909:ThirdParty/Letter-shell/Src/shell.c **** }
1910:ThirdParty/Letter-shell/Src/shell.c **** SHELL_EXPORT_CMD(
1911:ThirdParty/Letter-shell/Src/shell.c **** SHELL_CMD_PERMISSION(0)|SHELL_CMD_TYPE(SHELL_TYPE_CMD_FUNC)|SHELL_CMD_DISABLE_RETURN,
1912:ThirdParty/Letter-shell/Src/shell.c **** keys, shellKeys, list all key);
1913:ThirdParty/Letter-shell/Src/shell.c **** 
1914:ThirdParty/Letter-shell/Src/shell.c **** 
1915:ThirdParty/Letter-shell/Src/shell.c **** /**
1916:ThirdParty/Letter-shell/Src/shell.c ****  * @brief shell 清空控制台(shell调用)
1917:ThirdParty/Letter-shell/Src/shell.c ****  */
1918:ThirdParty/Letter-shell/Src/shell.c **** void shellClear(void)
1919:ThirdParty/Letter-shell/Src/shell.c **** {
 1323              		.loc 1 1919 1 view -0
 1324              		.cfi_startproc
 1325              		@ args = 0, pretend = 0, frame = 0
 1326              		@ frame_needed = 0, uses_anonymous_args = 0
 1327 0000 08B5     		push	{r3, lr}
 1328              	.LCFI14:
 1329              		.cfi_def_cfa_offset 8
ARM GAS  /var/folders/h7/llxr0vxd5sd9z74__7r6nx9r0000gn/T//ccSPSBV9.s 			page 62


 1330              		.cfi_offset 3, -8
 1331              		.cfi_offset 14, -4
1920:ThirdParty/Letter-shell/Src/shell.c ****     Shell *shell = shellGetCurrent();
 1332              		.loc 1 1920 5 view .LVU365
 1333              		.loc 1 1920 20 is_stmt 0 view .LVU366
 1334 0002 FFF7FEFF 		bl	shellGetCurrent
 1335              	.LVL122:
1921:ThirdParty/Letter-shell/Src/shell.c ****     if (shell)
 1336              		.loc 1 1921 5 is_stmt 1 view .LVU367
 1337              		.loc 1 1921 8 is_stmt 0 view .LVU368
 1338 0006 10B1     		cbz	r0, .L126
1922:ThirdParty/Letter-shell/Src/shell.c ****     {
1923:ThirdParty/Letter-shell/Src/shell.c ****         shellWriteString(shell, shellText[SHELL_TEXT_CLEAR_CONSOLE]);
 1339              		.loc 1 1923 9 is_stmt 1 view .LVU369
 1340 0008 0149     		ldr	r1, .L129
 1341 000a FFF7FEFF 		bl	shellWriteString
 1342              	.LVL123:
 1343              	.L126:
1924:ThirdParty/Letter-shell/Src/shell.c ****     }
1925:ThirdParty/Letter-shell/Src/shell.c **** }
 1344              		.loc 1 1925 1 is_stmt 0 view .LVU370
 1345 000e 08BD     		pop	{r3, pc}
 1346              	.L130:
 1347              		.align	2
 1348              	.L129:
 1349 0010 00000000 		.word	.LC8
 1350              		.cfi_endproc
 1351              	.LFE60:
 1353              		.section	.text.shellPrint,"ax",%progbits
 1354              		.align	1
 1355              		.global	shellPrint
 1356              		.syntax unified
 1357              		.thumb
 1358              		.thumb_func
 1360              	shellPrint:
 1361              	.LVL124:
 1362              	.LFB11:
 377:ThirdParty/Letter-shell/Src/shell.c ****     char buffer[SHELL_PRINT_BUFFER];
 1363              		.loc 1 377 1 is_stmt 1 view -0
 1364              		.cfi_startproc
 1365              		@ args = 4, pretend = 12, frame = 304
 1366              		@ frame_needed = 0, uses_anonymous_args = 1
 378:ThirdParty/Letter-shell/Src/shell.c ****     va_list vargs;
 1367              		.loc 1 378 5 view .LVU372
 379:ThirdParty/Letter-shell/Src/shell.c ****     int len;
 1368              		.loc 1 379 5 view .LVU373
 380:ThirdParty/Letter-shell/Src/shell.c **** 
 1369              		.loc 1 380 5 view .LVU374
 382:ThirdParty/Letter-shell/Src/shell.c **** 
 1370              		.loc 1 382 5 view .LVU375
 1371 0000 C8B1     		cbz	r0, .L137
 377:ThirdParty/Letter-shell/Src/shell.c ****     char buffer[SHELL_PRINT_BUFFER];
 1372              		.loc 1 377 1 is_stmt 0 discriminator 2 view .LVU376
 1373 0002 0EB4     		push	{r1, r2, r3}
 1374              	.LCFI15:
 1375              		.cfi_def_cfa_offset 12
 1376              		.cfi_offset 1, -12
ARM GAS  /var/folders/h7/llxr0vxd5sd9z74__7r6nx9r0000gn/T//ccSPSBV9.s 			page 63


 1377              		.cfi_offset 2, -8
 1378              		.cfi_offset 3, -4
 1379 0004 10B5     		push	{r4, lr}
 1380              	.LCFI16:
 1381              		.cfi_def_cfa_offset 20
 1382              		.cfi_offset 4, -20
 1383              		.cfi_offset 14, -16
 1384 0006 CDB0     		sub	sp, sp, #308
 1385              	.LCFI17:
 1386              		.cfi_def_cfa_offset 328
 1387 0008 0446     		mov	r4, r0
 382:ThirdParty/Letter-shell/Src/shell.c **** 
 1388              		.loc 1 382 32 is_stmt 1 discriminator 2 view .LVU377
 384:ThirdParty/Letter-shell/Src/shell.c ****     len = vsnprintf(buffer, SHELL_PRINT_BUFFER, fmt, vargs);
 1389              		.loc 1 384 5 discriminator 2 view .LVU378
 1390 000a 50AB     		add	r3, sp, #320
 1391 000c 0093     		str	r3, [sp]
 385:ThirdParty/Letter-shell/Src/shell.c ****     va_end(vargs);
 1392              		.loc 1 385 5 discriminator 2 view .LVU379
 385:ThirdParty/Letter-shell/Src/shell.c ****     va_end(vargs);
 1393              		.loc 1 385 11 is_stmt 0 discriminator 2 view .LVU380
 1394 000e 4F9A     		ldr	r2, [sp, #316]
 1395 0010 4FF49671 		mov	r1, #300
 1396 0014 01A8     		add	r0, sp, #4
 1397              	.LVL125:
 385:ThirdParty/Letter-shell/Src/shell.c ****     va_end(vargs);
 1398              		.loc 1 385 11 discriminator 2 view .LVU381
 1399 0016 FFF7FEFF 		bl	vsnprintf
 1400              	.LVL126:
 386:ThirdParty/Letter-shell/Src/shell.c ****     if (len > SHELL_PRINT_BUFFER)
 1401              		.loc 1 386 5 is_stmt 1 discriminator 2 view .LVU382
 387:ThirdParty/Letter-shell/Src/shell.c ****     {
 1402              		.loc 1 387 5 discriminator 2 view .LVU383
 387:ThirdParty/Letter-shell/Src/shell.c ****     {
 1403              		.loc 1 387 8 is_stmt 0 discriminator 2 view .LVU384
 1404 001a B0F5967F 		cmp	r0, #300
 1405 001e 01DD     		ble	.L134
 389:ThirdParty/Letter-shell/Src/shell.c ****     }
 1406              		.loc 1 389 13 view .LVU385
 1407 0020 4FF49670 		mov	r0, #300
 1408              	.LVL127:
 1409              	.L134:
 391:ThirdParty/Letter-shell/Src/shell.c **** }
 1410              		.loc 1 391 5 is_stmt 1 view .LVU386
 391:ThirdParty/Letter-shell/Src/shell.c **** }
 1411              		.loc 1 391 10 is_stmt 0 view .LVU387
 1412 0024 A36E     		ldr	r3, [r4, #104]
 391:ThirdParty/Letter-shell/Src/shell.c **** }
 1413              		.loc 1 391 5 view .LVU388
 1414 0026 81B2     		uxth	r1, r0
 1415 0028 01A8     		add	r0, sp, #4
 1416              	.LVL128:
 391:ThirdParty/Letter-shell/Src/shell.c **** }
 1417              		.loc 1 391 5 view .LVU389
 1418 002a 9847     		blx	r3
 1419              	.LVL129:
 392:ThirdParty/Letter-shell/Src/shell.c **** #endif
ARM GAS  /var/folders/h7/llxr0vxd5sd9z74__7r6nx9r0000gn/T//ccSPSBV9.s 			page 64


 1420              		.loc 1 392 1 view .LVU390
 1421 002c 4DB0     		add	sp, sp, #308
 1422              	.LCFI18:
 1423              		.cfi_def_cfa_offset 20
 1424              		@ sp needed
 1425 002e BDE81040 		pop	{r4, lr}
 1426              	.LCFI19:
 1427              		.cfi_restore 14
 1428              		.cfi_restore 4
 1429              		.cfi_def_cfa_offset 12
 1430              	.LVL130:
 392:ThirdParty/Letter-shell/Src/shell.c **** #endif
 1431              		.loc 1 392 1 view .LVU391
 1432 0032 03B0     		add	sp, sp, #12
 1433              	.LCFI20:
 1434              		.cfi_restore 3
 1435              		.cfi_restore 2
 1436              		.cfi_restore 1
 1437              		.cfi_def_cfa_offset 0
 1438 0034 7047     		bx	lr
 1439              	.LVL131:
 1440              	.L137:
 392:ThirdParty/Letter-shell/Src/shell.c **** #endif
 1441              		.loc 1 392 1 view .LVU392
 1442 0036 7047     		bx	lr
 1443              		.cfi_endproc
 1444              	.LFE11:
 1446              		.section	.text.shellCheckPermission,"ax",%progbits
 1447              		.align	1
 1448              		.global	shellCheckPermission
 1449              		.syntax unified
 1450              		.thumb
 1451              		.thumb_func
 1453              	shellCheckPermission:
 1454              	.LVL132:
 1455              	.LFB12:
 442:ThirdParty/Letter-shell/Src/shell.c ****     return ((!command->attr.attrs.permission
 1456              		.loc 1 442 1 is_stmt 1 view -0
 1457              		.cfi_startproc
 1458              		@ args = 0, pretend = 0, frame = 0
 1459              		@ frame_needed = 0, uses_anonymous_args = 0
 1460              		@ link register save eliminated.
 443:ThirdParty/Letter-shell/Src/shell.c ****                 || command->attr.attrs.type == SHELL_TYPE_USER
 1461              		.loc 1 443 5 view .LVU394
 443:ThirdParty/Letter-shell/Src/shell.c ****                 || command->attr.attrs.type == SHELL_TYPE_USER
 1462              		.loc 1 443 34 is_stmt 0 view .LVU395
 1463 0000 0B78     		ldrb	r3, [r1]	@ zero_extendqisi2
 450:ThirdParty/Letter-shell/Src/shell.c **** }
 1464              		.loc 1 450 17 view .LVU396
 1465 0002 4BB1     		cbz	r3, .L141
 444:ThirdParty/Letter-shell/Src/shell.c ****                 || (shell->info.user
 1466              		.loc 1 444 45 view .LVU397
 1467 0004 4A78     		ldrb	r2, [r1, #1]	@ zero_extendqisi2
 1468 0006 02F00F02 		and	r2, r2, #15
 444:ThirdParty/Letter-shell/Src/shell.c ****                 || (shell->info.user
 1469              		.loc 1 444 17 view .LVU398
 1470 000a 082A     		cmp	r2, #8
ARM GAS  /var/folders/h7/llxr0vxd5sd9z74__7r6nx9r0000gn/T//ccSPSBV9.s 			page 65


 1471 000c 04D0     		beq	.L141
 445:ThirdParty/Letter-shell/Src/shell.c ****                     && (command->attr.attrs.permission 
 1472              		.loc 1 445 32 view .LVU399
 1473 000e 0268     		ldr	r2, [r0]
 445:ThirdParty/Letter-shell/Src/shell.c ****                     && (command->attr.attrs.permission 
 1474              		.loc 1 445 17 view .LVU400
 1475 0010 82B1     		cbz	r2, .L143
 447:ThirdParty/Letter-shell/Src/shell.c ****             && (shell->status.isChecked
 1476              		.loc 1 447 55 view .LVU401
 1477 0012 1278     		ldrb	r2, [r2]	@ zero_extendqisi2
 446:ThirdParty/Letter-shell/Src/shell.c ****                         & shell->info.user->attr.attrs.permission)))
 1478              		.loc 1 446 21 view .LVU402
 1479 0014 1342     		tst	r3, r2
 1480 0016 10D0     		beq	.L144
 1481              	.L141:
 448:ThirdParty/Letter-shell/Src/shell.c ****                 || command->attr.attrs.enableUnchecked))
 1482              		.loc 1 448 17 view .LVU403
 1483 0018 90F86030 		ldrb	r3, [r0, #96]	@ zero_extendqisi2
 448:ThirdParty/Letter-shell/Src/shell.c ****                 || command->attr.attrs.enableUnchecked))
 1484              		.loc 1 448 13 view .LVU404
 1485 001c 13F0010F 		tst	r3, #1
 1486 0020 0ED1     		bne	.L145
 449:ThirdParty/Letter-shell/Src/shell.c ****             ? 0 : -1;
 1487              		.loc 1 449 17 view .LVU405
 1488 0022 4B78     		ldrb	r3, [r1, #1]	@ zero_extendqisi2
 1489 0024 13F0100F 		tst	r3, #16
 1490 0028 01D0     		beq	.L147
 450:ThirdParty/Letter-shell/Src/shell.c **** }
 1491              		.loc 1 450 17 view .LVU406
 1492 002a 0020     		movs	r0, #0
 1493              	.LVL133:
 451:ThirdParty/Letter-shell/Src/shell.c **** 
 1494              		.loc 1 451 1 view .LVU407
 1495 002c 7047     		bx	lr
 1496              	.LVL134:
 1497              	.L147:
 450:ThirdParty/Letter-shell/Src/shell.c **** }
 1498              		.loc 1 450 17 view .LVU408
 1499 002e 4FF0FF30 		mov	r0, #-1
 1500              	.LVL135:
 450:ThirdParty/Letter-shell/Src/shell.c **** }
 1501              		.loc 1 450 17 view .LVU409
 1502 0032 7047     		bx	lr
 1503              	.LVL136:
 1504              	.L143:
 450:ThirdParty/Letter-shell/Src/shell.c **** }
 1505              		.loc 1 450 17 view .LVU410
 1506 0034 4FF0FF30 		mov	r0, #-1
 1507              	.LVL137:
 450:ThirdParty/Letter-shell/Src/shell.c **** }
 1508              		.loc 1 450 17 view .LVU411
 1509 0038 7047     		bx	lr
 1510              	.LVL138:
 1511              	.L144:
 450:ThirdParty/Letter-shell/Src/shell.c **** }
 1512              		.loc 1 450 17 view .LVU412
 1513 003a 4FF0FF30 		mov	r0, #-1
ARM GAS  /var/folders/h7/llxr0vxd5sd9z74__7r6nx9r0000gn/T//ccSPSBV9.s 			page 66


 1514              	.LVL139:
 450:ThirdParty/Letter-shell/Src/shell.c **** }
 1515              		.loc 1 450 17 view .LVU413
 1516 003e 7047     		bx	lr
 1517              	.LVL140:
 1518              	.L145:
 450:ThirdParty/Letter-shell/Src/shell.c **** }
 1519              		.loc 1 450 17 view .LVU414
 1520 0040 0020     		movs	r0, #0
 1521              	.LVL141:
 450:ThirdParty/Letter-shell/Src/shell.c **** }
 1522              		.loc 1 450 17 view .LVU415
 1523 0042 7047     		bx	lr
 1524              		.cfi_endproc
 1525              	.LFE12:
 1527              		.section	.text.shellToHex,"ax",%progbits
 1528              		.align	1
 1529              		.global	shellToHex
 1530              		.syntax unified
 1531              		.thumb
 1532              		.thumb_func
 1534              	shellToHex:
 1535              	.LVL142:
 1536              	.LFB13:
 463:ThirdParty/Letter-shell/Src/shell.c ****     char byte;
 1537              		.loc 1 463 1 is_stmt 1 view -0
 1538              		.cfi_startproc
 1539              		@ args = 0, pretend = 0, frame = 0
 1540              		@ frame_needed = 0, uses_anonymous_args = 0
 1541              		@ link register save eliminated.
 464:ThirdParty/Letter-shell/Src/shell.c ****     unsigned char i = 8;
 1542              		.loc 1 464 5 view .LVU417
 465:ThirdParty/Letter-shell/Src/shell.c ****     buffer[8] = 0;
 1543              		.loc 1 465 5 view .LVU418
 466:ThirdParty/Letter-shell/Src/shell.c ****     while (value)
 1544              		.loc 1 466 5 view .LVU419
 466:ThirdParty/Letter-shell/Src/shell.c ****     while (value)
 1545              		.loc 1 466 15 is_stmt 0 view .LVU420
 1546 0000 0023     		movs	r3, #0
 1547 0002 0B72     		strb	r3, [r1, #8]
 467:ThirdParty/Letter-shell/Src/shell.c ****     {
 1548              		.loc 1 467 5 is_stmt 1 view .LVU421
 465:ThirdParty/Letter-shell/Src/shell.c ****     buffer[8] = 0;
 1549              		.loc 1 465 19 is_stmt 0 view .LVU422
 1550 0004 0823     		movs	r3, #8
 467:ThirdParty/Letter-shell/Src/shell.c ****     {
 1551              		.loc 1 467 11 view .LVU423
 1552 0006 04E0     		b	.L149
 1553              	.LVL143:
 1554              	.L150:
 470:ThirdParty/Letter-shell/Src/shell.c ****         value >>= 4;
 1555              		.loc 1 470 21 discriminator 2 view .LVU424
 1556 0008 3032     		adds	r2, r2, #48
 1557              	.LVL144:
 1558              	.L151:
 470:ThirdParty/Letter-shell/Src/shell.c ****         value >>= 4;
 1559              		.loc 1 470 21 discriminator 4 view .LVU425
ARM GAS  /var/folders/h7/llxr0vxd5sd9z74__7r6nx9r0000gn/T//ccSPSBV9.s 			page 67


 1560 000a 013B     		subs	r3, r3, #1
 1561              	.LVL145:
 470:ThirdParty/Letter-shell/Src/shell.c ****         value >>= 4;
 1562              		.loc 1 470 21 discriminator 4 view .LVU426
 1563 000c DBB2     		uxtb	r3, r3
 1564              	.LVL146:
 470:ThirdParty/Letter-shell/Src/shell.c ****         value >>= 4;
 1565              		.loc 1 470 21 discriminator 4 view .LVU427
 1566 000e CA54     		strb	r2, [r1, r3]
 471:ThirdParty/Letter-shell/Src/shell.c ****     }
 1567              		.loc 1 471 9 is_stmt 1 discriminator 4 view .LVU428
 471:ThirdParty/Letter-shell/Src/shell.c ****     }
 1568              		.loc 1 471 15 is_stmt 0 discriminator 4 view .LVU429
 1569 0010 0009     		lsrs	r0, r0, #4
 1570              	.LVL147:
 1571              	.L149:
 467:ThirdParty/Letter-shell/Src/shell.c ****     {
 1572              		.loc 1 467 12 is_stmt 1 view .LVU430
 1573 0012 28B1     		cbz	r0, .L153
 469:ThirdParty/Letter-shell/Src/shell.c ****         buffer[--i] = (byte > 9) ? (byte + 87) : (byte + 48);
 1574              		.loc 1 469 9 view .LVU431
 469:ThirdParty/Letter-shell/Src/shell.c ****         buffer[--i] = (byte > 9) ? (byte + 87) : (byte + 48);
 1575              		.loc 1 469 14 is_stmt 0 view .LVU432
 1576 0014 00F00F02 		and	r2, r0, #15
 1577              	.LVL148:
 470:ThirdParty/Letter-shell/Src/shell.c ****         value >>= 4;
 1578              		.loc 1 470 9 is_stmt 1 view .LVU433
 470:ThirdParty/Letter-shell/Src/shell.c ****         value >>= 4;
 1579              		.loc 1 470 21 is_stmt 0 view .LVU434
 1580 0018 092A     		cmp	r2, #9
 1581 001a F5D9     		bls	.L150
 470:ThirdParty/Letter-shell/Src/shell.c ****         value >>= 4;
 1582              		.loc 1 470 21 discriminator 1 view .LVU435
 1583 001c 5732     		adds	r2, r2, #87
 1584              	.LVL149:
 470:ThirdParty/Letter-shell/Src/shell.c ****         value >>= 4;
 1585              		.loc 1 470 21 discriminator 1 view .LVU436
 1586 001e F4E7     		b	.L151
 1587              	.LVL150:
 1588              	.L153:
 473:ThirdParty/Letter-shell/Src/shell.c **** }
 1589              		.loc 1 473 5 is_stmt 1 view .LVU437
 473:ThirdParty/Letter-shell/Src/shell.c **** }
 1590              		.loc 1 473 14 is_stmt 0 view .LVU438
 1591 0020 C3F10800 		rsb	r0, r3, #8
 1592              	.LVL151:
 474:ThirdParty/Letter-shell/Src/shell.c **** 
 1593              		.loc 1 474 1 view .LVU439
 1594 0024 40B2     		sxtb	r0, r0
 1595 0026 7047     		bx	lr
 1596              		.cfi_endproc
 1597              	.LFE13:
 1599              		.section	.text.shellGetCommandName,"ax",%progbits
 1600              		.align	1
 1601              		.syntax unified
 1602              		.thumb
 1603              		.thumb_func
ARM GAS  /var/folders/h7/llxr0vxd5sd9z74__7r6nx9r0000gn/T//ccSPSBV9.s 			page 68


 1605              	shellGetCommandName:
 1606              	.LVL152:
 1607              	.LFB17:
 562:ThirdParty/Letter-shell/Src/shell.c ****     static char buffer[9];
 1608              		.loc 1 562 1 is_stmt 1 view -0
 1609              		.cfi_startproc
 1610              		@ args = 0, pretend = 0, frame = 0
 1611              		@ frame_needed = 0, uses_anonymous_args = 0
 563:ThirdParty/Letter-shell/Src/shell.c ****     for (unsigned char i = 0; i < 9; i++)
 1612              		.loc 1 563 5 view .LVU441
 564:ThirdParty/Letter-shell/Src/shell.c ****     {
 1613              		.loc 1 564 5 view .LVU442
 1614              	.LBB9:
 564:ThirdParty/Letter-shell/Src/shell.c ****     {
 1615              		.loc 1 564 10 view .LVU443
 564:ThirdParty/Letter-shell/Src/shell.c ****     {
 1616              		.loc 1 564 24 is_stmt 0 view .LVU444
 1617 0000 0023     		movs	r3, #0
 564:ThirdParty/Letter-shell/Src/shell.c ****     {
 1618              		.loc 1 564 5 view .LVU445
 1619 0002 04E0     		b	.L155
 1620              	.LVL153:
 1621              	.L156:
 566:ThirdParty/Letter-shell/Src/shell.c ****     }
 1622              		.loc 1 566 9 is_stmt 1 discriminator 3 view .LVU446
 566:ThirdParty/Letter-shell/Src/shell.c ****     }
 1623              		.loc 1 566 19 is_stmt 0 discriminator 3 view .LVU447
 1624 0004 0E4A     		ldr	r2, .L166
 1625 0006 3021     		movs	r1, #48
 1626 0008 D154     		strb	r1, [r2, r3]
 564:ThirdParty/Letter-shell/Src/shell.c ****     {
 1627              		.loc 1 564 39 is_stmt 1 discriminator 3 view .LVU448
 1628 000a 0133     		adds	r3, r3, #1
 1629              	.LVL154:
 564:ThirdParty/Letter-shell/Src/shell.c ****     {
 1630              		.loc 1 564 39 is_stmt 0 discriminator 3 view .LVU449
 1631 000c DBB2     		uxtb	r3, r3
 1632              	.LVL155:
 1633              	.L155:
 564:ThirdParty/Letter-shell/Src/shell.c ****     {
 1634              		.loc 1 564 33 is_stmt 1 discriminator 1 view .LVU450
 1635 000e 082B     		cmp	r3, #8
 1636 0010 F8D9     		bls	.L156
 1637              	.LBE9:
 568:ThirdParty/Letter-shell/Src/shell.c ****     {
 1638              		.loc 1 568 5 view .LVU451
 568:ThirdParty/Letter-shell/Src/shell.c ****     {
 1639              		.loc 1 568 28 is_stmt 0 view .LVU452
 1640 0012 4378     		ldrb	r3, [r0, #1]	@ zero_extendqisi2
 1641              	.LVL156:
 568:ThirdParty/Letter-shell/Src/shell.c ****     {
 1642              		.loc 1 568 28 view .LVU453
 1643 0014 03F00F03 		and	r3, r3, #15
 568:ThirdParty/Letter-shell/Src/shell.c ****     {
 1644              		.loc 1 568 8 view .LVU454
 1645 0018 012B     		cmp	r3, #1
 1646 001a 05D9     		bls	.L164
ARM GAS  /var/folders/h7/llxr0vxd5sd9z74__7r6nx9r0000gn/T//ccSPSBV9.s 			page 69


 572:ThirdParty/Letter-shell/Src/shell.c ****     {
 1647              		.loc 1 572 10 is_stmt 1 view .LVU455
 572:ThirdParty/Letter-shell/Src/shell.c ****     {
 1648              		.loc 1 572 13 is_stmt 0 view .LVU456
 1649 001c 072B     		cmp	r3, #7
 1650 001e 05D9     		bls	.L165
 576:ThirdParty/Letter-shell/Src/shell.c ****     {
 1651              		.loc 1 576 10 is_stmt 1 view .LVU457
 576:ThirdParty/Letter-shell/Src/shell.c ****     {
 1652              		.loc 1 576 13 is_stmt 0 view .LVU458
 1653 0020 082B     		cmp	r3, #8
 1654 0022 05D8     		bhi	.L160
 578:ThirdParty/Letter-shell/Src/shell.c ****     }
 1655              		.loc 1 578 9 is_stmt 1 view .LVU459
 578:ThirdParty/Letter-shell/Src/shell.c ****     }
 1656              		.loc 1 578 34 is_stmt 0 view .LVU460
 1657 0024 4068     		ldr	r0, [r0, #4]
 1658              	.LVL157:
 591:ThirdParty/Letter-shell/Src/shell.c **** 
 1659              		.loc 1 591 1 view .LVU461
 1660 0026 7047     		bx	lr
 1661              	.LVL158:
 1662              	.L164:
 570:ThirdParty/Letter-shell/Src/shell.c ****     }
 1663              		.loc 1 570 9 is_stmt 1 view .LVU462
 570:ThirdParty/Letter-shell/Src/shell.c ****     }
 1664              		.loc 1 570 33 is_stmt 0 view .LVU463
 1665 0028 4068     		ldr	r0, [r0, #4]
 1666              	.LVL159:
 570:ThirdParty/Letter-shell/Src/shell.c ****     }
 1667              		.loc 1 570 33 view .LVU464
 1668 002a 7047     		bx	lr
 1669              	.LVL160:
 1670              	.L165:
 574:ThirdParty/Letter-shell/Src/shell.c ****     }
 1671              		.loc 1 574 9 is_stmt 1 view .LVU465
 574:ThirdParty/Letter-shell/Src/shell.c ****     }
 1672              		.loc 1 574 33 is_stmt 0 view .LVU466
 1673 002c 4068     		ldr	r0, [r0, #4]
 1674              	.LVL161:
 574:ThirdParty/Letter-shell/Src/shell.c ****     }
 1675              		.loc 1 574 33 view .LVU467
 1676 002e 7047     		bx	lr
 1677              	.LVL162:
 1678              	.L160:
 562:ThirdParty/Letter-shell/Src/shell.c ****     static char buffer[9];
 1679              		.loc 1 562 1 view .LVU468
 1680 0030 10B5     		push	{r4, lr}
 1681              	.LCFI21:
 1682              		.cfi_def_cfa_offset 8
 1683              		.cfi_offset 4, -8
 1684              		.cfi_offset 14, -4
 588:ThirdParty/Letter-shell/Src/shell.c ****         return buffer;
 1685              		.loc 1 588 9 is_stmt 1 view .LVU469
 1686 0032 034C     		ldr	r4, .L166
 1687 0034 2146     		mov	r1, r4
 1688 0036 4068     		ldr	r0, [r0, #4]
ARM GAS  /var/folders/h7/llxr0vxd5sd9z74__7r6nx9r0000gn/T//ccSPSBV9.s 			page 70


 1689              	.LVL163:
 588:ThirdParty/Letter-shell/Src/shell.c ****         return buffer;
 1690              		.loc 1 588 9 is_stmt 0 view .LVU470
 1691 0038 FFF7FEFF 		bl	shellToHex
 1692              	.LVL164:
 589:ThirdParty/Letter-shell/Src/shell.c ****     }
 1693              		.loc 1 589 9 is_stmt 1 view .LVU471
 589:ThirdParty/Letter-shell/Src/shell.c ****     }
 1694              		.loc 1 589 16 is_stmt 0 view .LVU472
 1695 003c 2046     		mov	r0, r4
 591:ThirdParty/Letter-shell/Src/shell.c **** 
 1696              		.loc 1 591 1 view .LVU473
 1697 003e 10BD     		pop	{r4, pc}
 1698              	.L167:
 1699              		.align	2
 1700              	.L166:
 1701 0040 00000000 		.word	buffer.0
 1702              		.cfi_endproc
 1703              	.LFE17:
 1705              		.section	.text.shellToDec,"ax",%progbits
 1706              		.align	1
 1707              		.global	shellToDec
 1708              		.syntax unified
 1709              		.thumb
 1710              		.thumb_func
 1712              	shellToDec:
 1713              	.LVL165:
 1714              	.LFB14:
 486:ThirdParty/Letter-shell/Src/shell.c ****     unsigned char i = 11;
 1715              		.loc 1 486 1 is_stmt 1 view -0
 1716              		.cfi_startproc
 1717              		@ args = 0, pretend = 0, frame = 0
 1718              		@ frame_needed = 0, uses_anonymous_args = 0
 1719              		@ link register save eliminated.
 486:ThirdParty/Letter-shell/Src/shell.c ****     unsigned char i = 11;
 1720              		.loc 1 486 1 is_stmt 0 view .LVU475
 1721 0000 10B4     		push	{r4}
 1722              	.LCFI22:
 1723              		.cfi_def_cfa_offset 4
 1724              		.cfi_offset 4, -4
 487:ThirdParty/Letter-shell/Src/shell.c ****     int v = value;
 1725              		.loc 1 487 5 is_stmt 1 view .LVU476
 1726              	.LVL166:
 488:ThirdParty/Letter-shell/Src/shell.c ****     if (value < 0)
 1727              		.loc 1 488 5 view .LVU477
 489:ThirdParty/Letter-shell/Src/shell.c ****     {
 1728              		.loc 1 489 5 view .LVU478
 489:ThirdParty/Letter-shell/Src/shell.c ****     {
 1729              		.loc 1 489 8 is_stmt 0 view .LVU479
 1730 0002 041E     		subs	r4, r0, #0
 1731 0004 04DB     		blt	.L176
 488:ThirdParty/Letter-shell/Src/shell.c ****     if (value < 0)
 1732              		.loc 1 488 9 view .LVU480
 1733 0006 2246     		mov	r2, r4
 1734              	.LVL167:
 1735              	.L169:
 493:ThirdParty/Letter-shell/Src/shell.c ****     while (v)
ARM GAS  /var/folders/h7/llxr0vxd5sd9z74__7r6nx9r0000gn/T//ccSPSBV9.s 			page 71


 1736              		.loc 1 493 5 is_stmt 1 view .LVU481
 493:ThirdParty/Letter-shell/Src/shell.c ****     while (v)
 1737              		.loc 1 493 16 is_stmt 0 view .LVU482
 1738 0008 0023     		movs	r3, #0
 1739 000a CB72     		strb	r3, [r1, #11]
 494:ThirdParty/Letter-shell/Src/shell.c ****     {
 1740              		.loc 1 494 5 is_stmt 1 view .LVU483
 487:ThirdParty/Letter-shell/Src/shell.c ****     int v = value;
 1741              		.loc 1 487 19 is_stmt 0 view .LVU484
 1742 000c 0B20     		movs	r0, #11
 1743              	.LVL168:
 494:ThirdParty/Letter-shell/Src/shell.c ****     {
 1744              		.loc 1 494 11 view .LVU485
 1745 000e 11E0     		b	.L170
 1746              	.LVL169:
 1747              	.L176:
 491:ThirdParty/Letter-shell/Src/shell.c ****     }
 1748              		.loc 1 491 9 is_stmt 1 view .LVU486
 491:ThirdParty/Letter-shell/Src/shell.c ****     }
 1749              		.loc 1 491 11 is_stmt 0 view .LVU487
 1750 0010 6242     		rsbs	r2, r4, #0
 1751              	.LVL170:
 491:ThirdParty/Letter-shell/Src/shell.c ****     }
 1752              		.loc 1 491 11 view .LVU488
 1753 0012 F9E7     		b	.L169
 1754              	.LVL171:
 1755              	.L171:
 496:ThirdParty/Letter-shell/Src/shell.c ****         v /= 10;
 1756              		.loc 1 496 9 is_stmt 1 view .LVU489
 496:ThirdParty/Letter-shell/Src/shell.c ****         v /= 10;
 1757              		.loc 1 496 25 is_stmt 0 view .LVU490
 1758 0014 114B     		ldr	r3, .L178
 1759 0016 83FB023C 		smull	r3, ip, r3, r2
 1760 001a D317     		asrs	r3, r2, #31
 1761 001c C3EBAC03 		rsb	r3, r3, ip, asr #2
 1762 0020 9C46     		mov	ip, r3
 1763 0022 03EB8303 		add	r3, r3, r3, lsl #2
 1764 0026 A2EB4303 		sub	r3, r2, r3, lsl #1
 496:ThirdParty/Letter-shell/Src/shell.c ****         v /= 10;
 1765              		.loc 1 496 21 view .LVU491
 1766 002a 0138     		subs	r0, r0, #1
 1767              	.LVL172:
 496:ThirdParty/Letter-shell/Src/shell.c ****         v /= 10;
 1768              		.loc 1 496 21 view .LVU492
 1769 002c C0B2     		uxtb	r0, r0
 1770              	.LVL173:
 496:ThirdParty/Letter-shell/Src/shell.c ****         v /= 10;
 1771              		.loc 1 496 30 view .LVU493
 1772 002e 3033     		adds	r3, r3, #48
 496:ThirdParty/Letter-shell/Src/shell.c ****         v /= 10;
 1773              		.loc 1 496 21 view .LVU494
 1774 0030 0B54     		strb	r3, [r1, r0]
 497:ThirdParty/Letter-shell/Src/shell.c ****     }
 1775              		.loc 1 497 9 is_stmt 1 view .LVU495
 497:ThirdParty/Letter-shell/Src/shell.c ****     }
 1776              		.loc 1 497 11 is_stmt 0 view .LVU496
 1777 0032 6246     		mov	r2, ip
ARM GAS  /var/folders/h7/llxr0vxd5sd9z74__7r6nx9r0000gn/T//ccSPSBV9.s 			page 72


 1778              	.LVL174:
 1779              	.L170:
 494:ThirdParty/Letter-shell/Src/shell.c ****     {
 1780              		.loc 1 494 12 is_stmt 1 view .LVU497
 1781 0034 002A     		cmp	r2, #0
 1782 0036 EDD1     		bne	.L171
 499:ThirdParty/Letter-shell/Src/shell.c ****     {
 1783              		.loc 1 499 5 view .LVU498
 499:ThirdParty/Letter-shell/Src/shell.c ****     {
 1784              		.loc 1 499 8 is_stmt 0 view .LVU499
 1785 0038 002C     		cmp	r4, #0
 1786 003a 0ADB     		blt	.L177
 1787              	.L172:
 503:ThirdParty/Letter-shell/Src/shell.c ****         buffer[--i] = '0';
 1788              		.loc 1 503 5 is_stmt 1 view .LVU500
 503:ThirdParty/Letter-shell/Src/shell.c ****         buffer[--i] = '0';
 1789              		.loc 1 503 8 is_stmt 0 view .LVU501
 1790 003c 1CB9     		cbnz	r4, .L173
 504:ThirdParty/Letter-shell/Src/shell.c ****     }
 1791              		.loc 1 504 9 is_stmt 1 view .LVU502
 504:ThirdParty/Letter-shell/Src/shell.c ****     }
 1792              		.loc 1 504 21 is_stmt 0 view .LVU503
 1793 003e 0138     		subs	r0, r0, #1
 1794              	.LVL175:
 504:ThirdParty/Letter-shell/Src/shell.c ****     }
 1795              		.loc 1 504 21 view .LVU504
 1796 0040 C0B2     		uxtb	r0, r0
 1797              	.LVL176:
 504:ThirdParty/Letter-shell/Src/shell.c ****     }
 1798              		.loc 1 504 21 view .LVU505
 1799 0042 3023     		movs	r3, #48
 1800 0044 0B54     		strb	r3, [r1, r0]
 1801              	.L173:
 506:ThirdParty/Letter-shell/Src/shell.c **** }
 1802              		.loc 1 506 5 is_stmt 1 view .LVU506
 506:ThirdParty/Letter-shell/Src/shell.c **** }
 1803              		.loc 1 506 15 is_stmt 0 view .LVU507
 1804 0046 C0F10B00 		rsb	r0, r0, #11
 1805              	.LVL177:
 507:ThirdParty/Letter-shell/Src/shell.c **** 
 1806              		.loc 1 507 1 view .LVU508
 1807 004a 40B2     		sxtb	r0, r0
 1808 004c 5DF8044B 		ldr	r4, [sp], #4
 1809              	.LCFI23:
 1810              		.cfi_remember_state
 1811              		.cfi_restore 4
 1812              		.cfi_def_cfa_offset 0
 1813              	.LVL178:
 507:ThirdParty/Letter-shell/Src/shell.c **** 
 1814              		.loc 1 507 1 view .LVU509
 1815 0050 7047     		bx	lr
 1816              	.LVL179:
 1817              	.L177:
 1818              	.LCFI24:
 1819              		.cfi_restore_state
 501:ThirdParty/Letter-shell/Src/shell.c ****     }
 1820              		.loc 1 501 9 is_stmt 1 view .LVU510
ARM GAS  /var/folders/h7/llxr0vxd5sd9z74__7r6nx9r0000gn/T//ccSPSBV9.s 			page 73


 501:ThirdParty/Letter-shell/Src/shell.c ****     }
 1821              		.loc 1 501 21 is_stmt 0 view .LVU511
 1822 0052 0138     		subs	r0, r0, #1
 1823              	.LVL180:
 501:ThirdParty/Letter-shell/Src/shell.c ****     }
 1824              		.loc 1 501 21 view .LVU512
 1825 0054 C0B2     		uxtb	r0, r0
 1826              	.LVL181:
 501:ThirdParty/Letter-shell/Src/shell.c ****     }
 1827              		.loc 1 501 21 view .LVU513
 1828 0056 2D23     		movs	r3, #45
 1829 0058 0B54     		strb	r3, [r1, r0]
 1830 005a EFE7     		b	.L172
 1831              	.L179:
 1832              		.align	2
 1833              	.L178:
 1834 005c 67666666 		.word	1717986919
 1835              		.cfi_endproc
 1836              	.LFE14:
 1838              		.section	.rodata.shellWriteReturnValue.str1.4,"aMS",%progbits,1
 1839              		.align	2
 1840              	.LC10:
 1841 0000 52657475 		.ascii	"Return: \000"
 1841      726E3A20 
 1841      00
 1842 0009 000000   		.align	2
 1843              	.LC11:
 1844 000c 2C203078 		.ascii	", 0x\000"
 1844      00
 1845 0011 000000   		.align	2
 1846              	.LC9:
 1847 0014 30303030 		.ascii	"00000000000\000"
 1847      30303030 
 1847      30303000 
 1848              		.section	.text.shellWriteReturnValue,"ax",%progbits
 1849              		.align	1
 1850              		.syntax unified
 1851              		.thumb
 1852              		.thumb_func
 1854              	shellWriteReturnValue:
 1855              	.LVL182:
 1856              	.LFB39:
1291:ThirdParty/Letter-shell/Src/shell.c ****     char buffer[12] = "00000000000";
 1857              		.loc 1 1291 1 is_stmt 1 view -0
 1858              		.cfi_startproc
 1859              		@ args = 0, pretend = 0, frame = 16
 1860              		@ frame_needed = 0, uses_anonymous_args = 0
1291:ThirdParty/Letter-shell/Src/shell.c ****     char buffer[12] = "00000000000";
 1861              		.loc 1 1291 1 is_stmt 0 view .LVU515
 1862 0000 70B5     		push	{r4, r5, r6, lr}
 1863              	.LCFI25:
 1864              		.cfi_def_cfa_offset 16
 1865              		.cfi_offset 4, -16
 1866              		.cfi_offset 5, -12
 1867              		.cfi_offset 6, -8
 1868              		.cfi_offset 14, -4
 1869 0002 84B0     		sub	sp, sp, #16
ARM GAS  /var/folders/h7/llxr0vxd5sd9z74__7r6nx9r0000gn/T//ccSPSBV9.s 			page 74


 1870              	.LCFI26:
 1871              		.cfi_def_cfa_offset 32
 1872 0004 0446     		mov	r4, r0
 1873 0006 0E46     		mov	r6, r1
1292:ThirdParty/Letter-shell/Src/shell.c ****     shellWriteString(shell, "Return: ");
 1874              		.loc 1 1292 5 is_stmt 1 view .LVU516
1292:ThirdParty/Letter-shell/Src/shell.c ****     shellWriteString(shell, "Return: ");
 1875              		.loc 1 1292 10 is_stmt 0 view .LVU517
 1876 0008 194B     		ldr	r3, .L184
 1877 000a 01AD     		add	r5, sp, #4
 1878 000c 93E80700 		ldm	r3, {r0, r1, r2}
 1879              	.LVL183:
1292:ThirdParty/Letter-shell/Src/shell.c ****     shellWriteString(shell, "Return: ");
 1880              		.loc 1 1292 10 view .LVU518
 1881 0010 85E80700 		stm	r5, {r0, r1, r2}
1293:ThirdParty/Letter-shell/Src/shell.c ****     shellWriteString(shell, &buffer[11 - shellToDec(value, buffer)]);
 1882              		.loc 1 1293 5 is_stmt 1 view .LVU519
 1883 0014 1749     		ldr	r1, .L184+4
 1884 0016 2046     		mov	r0, r4
 1885 0018 FFF7FEFF 		bl	shellWriteString
 1886              	.LVL184:
1294:ThirdParty/Letter-shell/Src/shell.c ****     shellWriteString(shell, ", 0x");
 1887              		.loc 1 1294 5 view .LVU520
1294:ThirdParty/Letter-shell/Src/shell.c ****     shellWriteString(shell, ", 0x");
 1888              		.loc 1 1294 42 is_stmt 0 view .LVU521
 1889 001c 2946     		mov	r1, r5
 1890 001e 3046     		mov	r0, r6
 1891 0020 FFF7FEFF 		bl	shellToDec
 1892              	.LVL185:
1294:ThirdParty/Letter-shell/Src/shell.c ****     shellWriteString(shell, ", 0x");
 1893              		.loc 1 1294 40 view .LVU522
 1894 0024 C0F10B01 		rsb	r1, r0, #11
1294:ThirdParty/Letter-shell/Src/shell.c ****     shellWriteString(shell, ", 0x");
 1895              		.loc 1 1294 5 view .LVU523
 1896 0028 2944     		add	r1, r1, r5
 1897 002a 2046     		mov	r0, r4
 1898 002c FFF7FEFF 		bl	shellWriteString
 1899              	.LVL186:
1295:ThirdParty/Letter-shell/Src/shell.c ****     for (short i = 0; i < 11; i++)
 1900              		.loc 1 1295 5 is_stmt 1 view .LVU524
 1901 0030 1149     		ldr	r1, .L184+8
 1902 0032 2046     		mov	r0, r4
 1903 0034 FFF7FEFF 		bl	shellWriteString
 1904              	.LVL187:
1296:ThirdParty/Letter-shell/Src/shell.c ****     {
 1905              		.loc 1 1296 5 view .LVU525
 1906              	.LBB10:
1296:ThirdParty/Letter-shell/Src/shell.c ****     {
 1907              		.loc 1 1296 10 view .LVU526
1296:ThirdParty/Letter-shell/Src/shell.c ****     {
 1908              		.loc 1 1296 16 is_stmt 0 view .LVU527
 1909 0038 0023     		movs	r3, #0
1296:ThirdParty/Letter-shell/Src/shell.c ****     {
 1910              		.loc 1 1296 5 view .LVU528
 1911 003a 08E0     		b	.L181
 1912              	.LVL188:
 1913              	.L182:
ARM GAS  /var/folders/h7/llxr0vxd5sd9z74__7r6nx9r0000gn/T//ccSPSBV9.s 			page 75


1298:ThirdParty/Letter-shell/Src/shell.c ****     }
 1914              		.loc 1 1298 9 is_stmt 1 discriminator 3 view .LVU529
1298:ThirdParty/Letter-shell/Src/shell.c ****     }
 1915              		.loc 1 1298 19 is_stmt 0 discriminator 3 view .LVU530
 1916 003c 03F11002 		add	r2, r3, #16
 1917 0040 6A44     		add	r2, sp, r2
 1918 0042 4FF0300C 		mov	ip, #48
 1919 0046 02F80CCC 		strb	ip, [r2, #-12]
1296:ThirdParty/Letter-shell/Src/shell.c ****     {
 1920              		.loc 1 1296 32 is_stmt 1 discriminator 3 view .LVU531
 1921 004a 0133     		adds	r3, r3, #1
 1922              	.LVL189:
1296:ThirdParty/Letter-shell/Src/shell.c ****     {
 1923              		.loc 1 1296 32 is_stmt 0 discriminator 3 view .LVU532
 1924 004c 1BB2     		sxth	r3, r3
 1925              	.LVL190:
 1926              	.L181:
1296:ThirdParty/Letter-shell/Src/shell.c ****     {
 1927              		.loc 1 1296 25 is_stmt 1 discriminator 1 view .LVU533
 1928 004e 0A2B     		cmp	r3, #10
 1929 0050 F4DD     		ble	.L182
 1930              	.LBE10:
1300:ThirdParty/Letter-shell/Src/shell.c ****     shellWriteString(shell, buffer);
 1931              		.loc 1 1300 5 view .LVU534
 1932 0052 01A9     		add	r1, sp, #4
 1933 0054 3046     		mov	r0, r6
 1934 0056 FFF7FEFF 		bl	shellToHex
 1935              	.LVL191:
1301:ThirdParty/Letter-shell/Src/shell.c ****     shellWriteString(shell, "\r\n");
 1936              		.loc 1 1301 5 view .LVU535
 1937 005a 01A9     		add	r1, sp, #4
 1938 005c 2046     		mov	r0, r4
 1939 005e FFF7FEFF 		bl	shellWriteString
 1940              	.LVL192:
1302:ThirdParty/Letter-shell/Src/shell.c **** #if SHELL_KEEP_RETURN_VALUE == 1
 1941              		.loc 1 1302 5 view .LVU536
 1942 0062 0649     		ldr	r1, .L184+12
 1943 0064 2046     		mov	r0, r4
 1944 0066 FFF7FEFF 		bl	shellWriteString
 1945              	.LVL193:
1306:ThirdParty/Letter-shell/Src/shell.c **** 
 1946              		.loc 1 1306 1 is_stmt 0 view .LVU537
 1947 006a 04B0     		add	sp, sp, #16
 1948              	.LCFI27:
 1949              		.cfi_def_cfa_offset 16
 1950              		@ sp needed
 1951 006c 70BD     		pop	{r4, r5, r6, pc}
 1952              	.LVL194:
 1953              	.L185:
1306:ThirdParty/Letter-shell/Src/shell.c **** 
 1954              		.loc 1 1306 1 view .LVU538
 1955 006e 00BF     		.align	2
 1956              	.L184:
 1957 0070 14000000 		.word	.LC9
 1958 0074 00000000 		.word	.LC10
 1959 0078 0C000000 		.word	.LC11
 1960 007c 04000000 		.word	.LC2
ARM GAS  /var/folders/h7/llxr0vxd5sd9z74__7r6nx9r0000gn/T//ccSPSBV9.s 			page 76


 1961              		.cfi_endproc
 1962              	.LFE39:
 1964              		.section	.rodata.shellListItem.str1.4,"aMS",%progbits,1
 1965              		.align	2
 1966              	.LC12:
 1967 0000 434D4420 		.ascii	"CMD \000"
 1967      00
 1968 0005 000000   		.align	2
 1969              	.LC13:
 1970 0008 56415220 		.ascii	"VAR \000"
 1970      00
 1971 000d 000000   		.align	2
 1972              	.LC14:
 1973 0010 55534552 		.ascii	"USER\000"
 1973      00
 1974 0015 000000   		.align	2
 1975              	.LC15:
 1976 0018 4B455920 		.ascii	"KEY \000"
 1976      00
 1977 001d 000000   		.align	2
 1978              	.LC16:
 1979 0020 4E4F4E45 		.ascii	"NONE\000"
 1979      00
 1980 0025 000000   		.align	2
 1981              	.LC17:
 1982 0028 202000   		.ascii	"  \000"
 1983              		.section	.text.shellListItem,"ax",%progbits
 1984              		.align	1
 1985              		.global	shellListItem
 1986              		.syntax unified
 1987              		.thumb
 1988              		.thumb_func
 1990              	shellListItem:
 1991              	.LVL195:
 1992              	.LFB19:
 627:ThirdParty/Letter-shell/Src/shell.c ****     short spaceLength;
 1993              		.loc 1 627 1 is_stmt 1 view -0
 1994              		.cfi_startproc
 1995              		@ args = 0, pretend = 0, frame = 0
 1996              		@ frame_needed = 0, uses_anonymous_args = 0
 627:ThirdParty/Letter-shell/Src/shell.c ****     short spaceLength;
 1997              		.loc 1 627 1 is_stmt 0 view .LVU540
 1998 0000 70B5     		push	{r4, r5, r6, lr}
 1999              	.LCFI28:
 2000              		.cfi_def_cfa_offset 16
 2001              		.cfi_offset 4, -16
 2002              		.cfi_offset 5, -12
 2003              		.cfi_offset 6, -8
 2004              		.cfi_offset 14, -4
 2005 0002 0546     		mov	r5, r0
 2006 0004 0E46     		mov	r6, r1
 628:ThirdParty/Letter-shell/Src/shell.c **** 
 2007              		.loc 1 628 5 is_stmt 1 view .LVU541
 630:ThirdParty/Letter-shell/Src/shell.c ****     spaceLength = (spaceLength > 0) ? spaceLength : 4;
 2008              		.loc 1 630 5 view .LVU542
 630:ThirdParty/Letter-shell/Src/shell.c ****     spaceLength = (spaceLength > 0) ? spaceLength : 4;
 2009              		.loc 1 630 24 is_stmt 0 view .LVU543
ARM GAS  /var/folders/h7/llxr0vxd5sd9z74__7r6nx9r0000gn/T//ccSPSBV9.s 			page 77


 2010 0006 0846     		mov	r0, r1
 2011              	.LVL196:
 630:ThirdParty/Letter-shell/Src/shell.c ****     spaceLength = (spaceLength > 0) ? spaceLength : 4;
 2012              		.loc 1 630 24 view .LVU544
 2013 0008 FFF7FEFF 		bl	shellGetCommandName
 2014              	.LVL197:
 630:ThirdParty/Letter-shell/Src/shell.c ****     spaceLength = (spaceLength > 0) ? spaceLength : 4;
 2015              		.loc 1 630 24 view .LVU545
 2016 000c 0146     		mov	r1, r0
 2017 000e 2846     		mov	r0, r5
 2018 0010 FFF7FEFF 		bl	shellWriteString
 2019              	.LVL198:
 630:ThirdParty/Letter-shell/Src/shell.c ****     spaceLength = (spaceLength > 0) ? spaceLength : 4;
 2020              		.loc 1 630 22 view .LVU546
 2021 0014 C0F11604 		rsb	r4, r0, #22
 630:ThirdParty/Letter-shell/Src/shell.c ****     spaceLength = (spaceLength > 0) ? spaceLength : 4;
 2022              		.loc 1 630 17 view .LVU547
 2023 0018 24B2     		sxth	r4, r4
 2024              	.LVL199:
 631:ThirdParty/Letter-shell/Src/shell.c ****     do {
 2025              		.loc 1 631 5 is_stmt 1 view .LVU548
 631:ThirdParty/Letter-shell/Src/shell.c ****     do {
 2026              		.loc 1 631 17 is_stmt 0 view .LVU549
 2027 001a 002C     		cmp	r4, #0
 2028 001c 17DD     		ble	.L200
 2029              	.LVL200:
 2030              	.L188:
 632:ThirdParty/Letter-shell/Src/shell.c ****         shellWriteByte(shell, ' ');
 2031              		.loc 1 632 5 is_stmt 1 discriminator 1 view .LVU550
 633:ThirdParty/Letter-shell/Src/shell.c ****     } while (--spaceLength);
 2032              		.loc 1 633 9 discriminator 1 view .LVU551
 2033 001e 2021     		movs	r1, #32
 2034 0020 2846     		mov	r0, r5
 2035 0022 FFF7FEFF 		bl	shellWriteByte
 2036              	.LVL201:
 634:ThirdParty/Letter-shell/Src/shell.c ****     if (item->attr.attrs.type <= SHELL_TYPE_CMD_FUNC)
 2037              		.loc 1 634 14 discriminator 1 view .LVU552
 2038 0026 013C     		subs	r4, r4, #1
 2039              	.LVL202:
 634:ThirdParty/Letter-shell/Src/shell.c ****     if (item->attr.attrs.type <= SHELL_TYPE_CMD_FUNC)
 2040              		.loc 1 634 14 is_stmt 0 discriminator 1 view .LVU553
 2041 0028 24B2     		sxth	r4, r4
 2042              	.LVL203:
 634:ThirdParty/Letter-shell/Src/shell.c ****     if (item->attr.attrs.type <= SHELL_TYPE_CMD_FUNC)
 2043              		.loc 1 634 14 discriminator 1 view .LVU554
 2044 002a 002C     		cmp	r4, #0
 2045 002c F7D1     		bne	.L188
 635:ThirdParty/Letter-shell/Src/shell.c ****     {
 2046              		.loc 1 635 5 is_stmt 1 view .LVU555
 635:ThirdParty/Letter-shell/Src/shell.c ****     {
 2047              		.loc 1 635 25 is_stmt 0 view .LVU556
 2048 002e 7378     		ldrb	r3, [r6, #1]	@ zero_extendqisi2
 2049 0030 03F00F03 		and	r3, r3, #15
 635:ThirdParty/Letter-shell/Src/shell.c ****     {
 2050              		.loc 1 635 8 view .LVU557
 2051 0034 012B     		cmp	r3, #1
 2052 0036 0CD9     		bls	.L201
ARM GAS  /var/folders/h7/llxr0vxd5sd9z74__7r6nx9r0000gn/T//ccSPSBV9.s 			page 78


 639:ThirdParty/Letter-shell/Src/shell.c ****     {
 2053              		.loc 1 639 10 is_stmt 1 view .LVU558
 639:ThirdParty/Letter-shell/Src/shell.c ****     {
 2054              		.loc 1 639 13 is_stmt 0 view .LVU559
 2055 0038 072B     		cmp	r3, #7
 2056 003a 14D9     		bls	.L202
 643:ThirdParty/Letter-shell/Src/shell.c ****     {
 2057              		.loc 1 643 10 is_stmt 1 view .LVU560
 643:ThirdParty/Letter-shell/Src/shell.c ****     {
 2058              		.loc 1 643 13 is_stmt 0 view .LVU561
 2059 003c 082B     		cmp	r3, #8
 2060 003e 17D9     		bls	.L203
 647:ThirdParty/Letter-shell/Src/shell.c ****     {
 2061              		.loc 1 647 10 is_stmt 1 view .LVU562
 647:ThirdParty/Letter-shell/Src/shell.c ****     {
 2062              		.loc 1 647 13 is_stmt 0 view .LVU563
 2063 0040 092B     		cmp	r3, #9
 2064 0042 1AD8     		bhi	.L193
 649:ThirdParty/Letter-shell/Src/shell.c ****     }
 2065              		.loc 1 649 9 is_stmt 1 view .LVU564
 2066 0044 1F49     		ldr	r1, .L205
 2067 0046 2846     		mov	r0, r5
 2068 0048 FFF7FEFF 		bl	shellWriteString
 2069              	.LVL204:
 2070 004c 05E0     		b	.L190
 2071              	.L200:
 631:ThirdParty/Letter-shell/Src/shell.c ****     do {
 2072              		.loc 1 631 17 is_stmt 0 view .LVU565
 2073 004e 0424     		movs	r4, #4
 2074              	.LVL205:
 631:ThirdParty/Letter-shell/Src/shell.c ****     do {
 2075              		.loc 1 631 17 view .LVU566
 2076 0050 E5E7     		b	.L188
 2077              	.LVL206:
 2078              	.L201:
 637:ThirdParty/Letter-shell/Src/shell.c ****     }
 2079              		.loc 1 637 9 is_stmt 1 view .LVU567
 2080 0052 1D49     		ldr	r1, .L205+4
 2081 0054 2846     		mov	r0, r5
 2082 0056 FFF7FEFF 		bl	shellWriteString
 2083              	.LVL207:
 2084              	.L190:
 656:ThirdParty/Letter-shell/Src/shell.c ****     for (signed char i = 7; i >= 0; i--)
 2085              		.loc 1 656 5 view .LVU568
 2086 005a 1C49     		ldr	r1, .L205+8
 2087 005c 2846     		mov	r0, r5
 2088 005e FFF7FEFF 		bl	shellWriteString
 2089              	.LVL208:
 657:ThirdParty/Letter-shell/Src/shell.c ****     {
 2090              		.loc 1 657 5 view .LVU569
 2091              	.LBB11:
 657:ThirdParty/Letter-shell/Src/shell.c ****     {
 2092              		.loc 1 657 10 view .LVU570
 657:ThirdParty/Letter-shell/Src/shell.c ****     {
 2093              		.loc 1 657 22 is_stmt 0 view .LVU571
 2094 0062 0724     		movs	r4, #7
 2095              	.LVL209:
ARM GAS  /var/folders/h7/llxr0vxd5sd9z74__7r6nx9r0000gn/T//ccSPSBV9.s 			page 79


 657:ThirdParty/Letter-shell/Src/shell.c ****     {
 2096              		.loc 1 657 5 view .LVU572
 2097 0064 14E0     		b	.L194
 2098              	.LVL210:
 2099              	.L202:
 657:ThirdParty/Letter-shell/Src/shell.c ****     {
 2100              		.loc 1 657 5 view .LVU573
 2101              	.LBE11:
 641:ThirdParty/Letter-shell/Src/shell.c ****     }
 2102              		.loc 1 641 9 is_stmt 1 view .LVU574
 2103 0066 1A49     		ldr	r1, .L205+12
 2104 0068 2846     		mov	r0, r5
 2105 006a FFF7FEFF 		bl	shellWriteString
 2106              	.LVL211:
 2107 006e F4E7     		b	.L190
 2108              	.L203:
 645:ThirdParty/Letter-shell/Src/shell.c ****     }
 2109              		.loc 1 645 9 view .LVU575
 2110 0070 1849     		ldr	r1, .L205+16
 2111 0072 2846     		mov	r0, r5
 2112 0074 FFF7FEFF 		bl	shellWriteString
 2113              	.LVL212:
 2114 0078 EFE7     		b	.L190
 2115              	.L193:
 653:ThirdParty/Letter-shell/Src/shell.c ****     }
 2116              		.loc 1 653 9 view .LVU576
 2117 007a 1749     		ldr	r1, .L205+20
 2118 007c 2846     		mov	r0, r5
 2119 007e FFF7FEFF 		bl	shellWriteString
 2120              	.LVL213:
 2121 0082 EAE7     		b	.L190
 2122              	.LVL214:
 2123              	.L198:
 2124              	.LBB12:
 659:ThirdParty/Letter-shell/Src/shell.c ****     }
 2125              		.loc 1 659 9 is_stmt 0 view .LVU577
 2126 0084 2D21     		movs	r1, #45
 2127              	.L195:
 659:ThirdParty/Letter-shell/Src/shell.c ****     }
 2128              		.loc 1 659 9 discriminator 4 view .LVU578
 2129 0086 2846     		mov	r0, r5
 2130 0088 FFF7FEFF 		bl	shellWriteByte
 2131              	.LVL215:
 657:ThirdParty/Letter-shell/Src/shell.c ****     {
 2132              		.loc 1 657 38 is_stmt 1 discriminator 4 view .LVU579
 2133 008c 013C     		subs	r4, r4, #1
 2134              	.LVL216:
 657:ThirdParty/Letter-shell/Src/shell.c ****     {
 2135              		.loc 1 657 38 is_stmt 0 discriminator 4 view .LVU580
 2136 008e 64B2     		sxtb	r4, r4
 2137              	.LVL217:
 2138              	.L194:
 657:ThirdParty/Letter-shell/Src/shell.c ****     {
 2139              		.loc 1 657 31 is_stmt 1 discriminator 2 view .LVU581
 2140 0090 002C     		cmp	r4, #0
 2141 0092 06DB     		blt	.L204
 659:ThirdParty/Letter-shell/Src/shell.c ****     }
ARM GAS  /var/folders/h7/llxr0vxd5sd9z74__7r6nx9r0000gn/T//ccSPSBV9.s 			page 80


 2142              		.loc 1 659 9 view .LVU582
 659:ThirdParty/Letter-shell/Src/shell.c ****     }
 2143              		.loc 1 659 47 is_stmt 0 view .LVU583
 2144 0094 3378     		ldrb	r3, [r6]	@ zero_extendqisi2
 659:ThirdParty/Letter-shell/Src/shell.c ****     }
 2145              		.loc 1 659 70 view .LVU584
 2146 0096 2341     		asrs	r3, r3, r4
 659:ThirdParty/Letter-shell/Src/shell.c ****     }
 2147              		.loc 1 659 9 view .LVU585
 2148 0098 13F0010F 		tst	r3, #1
 2149 009c F2D0     		beq	.L198
 2150 009e 7821     		movs	r1, #120
 2151 00a0 F1E7     		b	.L195
 2152              	.L204:
 659:ThirdParty/Letter-shell/Src/shell.c ****     }
 2153              		.loc 1 659 9 view .LVU586
 2154              	.LBE12:
 662:ThirdParty/Letter-shell/Src/shell.c ****     shellWriteCommandDesc(shell, shellGetCommandDesc(item));
 2155              		.loc 1 662 5 is_stmt 1 view .LVU587
 2156 00a2 0A49     		ldr	r1, .L205+8
 2157 00a4 2846     		mov	r0, r5
 2158 00a6 FFF7FEFF 		bl	shellWriteString
 2159              	.LVL218:
 663:ThirdParty/Letter-shell/Src/shell.c ****     shellWriteString(shell, "\r\n");
 2160              		.loc 1 663 5 view .LVU588
 2161 00aa 3046     		mov	r0, r6
 2162 00ac FFF7FEFF 		bl	shellGetCommandDesc
 2163              	.LVL219:
 2164 00b0 0146     		mov	r1, r0
 2165 00b2 2846     		mov	r0, r5
 2166 00b4 FFF7FEFF 		bl	shellWriteCommandDesc
 2167              	.LVL220:
 664:ThirdParty/Letter-shell/Src/shell.c **** }
 2168              		.loc 1 664 5 view .LVU589
 2169 00b8 0849     		ldr	r1, .L205+24
 2170 00ba 2846     		mov	r0, r5
 2171 00bc FFF7FEFF 		bl	shellWriteString
 2172              	.LVL221:
 665:ThirdParty/Letter-shell/Src/shell.c **** 
 2173              		.loc 1 665 1 is_stmt 0 view .LVU590
 2174 00c0 70BD     		pop	{r4, r5, r6, pc}
 2175              	.LVL222:
 2176              	.L206:
 665:ThirdParty/Letter-shell/Src/shell.c **** 
 2177              		.loc 1 665 1 view .LVU591
 2178 00c2 00BF     		.align	2
 2179              	.L205:
 2180 00c4 18000000 		.word	.LC15
 2181 00c8 00000000 		.word	.LC12
 2182 00cc 28000000 		.word	.LC17
 2183 00d0 08000000 		.word	.LC13
 2184 00d4 10000000 		.word	.LC14
 2185 00d8 20000000 		.word	.LC16
 2186 00dc 04000000 		.word	.LC2
 2187              		.cfi_endproc
 2188              	.LFE19:
 2190              		.section	.rodata.shellListCommand.str1.4,"aMS",%progbits,1
ARM GAS  /var/folders/h7/llxr0vxd5sd9z74__7r6nx9r0000gn/T//ccSPSBV9.s 			page 81


 2191              		.align	2
 2192              	.LC18:
 2193 0000 0D0A436F 		.ascii	"\015\012Command List:\015\012\000"
 2193      6D6D616E 
 2193      64204C69 
 2193      73743A0D 
 2193      0A00
 2194              		.section	.text.shellListCommand,"ax",%progbits
 2195              		.align	1
 2196              		.global	shellListCommand
 2197              		.syntax unified
 2198              		.thumb
 2199              		.thumb_func
 2201              	shellListCommand:
 2202              	.LVL223:
 2203              	.LFB20:
 674:ThirdParty/Letter-shell/Src/shell.c ****     ShellCommand *base = (ShellCommand *)shell->commandList.base;
 2204              		.loc 1 674 1 is_stmt 1 view -0
 2205              		.cfi_startproc
 2206              		@ args = 0, pretend = 0, frame = 0
 2207              		@ frame_needed = 0, uses_anonymous_args = 0
 674:ThirdParty/Letter-shell/Src/shell.c ****     ShellCommand *base = (ShellCommand *)shell->commandList.base;
 2208              		.loc 1 674 1 is_stmt 0 view .LVU593
 2209 0000 F8B5     		push	{r3, r4, r5, r6, r7, lr}
 2210              	.LCFI29:
 2211              		.cfi_def_cfa_offset 24
 2212              		.cfi_offset 3, -24
 2213              		.cfi_offset 4, -20
 2214              		.cfi_offset 5, -16
 2215              		.cfi_offset 6, -12
 2216              		.cfi_offset 7, -8
 2217              		.cfi_offset 14, -4
 2218 0002 0646     		mov	r6, r0
 675:ThirdParty/Letter-shell/Src/shell.c ****     shellWriteString(shell, shellText[SHELL_TEXT_CMD_LIST]);
 2219              		.loc 1 675 5 is_stmt 1 view .LVU594
 675:ThirdParty/Letter-shell/Src/shell.c ****     shellWriteString(shell, shellText[SHELL_TEXT_CMD_LIST]);
 2220              		.loc 1 675 19 is_stmt 0 view .LVU595
 2221 0004 876D     		ldr	r7, [r0, #88]
 2222              	.LVL224:
 676:ThirdParty/Letter-shell/Src/shell.c ****     for (short i = 0; i < shell->commandList.count; i++)
 2223              		.loc 1 676 5 is_stmt 1 view .LVU596
 2224 0006 0F49     		ldr	r1, .L213
 2225 0008 FFF7FEFF 		bl	shellWriteString
 2226              	.LVL225:
 677:ThirdParty/Letter-shell/Src/shell.c ****     {
 2227              		.loc 1 677 5 view .LVU597
 2228              	.LBB13:
 677:ThirdParty/Letter-shell/Src/shell.c ****     {
 2229              		.loc 1 677 10 view .LVU598
 677:ThirdParty/Letter-shell/Src/shell.c ****     {
 2230              		.loc 1 677 16 is_stmt 0 view .LVU599
 2231 000c 0024     		movs	r4, #0
 677:ThirdParty/Letter-shell/Src/shell.c ****     {
 2232              		.loc 1 677 5 view .LVU600
 2233 000e 01E0     		b	.L208
 2234              	.LVL226:
 2235              	.L209:
ARM GAS  /var/folders/h7/llxr0vxd5sd9z74__7r6nx9r0000gn/T//ccSPSBV9.s 			page 82


 677:ThirdParty/Letter-shell/Src/shell.c ****     {
 2236              		.loc 1 677 54 is_stmt 1 discriminator 2 view .LVU601
 2237 0010 0134     		adds	r4, r4, #1
 2238              	.LVL227:
 677:ThirdParty/Letter-shell/Src/shell.c ****     {
 2239              		.loc 1 677 54 is_stmt 0 discriminator 2 view .LVU602
 2240 0012 24B2     		sxth	r4, r4
 2241              	.LVL228:
 2242              	.L208:
 677:ThirdParty/Letter-shell/Src/shell.c ****     {
 2243              		.loc 1 677 25 is_stmt 1 discriminator 1 view .LVU603
 677:ThirdParty/Letter-shell/Src/shell.c ****     {
 2244              		.loc 1 677 45 is_stmt 0 discriminator 1 view .LVU604
 2245 0014 B6F85C30 		ldrh	r3, [r6, #92]
 677:ThirdParty/Letter-shell/Src/shell.c ****     {
 2246              		.loc 1 677 25 discriminator 1 view .LVU605
 2247 0018 9C42     		cmp	r4, r3
 2248 001a 11DA     		bge	.L212
 679:ThirdParty/Letter-shell/Src/shell.c ****             && shellCheckPermission(shell, &base[i]) == 0)
 2249              		.loc 1 679 9 is_stmt 1 view .LVU606
 679:ThirdParty/Letter-shell/Src/shell.c ****             && shellCheckPermission(shell, &base[i]) == 0)
 2250              		.loc 1 679 17 is_stmt 0 view .LVU607
 2251 001c 07EB0415 		add	r5, r7, r4, lsl #4
 679:ThirdParty/Letter-shell/Src/shell.c ****             && shellCheckPermission(shell, &base[i]) == 0)
 2252              		.loc 1 679 31 view .LVU608
 2253 0020 6B78     		ldrb	r3, [r5, #1]	@ zero_extendqisi2
 2254 0022 03F00F03 		and	r3, r3, #15
 679:ThirdParty/Letter-shell/Src/shell.c ****             && shellCheckPermission(shell, &base[i]) == 0)
 2255              		.loc 1 679 12 view .LVU609
 2256 0026 012B     		cmp	r3, #1
 2257 0028 F2D8     		bhi	.L209
 680:ThirdParty/Letter-shell/Src/shell.c ****         {
 2258              		.loc 1 680 16 view .LVU610
 2259 002a 2946     		mov	r1, r5
 2260 002c 3046     		mov	r0, r6
 2261 002e FFF7FEFF 		bl	shellCheckPermission
 2262              	.LVL229:
 680:ThirdParty/Letter-shell/Src/shell.c ****         {
 2263              		.loc 1 680 13 view .LVU611
 2264 0032 0028     		cmp	r0, #0
 2265 0034 ECD1     		bne	.L209
 682:ThirdParty/Letter-shell/Src/shell.c ****         }
 2266              		.loc 1 682 13 is_stmt 1 view .LVU612
 2267 0036 2946     		mov	r1, r5
 2268 0038 3046     		mov	r0, r6
 2269 003a FFF7FEFF 		bl	shellListItem
 2270              	.LVL230:
 2271 003e E7E7     		b	.L209
 2272              	.L212:
 682:ThirdParty/Letter-shell/Src/shell.c ****         }
 2273              		.loc 1 682 13 is_stmt 0 view .LVU613
 2274              	.LBE13:
 685:ThirdParty/Letter-shell/Src/shell.c **** 
 2275              		.loc 1 685 1 view .LVU614
 2276 0040 F8BD     		pop	{r3, r4, r5, r6, r7, pc}
 2277              	.LVL231:
 2278              	.L214:
ARM GAS  /var/folders/h7/llxr0vxd5sd9z74__7r6nx9r0000gn/T//ccSPSBV9.s 			page 83


 685:ThirdParty/Letter-shell/Src/shell.c **** 
 2279              		.loc 1 685 1 view .LVU615
 2280 0042 00BF     		.align	2
 2281              	.L213:
 2282 0044 00000000 		.word	.LC18
 2283              		.cfi_endproc
 2284              	.LFE20:
 2286              		.section	.text.shellCmds,"ax",%progbits
 2287              		.align	1
 2288              		.global	shellCmds
 2289              		.syntax unified
 2290              		.thumb
 2291              		.thumb_func
 2293              	shellCmds:
 2294              	.LFB57:
1871:ThirdParty/Letter-shell/Src/shell.c ****     Shell *shell = shellGetCurrent();
 2295              		.loc 1 1871 1 is_stmt 1 view -0
 2296              		.cfi_startproc
 2297              		@ args = 0, pretend = 0, frame = 0
 2298              		@ frame_needed = 0, uses_anonymous_args = 0
 2299 0000 08B5     		push	{r3, lr}
 2300              	.LCFI30:
 2301              		.cfi_def_cfa_offset 8
 2302              		.cfi_offset 3, -8
 2303              		.cfi_offset 14, -4
1872:ThirdParty/Letter-shell/Src/shell.c ****     if (shell)
 2304              		.loc 1 1872 5 view .LVU617
1872:ThirdParty/Letter-shell/Src/shell.c ****     if (shell)
 2305              		.loc 1 1872 20 is_stmt 0 view .LVU618
 2306 0002 FFF7FEFF 		bl	shellGetCurrent
 2307              	.LVL232:
1873:ThirdParty/Letter-shell/Src/shell.c ****     {
 2308              		.loc 1 1873 5 is_stmt 1 view .LVU619
1873:ThirdParty/Letter-shell/Src/shell.c ****     {
 2309              		.loc 1 1873 8 is_stmt 0 view .LVU620
 2310 0006 08B1     		cbz	r0, .L215
1875:ThirdParty/Letter-shell/Src/shell.c ****     }
 2311              		.loc 1 1875 9 is_stmt 1 view .LVU621
 2312 0008 FFF7FEFF 		bl	shellListCommand
 2313              	.LVL233:
 2314              	.L215:
1877:ThirdParty/Letter-shell/Src/shell.c **** SHELL_EXPORT_CMD(
 2315              		.loc 1 1877 1 is_stmt 0 view .LVU622
 2316 000c 08BD     		pop	{r3, pc}
 2317              		.cfi_endproc
 2318              	.LFE57:
 2320              		.section	.rodata.shellListVar.str1.4,"aMS",%progbits,1
 2321              		.align	2
 2322              	.LC19:
 2323 0000 0D0A5661 		.ascii	"\015\012Var List:\015\012\000"
 2323      72204C69 
 2323      73743A0D 
 2323      0A00
 2324              		.section	.text.shellListVar,"ax",%progbits
 2325              		.align	1
 2326              		.global	shellListVar
 2327              		.syntax unified
ARM GAS  /var/folders/h7/llxr0vxd5sd9z74__7r6nx9r0000gn/T//ccSPSBV9.s 			page 84


 2328              		.thumb
 2329              		.thumb_func
 2331              	shellListVar:
 2332              	.LVL234:
 2333              	.LFB21:
 694:ThirdParty/Letter-shell/Src/shell.c ****     ShellCommand *base = (ShellCommand *)shell->commandList.base;
 2334              		.loc 1 694 1 is_stmt 1 view -0
 2335              		.cfi_startproc
 2336              		@ args = 0, pretend = 0, frame = 0
 2337              		@ frame_needed = 0, uses_anonymous_args = 0
 694:ThirdParty/Letter-shell/Src/shell.c ****     ShellCommand *base = (ShellCommand *)shell->commandList.base;
 2338              		.loc 1 694 1 is_stmt 0 view .LVU624
 2339 0000 F8B5     		push	{r3, r4, r5, r6, r7, lr}
 2340              	.LCFI31:
 2341              		.cfi_def_cfa_offset 24
 2342              		.cfi_offset 3, -24
 2343              		.cfi_offset 4, -20
 2344              		.cfi_offset 5, -16
 2345              		.cfi_offset 6, -12
 2346              		.cfi_offset 7, -8
 2347              		.cfi_offset 14, -4
 2348 0002 0646     		mov	r6, r0
 695:ThirdParty/Letter-shell/Src/shell.c ****     shellWriteString(shell, shellText[SHELL_TEXT_VAR_LIST]);
 2349              		.loc 1 695 5 is_stmt 1 view .LVU625
 695:ThirdParty/Letter-shell/Src/shell.c ****     shellWriteString(shell, shellText[SHELL_TEXT_VAR_LIST]);
 2350              		.loc 1 695 19 is_stmt 0 view .LVU626
 2351 0004 876D     		ldr	r7, [r0, #88]
 2352              	.LVL235:
 696:ThirdParty/Letter-shell/Src/shell.c ****     for (short i = 0; i < shell->commandList.count; i++)
 2353              		.loc 1 696 5 is_stmt 1 view .LVU627
 2354 0006 1049     		ldr	r1, .L224
 2355 0008 FFF7FEFF 		bl	shellWriteString
 2356              	.LVL236:
 697:ThirdParty/Letter-shell/Src/shell.c ****     {
 2357              		.loc 1 697 5 view .LVU628
 2358              	.LBB14:
 697:ThirdParty/Letter-shell/Src/shell.c ****     {
 2359              		.loc 1 697 10 view .LVU629
 697:ThirdParty/Letter-shell/Src/shell.c ****     {
 2360              		.loc 1 697 16 is_stmt 0 view .LVU630
 2361 000c 0024     		movs	r4, #0
 697:ThirdParty/Letter-shell/Src/shell.c ****     {
 2362              		.loc 1 697 5 view .LVU631
 2363 000e 01E0     		b	.L219
 2364              	.LVL237:
 2365              	.L220:
 697:ThirdParty/Letter-shell/Src/shell.c ****     {
 2366              		.loc 1 697 54 is_stmt 1 discriminator 2 view .LVU632
 2367 0010 0134     		adds	r4, r4, #1
 2368              	.LVL238:
 697:ThirdParty/Letter-shell/Src/shell.c ****     {
 2369              		.loc 1 697 54 is_stmt 0 discriminator 2 view .LVU633
 2370 0012 24B2     		sxth	r4, r4
 2371              	.LVL239:
 2372              	.L219:
 697:ThirdParty/Letter-shell/Src/shell.c ****     {
 2373              		.loc 1 697 25 is_stmt 1 discriminator 1 view .LVU634
ARM GAS  /var/folders/h7/llxr0vxd5sd9z74__7r6nx9r0000gn/T//ccSPSBV9.s 			page 85


 697:ThirdParty/Letter-shell/Src/shell.c ****     {
 2374              		.loc 1 697 45 is_stmt 0 discriminator 1 view .LVU635
 2375 0014 B6F85C30 		ldrh	r3, [r6, #92]
 697:ThirdParty/Letter-shell/Src/shell.c ****     {
 2376              		.loc 1 697 25 discriminator 1 view .LVU636
 2377 0018 9C42     		cmp	r4, r3
 2378 001a 14DA     		bge	.L223
 699:ThirdParty/Letter-shell/Src/shell.c ****             && base[i].attr.attrs.type <= SHELL_TYPE_VAR_NODE
 2379              		.loc 1 699 9 is_stmt 1 view .LVU637
 699:ThirdParty/Letter-shell/Src/shell.c ****             && base[i].attr.attrs.type <= SHELL_TYPE_VAR_NODE
 2380              		.loc 1 699 17 is_stmt 0 view .LVU638
 2381 001c 07EB0415 		add	r5, r7, r4, lsl #4
 699:ThirdParty/Letter-shell/Src/shell.c ****             && base[i].attr.attrs.type <= SHELL_TYPE_VAR_NODE
 2382              		.loc 1 699 31 view .LVU639
 2383 0020 6B78     		ldrb	r3, [r5, #1]	@ zero_extendqisi2
 2384 0022 03F00F03 		and	r3, r3, #15
 700:ThirdParty/Letter-shell/Src/shell.c ****             && shellCheckPermission(shell, &base[i]) == 0)
 2385              		.loc 1 700 13 view .LVU640
 2386 0026 0E33     		adds	r3, r3, #14
 2387 0028 03F00F03 		and	r3, r3, #15
 699:ThirdParty/Letter-shell/Src/shell.c ****             && base[i].attr.attrs.type <= SHELL_TYPE_VAR_NODE
 2388              		.loc 1 699 12 view .LVU641
 2389 002c 052B     		cmp	r3, #5
 2390 002e EFD8     		bhi	.L220
 701:ThirdParty/Letter-shell/Src/shell.c ****         {
 2391              		.loc 1 701 16 view .LVU642
 2392 0030 2946     		mov	r1, r5
 2393 0032 3046     		mov	r0, r6
 2394 0034 FFF7FEFF 		bl	shellCheckPermission
 2395              	.LVL240:
 701:ThirdParty/Letter-shell/Src/shell.c ****         {
 2396              		.loc 1 701 13 view .LVU643
 2397 0038 0028     		cmp	r0, #0
 2398 003a E9D1     		bne	.L220
 703:ThirdParty/Letter-shell/Src/shell.c ****         }
 2399              		.loc 1 703 13 is_stmt 1 view .LVU644
 2400 003c 2946     		mov	r1, r5
 2401 003e 3046     		mov	r0, r6
 2402 0040 FFF7FEFF 		bl	shellListItem
 2403              	.LVL241:
 2404 0044 E4E7     		b	.L220
 2405              	.L223:
 703:ThirdParty/Letter-shell/Src/shell.c ****         }
 2406              		.loc 1 703 13 is_stmt 0 view .LVU645
 2407              	.LBE14:
 706:ThirdParty/Letter-shell/Src/shell.c **** 
 2408              		.loc 1 706 1 view .LVU646
 2409 0046 F8BD     		pop	{r3, r4, r5, r6, r7, pc}
 2410              	.LVL242:
 2411              	.L225:
 706:ThirdParty/Letter-shell/Src/shell.c **** 
 2412              		.loc 1 706 1 view .LVU647
 2413              		.align	2
 2414              	.L224:
 2415 0048 00000000 		.word	.LC19
 2416              		.cfi_endproc
 2417              	.LFE21:
ARM GAS  /var/folders/h7/llxr0vxd5sd9z74__7r6nx9r0000gn/T//ccSPSBV9.s 			page 86


 2419              		.section	.text.shellVars,"ax",%progbits
 2420              		.align	1
 2421              		.global	shellVars
 2422              		.syntax unified
 2423              		.thumb
 2424              		.thumb_func
 2426              	shellVars:
 2427              	.LFB58:
1887:ThirdParty/Letter-shell/Src/shell.c ****     Shell *shell = shellGetCurrent();
 2428              		.loc 1 1887 1 is_stmt 1 view -0
 2429              		.cfi_startproc
 2430              		@ args = 0, pretend = 0, frame = 0
 2431              		@ frame_needed = 0, uses_anonymous_args = 0
 2432 0000 08B5     		push	{r3, lr}
 2433              	.LCFI32:
 2434              		.cfi_def_cfa_offset 8
 2435              		.cfi_offset 3, -8
 2436              		.cfi_offset 14, -4
1888:ThirdParty/Letter-shell/Src/shell.c ****     if (shell)
 2437              		.loc 1 1888 5 view .LVU649
1888:ThirdParty/Letter-shell/Src/shell.c ****     if (shell)
 2438              		.loc 1 1888 20 is_stmt 0 view .LVU650
 2439 0002 FFF7FEFF 		bl	shellGetCurrent
 2440              	.LVL243:
1889:ThirdParty/Letter-shell/Src/shell.c ****     {
 2441              		.loc 1 1889 5 is_stmt 1 view .LVU651
1889:ThirdParty/Letter-shell/Src/shell.c ****     {
 2442              		.loc 1 1889 8 is_stmt 0 view .LVU652
 2443 0006 08B1     		cbz	r0, .L226
1891:ThirdParty/Letter-shell/Src/shell.c ****     }
 2444              		.loc 1 1891 9 is_stmt 1 view .LVU653
 2445 0008 FFF7FEFF 		bl	shellListVar
 2446              	.LVL244:
 2447              	.L226:
1893:ThirdParty/Letter-shell/Src/shell.c **** SHELL_EXPORT_CMD(
 2448              		.loc 1 1893 1 is_stmt 0 view .LVU654
 2449 000c 08BD     		pop	{r3, pc}
 2450              		.cfi_endproc
 2451              	.LFE58:
 2453              		.section	.rodata.shellListUser.str1.4,"aMS",%progbits,1
 2454              		.align	2
 2455              	.LC20:
 2456 0000 0D0A5573 		.ascii	"\015\012User List:\015\012\000"
 2456      6572204C 
 2456      6973743A 
 2456      0D0A00
 2457              		.section	.text.shellListUser,"ax",%progbits
 2458              		.align	1
 2459              		.global	shellListUser
 2460              		.syntax unified
 2461              		.thumb
 2462              		.thumb_func
 2464              	shellListUser:
 2465              	.LVL245:
 2466              	.LFB22:
 715:ThirdParty/Letter-shell/Src/shell.c ****     ShellCommand *base = (ShellCommand *)shell->commandList.base;
 2467              		.loc 1 715 1 is_stmt 1 view -0
ARM GAS  /var/folders/h7/llxr0vxd5sd9z74__7r6nx9r0000gn/T//ccSPSBV9.s 			page 87


 2468              		.cfi_startproc
 2469              		@ args = 0, pretend = 0, frame = 0
 2470              		@ frame_needed = 0, uses_anonymous_args = 0
 715:ThirdParty/Letter-shell/Src/shell.c ****     ShellCommand *base = (ShellCommand *)shell->commandList.base;
 2471              		.loc 1 715 1 is_stmt 0 view .LVU656
 2472 0000 F8B5     		push	{r3, r4, r5, r6, r7, lr}
 2473              	.LCFI33:
 2474              		.cfi_def_cfa_offset 24
 2475              		.cfi_offset 3, -24
 2476              		.cfi_offset 4, -20
 2477              		.cfi_offset 5, -16
 2478              		.cfi_offset 6, -12
 2479              		.cfi_offset 7, -8
 2480              		.cfi_offset 14, -4
 2481 0002 0646     		mov	r6, r0
 716:ThirdParty/Letter-shell/Src/shell.c ****     shellWriteString(shell, shellText[SHELL_TEXT_USER_LIST]);
 2482              		.loc 1 716 5 is_stmt 1 view .LVU657
 716:ThirdParty/Letter-shell/Src/shell.c ****     shellWriteString(shell, shellText[SHELL_TEXT_USER_LIST]);
 2483              		.loc 1 716 19 is_stmt 0 view .LVU658
 2484 0004 876D     		ldr	r7, [r0, #88]
 2485              	.LVL246:
 717:ThirdParty/Letter-shell/Src/shell.c ****     for (short i = 0; i < shell->commandList.count; i++)
 2486              		.loc 1 717 5 is_stmt 1 view .LVU659
 2487 0006 0F49     		ldr	r1, .L235
 2488 0008 FFF7FEFF 		bl	shellWriteString
 2489              	.LVL247:
 718:ThirdParty/Letter-shell/Src/shell.c ****     {
 2490              		.loc 1 718 5 view .LVU660
 2491              	.LBB15:
 718:ThirdParty/Letter-shell/Src/shell.c ****     {
 2492              		.loc 1 718 10 view .LVU661
 718:ThirdParty/Letter-shell/Src/shell.c ****     {
 2493              		.loc 1 718 16 is_stmt 0 view .LVU662
 2494 000c 0024     		movs	r4, #0
 718:ThirdParty/Letter-shell/Src/shell.c ****     {
 2495              		.loc 1 718 5 view .LVU663
 2496 000e 01E0     		b	.L230
 2497              	.LVL248:
 2498              	.L231:
 718:ThirdParty/Letter-shell/Src/shell.c ****     {
 2499              		.loc 1 718 54 is_stmt 1 discriminator 2 view .LVU664
 2500 0010 0134     		adds	r4, r4, #1
 2501              	.LVL249:
 718:ThirdParty/Letter-shell/Src/shell.c ****     {
 2502              		.loc 1 718 54 is_stmt 0 discriminator 2 view .LVU665
 2503 0012 24B2     		sxth	r4, r4
 2504              	.LVL250:
 2505              	.L230:
 718:ThirdParty/Letter-shell/Src/shell.c ****     {
 2506              		.loc 1 718 25 is_stmt 1 discriminator 1 view .LVU666
 718:ThirdParty/Letter-shell/Src/shell.c ****     {
 2507              		.loc 1 718 45 is_stmt 0 discriminator 1 view .LVU667
 2508 0014 B6F85C30 		ldrh	r3, [r6, #92]
 718:ThirdParty/Letter-shell/Src/shell.c ****     {
 2509              		.loc 1 718 25 discriminator 1 view .LVU668
 2510 0018 9C42     		cmp	r4, r3
 2511 001a 11DA     		bge	.L234
ARM GAS  /var/folders/h7/llxr0vxd5sd9z74__7r6nx9r0000gn/T//ccSPSBV9.s 			page 88


 720:ThirdParty/Letter-shell/Src/shell.c ****             && base[i].attr.attrs.type <= SHELL_TYPE_USER
 2512              		.loc 1 720 9 is_stmt 1 view .LVU669
 720:ThirdParty/Letter-shell/Src/shell.c ****             && base[i].attr.attrs.type <= SHELL_TYPE_USER
 2513              		.loc 1 720 17 is_stmt 0 view .LVU670
 2514 001c 07EB0415 		add	r5, r7, r4, lsl #4
 721:ThirdParty/Letter-shell/Src/shell.c ****             && shellCheckPermission(shell, &base[i]) == 0)
 2515              		.loc 1 721 13 view .LVU671
 2516 0020 6B78     		ldrb	r3, [r5, #1]	@ zero_extendqisi2
 2517 0022 03F00F03 		and	r3, r3, #15
 720:ThirdParty/Letter-shell/Src/shell.c ****             && base[i].attr.attrs.type <= SHELL_TYPE_USER
 2518              		.loc 1 720 12 view .LVU672
 2519 0026 082B     		cmp	r3, #8
 2520 0028 F2D1     		bne	.L231
 722:ThirdParty/Letter-shell/Src/shell.c ****         {
 2521              		.loc 1 722 16 view .LVU673
 2522 002a 2946     		mov	r1, r5
 2523 002c 3046     		mov	r0, r6
 2524 002e FFF7FEFF 		bl	shellCheckPermission
 2525              	.LVL251:
 722:ThirdParty/Letter-shell/Src/shell.c ****         {
 2526              		.loc 1 722 13 view .LVU674
 2527 0032 0028     		cmp	r0, #0
 2528 0034 ECD1     		bne	.L231
 724:ThirdParty/Letter-shell/Src/shell.c ****         }
 2529              		.loc 1 724 13 is_stmt 1 view .LVU675
 2530 0036 2946     		mov	r1, r5
 2531 0038 3046     		mov	r0, r6
 2532 003a FFF7FEFF 		bl	shellListItem
 2533              	.LVL252:
 2534 003e E7E7     		b	.L231
 2535              	.L234:
 724:ThirdParty/Letter-shell/Src/shell.c ****         }
 2536              		.loc 1 724 13 is_stmt 0 view .LVU676
 2537              	.LBE15:
 727:ThirdParty/Letter-shell/Src/shell.c **** 
 2538              		.loc 1 727 1 view .LVU677
 2539 0040 F8BD     		pop	{r3, r4, r5, r6, r7, pc}
 2540              	.LVL253:
 2541              	.L236:
 727:ThirdParty/Letter-shell/Src/shell.c **** 
 2542              		.loc 1 727 1 view .LVU678
 2543 0042 00BF     		.align	2
 2544              	.L235:
 2545 0044 00000000 		.word	.LC20
 2546              		.cfi_endproc
 2547              	.LFE22:
 2549              		.section	.text.shellUsers,"ax",%progbits
 2550              		.align	1
 2551              		.global	shellUsers
 2552              		.syntax unified
 2553              		.thumb
 2554              		.thumb_func
 2556              	shellUsers:
 2557              	.LFB56:
1855:ThirdParty/Letter-shell/Src/shell.c ****     Shell *shell = shellGetCurrent();
 2558              		.loc 1 1855 1 is_stmt 1 view -0
 2559              		.cfi_startproc
ARM GAS  /var/folders/h7/llxr0vxd5sd9z74__7r6nx9r0000gn/T//ccSPSBV9.s 			page 89


 2560              		@ args = 0, pretend = 0, frame = 0
 2561              		@ frame_needed = 0, uses_anonymous_args = 0
 2562 0000 08B5     		push	{r3, lr}
 2563              	.LCFI34:
 2564              		.cfi_def_cfa_offset 8
 2565              		.cfi_offset 3, -8
 2566              		.cfi_offset 14, -4
1856:ThirdParty/Letter-shell/Src/shell.c ****     if (shell)
 2567              		.loc 1 1856 5 view .LVU680
1856:ThirdParty/Letter-shell/Src/shell.c ****     if (shell)
 2568              		.loc 1 1856 20 is_stmt 0 view .LVU681
 2569 0002 FFF7FEFF 		bl	shellGetCurrent
 2570              	.LVL254:
1857:ThirdParty/Letter-shell/Src/shell.c ****     {
 2571              		.loc 1 1857 5 is_stmt 1 view .LVU682
1857:ThirdParty/Letter-shell/Src/shell.c ****     {
 2572              		.loc 1 1857 8 is_stmt 0 view .LVU683
 2573 0006 08B1     		cbz	r0, .L237
1859:ThirdParty/Letter-shell/Src/shell.c ****     }
 2574              		.loc 1 1859 9 is_stmt 1 view .LVU684
 2575 0008 FFF7FEFF 		bl	shellListUser
 2576              	.LVL255:
 2577              	.L237:
1861:ThirdParty/Letter-shell/Src/shell.c **** SHELL_EXPORT_CMD(
 2578              		.loc 1 1861 1 is_stmt 0 view .LVU685
 2579 000c 08BD     		pop	{r3, pc}
 2580              		.cfi_endproc
 2581              	.LFE56:
 2583              		.section	.rodata.shellListKey.str1.4,"aMS",%progbits,1
 2584              		.align	2
 2585              	.LC21:
 2586 0000 0D0A4B65 		.ascii	"\015\012Key List:\015\012\000"
 2586      79204C69 
 2586      73743A0D 
 2586      0A00
 2587              		.section	.text.shellListKey,"ax",%progbits
 2588              		.align	1
 2589              		.global	shellListKey
 2590              		.syntax unified
 2591              		.thumb
 2592              		.thumb_func
 2594              	shellListKey:
 2595              	.LVL256:
 2596              	.LFB23:
 736:ThirdParty/Letter-shell/Src/shell.c ****     ShellCommand *base = (ShellCommand *)shell->commandList.base;
 2597              		.loc 1 736 1 is_stmt 1 view -0
 2598              		.cfi_startproc
 2599              		@ args = 0, pretend = 0, frame = 0
 2600              		@ frame_needed = 0, uses_anonymous_args = 0
 736:ThirdParty/Letter-shell/Src/shell.c ****     ShellCommand *base = (ShellCommand *)shell->commandList.base;
 2601              		.loc 1 736 1 is_stmt 0 view .LVU687
 2602 0000 F8B5     		push	{r3, r4, r5, r6, r7, lr}
 2603              	.LCFI35:
 2604              		.cfi_def_cfa_offset 24
 2605              		.cfi_offset 3, -24
 2606              		.cfi_offset 4, -20
 2607              		.cfi_offset 5, -16
ARM GAS  /var/folders/h7/llxr0vxd5sd9z74__7r6nx9r0000gn/T//ccSPSBV9.s 			page 90


 2608              		.cfi_offset 6, -12
 2609              		.cfi_offset 7, -8
 2610              		.cfi_offset 14, -4
 2611 0002 0646     		mov	r6, r0
 737:ThirdParty/Letter-shell/Src/shell.c ****     shellWriteString(shell, shellText[SHELL_TEXT_KEY_LIST]);
 2612              		.loc 1 737 5 is_stmt 1 view .LVU688
 737:ThirdParty/Letter-shell/Src/shell.c ****     shellWriteString(shell, shellText[SHELL_TEXT_KEY_LIST]);
 2613              		.loc 1 737 19 is_stmt 0 view .LVU689
 2614 0004 876D     		ldr	r7, [r0, #88]
 2615              	.LVL257:
 738:ThirdParty/Letter-shell/Src/shell.c ****     for (short i = 0; i < shell->commandList.count; i++)
 2616              		.loc 1 738 5 is_stmt 1 view .LVU690
 2617 0006 0F49     		ldr	r1, .L246
 2618 0008 FFF7FEFF 		bl	shellWriteString
 2619              	.LVL258:
 739:ThirdParty/Letter-shell/Src/shell.c ****     {
 2620              		.loc 1 739 5 view .LVU691
 2621              	.LBB16:
 739:ThirdParty/Letter-shell/Src/shell.c ****     {
 2622              		.loc 1 739 10 view .LVU692
 739:ThirdParty/Letter-shell/Src/shell.c ****     {
 2623              		.loc 1 739 16 is_stmt 0 view .LVU693
 2624 000c 0024     		movs	r4, #0
 739:ThirdParty/Letter-shell/Src/shell.c ****     {
 2625              		.loc 1 739 5 view .LVU694
 2626 000e 01E0     		b	.L241
 2627              	.LVL259:
 2628              	.L242:
 739:ThirdParty/Letter-shell/Src/shell.c ****     {
 2629              		.loc 1 739 54 is_stmt 1 discriminator 2 view .LVU695
 2630 0010 0134     		adds	r4, r4, #1
 2631              	.LVL260:
 739:ThirdParty/Letter-shell/Src/shell.c ****     {
 2632              		.loc 1 739 54 is_stmt 0 discriminator 2 view .LVU696
 2633 0012 24B2     		sxth	r4, r4
 2634              	.LVL261:
 2635              	.L241:
 739:ThirdParty/Letter-shell/Src/shell.c ****     {
 2636              		.loc 1 739 25 is_stmt 1 discriminator 1 view .LVU697
 739:ThirdParty/Letter-shell/Src/shell.c ****     {
 2637              		.loc 1 739 45 is_stmt 0 discriminator 1 view .LVU698
 2638 0014 B6F85C30 		ldrh	r3, [r6, #92]
 739:ThirdParty/Letter-shell/Src/shell.c ****     {
 2639              		.loc 1 739 25 discriminator 1 view .LVU699
 2640 0018 9C42     		cmp	r4, r3
 2641 001a 11DA     		bge	.L245
 741:ThirdParty/Letter-shell/Src/shell.c ****             && base[i].attr.attrs.type <= SHELL_TYPE_KEY
 2642              		.loc 1 741 9 is_stmt 1 view .LVU700
 741:ThirdParty/Letter-shell/Src/shell.c ****             && base[i].attr.attrs.type <= SHELL_TYPE_KEY
 2643              		.loc 1 741 17 is_stmt 0 view .LVU701
 2644 001c 07EB0415 		add	r5, r7, r4, lsl #4
 742:ThirdParty/Letter-shell/Src/shell.c ****             && shellCheckPermission(shell, &base[i]) == 0)
 2645              		.loc 1 742 13 view .LVU702
 2646 0020 6B78     		ldrb	r3, [r5, #1]	@ zero_extendqisi2
 2647 0022 03F00F03 		and	r3, r3, #15
 741:ThirdParty/Letter-shell/Src/shell.c ****             && base[i].attr.attrs.type <= SHELL_TYPE_KEY
 2648              		.loc 1 741 12 view .LVU703
ARM GAS  /var/folders/h7/llxr0vxd5sd9z74__7r6nx9r0000gn/T//ccSPSBV9.s 			page 91


 2649 0026 092B     		cmp	r3, #9
 2650 0028 F2D1     		bne	.L242
 743:ThirdParty/Letter-shell/Src/shell.c ****         {
 2651              		.loc 1 743 16 view .LVU704
 2652 002a 2946     		mov	r1, r5
 2653 002c 3046     		mov	r0, r6
 2654 002e FFF7FEFF 		bl	shellCheckPermission
 2655              	.LVL262:
 743:ThirdParty/Letter-shell/Src/shell.c ****         {
 2656              		.loc 1 743 13 view .LVU705
 2657 0032 0028     		cmp	r0, #0
 2658 0034 ECD1     		bne	.L242
 745:ThirdParty/Letter-shell/Src/shell.c ****         }
 2659              		.loc 1 745 13 is_stmt 1 view .LVU706
 2660 0036 2946     		mov	r1, r5
 2661 0038 3046     		mov	r0, r6
 2662 003a FFF7FEFF 		bl	shellListItem
 2663              	.LVL263:
 2664 003e E7E7     		b	.L242
 2665              	.L245:
 745:ThirdParty/Letter-shell/Src/shell.c ****         }
 2666              		.loc 1 745 13 is_stmt 0 view .LVU707
 2667              	.LBE16:
 748:ThirdParty/Letter-shell/Src/shell.c **** 
 2668              		.loc 1 748 1 view .LVU708
 2669 0040 F8BD     		pop	{r3, r4, r5, r6, r7, pc}
 2670              	.LVL264:
 2671              	.L247:
 748:ThirdParty/Letter-shell/Src/shell.c **** 
 2672              		.loc 1 748 1 view .LVU709
 2673 0042 00BF     		.align	2
 2674              	.L246:
 2675 0044 00000000 		.word	.LC21
 2676              		.cfi_endproc
 2677              	.LFE23:
 2679              		.section	.text.shellKeys,"ax",%progbits
 2680              		.align	1
 2681              		.global	shellKeys
 2682              		.syntax unified
 2683              		.thumb
 2684              		.thumb_func
 2686              	shellKeys:
 2687              	.LFB59:
1903:ThirdParty/Letter-shell/Src/shell.c ****     Shell *shell = shellGetCurrent();
 2688              		.loc 1 1903 1 is_stmt 1 view -0
 2689              		.cfi_startproc
 2690              		@ args = 0, pretend = 0, frame = 0
 2691              		@ frame_needed = 0, uses_anonymous_args = 0
 2692 0000 08B5     		push	{r3, lr}
 2693              	.LCFI36:
 2694              		.cfi_def_cfa_offset 8
 2695              		.cfi_offset 3, -8
 2696              		.cfi_offset 14, -4
1904:ThirdParty/Letter-shell/Src/shell.c ****     if (shell)
 2697              		.loc 1 1904 5 view .LVU711
1904:ThirdParty/Letter-shell/Src/shell.c ****     if (shell)
 2698              		.loc 1 1904 20 is_stmt 0 view .LVU712
ARM GAS  /var/folders/h7/llxr0vxd5sd9z74__7r6nx9r0000gn/T//ccSPSBV9.s 			page 92


 2699 0002 FFF7FEFF 		bl	shellGetCurrent
 2700              	.LVL265:
1905:ThirdParty/Letter-shell/Src/shell.c ****     {
 2701              		.loc 1 1905 5 is_stmt 1 view .LVU713
1905:ThirdParty/Letter-shell/Src/shell.c ****     {
 2702              		.loc 1 1905 8 is_stmt 0 view .LVU714
 2703 0006 08B1     		cbz	r0, .L248
1907:ThirdParty/Letter-shell/Src/shell.c ****     }
 2704              		.loc 1 1907 9 is_stmt 1 view .LVU715
 2705 0008 FFF7FEFF 		bl	shellListKey
 2706              	.LVL266:
 2707              	.L248:
1909:ThirdParty/Letter-shell/Src/shell.c **** SHELL_EXPORT_CMD(
 2708              		.loc 1 1909 1 is_stmt 0 view .LVU716
 2709 000c 08BD     		pop	{r3, pc}
 2710              		.cfi_endproc
 2711              	.LFE59:
 2713              		.section	.text.shellListAll,"ax",%progbits
 2714              		.align	1
 2715              		.global	shellListAll
 2716              		.syntax unified
 2717              		.thumb
 2718              		.thumb_func
 2720              	shellListAll:
 2721              	.LVL267:
 2722              	.LFB24:
 757:ThirdParty/Letter-shell/Src/shell.c **** #if SHELL_HELP_LIST_USER == 1
 2723              		.loc 1 757 1 is_stmt 1 view -0
 2724              		.cfi_startproc
 2725              		@ args = 0, pretend = 0, frame = 0
 2726              		@ frame_needed = 0, uses_anonymous_args = 0
 757:ThirdParty/Letter-shell/Src/shell.c **** #if SHELL_HELP_LIST_USER == 1
 2727              		.loc 1 757 1 is_stmt 0 view .LVU718
 2728 0000 08B5     		push	{r3, lr}
 2729              	.LCFI37:
 2730              		.cfi_def_cfa_offset 8
 2731              		.cfi_offset 3, -8
 2732              		.cfi_offset 14, -4
 761:ThirdParty/Letter-shell/Src/shell.c **** #if SHELL_HELP_LIST_VAR == 1
 2733              		.loc 1 761 5 is_stmt 1 view .LVU719
 2734 0002 FFF7FEFF 		bl	shellListCommand
 2735              	.LVL268:
 768:ThirdParty/Letter-shell/Src/shell.c **** 
 2736              		.loc 1 768 1 is_stmt 0 view .LVU720
 2737 0006 08BD     		pop	{r3, pc}
 2738              		.cfi_endproc
 2739              	.LFE24:
 2741              		.section	.rodata.shellDeleteCommandLine.str1.4,"aMS",%progbits,1
 2742              		.align	2
 2743              	.LC22:
 2744 0000 08200800 		.ascii	"\010 \010\000"
 2745              		.section	.text.shellDeleteCommandLine,"ax",%progbits
 2746              		.align	1
 2747              		.global	shellDeleteCommandLine
 2748              		.syntax unified
 2749              		.thumb
 2750              		.thumb_func
ARM GAS  /var/folders/h7/llxr0vxd5sd9z74__7r6nx9r0000gn/T//ccSPSBV9.s 			page 93


 2752              	shellDeleteCommandLine:
 2753              	.LVL269:
 2754              	.LFB25:
 778:ThirdParty/Letter-shell/Src/shell.c ****     while (length--)
 2755              		.loc 1 778 1 is_stmt 1 view -0
 2756              		.cfi_startproc
 2757              		@ args = 0, pretend = 0, frame = 0
 2758              		@ frame_needed = 0, uses_anonymous_args = 0
 778:ThirdParty/Letter-shell/Src/shell.c ****     while (length--)
 2759              		.loc 1 778 1 is_stmt 0 view .LVU722
 2760 0000 38B5     		push	{r3, r4, r5, lr}
 2761              	.LCFI38:
 2762              		.cfi_def_cfa_offset 16
 2763              		.cfi_offset 3, -16
 2764              		.cfi_offset 4, -12
 2765              		.cfi_offset 5, -8
 2766              		.cfi_offset 14, -4
 2767 0002 0546     		mov	r5, r0
 779:ThirdParty/Letter-shell/Src/shell.c ****     {
 2768              		.loc 1 779 5 is_stmt 1 view .LVU723
 779:ThirdParty/Letter-shell/Src/shell.c ****     {
 2769              		.loc 1 779 11 is_stmt 0 view .LVU724
 2770 0004 04E0     		b	.L254
 2771              	.LVL270:
 2772              	.L255:
 781:ThirdParty/Letter-shell/Src/shell.c ****     }
 2773              		.loc 1 781 9 is_stmt 1 view .LVU725
 2774 0006 0549     		ldr	r1, .L257
 2775 0008 2846     		mov	r0, r5
 2776 000a FFF7FEFF 		bl	shellWriteString
 2777              	.LVL271:
 779:ThirdParty/Letter-shell/Src/shell.c ****     {
 2778              		.loc 1 779 18 is_stmt 0 view .LVU726
 2779 000e 2146     		mov	r1, r4
 2780              	.LVL272:
 2781              	.L254:
 779:ThirdParty/Letter-shell/Src/shell.c ****     {
 2782              		.loc 1 779 12 is_stmt 1 view .LVU727
 779:ThirdParty/Letter-shell/Src/shell.c ****     {
 2783              		.loc 1 779 18 is_stmt 0 view .LVU728
 2784 0010 4B1E     		subs	r3, r1, #1
 2785 0012 DCB2     		uxtb	r4, r3
 2786              	.LVL273:
 779:ThirdParty/Letter-shell/Src/shell.c ****     {
 2787              		.loc 1 779 12 view .LVU729
 2788 0014 0029     		cmp	r1, #0
 2789 0016 F6D1     		bne	.L255
 783:ThirdParty/Letter-shell/Src/shell.c **** 
 2790              		.loc 1 783 1 view .LVU730
 2791 0018 38BD     		pop	{r3, r4, r5, pc}
 2792              	.LVL274:
 2793              	.L258:
 783:ThirdParty/Letter-shell/Src/shell.c **** 
 2794              		.loc 1 783 1 view .LVU731
 2795 001a 00BF     		.align	2
 2796              	.L257:
 2797 001c 00000000 		.word	.LC22
ARM GAS  /var/folders/h7/llxr0vxd5sd9z74__7r6nx9r0000gn/T//ccSPSBV9.s 			page 94


 2798              		.cfi_endproc
 2799              	.LFE25:
 2801              		.section	.text.shellClearCommandLine,"ax",%progbits
 2802              		.align	1
 2803              		.global	shellClearCommandLine
 2804              		.syntax unified
 2805              		.thumb
 2806              		.thumb_func
 2808              	shellClearCommandLine:
 2809              	.LVL275:
 2810              	.LFB26:
 792:ThirdParty/Letter-shell/Src/shell.c ****     for (short i = shell->parser.length - shell->parser.cursor; i > 0; i--)
 2811              		.loc 1 792 1 is_stmt 1 view -0
 2812              		.cfi_startproc
 2813              		@ args = 0, pretend = 0, frame = 0
 2814              		@ frame_needed = 0, uses_anonymous_args = 0
 792:ThirdParty/Letter-shell/Src/shell.c ****     for (short i = shell->parser.length - shell->parser.cursor; i > 0; i--)
 2815              		.loc 1 792 1 is_stmt 0 view .LVU733
 2816 0000 38B5     		push	{r3, r4, r5, lr}
 2817              	.LCFI39:
 2818              		.cfi_def_cfa_offset 16
 2819              		.cfi_offset 3, -16
 2820              		.cfi_offset 4, -12
 2821              		.cfi_offset 5, -8
 2822              		.cfi_offset 14, -4
 2823 0002 0546     		mov	r5, r0
 793:ThirdParty/Letter-shell/Src/shell.c ****     {
 2824              		.loc 1 793 5 is_stmt 1 view .LVU734
 2825              	.LBB17:
 793:ThirdParty/Letter-shell/Src/shell.c ****     {
 2826              		.loc 1 793 10 view .LVU735
 793:ThirdParty/Letter-shell/Src/shell.c ****     {
 2827              		.loc 1 793 33 is_stmt 0 view .LVU736
 2828 0004 8489     		ldrh	r4, [r0, #12]
 793:ThirdParty/Letter-shell/Src/shell.c ****     {
 2829              		.loc 1 793 56 view .LVU737
 2830 0006 C389     		ldrh	r3, [r0, #14]
 793:ThirdParty/Letter-shell/Src/shell.c ****     {
 2831              		.loc 1 793 41 view .LVU738
 2832 0008 E41A     		subs	r4, r4, r3
 793:ThirdParty/Letter-shell/Src/shell.c ****     {
 2833              		.loc 1 793 16 view .LVU739
 2834 000a 24B2     		sxth	r4, r4
 2835              	.LVL276:
 793:ThirdParty/Letter-shell/Src/shell.c ****     {
 2836              		.loc 1 793 5 view .LVU740
 2837 000c 05E0     		b	.L260
 2838              	.LVL277:
 2839              	.L261:
 795:ThirdParty/Letter-shell/Src/shell.c ****     }
 2840              		.loc 1 795 9 is_stmt 1 discriminator 3 view .LVU741
 2841 000e 2021     		movs	r1, #32
 2842 0010 2846     		mov	r0, r5
 2843 0012 FFF7FEFF 		bl	shellWriteByte
 2844              	.LVL278:
 793:ThirdParty/Letter-shell/Src/shell.c ****     {
 2845              		.loc 1 793 73 discriminator 3 view .LVU742
ARM GAS  /var/folders/h7/llxr0vxd5sd9z74__7r6nx9r0000gn/T//ccSPSBV9.s 			page 95


 2846 0016 013C     		subs	r4, r4, #1
 2847              	.LVL279:
 793:ThirdParty/Letter-shell/Src/shell.c ****     {
 2848              		.loc 1 793 73 is_stmt 0 discriminator 3 view .LVU743
 2849 0018 24B2     		sxth	r4, r4
 2850              	.LVL280:
 2851              	.L260:
 793:ThirdParty/Letter-shell/Src/shell.c ****     {
 2852              		.loc 1 793 67 is_stmt 1 discriminator 1 view .LVU744
 2853 001a 002C     		cmp	r4, #0
 2854 001c F7DC     		bgt	.L261
 793:ThirdParty/Letter-shell/Src/shell.c ****     {
 2855              		.loc 1 793 67 is_stmt 0 discriminator 1 view .LVU745
 2856              	.LBE17:
 797:ThirdParty/Letter-shell/Src/shell.c **** }
 2857              		.loc 1 797 5 is_stmt 1 view .LVU746
 2858 001e 297B     		ldrb	r1, [r5, #12]	@ zero_extendqisi2
 2859 0020 2846     		mov	r0, r5
 2860 0022 FFF7FEFF 		bl	shellDeleteCommandLine
 2861              	.LVL281:
 798:ThirdParty/Letter-shell/Src/shell.c **** 
 2862              		.loc 1 798 1 is_stmt 0 view .LVU747
 2863 0026 38BD     		pop	{r3, r4, r5, pc}
 798:ThirdParty/Letter-shell/Src/shell.c **** 
 2864              		.loc 1 798 1 view .LVU748
 2865              		.cfi_endproc
 2866              	.LFE26:
 2868              		.section	.text.shellHistory,"ax",%progbits
 2869              		.align	1
 2870              		.syntax unified
 2871              		.thumb
 2872              		.thumb_func
 2874              	shellHistory:
 2875              	.LVL282:
 2876              	.LFB41:
1348:ThirdParty/Letter-shell/Src/shell.c ****     if (dir > 0)
 2877              		.loc 1 1348 1 is_stmt 1 view -0
 2878              		.cfi_startproc
 2879              		@ args = 0, pretend = 0, frame = 0
 2880              		@ frame_needed = 0, uses_anonymous_args = 0
1348:ThirdParty/Letter-shell/Src/shell.c ****     if (dir > 0)
 2881              		.loc 1 1348 1 is_stmt 0 view .LVU750
 2882 0000 10B5     		push	{r4, lr}
 2883              	.LCFI40:
 2884              		.cfi_def_cfa_offset 8
 2885              		.cfi_offset 4, -8
 2886              		.cfi_offset 14, -4
 2887 0002 0446     		mov	r4, r0
1349:ThirdParty/Letter-shell/Src/shell.c ****     {
 2888              		.loc 1 1349 5 is_stmt 1 view .LVU751
1349:ThirdParty/Letter-shell/Src/shell.c ****     {
 2889              		.loc 1 1349 8 is_stmt 0 view .LVU752
 2890 0004 0029     		cmp	r1, #0
 2891              	.LVL283:
1349:ThirdParty/Letter-shell/Src/shell.c ****     {
 2892              		.loc 1 1349 8 view .LVU753
 2893 0006 19DD     		ble	.L264
ARM GAS  /var/folders/h7/llxr0vxd5sd9z74__7r6nx9r0000gn/T//ccSPSBV9.s 			page 96


1351:ThirdParty/Letter-shell/Src/shell.c ****             -((shell->history.number > shell->history.record) ?
 2894              		.loc 1 1351 9 is_stmt 1 view .LVU754
1351:ThirdParty/Letter-shell/Src/shell.c ****             -((shell->history.number > shell->history.record) ?
 2895              		.loc 1 1351 27 is_stmt 0 view .LVU755
 2896 0008 B0F95420 		ldrsh	r2, [r0, #84]
1351:ThirdParty/Letter-shell/Src/shell.c ****             -((shell->history.number > shell->history.record) ?
 2897              		.loc 1 1351 34 view .LVU756
 2898 000c 531E     		subs	r3, r2, #1
 2899 000e A0F85430 		strh	r3, [r0, #84]	@ movhi
1352:ThirdParty/Letter-shell/Src/shell.c ****                 shell->history.number : shell->history.record))
 2900              		.loc 1 1352 54 view .LVU757
 2901 0012 B0F85230 		ldrh	r3, [r0, #82]
1352:ThirdParty/Letter-shell/Src/shell.c ****                 shell->history.number : shell->history.record))
 2902              		.loc 1 1352 30 view .LVU758
 2903 0016 B0F85010 		ldrh	r1, [r0, #80]
1353:ThirdParty/Letter-shell/Src/shell.c ****         {
 2904              		.loc 1 1353 39 view .LVU759
 2905 001a 8B42     		cmp	r3, r1
 2906 001c 38BF     		it	cc
 2907 001e 0B46     		movcc	r3, r1
1352:ThirdParty/Letter-shell/Src/shell.c ****                 shell->history.number : shell->history.record))
 2908              		.loc 1 1352 13 view .LVU760
 2909 0020 5942     		rsbs	r1, r3, #0
1351:ThirdParty/Letter-shell/Src/shell.c ****             -((shell->history.number > shell->history.record) ?
 2910              		.loc 1 1351 12 view .LVU761
 2911 0022 8A42     		cmp	r2, r1
 2912 0024 01DC     		bgt	.L265
1355:ThirdParty/Letter-shell/Src/shell.c ****                                     ? shell->history.number : shell->history.record);
 2913              		.loc 1 1355 13 is_stmt 1 view .LVU762
1355:ThirdParty/Letter-shell/Src/shell.c ****                                     ? shell->history.number : shell->history.record);
 2914              		.loc 1 1355 35 is_stmt 0 view .LVU763
 2915 0026 A4F85410 		strh	r1, [r4, #84]	@ movhi
 2916              	.L265:
1371:ThirdParty/Letter-shell/Src/shell.c ****     if (shell->history.offset == 0)
 2917              		.loc 1 1371 5 is_stmt 1 view .LVU764
 2918 002a 2046     		mov	r0, r4
 2919              	.LVL284:
1371:ThirdParty/Letter-shell/Src/shell.c ****     if (shell->history.offset == 0)
 2920              		.loc 1 1371 5 is_stmt 0 view .LVU765
 2921 002c FFF7FEFF 		bl	shellClearCommandLine
 2922              	.LVL285:
1372:ThirdParty/Letter-shell/Src/shell.c ****     {
 2923              		.loc 1 1372 5 is_stmt 1 view .LVU766
1372:ThirdParty/Letter-shell/Src/shell.c ****     {
 2924              		.loc 1 1372 23 is_stmt 0 view .LVU767
 2925 0030 B4F95430 		ldrsh	r3, [r4, #84]
1372:ThirdParty/Letter-shell/Src/shell.c ****     {
 2926              		.loc 1 1372 8 view .LVU768
 2927 0034 83B9     		cbnz	r3, .L267
1374:ThirdParty/Letter-shell/Src/shell.c ****     }
 2928              		.loc 1 1374 9 is_stmt 1 view .LVU769
1374:ThirdParty/Letter-shell/Src/shell.c ****     }
 2929              		.loc 1 1374 53 is_stmt 0 view .LVU770
 2930 0036 A381     		strh	r3, [r4, #12]	@ movhi
1374:ThirdParty/Letter-shell/Src/shell.c ****     }
 2931              		.loc 1 1374 30 view .LVU771
 2932 0038 E381     		strh	r3, [r4, #14]	@ movhi
ARM GAS  /var/folders/h7/llxr0vxd5sd9z74__7r6nx9r0000gn/T//ccSPSBV9.s 			page 97


 2933              	.L263:
1388:ThirdParty/Letter-shell/Src/shell.c **** #endif /** SHELL_HISTORY_MAX_NUMBER > 0 */
 2934              		.loc 1 1388 1 view .LVU772
 2935 003a 10BD     		pop	{r4, pc}
 2936              	.LVL286:
 2937              	.L264:
1359:ThirdParty/Letter-shell/Src/shell.c ****     {
 2938              		.loc 1 1359 10 is_stmt 1 view .LVU773
1359:ThirdParty/Letter-shell/Src/shell.c ****     {
 2939              		.loc 1 1359 13 is_stmt 0 view .LVU774
 2940 003c 0029     		cmp	r1, #0
 2941 003e FCDA     		bge	.L263
1361:ThirdParty/Letter-shell/Src/shell.c ****         {
 2942              		.loc 1 1361 9 is_stmt 1 view .LVU775
1361:ThirdParty/Letter-shell/Src/shell.c ****         {
 2943              		.loc 1 1361 29 is_stmt 0 view .LVU776
 2944 0040 B0F95430 		ldrsh	r3, [r0, #84]
1361:ThirdParty/Letter-shell/Src/shell.c ****         {
 2945              		.loc 1 1361 13 view .LVU777
 2946 0044 0133     		adds	r3, r3, #1
 2947 0046 1BB2     		sxth	r3, r3
1361:ThirdParty/Letter-shell/Src/shell.c ****         {
 2948              		.loc 1 1361 12 view .LVU778
 2949 0048 A0F85430 		strh	r3, [r0, #84]	@ movhi
 2950 004c 002B     		cmp	r3, #0
 2951 004e ECDD     		ble	.L265
1363:ThirdParty/Letter-shell/Src/shell.c ****             return;
 2952              		.loc 1 1363 13 is_stmt 1 view .LVU779
1363:ThirdParty/Letter-shell/Src/shell.c ****             return;
 2953              		.loc 1 1363 35 is_stmt 0 view .LVU780
 2954 0050 0023     		movs	r3, #0
 2955 0052 A0F85430 		strh	r3, [r0, #84]	@ movhi
1364:ThirdParty/Letter-shell/Src/shell.c ****         }
 2956              		.loc 1 1364 13 is_stmt 1 view .LVU781
 2957 0056 F0E7     		b	.L263
 2958              	.LVL287:
 2959              	.L267:
1378:ThirdParty/Letter-shell/Src/shell.c ****                 shell->history.item[(shell->history.record + SHELL_HISTORY_MAX_NUMBER
 2960              		.loc 1 1378 9 view .LVU782
1379:ThirdParty/Letter-shell/Src/shell.c ****                     + shell->history.offset) % SHELL_HISTORY_MAX_NUMBER])) == 0)
 2961              		.loc 1 1379 52 is_stmt 0 view .LVU783
 2962 0058 B4F85220 		ldrh	r2, [r4, #82]
1379:ThirdParty/Letter-shell/Src/shell.c ****                     + shell->history.offset) % SHELL_HISTORY_MAX_NUMBER])) == 0)
 2963              		.loc 1 1379 60 view .LVU784
 2964 005c 0532     		adds	r2, r2, #5
1380:ThirdParty/Letter-shell/Src/shell.c ****         {
 2965              		.loc 1 1380 21 view .LVU785
 2966 005e 1A44     		add	r2, r2, r3
1380:ThirdParty/Letter-shell/Src/shell.c ****         {
 2967              		.loc 1 1380 46 view .LVU786
 2968 0060 0C49     		ldr	r1, .L269
 2969 0062 81FB0231 		smull	r3, r1, r1, r2
 2970 0066 D317     		asrs	r3, r2, #31
 2971 0068 C3EB6103 		rsb	r3, r3, r1, asr #1
 2972 006c 03EB8303 		add	r3, r3, r3, lsl #2
 2973 0070 D31A     		subs	r3, r2, r3
1378:ThirdParty/Letter-shell/Src/shell.c ****                 shell->history.item[(shell->history.record + SHELL_HISTORY_MAX_NUMBER
ARM GAS  /var/folders/h7/llxr0vxd5sd9z74__7r6nx9r0000gn/T//ccSPSBV9.s 			page 98


 2974              		.loc 1 1378 37 view .LVU787
 2975 0072 0E33     		adds	r3, r3, #14
 2976 0074 04EB8303 		add	r3, r4, r3, lsl #2
 2977 0078 5968     		ldr	r1, [r3, #4]
 2978 007a 2069     		ldr	r0, [r4, #16]
 2979 007c FFF7FEFF 		bl	shellStringCopy
 2980              	.LVL288:
1378:ThirdParty/Letter-shell/Src/shell.c ****                 shell->history.item[(shell->history.record + SHELL_HISTORY_MAX_NUMBER
 2981              		.loc 1 1378 35 view .LVU788
 2982 0080 A081     		strh	r0, [r4, #12]	@ movhi
1378:ThirdParty/Letter-shell/Src/shell.c ****                 shell->history.item[(shell->history.record + SHELL_HISTORY_MAX_NUMBER
 2983              		.loc 1 1378 12 view .LVU789
 2984 0082 0028     		cmp	r0, #0
 2985 0084 D9D0     		beq	.L263
1384:ThirdParty/Letter-shell/Src/shell.c ****         shellWriteString(shell, shell->parser.buffer);
 2986              		.loc 1 1384 9 is_stmt 1 view .LVU790
1384:ThirdParty/Letter-shell/Src/shell.c ****         shellWriteString(shell, shell->parser.buffer);
 2987              		.loc 1 1384 30 is_stmt 0 view .LVU791
 2988 0086 E081     		strh	r0, [r4, #14]	@ movhi
1385:ThirdParty/Letter-shell/Src/shell.c ****     }
 2989              		.loc 1 1385 9 is_stmt 1 view .LVU792
 2990 0088 2169     		ldr	r1, [r4, #16]
 2991 008a 2046     		mov	r0, r4
 2992 008c FFF7FEFF 		bl	shellWriteString
 2993              	.LVL289:
 2994 0090 D3E7     		b	.L263
 2995              	.L270:
 2996 0092 00BF     		.align	2
 2997              	.L269:
 2998 0094 67666666 		.word	1717986919
 2999              		.cfi_endproc
 3000              	.LFE41:
 3002              		.section	.text.shellUp,"ax",%progbits
 3003              		.align	1
 3004              		.global	shellUp
 3005              		.syntax unified
 3006              		.thumb
 3007              		.thumb_func
 3009              	shellUp:
 3010              	.LVL290:
 3011              	.LFB44:
1460:ThirdParty/Letter-shell/Src/shell.c ****     shellHistory(shell, 1);
 3012              		.loc 1 1460 1 view -0
 3013              		.cfi_startproc
 3014              		@ args = 0, pretend = 0, frame = 0
 3015              		@ frame_needed = 0, uses_anonymous_args = 0
1460:ThirdParty/Letter-shell/Src/shell.c ****     shellHistory(shell, 1);
 3016              		.loc 1 1460 1 is_stmt 0 view .LVU794
 3017 0000 08B5     		push	{r3, lr}
 3018              	.LCFI41:
 3019              		.cfi_def_cfa_offset 8
 3020              		.cfi_offset 3, -8
 3021              		.cfi_offset 14, -4
1461:ThirdParty/Letter-shell/Src/shell.c **** }
 3022              		.loc 1 1461 5 is_stmt 1 view .LVU795
 3023 0002 0121     		movs	r1, #1
 3024 0004 FFF7FEFF 		bl	shellHistory
ARM GAS  /var/folders/h7/llxr0vxd5sd9z74__7r6nx9r0000gn/T//ccSPSBV9.s 			page 99


 3025              	.LVL291:
1462:ThirdParty/Letter-shell/Src/shell.c **** SHELL_EXPORT_KEY(SHELL_CMD_PERMISSION(0), 0x1B5B4100, shellUp, up);
 3026              		.loc 1 1462 1 is_stmt 0 view .LVU796
 3027 0008 08BD     		pop	{r3, pc}
 3028              		.cfi_endproc
 3029              	.LFE44:
 3031              		.section	.text.shellDown,"ax",%progbits
 3032              		.align	1
 3033              		.global	shellDown
 3034              		.syntax unified
 3035              		.thumb
 3036              		.thumb_func
 3038              	shellDown:
 3039              	.LVL292:
 3040              	.LFB45:
1472:ThirdParty/Letter-shell/Src/shell.c ****     shellHistory(shell, -1);
 3041              		.loc 1 1472 1 is_stmt 1 view -0
 3042              		.cfi_startproc
 3043              		@ args = 0, pretend = 0, frame = 0
 3044              		@ frame_needed = 0, uses_anonymous_args = 0
1472:ThirdParty/Letter-shell/Src/shell.c ****     shellHistory(shell, -1);
 3045              		.loc 1 1472 1 is_stmt 0 view .LVU798
 3046 0000 08B5     		push	{r3, lr}
 3047              	.LCFI42:
 3048              		.cfi_def_cfa_offset 8
 3049              		.cfi_offset 3, -8
 3050              		.cfi_offset 14, -4
1473:ThirdParty/Letter-shell/Src/shell.c **** }
 3051              		.loc 1 1473 5 is_stmt 1 view .LVU799
 3052 0002 4FF0FF31 		mov	r1, #-1
 3053 0006 FFF7FEFF 		bl	shellHistory
 3054              	.LVL293:
1474:ThirdParty/Letter-shell/Src/shell.c **** SHELL_EXPORT_KEY(SHELL_CMD_PERMISSION(0), 0x1B5B4200, shellDown, down);
 3055              		.loc 1 1474 1 is_stmt 0 view .LVU800
 3056 000a 08BD     		pop	{r3, pc}
 3057              		.cfi_endproc
 3058              	.LFE45:
 3060              		.section	.text.shellTab,"ax",%progbits
 3061              		.align	1
 3062              		.global	shellTab
 3063              		.syntax unified
 3064              		.thumb
 3065              		.thumb_func
 3067              	shellTab:
 3068              	.LVL294:
 3069              	.LFB48:
1518:ThirdParty/Letter-shell/Src/shell.c ****     unsigned short maxMatch = shell->parser.bufferSize;
 3070              		.loc 1 1518 1 is_stmt 1 view -0
 3071              		.cfi_startproc
 3072              		@ args = 0, pretend = 0, frame = 0
 3073              		@ frame_needed = 0, uses_anonymous_args = 0
1518:ThirdParty/Letter-shell/Src/shell.c ****     unsigned short maxMatch = shell->parser.bufferSize;
 3074              		.loc 1 1518 1 is_stmt 0 view .LVU802
 3075 0000 2DE9F84F 		push	{r3, r4, r5, r6, r7, r8, r9, r10, fp, lr}
 3076              	.LCFI43:
 3077              		.cfi_def_cfa_offset 40
 3078              		.cfi_offset 3, -40
ARM GAS  /var/folders/h7/llxr0vxd5sd9z74__7r6nx9r0000gn/T//ccSPSBV9.s 			page 100


 3079              		.cfi_offset 4, -36
 3080              		.cfi_offset 5, -32
 3081              		.cfi_offset 6, -28
 3082              		.cfi_offset 7, -24
 3083              		.cfi_offset 8, -20
 3084              		.cfi_offset 9, -16
 3085              		.cfi_offset 10, -12
 3086              		.cfi_offset 11, -8
 3087              		.cfi_offset 14, -4
 3088 0004 0546     		mov	r5, r0
1519:ThirdParty/Letter-shell/Src/shell.c ****     unsigned short lastMatchIndex = 0;
 3089              		.loc 1 1519 5 is_stmt 1 view .LVU803
1519:ThirdParty/Letter-shell/Src/shell.c ****     unsigned short lastMatchIndex = 0;
 3090              		.loc 1 1519 20 is_stmt 0 view .LVU804
 3091 0006 B0F834A0 		ldrh	r10, [r0, #52]
 3092              	.LVL295:
1520:ThirdParty/Letter-shell/Src/shell.c ****     unsigned short matchNum = 0;
 3093              		.loc 1 1520 5 is_stmt 1 view .LVU805
1521:ThirdParty/Letter-shell/Src/shell.c ****     unsigned short length;
 3094              		.loc 1 1521 5 view .LVU806
1522:ThirdParty/Letter-shell/Src/shell.c **** 
 3095              		.loc 1 1522 5 view .LVU807
1524:ThirdParty/Letter-shell/Src/shell.c ****     {
 3096              		.loc 1 1524 5 view .LVU808
1524:ThirdParty/Letter-shell/Src/shell.c ****     {
 3097              		.loc 1 1524 22 is_stmt 0 view .LVU809
 3098 000a 8389     		ldrh	r3, [r0, #12]
1524:ThirdParty/Letter-shell/Src/shell.c ****     {
 3099              		.loc 1 1524 8 view .LVU810
 3100 000c 43B1     		cbz	r3, .L286
1529:ThirdParty/Letter-shell/Src/shell.c ****     {
 3101              		.loc 1 1529 10 is_stmt 1 view .LVU811
 3102              	.LBB18:
1531:ThirdParty/Letter-shell/Src/shell.c ****         ShellCommand *base = (ShellCommand *)shell->commandList.base;
 3103              		.loc 1 1531 9 view .LVU812
1531:ThirdParty/Letter-shell/Src/shell.c ****         ShellCommand *base = (ShellCommand *)shell->commandList.base;
 3104              		.loc 1 1531 22 is_stmt 0 view .LVU813
 3105 000e 0269     		ldr	r2, [r0, #16]
1531:ThirdParty/Letter-shell/Src/shell.c ****         ShellCommand *base = (ShellCommand *)shell->commandList.base;
 3106              		.loc 1 1531 52 view .LVU814
 3107 0010 4FF00008 		mov	r8, #0
 3108 0014 02F80380 		strb	r8, [r2, r3]
1532:ThirdParty/Letter-shell/Src/shell.c ****         for (short i = 0; i < shell->commandList.count; i++)
 3109              		.loc 1 1532 9 is_stmt 1 view .LVU815
1532:ThirdParty/Letter-shell/Src/shell.c ****         for (short i = 0; i < shell->commandList.count; i++)
 3110              		.loc 1 1532 23 is_stmt 0 view .LVU816
 3111 0018 876D     		ldr	r7, [r0, #88]
 3112              	.LVL296:
1533:ThirdParty/Letter-shell/Src/shell.c ****         {
 3113              		.loc 1 1533 9 is_stmt 1 view .LVU817
 3114              	.LBB19:
1533:ThirdParty/Letter-shell/Src/shell.c ****         {
 3115              		.loc 1 1533 14 view .LVU818
1533:ThirdParty/Letter-shell/Src/shell.c ****         {
 3116              		.loc 1 1533 20 is_stmt 0 view .LVU819
 3117 001a 4446     		mov	r4, r8
 3118              	.LBE19:
ARM GAS  /var/folders/h7/llxr0vxd5sd9z74__7r6nx9r0000gn/T//ccSPSBV9.s 			page 101


 3119              	.LBE18:
1521:ThirdParty/Letter-shell/Src/shell.c ****     unsigned short length;
 3120              		.loc 1 1521 20 view .LVU820
 3121 001c C146     		mov	r9, r8
 3122              	.LBB22:
 3123              	.LBB20:
1533:ThirdParty/Letter-shell/Src/shell.c ****         {
 3124              		.loc 1 1533 9 view .LVU821
 3125 001e 24E0     		b	.L278
 3126              	.LVL297:
 3127              	.L286:
1533:ThirdParty/Letter-shell/Src/shell.c ****         {
 3128              		.loc 1 1533 9 view .LVU822
 3129              	.LBE20:
 3130              	.LBE22:
1526:ThirdParty/Letter-shell/Src/shell.c ****         shellWritePrompt(shell, 1);
 3131              		.loc 1 1526 9 is_stmt 1 view .LVU823
 3132 0020 FFF7FEFF 		bl	shellListAll
 3133              	.LVL298:
1527:ThirdParty/Letter-shell/Src/shell.c ****     }
 3134              		.loc 1 1527 9 view .LVU824
 3135 0024 0121     		movs	r1, #1
 3136 0026 2846     		mov	r0, r5
 3137 0028 FFF7FEFF 		bl	shellWritePrompt
 3138              	.LVL299:
 3139 002c 5EE0     		b	.L275
 3140              	.LVL300:
 3141              	.L281:
 3142              	.LBB23:
 3143              	.LBB21:
1546:ThirdParty/Letter-shell/Src/shell.c ****                     length = 
 3144              		.loc 1 1546 21 view .LVU825
 3145 002e 07EB0818 		add	r8, r7, r8, lsl #4
 3146              	.LVL301:
1546:ThirdParty/Letter-shell/Src/shell.c ****                     length = 
 3147              		.loc 1 1546 21 is_stmt 0 view .LVU826
 3148 0032 4146     		mov	r1, r8
 3149 0034 2846     		mov	r0, r5
 3150 0036 FFF7FEFF 		bl	shellListItem
 3151              	.LVL302:
1547:ThirdParty/Letter-shell/Src/shell.c ****                         shellStringCompare((char *)shellGetCommandName(&base[lastMatchIndex]),
 3152              		.loc 1 1547 21 is_stmt 1 view .LVU827
1548:ThirdParty/Letter-shell/Src/shell.c ****                                            (char *)shellGetCommandName(&base[i]));
 3153              		.loc 1 1548 52 is_stmt 0 view .LVU828
 3154 003a 4046     		mov	r0, r8
 3155 003c FFF7FEFF 		bl	shellGetCommandName
 3156              	.LVL303:
 3157 0040 8046     		mov	r8, r0
1549:ThirdParty/Letter-shell/Src/shell.c ****                     maxMatch = (maxMatch > length) ? length : maxMatch;
 3158              		.loc 1 1549 52 view .LVU829
 3159 0042 3046     		mov	r0, r6
 3160 0044 FFF7FEFF 		bl	shellGetCommandName
 3161              	.LVL304:
 3162 0048 0146     		mov	r1, r0
1548:ThirdParty/Letter-shell/Src/shell.c ****                                            (char *)shellGetCommandName(&base[i]));
 3163              		.loc 1 1548 25 view .LVU830
 3164 004a 4046     		mov	r0, r8
ARM GAS  /var/folders/h7/llxr0vxd5sd9z74__7r6nx9r0000gn/T//ccSPSBV9.s 			page 102


 3165 004c FFF7FEFF 		bl	shellStringCompare
 3166              	.LVL305:
1550:ThirdParty/Letter-shell/Src/shell.c ****                 }
 3167              		.loc 1 1550 21 is_stmt 1 view .LVU831
1550:ThirdParty/Letter-shell/Src/shell.c ****                 }
 3168              		.loc 1 1550 30 is_stmt 0 view .LVU832
 3169 0050 5045     		cmp	r0, r10
 3170 0052 28BF     		it	cs
 3171 0054 5046     		movcs	r0, r10
 3172              	.LVL306:
1550:ThirdParty/Letter-shell/Src/shell.c ****                 }
 3173              		.loc 1 1550 30 view .LVU833
 3174 0056 1FFA80FA 		uxth	r10, r0
 3175              	.LVL307:
 3176              	.L280:
1552:ThirdParty/Letter-shell/Src/shell.c ****                 matchNum++;
 3177              		.loc 1 1552 17 is_stmt 1 view .LVU834
1552:ThirdParty/Letter-shell/Src/shell.c ****                 matchNum++;
 3178              		.loc 1 1552 32 is_stmt 0 view .LVU835
 3179 005a 1FFA84F8 		uxth	r8, r4
 3180              	.LVL308:
1553:ThirdParty/Letter-shell/Src/shell.c ****             }
 3181              		.loc 1 1553 17 is_stmt 1 view .LVU836
1553:ThirdParty/Letter-shell/Src/shell.c ****             }
 3182              		.loc 1 1553 25 is_stmt 0 view .LVU837
 3183 005e 09F10109 		add	r9, r9, #1
 3184              	.LVL309:
1553:ThirdParty/Letter-shell/Src/shell.c ****             }
 3185              		.loc 1 1553 25 view .LVU838
 3186 0062 1FFA89F9 		uxth	r9, r9
 3187              	.LVL310:
 3188              	.L279:
1533:ThirdParty/Letter-shell/Src/shell.c ****         {
 3189              		.loc 1 1533 58 is_stmt 1 discriminator 2 view .LVU839
 3190 0066 0134     		adds	r4, r4, #1
 3191              	.LVL311:
1533:ThirdParty/Letter-shell/Src/shell.c ****         {
 3192              		.loc 1 1533 58 is_stmt 0 discriminator 2 view .LVU840
 3193 0068 24B2     		sxth	r4, r4
 3194              	.LVL312:
 3195              	.L278:
1533:ThirdParty/Letter-shell/Src/shell.c ****         {
 3196              		.loc 1 1533 29 is_stmt 1 discriminator 1 view .LVU841
1533:ThirdParty/Letter-shell/Src/shell.c ****         {
 3197              		.loc 1 1533 49 is_stmt 0 discriminator 1 view .LVU842
 3198 006a B5F85C30 		ldrh	r3, [r5, #92]
1533:ThirdParty/Letter-shell/Src/shell.c ****         {
 3199              		.loc 1 1533 29 discriminator 1 view .LVU843
 3200 006e 9C42     		cmp	r4, r3
 3201 0070 1EDA     		bge	.L287
1535:ThirdParty/Letter-shell/Src/shell.c ****                 && shellStringCompare(shell->parser.buffer,
 3202              		.loc 1 1535 13 is_stmt 1 view .LVU844
1535:ThirdParty/Letter-shell/Src/shell.c ****                 && shellStringCompare(shell->parser.buffer,
 3203              		.loc 1 1535 17 is_stmt 0 view .LVU845
 3204 0072 07EB0416 		add	r6, r7, r4, lsl #4
 3205 0076 3146     		mov	r1, r6
 3206 0078 2846     		mov	r0, r5
ARM GAS  /var/folders/h7/llxr0vxd5sd9z74__7r6nx9r0000gn/T//ccSPSBV9.s 			page 103


 3207 007a FFF7FEFF 		bl	shellCheckPermission
 3208              	.LVL313:
1535:ThirdParty/Letter-shell/Src/shell.c ****                 && shellStringCompare(shell->parser.buffer,
 3209              		.loc 1 1535 16 view .LVU846
 3210 007e 0028     		cmp	r0, #0
 3211 0080 F1D1     		bne	.L279
1536:ThirdParty/Letter-shell/Src/shell.c ****                                    (char *)shellGetCommandName(&base[i]))
 3212              		.loc 1 1536 20 view .LVU847
 3213 0082 D5F810B0 		ldr	fp, [r5, #16]
1537:ThirdParty/Letter-shell/Src/shell.c ****                         == shell->parser.length)
 3214              		.loc 1 1537 44 view .LVU848
 3215 0086 3046     		mov	r0, r6
 3216 0088 FFF7FEFF 		bl	shellGetCommandName
 3217              	.LVL314:
 3218 008c 0146     		mov	r1, r0
1536:ThirdParty/Letter-shell/Src/shell.c ****                                    (char *)shellGetCommandName(&base[i]))
 3219              		.loc 1 1536 20 view .LVU849
 3220 008e 5846     		mov	r0, fp
 3221 0090 FFF7FEFF 		bl	shellStringCompare
 3222              	.LVL315:
1538:ThirdParty/Letter-shell/Src/shell.c ****             {
 3223              		.loc 1 1538 41 view .LVU850
 3224 0094 AB89     		ldrh	r3, [r5, #12]
1536:ThirdParty/Letter-shell/Src/shell.c ****                                    (char *)shellGetCommandName(&base[i]))
 3225              		.loc 1 1536 17 view .LVU851
 3226 0096 9842     		cmp	r0, r3
 3227 0098 E5D1     		bne	.L279
1540:ThirdParty/Letter-shell/Src/shell.c ****                 {
 3228              		.loc 1 1540 17 is_stmt 1 view .LVU852
1540:ThirdParty/Letter-shell/Src/shell.c ****                 {
 3229              		.loc 1 1540 20 is_stmt 0 view .LVU853
 3230 009a B9F1000F 		cmp	r9, #0
 3231 009e DCD0     		beq	.L280
1542:ThirdParty/Letter-shell/Src/shell.c ****                     {
 3232              		.loc 1 1542 21 is_stmt 1 view .LVU854
1542:ThirdParty/Letter-shell/Src/shell.c ****                     {
 3233              		.loc 1 1542 24 is_stmt 0 view .LVU855
 3234 00a0 B9F1010F 		cmp	r9, #1
 3235 00a4 C3D1     		bne	.L281
1544:ThirdParty/Letter-shell/Src/shell.c ****                     }
 3236              		.loc 1 1544 25 is_stmt 1 view .LVU856
 3237 00a6 1A49     		ldr	r1, .L290
 3238 00a8 2846     		mov	r0, r5
 3239 00aa FFF7FEFF 		bl	shellWriteString
 3240              	.LVL316:
 3241 00ae BEE7     		b	.L281
 3242              	.L287:
1544:ThirdParty/Letter-shell/Src/shell.c ****                     }
 3243              		.loc 1 1544 25 is_stmt 0 view .LVU857
 3244              	.LBE21:
1556:ThirdParty/Letter-shell/Src/shell.c ****         {
 3245              		.loc 1 1556 9 is_stmt 1 view .LVU858
1556:ThirdParty/Letter-shell/Src/shell.c ****         {
 3246              		.loc 1 1556 12 is_stmt 0 view .LVU859
 3247 00b0 B9F1000F 		cmp	r9, #0
 3248 00b4 1AD0     		beq	.L275
1560:ThirdParty/Letter-shell/Src/shell.c ****         {
ARM GAS  /var/folders/h7/llxr0vxd5sd9z74__7r6nx9r0000gn/T//ccSPSBV9.s 			page 104


 3249              		.loc 1 1560 9 is_stmt 1 view .LVU860
1560:ThirdParty/Letter-shell/Src/shell.c ****         {
 3250              		.loc 1 1560 12 is_stmt 0 view .LVU861
 3251 00b6 B9F1010F 		cmp	r9, #1
 3252 00ba 19D0     		beq	.L288
 3253              	.L283:
1564:ThirdParty/Letter-shell/Src/shell.c ****         {
 3254              		.loc 1 1564 9 is_stmt 1 view .LVU862
1566:ThirdParty/Letter-shell/Src/shell.c ****                 shellStringCopy(shell->parser.buffer,
 3255              		.loc 1 1566 13 view .LVU863
1567:ThirdParty/Letter-shell/Src/shell.c ****                                 (char *)shellGetCommandName(&base[lastMatchIndex]));
 3256              		.loc 1 1567 17 is_stmt 0 view .LVU864
 3257 00bc 2C69     		ldr	r4, [r5, #16]
 3258              	.LVL317:
1568:ThirdParty/Letter-shell/Src/shell.c ****         }
 3259              		.loc 1 1568 41 view .LVU865
 3260 00be 07EB0817 		add	r7, r7, r8, lsl #4
 3261              	.LVL318:
1568:ThirdParty/Letter-shell/Src/shell.c ****         }
 3262              		.loc 1 1568 41 view .LVU866
 3263 00c2 3846     		mov	r0, r7
 3264 00c4 FFF7FEFF 		bl	shellGetCommandName
 3265              	.LVL319:
 3266 00c8 0146     		mov	r1, r0
1567:ThirdParty/Letter-shell/Src/shell.c ****                                 (char *)shellGetCommandName(&base[lastMatchIndex]));
 3267              		.loc 1 1567 17 view .LVU867
 3268 00ca 2046     		mov	r0, r4
 3269 00cc FFF7FEFF 		bl	shellStringCopy
 3270              	.LVL320:
1566:ThirdParty/Letter-shell/Src/shell.c ****                 shellStringCopy(shell->parser.buffer,
 3271              		.loc 1 1566 34 view .LVU868
 3272 00d0 A881     		strh	r0, [r5, #12]	@ movhi
1570:ThirdParty/Letter-shell/Src/shell.c ****         {
 3273              		.loc 1 1570 9 is_stmt 1 view .LVU869
1570:ThirdParty/Letter-shell/Src/shell.c ****         {
 3274              		.loc 1 1570 12 is_stmt 0 view .LVU870
 3275 00d2 B9F1010F 		cmp	r9, #1
 3276 00d6 0FD8     		bhi	.L289
 3277              	.L284:
1576:ThirdParty/Letter-shell/Src/shell.c ****         shell->parser.cursor = shell->parser.length;
 3278              		.loc 1 1576 9 is_stmt 1 view .LVU871
1576:ThirdParty/Letter-shell/Src/shell.c ****         shell->parser.cursor = shell->parser.length;
 3279              		.loc 1 1576 22 is_stmt 0 view .LVU872
 3280 00d8 2A69     		ldr	r2, [r5, #16]
1576:ThirdParty/Letter-shell/Src/shell.c ****         shell->parser.cursor = shell->parser.length;
 3281              		.loc 1 1576 43 view .LVU873
 3282 00da AB89     		ldrh	r3, [r5, #12]
1576:ThirdParty/Letter-shell/Src/shell.c ****         shell->parser.cursor = shell->parser.length;
 3283              		.loc 1 1576 52 view .LVU874
 3284 00dc 0021     		movs	r1, #0
 3285 00de D154     		strb	r1, [r2, r3]
1577:ThirdParty/Letter-shell/Src/shell.c ****         shellWriteString(shell, shell->parser.buffer);
 3286              		.loc 1 1577 9 is_stmt 1 view .LVU875
1577:ThirdParty/Letter-shell/Src/shell.c ****         shellWriteString(shell, shell->parser.buffer);
 3287              		.loc 1 1577 45 is_stmt 0 view .LVU876
 3288 00e0 AB89     		ldrh	r3, [r5, #12]
1577:ThirdParty/Letter-shell/Src/shell.c ****         shellWriteString(shell, shell->parser.buffer);
ARM GAS  /var/folders/h7/llxr0vxd5sd9z74__7r6nx9r0000gn/T//ccSPSBV9.s 			page 105


 3289              		.loc 1 1577 30 view .LVU877
 3290 00e2 EB81     		strh	r3, [r5, #14]	@ movhi
1578:ThirdParty/Letter-shell/Src/shell.c ****     }
 3291              		.loc 1 1578 9 is_stmt 1 view .LVU878
 3292 00e4 2969     		ldr	r1, [r5, #16]
 3293 00e6 2846     		mov	r0, r5
 3294 00e8 FFF7FEFF 		bl	shellWriteString
 3295              	.LVL321:
 3296              	.L275:
1578:ThirdParty/Letter-shell/Src/shell.c ****     }
 3297              		.loc 1 1578 9 is_stmt 0 view .LVU879
 3298              	.LBE23:
1610:ThirdParty/Letter-shell/Src/shell.c **** SHELL_EXPORT_KEY(SHELL_CMD_PERMISSION(0), 0x09000000, shellTab, tab);
 3299              		.loc 1 1610 1 view .LVU880
 3300 00ec BDE8F88F 		pop	{r3, r4, r5, r6, r7, r8, r9, r10, fp, pc}
 3301              	.LVL322:
 3302              	.L288:
 3303              	.LBB24:
1562:ThirdParty/Letter-shell/Src/shell.c ****         }
 3304              		.loc 1 1562 13 is_stmt 1 view .LVU881
 3305 00f0 2846     		mov	r0, r5
 3306 00f2 FFF7FEFF 		bl	shellClearCommandLine
 3307              	.LVL323:
 3308 00f6 E1E7     		b	.L283
 3309              	.LVL324:
 3310              	.L289:
1572:ThirdParty/Letter-shell/Src/shell.c ****             shellWritePrompt(shell, 1);
 3311              		.loc 1 1572 13 view .LVU882
 3312 00f8 3946     		mov	r1, r7
 3313 00fa 2846     		mov	r0, r5
 3314 00fc FFF7FEFF 		bl	shellListItem
 3315              	.LVL325:
1573:ThirdParty/Letter-shell/Src/shell.c ****             shell->parser.length = maxMatch;
 3316              		.loc 1 1573 13 view .LVU883
 3317 0100 0121     		movs	r1, #1
 3318 0102 2846     		mov	r0, r5
 3319 0104 FFF7FEFF 		bl	shellWritePrompt
 3320              	.LVL326:
1574:ThirdParty/Letter-shell/Src/shell.c ****         }
 3321              		.loc 1 1574 13 view .LVU884
1574:ThirdParty/Letter-shell/Src/shell.c ****         }
 3322              		.loc 1 1574 34 is_stmt 0 view .LVU885
 3323 0108 A5F80CA0 		strh	r10, [r5, #12]	@ movhi
 3324 010c E4E7     		b	.L284
 3325              	.L291:
 3326 010e 00BF     		.align	2
 3327              	.L290:
 3328 0110 04000000 		.word	.LC2
 3329              	.LBE24:
 3330              		.cfi_endproc
 3331              	.LFE48:
 3333              		.section	.rodata.shellInsertByte.str1.4,"aMS",%progbits,1
 3334              		.align	2
 3335              	.LC23:
 3336 0000 0D0A5761 		.ascii	"\015\012Warning: Command is too long\015\012\000"
 3336      726E696E 
 3336      673A2043 
ARM GAS  /var/folders/h7/llxr0vxd5sd9z74__7r6nx9r0000gn/T//ccSPSBV9.s 			page 106


 3336      6F6D6D61 
 3336      6E642069 
 3337              		.section	.text.shellInsertByte,"ax",%progbits
 3338              		.align	1
 3339              		.global	shellInsertByte
 3340              		.syntax unified
 3341              		.thumb
 3342              		.thumb_func
 3344              	shellInsertByte:
 3345              	.LVL327:
 3346              	.LFB27:
 808:ThirdParty/Letter-shell/Src/shell.c ****     /* 判断输入数据是否过长 */
 3347              		.loc 1 808 1 is_stmt 1 view -0
 3348              		.cfi_startproc
 3349              		@ args = 0, pretend = 0, frame = 0
 3350              		@ frame_needed = 0, uses_anonymous_args = 0
 808:ThirdParty/Letter-shell/Src/shell.c ****     /* 判断输入数据是否过长 */
 3351              		.loc 1 808 1 is_stmt 0 view .LVU887
 3352 0000 70B5     		push	{r4, r5, r6, lr}
 3353              	.LCFI44:
 3354              		.cfi_def_cfa_offset 16
 3355              		.cfi_offset 4, -16
 3356              		.cfi_offset 5, -12
 3357              		.cfi_offset 6, -8
 3358              		.cfi_offset 14, -4
 3359 0002 0446     		mov	r4, r0
 810:ThirdParty/Letter-shell/Src/shell.c ****     {
 3360              		.loc 1 810 5 is_stmt 1 view .LVU888
 810:ThirdParty/Letter-shell/Src/shell.c ****     {
 3361              		.loc 1 810 22 is_stmt 0 view .LVU889
 3362 0004 8389     		ldrh	r3, [r0, #12]
 810:ThirdParty/Letter-shell/Src/shell.c ****     {
 3363              		.loc 1 810 46 view .LVU890
 3364 0006 828E     		ldrh	r2, [r0, #52]
 810:ThirdParty/Letter-shell/Src/shell.c ****     {
 3365              		.loc 1 810 58 view .LVU891
 3366 0008 013A     		subs	r2, r2, #1
 810:ThirdParty/Letter-shell/Src/shell.c ****     {
 3367              		.loc 1 810 8 view .LVU892
 3368 000a 9342     		cmp	r3, r2
 3369 000c 07DA     		bge	.L303
 819:ThirdParty/Letter-shell/Src/shell.c ****     {
 3370              		.loc 1 819 5 is_stmt 1 view .LVU893
 819:ThirdParty/Letter-shell/Src/shell.c ****     {
 3371              		.loc 1 819 22 is_stmt 0 view .LVU894
 3372 000e C289     		ldrh	r2, [r0, #14]
 819:ThirdParty/Letter-shell/Src/shell.c ****     {
 3373              		.loc 1 819 8 view .LVU895
 3374 0010 9342     		cmp	r3, r2
 3375 0012 10D0     		beq	.L304
 826:ThirdParty/Letter-shell/Src/shell.c ****     {
 3376              		.loc 1 826 10 is_stmt 1 view .LVU896
 826:ThirdParty/Letter-shell/Src/shell.c ****     {
 3377              		.loc 1 826 13 is_stmt 0 view .LVU897
 3378 0014 9342     		cmp	r3, r2
 3379 0016 4ED9     		bls	.L292
 828:ThirdParty/Letter-shell/Src/shell.c ****         {
ARM GAS  /var/folders/h7/llxr0vxd5sd9z74__7r6nx9r0000gn/T//ccSPSBV9.s 			page 107


 3380              		.loc 1 828 9 is_stmt 1 view .LVU898
 3381              	.LBB25:
 828:ThirdParty/Letter-shell/Src/shell.c ****         {
 3382              		.loc 1 828 14 view .LVU899
 828:ThirdParty/Letter-shell/Src/shell.c ****         {
 3383              		.loc 1 828 45 is_stmt 0 view .LVU900
 3384 0018 9B1A     		subs	r3, r3, r2
 828:ThirdParty/Letter-shell/Src/shell.c ****         {
 3385              		.loc 1 828 20 view .LVU901
 3386 001a 1BB2     		sxth	r3, r3
 3387              	.LVL328:
 828:ThirdParty/Letter-shell/Src/shell.c ****         {
 3388              		.loc 1 828 9 view .LVU902
 3389 001c 23E0     		b	.L296
 3390              	.LVL329:
 3391              	.L303:
 828:ThirdParty/Letter-shell/Src/shell.c ****         {
 3392              		.loc 1 828 9 view .LVU903
 3393              	.LBE25:
 812:ThirdParty/Letter-shell/Src/shell.c ****         shellWritePrompt(shell, 1);
 3394              		.loc 1 812 9 is_stmt 1 view .LVU904
 3395 001e 2649     		ldr	r1, .L305
 3396              	.LVL330:
 812:ThirdParty/Letter-shell/Src/shell.c ****         shellWritePrompt(shell, 1);
 3397              		.loc 1 812 9 is_stmt 0 view .LVU905
 3398 0020 FFF7FEFF 		bl	shellWriteString
 3399              	.LVL331:
 813:ThirdParty/Letter-shell/Src/shell.c ****         shellWriteString(shell, shell->parser.buffer);
 3400              		.loc 1 813 9 is_stmt 1 view .LVU906
 3401 0024 0121     		movs	r1, #1
 3402 0026 2046     		mov	r0, r4
 3403 0028 FFF7FEFF 		bl	shellWritePrompt
 3404              	.LVL332:
 814:ThirdParty/Letter-shell/Src/shell.c ****         return;
 3405              		.loc 1 814 9 view .LVU907
 3406 002c 2169     		ldr	r1, [r4, #16]
 3407 002e 2046     		mov	r0, r4
 3408 0030 FFF7FEFF 		bl	shellWriteString
 3409              	.LVL333:
 815:ThirdParty/Letter-shell/Src/shell.c ****     }
 3410              		.loc 1 815 9 view .LVU908
 3411 0034 3FE0     		b	.L292
 3412              	.LVL334:
 3413              	.L304:
 821:ThirdParty/Letter-shell/Src/shell.c ****         shell->parser.buffer[shell->parser.length] = 0;
 3414              		.loc 1 821 9 view .LVU909
 821:ThirdParty/Letter-shell/Src/shell.c ****         shell->parser.buffer[shell->parser.length] = 0;
 3415              		.loc 1 821 22 is_stmt 0 view .LVU910
 3416 0036 0269     		ldr	r2, [r0, #16]
 821:ThirdParty/Letter-shell/Src/shell.c ****         shell->parser.buffer[shell->parser.length] = 0;
 3417              		.loc 1 821 50 view .LVU911
 3418 0038 581C     		adds	r0, r3, #1
 3419              	.LVL335:
 821:ThirdParty/Letter-shell/Src/shell.c ****         shell->parser.buffer[shell->parser.length] = 0;
 3420              		.loc 1 821 50 view .LVU912
 3421 003a A081     		strh	r0, [r4, #12]	@ movhi
 821:ThirdParty/Letter-shell/Src/shell.c ****         shell->parser.buffer[shell->parser.length] = 0;
ARM GAS  /var/folders/h7/llxr0vxd5sd9z74__7r6nx9r0000gn/T//ccSPSBV9.s 			page 108


 3422              		.loc 1 821 54 view .LVU913
 3423 003c D154     		strb	r1, [r2, r3]
 822:ThirdParty/Letter-shell/Src/shell.c ****         shell->parser.cursor++;
 3424              		.loc 1 822 9 is_stmt 1 view .LVU914
 822:ThirdParty/Letter-shell/Src/shell.c ****         shell->parser.cursor++;
 3425              		.loc 1 822 22 is_stmt 0 view .LVU915
 3426 003e 2269     		ldr	r2, [r4, #16]
 822:ThirdParty/Letter-shell/Src/shell.c ****         shell->parser.cursor++;
 3427              		.loc 1 822 43 view .LVU916
 3428 0040 A389     		ldrh	r3, [r4, #12]
 822:ThirdParty/Letter-shell/Src/shell.c ****         shell->parser.cursor++;
 3429              		.loc 1 822 52 view .LVU917
 3430 0042 0020     		movs	r0, #0
 3431 0044 D054     		strb	r0, [r2, r3]
 823:ThirdParty/Letter-shell/Src/shell.c ****         shellWriteByte(shell, data);
 3432              		.loc 1 823 9 is_stmt 1 view .LVU918
 823:ThirdParty/Letter-shell/Src/shell.c ****         shellWriteByte(shell, data);
 3433              		.loc 1 823 22 is_stmt 0 view .LVU919
 3434 0046 E389     		ldrh	r3, [r4, #14]
 823:ThirdParty/Letter-shell/Src/shell.c ****         shellWriteByte(shell, data);
 3435              		.loc 1 823 29 view .LVU920
 3436 0048 0133     		adds	r3, r3, #1
 3437 004a E381     		strh	r3, [r4, #14]	@ movhi
 824:ThirdParty/Letter-shell/Src/shell.c ****     }
 3438              		.loc 1 824 9 is_stmt 1 view .LVU921
 3439 004c 2046     		mov	r0, r4
 3440 004e FFF7FEFF 		bl	shellWriteByte
 3441              	.LVL336:
 824:ThirdParty/Letter-shell/Src/shell.c ****     }
 3442              		.loc 1 824 9 is_stmt 0 view .LVU922
 3443 0052 30E0     		b	.L292
 3444              	.LVL337:
 3445              	.L297:
 3446              	.LBB26:
 830:ThirdParty/Letter-shell/Src/shell.c ****                 shell->parser.buffer[shell->parser.cursor + i - 1];
 3447              		.loc 1 830 13 is_stmt 1 discriminator 3 view .LVU923
 831:ThirdParty/Letter-shell/Src/shell.c ****         }
 3448              		.loc 1 831 30 is_stmt 0 discriminator 3 view .LVU924
 3449 0054 2069     		ldr	r0, [r4, #16]
 831:ThirdParty/Letter-shell/Src/shell.c ****         }
 3450              		.loc 1 831 51 discriminator 3 view .LVU925
 3451 0056 E289     		ldrh	r2, [r4, #14]
 831:ThirdParty/Letter-shell/Src/shell.c ****         }
 3452              		.loc 1 831 59 discriminator 3 view .LVU926
 3453 0058 1A44     		add	r2, r2, r3
 830:ThirdParty/Letter-shell/Src/shell.c ****                 shell->parser.buffer[shell->parser.cursor + i - 1];
 3454              		.loc 1 830 33 discriminator 3 view .LVU927
 3455 005a 8518     		adds	r5, r0, r2
 831:ThirdParty/Letter-shell/Src/shell.c ****         }
 3456              		.loc 1 831 37 discriminator 3 view .LVU928
 3457 005c 15F8015C 		ldrb	r5, [r5, #-1]	@ zero_extendqisi2
 830:ThirdParty/Letter-shell/Src/shell.c ****                 shell->parser.buffer[shell->parser.cursor + i - 1];
 3458              		.loc 1 830 60 discriminator 3 view .LVU929
 3459 0060 8554     		strb	r5, [r0, r2]
 828:ThirdParty/Letter-shell/Src/shell.c ****         {
 3460              		.loc 1 828 77 is_stmt 1 discriminator 3 view .LVU930
 3461 0062 013B     		subs	r3, r3, #1
ARM GAS  /var/folders/h7/llxr0vxd5sd9z74__7r6nx9r0000gn/T//ccSPSBV9.s 			page 109


 3462              	.LVL338:
 828:ThirdParty/Letter-shell/Src/shell.c ****         {
 3463              		.loc 1 828 77 is_stmt 0 discriminator 3 view .LVU931
 3464 0064 1BB2     		sxth	r3, r3
 3465              	.LVL339:
 3466              	.L296:
 828:ThirdParty/Letter-shell/Src/shell.c ****         {
 3467              		.loc 1 828 71 is_stmt 1 discriminator 1 view .LVU932
 3468 0066 002B     		cmp	r3, #0
 3469 0068 F4DC     		bgt	.L297
 828:ThirdParty/Letter-shell/Src/shell.c ****         {
 3470              		.loc 1 828 71 is_stmt 0 discriminator 1 view .LVU933
 3471              	.LBE26:
 833:ThirdParty/Letter-shell/Src/shell.c ****         shell->parser.buffer[++shell->parser.length] = 0;
 3472              		.loc 1 833 9 is_stmt 1 view .LVU934
 833:ThirdParty/Letter-shell/Src/shell.c ****         shell->parser.buffer[++shell->parser.length] = 0;
 3473              		.loc 1 833 22 is_stmt 0 view .LVU935
 3474 006a 2269     		ldr	r2, [r4, #16]
 833:ThirdParty/Letter-shell/Src/shell.c ****         shell->parser.buffer[++shell->parser.length] = 0;
 3475              		.loc 1 833 43 view .LVU936
 3476 006c E389     		ldrh	r3, [r4, #14]
 3477              	.LVL340:
 833:ThirdParty/Letter-shell/Src/shell.c ****         shell->parser.buffer[++shell->parser.length] = 0;
 3478              		.loc 1 833 50 view .LVU937
 3479 006e 581C     		adds	r0, r3, #1
 3480 0070 E081     		strh	r0, [r4, #14]	@ movhi
 833:ThirdParty/Letter-shell/Src/shell.c ****         shell->parser.buffer[++shell->parser.length] = 0;
 3481              		.loc 1 833 54 view .LVU938
 3482 0072 D154     		strb	r1, [r2, r3]
 834:ThirdParty/Letter-shell/Src/shell.c ****         for (short i = shell->parser.cursor - 1; i < shell->parser.length; i++)
 3483              		.loc 1 834 9 is_stmt 1 view .LVU939
 834:ThirdParty/Letter-shell/Src/shell.c ****         for (short i = shell->parser.cursor - 1; i < shell->parser.length; i++)
 3484              		.loc 1 834 22 is_stmt 0 view .LVU940
 3485 0074 2269     		ldr	r2, [r4, #16]
 834:ThirdParty/Letter-shell/Src/shell.c ****         for (short i = shell->parser.cursor - 1; i < shell->parser.length; i++)
 3486              		.loc 1 834 45 view .LVU941
 3487 0076 A389     		ldrh	r3, [r4, #12]
 834:ThirdParty/Letter-shell/Src/shell.c ****         for (short i = shell->parser.cursor - 1; i < shell->parser.length; i++)
 3488              		.loc 1 834 30 view .LVU942
 3489 0078 0133     		adds	r3, r3, #1
 3490 007a 9BB2     		uxth	r3, r3
 834:ThirdParty/Letter-shell/Src/shell.c ****         for (short i = shell->parser.cursor - 1; i < shell->parser.length; i++)
 3491              		.loc 1 834 54 view .LVU943
 3492 007c A381     		strh	r3, [r4, #12]	@ movhi
 3493 007e 0021     		movs	r1, #0
 3494              	.LVL341:
 834:ThirdParty/Letter-shell/Src/shell.c ****         for (short i = shell->parser.cursor - 1; i < shell->parser.length; i++)
 3495              		.loc 1 834 54 view .LVU944
 3496 0080 D154     		strb	r1, [r2, r3]
 835:ThirdParty/Letter-shell/Src/shell.c ****         {
 3497              		.loc 1 835 9 is_stmt 1 view .LVU945
 3498              	.LBB27:
 835:ThirdParty/Letter-shell/Src/shell.c ****         {
 3499              		.loc 1 835 14 view .LVU946
 835:ThirdParty/Letter-shell/Src/shell.c ****         {
 3500              		.loc 1 835 37 is_stmt 0 view .LVU947
 3501 0082 E689     		ldrh	r6, [r4, #14]
ARM GAS  /var/folders/h7/llxr0vxd5sd9z74__7r6nx9r0000gn/T//ccSPSBV9.s 			page 110


 835:ThirdParty/Letter-shell/Src/shell.c ****         {
 3502              		.loc 1 835 45 view .LVU948
 3503 0084 013E     		subs	r6, r6, #1
 835:ThirdParty/Letter-shell/Src/shell.c ****         {
 3504              		.loc 1 835 20 view .LVU949
 3505 0086 36B2     		sxth	r6, r6
 3506              	.LVL342:
 835:ThirdParty/Letter-shell/Src/shell.c ****         {
 3507              		.loc 1 835 9 view .LVU950
 3508 0088 06E0     		b	.L298
 3509              	.L299:
 837:ThirdParty/Letter-shell/Src/shell.c ****         }
 3510              		.loc 1 837 13 is_stmt 1 discriminator 3 view .LVU951
 837:ThirdParty/Letter-shell/Src/shell.c ****         }
 3511              		.loc 1 837 48 is_stmt 0 discriminator 3 view .LVU952
 3512 008a 2369     		ldr	r3, [r4, #16]
 837:ThirdParty/Letter-shell/Src/shell.c ****         }
 3513              		.loc 1 837 13 discriminator 3 view .LVU953
 3514 008c 995D     		ldrb	r1, [r3, r6]	@ zero_extendqisi2
 3515 008e 2046     		mov	r0, r4
 3516 0090 FFF7FEFF 		bl	shellWriteByte
 3517              	.LVL343:
 835:ThirdParty/Letter-shell/Src/shell.c ****         {
 3518              		.loc 1 835 77 is_stmt 1 discriminator 3 view .LVU954
 3519 0094 0136     		adds	r6, r6, #1
 3520              	.LVL344:
 835:ThirdParty/Letter-shell/Src/shell.c ****         {
 3521              		.loc 1 835 77 is_stmt 0 discriminator 3 view .LVU955
 3522 0096 36B2     		sxth	r6, r6
 3523              	.LVL345:
 3524              	.L298:
 835:ThirdParty/Letter-shell/Src/shell.c ****         {
 3525              		.loc 1 835 52 is_stmt 1 discriminator 1 view .LVU956
 835:ThirdParty/Letter-shell/Src/shell.c ****         {
 3526              		.loc 1 835 67 is_stmt 0 discriminator 1 view .LVU957
 3527 0098 A589     		ldrh	r5, [r4, #12]
 835:ThirdParty/Letter-shell/Src/shell.c ****         {
 3528              		.loc 1 835 52 discriminator 1 view .LVU958
 3529 009a AE42     		cmp	r6, r5
 3530 009c F5DB     		blt	.L299
 835:ThirdParty/Letter-shell/Src/shell.c ****         {
 3531              		.loc 1 835 52 discriminator 1 view .LVU959
 3532              	.LBE27:
 839:ThirdParty/Letter-shell/Src/shell.c ****         {
 3533              		.loc 1 839 9 is_stmt 1 view .LVU960
 3534              	.LBB28:
 839:ThirdParty/Letter-shell/Src/shell.c ****         {
 3535              		.loc 1 839 14 view .LVU961
 839:ThirdParty/Letter-shell/Src/shell.c ****         {
 3536              		.loc 1 839 60 is_stmt 0 view .LVU962
 3537 009e E389     		ldrh	r3, [r4, #14]
 839:ThirdParty/Letter-shell/Src/shell.c ****         {
 3538              		.loc 1 839 45 view .LVU963
 3539 00a0 ED1A     		subs	r5, r5, r3
 839:ThirdParty/Letter-shell/Src/shell.c ****         {
 3540              		.loc 1 839 20 view .LVU964
 3541 00a2 2DB2     		sxth	r5, r5
ARM GAS  /var/folders/h7/llxr0vxd5sd9z74__7r6nx9r0000gn/T//ccSPSBV9.s 			page 111


 3542              	.LVL346:
 839:ThirdParty/Letter-shell/Src/shell.c ****         {
 3543              		.loc 1 839 9 view .LVU965
 3544 00a4 05E0     		b	.L300
 3545              	.L301:
 841:ThirdParty/Letter-shell/Src/shell.c ****         }
 3546              		.loc 1 841 13 is_stmt 1 discriminator 3 view .LVU966
 3547 00a6 0821     		movs	r1, #8
 3548 00a8 2046     		mov	r0, r4
 3549 00aa FFF7FEFF 		bl	shellWriteByte
 3550              	.LVL347:
 839:ThirdParty/Letter-shell/Src/shell.c ****         {
 3551              		.loc 1 839 77 discriminator 3 view .LVU967
 3552 00ae 013D     		subs	r5, r5, #1
 3553              	.LVL348:
 839:ThirdParty/Letter-shell/Src/shell.c ****         {
 3554              		.loc 1 839 77 is_stmt 0 discriminator 3 view .LVU968
 3555 00b0 2DB2     		sxth	r5, r5
 3556              	.LVL349:
 3557              	.L300:
 839:ThirdParty/Letter-shell/Src/shell.c ****         {
 3558              		.loc 1 839 71 is_stmt 1 discriminator 1 view .LVU969
 3559 00b2 002D     		cmp	r5, #0
 3560 00b4 F7DC     		bgt	.L301
 3561              	.LVL350:
 3562              	.L292:
 839:ThirdParty/Letter-shell/Src/shell.c ****         {
 3563              		.loc 1 839 71 is_stmt 0 discriminator 1 view .LVU970
 3564              	.LBE28:
 844:ThirdParty/Letter-shell/Src/shell.c **** 
 3565              		.loc 1 844 1 view .LVU971
 3566 00b6 70BD     		pop	{r4, r5, r6, pc}
 3567              	.LVL351:
 3568              	.L306:
 844:ThirdParty/Letter-shell/Src/shell.c **** 
 3569              		.loc 1 844 1 view .LVU972
 3570              		.align	2
 3571              	.L305:
 3572 00b8 00000000 		.word	.LC23
 3573              		.cfi_endproc
 3574              	.LFE27:
 3576              		.section	.text.shellDeleteByte,"ax",%progbits
 3577              		.align	1
 3578              		.global	shellDeleteByte
 3579              		.syntax unified
 3580              		.thumb
 3581              		.thumb_func
 3583              	shellDeleteByte:
 3584              	.LVL352:
 3585              	.LFB28:
 854:ThirdParty/Letter-shell/Src/shell.c ****     char offset = (direction == -1) ? 1 : 0;
 3586              		.loc 1 854 1 is_stmt 1 view -0
 3587              		.cfi_startproc
 3588              		@ args = 0, pretend = 0, frame = 0
 3589              		@ frame_needed = 0, uses_anonymous_args = 0
 854:ThirdParty/Letter-shell/Src/shell.c ****     char offset = (direction == -1) ? 1 : 0;
 3590              		.loc 1 854 1 is_stmt 0 view .LVU974
ARM GAS  /var/folders/h7/llxr0vxd5sd9z74__7r6nx9r0000gn/T//ccSPSBV9.s 			page 112


 3591 0000 38B5     		push	{r3, r4, r5, lr}
 3592              	.LCFI45:
 3593              		.cfi_def_cfa_offset 16
 3594              		.cfi_offset 3, -16
 3595              		.cfi_offset 4, -12
 3596              		.cfi_offset 5, -8
 3597              		.cfi_offset 14, -4
 3598 0002 0446     		mov	r4, r0
 855:ThirdParty/Letter-shell/Src/shell.c **** 
 3599              		.loc 1 855 5 is_stmt 1 view .LVU975
 855:ThirdParty/Letter-shell/Src/shell.c **** 
 3600              		.loc 1 855 41 is_stmt 0 view .LVU976
 3601 0004 B1F1FF3F 		cmp	r1, #-1
 3602 0008 14BF     		ite	ne
 3603 000a 0023     		movne	r3, #0
 3604 000c 0123     		moveq	r3, #1
 3605              	.LVL353:
 857:ThirdParty/Letter-shell/Src/shell.c ****         || (shell->parser.cursor == shell->parser.length && direction == -1))
 3606              		.loc 1 857 5 is_stmt 1 view .LVU977
 857:ThirdParty/Letter-shell/Src/shell.c ****         || (shell->parser.cursor == shell->parser.length && direction == -1))
 3607              		.loc 1 857 23 is_stmt 0 view .LVU978
 3608 000e C289     		ldrh	r2, [r0, #14]
 857:ThirdParty/Letter-shell/Src/shell.c ****         || (shell->parser.cursor == shell->parser.length && direction == -1))
 3609              		.loc 1 857 8 view .LVU979
 3610 0010 0AB9     		cbnz	r2, .L308
 857:ThirdParty/Letter-shell/Src/shell.c ****         || (shell->parser.cursor == shell->parser.length && direction == -1))
 3611              		.loc 1 857 36 discriminator 1 view .LVU980
 3612 0012 0129     		cmp	r1, #1
 3613 0014 55D0     		beq	.L307
 3614              	.L308:
 858:ThirdParty/Letter-shell/Src/shell.c ****     {
 3615              		.loc 1 858 50 view .LVU981
 3616 0016 A089     		ldrh	r0, [r4, #12]
 3617              	.LVL354:
 858:ThirdParty/Letter-shell/Src/shell.c ****     {
 3618              		.loc 1 858 9 view .LVU982
 3619 0018 8242     		cmp	r2, r0
 3620 001a 03D0     		beq	.L320
 3621              	.L310:
 862:ThirdParty/Letter-shell/Src/shell.c ****     {
 3622              		.loc 1 862 5 is_stmt 1 view .LVU983
 862:ThirdParty/Letter-shell/Src/shell.c ****     {
 3623              		.loc 1 862 8 is_stmt 0 view .LVU984
 3624 001c 8242     		cmp	r2, r0
 3625 001e 05D0     		beq	.L321
 3626              	.L311:
 871:ThirdParty/Letter-shell/Src/shell.c ****         {
 3627              		.loc 1 871 9 is_stmt 1 view .LVU985
 3628              	.LBB29:
 871:ThirdParty/Letter-shell/Src/shell.c ****         {
 3629              		.loc 1 871 14 view .LVU986
 871:ThirdParty/Letter-shell/Src/shell.c ****         {
 3630              		.loc 1 871 20 is_stmt 0 view .LVU987
 3631 0020 1BB2     		sxth	r3, r3
 3632              	.LVL355:
 871:ThirdParty/Letter-shell/Src/shell.c ****         {
 3633              		.loc 1 871 9 view .LVU988
ARM GAS  /var/folders/h7/llxr0vxd5sd9z74__7r6nx9r0000gn/T//ccSPSBV9.s 			page 113


 3634 0022 19E0     		b	.L312
 3635              	.LVL356:
 3636              	.L320:
 871:ThirdParty/Letter-shell/Src/shell.c ****         {
 3637              		.loc 1 871 9 view .LVU989
 3638              	.LBE29:
 858:ThirdParty/Letter-shell/Src/shell.c ****     {
 3639              		.loc 1 858 58 discriminator 1 view .LVU990
 3640 0024 B1F1FF3F 		cmp	r1, #-1
 3641 0028 F8D1     		bne	.L310
 3642 002a 4AE0     		b	.L307
 3643              	.L321:
 862:ThirdParty/Letter-shell/Src/shell.c ****     {
 3644              		.loc 1 862 54 discriminator 1 view .LVU991
 3645 002c 0129     		cmp	r1, #1
 3646 002e F7D1     		bne	.L311
 864:ThirdParty/Letter-shell/Src/shell.c ****         shell->parser.length--;
 3647              		.loc 1 864 9 is_stmt 1 view .LVU992
 864:ThirdParty/Letter-shell/Src/shell.c ****         shell->parser.length--;
 3648              		.loc 1 864 29 is_stmt 0 view .LVU993
 3649 0030 013A     		subs	r2, r2, #1
 3650 0032 E281     		strh	r2, [r4, #14]	@ movhi
 865:ThirdParty/Letter-shell/Src/shell.c ****         shell->parser.buffer[shell->parser.length] = 0;
 3651              		.loc 1 865 9 is_stmt 1 view .LVU994
 865:ThirdParty/Letter-shell/Src/shell.c ****         shell->parser.buffer[shell->parser.length] = 0;
 3652              		.loc 1 865 29 is_stmt 0 view .LVU995
 3653 0034 431E     		subs	r3, r0, #1
 3654              	.LVL357:
 865:ThirdParty/Letter-shell/Src/shell.c ****         shell->parser.buffer[shell->parser.length] = 0;
 3655              		.loc 1 865 29 view .LVU996
 3656 0036 9BB2     		uxth	r3, r3
 3657 0038 A381     		strh	r3, [r4, #12]	@ movhi
 866:ThirdParty/Letter-shell/Src/shell.c ****         shellDeleteCommandLine(shell, 1);
 3658              		.loc 1 866 9 is_stmt 1 view .LVU997
 866:ThirdParty/Letter-shell/Src/shell.c ****         shellDeleteCommandLine(shell, 1);
 3659              		.loc 1 866 22 is_stmt 0 view .LVU998
 3660 003a 2269     		ldr	r2, [r4, #16]
 866:ThirdParty/Letter-shell/Src/shell.c ****         shellDeleteCommandLine(shell, 1);
 3661              		.loc 1 866 52 view .LVU999
 3662 003c 0021     		movs	r1, #0
 3663              	.LVL358:
 866:ThirdParty/Letter-shell/Src/shell.c ****         shellDeleteCommandLine(shell, 1);
 3664              		.loc 1 866 52 view .LVU1000
 3665 003e D154     		strb	r1, [r2, r3]
 867:ThirdParty/Letter-shell/Src/shell.c ****     }
 3666              		.loc 1 867 9 is_stmt 1 view .LVU1001
 3667 0040 0121     		movs	r1, #1
 3668 0042 2046     		mov	r0, r4
 3669 0044 FFF7FEFF 		bl	shellDeleteCommandLine
 3670              	.LVL359:
 3671 0048 3BE0     		b	.L307
 3672              	.LVL360:
 3673              	.L313:
 3674              	.LBB30:
 873:ThirdParty/Letter-shell/Src/shell.c ****                 shell->parser.buffer[shell->parser.cursor + i];
 3675              		.loc 1 873 13 discriminator 3 view .LVU1002
 874:ThirdParty/Letter-shell/Src/shell.c ****         }
ARM GAS  /var/folders/h7/llxr0vxd5sd9z74__7r6nx9r0000gn/T//ccSPSBV9.s 			page 114


 3676              		.loc 1 874 30 is_stmt 0 discriminator 3 view .LVU1003
 3677 004a 2069     		ldr	r0, [r4, #16]
 874:ThirdParty/Letter-shell/Src/shell.c ****         }
 3678              		.loc 1 874 59 discriminator 3 view .LVU1004
 3679 004c 1A44     		add	r2, r2, r3
 873:ThirdParty/Letter-shell/Src/shell.c ****                 shell->parser.buffer[shell->parser.cursor + i];
 3680              		.loc 1 873 33 discriminator 3 view .LVU1005
 3681 004e 551E     		subs	r5, r2, #1
 874:ThirdParty/Letter-shell/Src/shell.c ****         }
 3682              		.loc 1 874 37 discriminator 3 view .LVU1006
 3683 0050 825C     		ldrb	r2, [r0, r2]	@ zero_extendqisi2
 873:ThirdParty/Letter-shell/Src/shell.c ****                 shell->parser.buffer[shell->parser.cursor + i];
 3684              		.loc 1 873 64 discriminator 3 view .LVU1007
 3685 0052 4255     		strb	r2, [r0, r5]
 871:ThirdParty/Letter-shell/Src/shell.c ****         {
 3686              		.loc 1 871 82 is_stmt 1 discriminator 3 view .LVU1008
 3687 0054 0133     		adds	r3, r3, #1
 3688              	.LVL361:
 871:ThirdParty/Letter-shell/Src/shell.c ****         {
 3689              		.loc 1 871 82 is_stmt 0 discriminator 3 view .LVU1009
 3690 0056 1BB2     		sxth	r3, r3
 3691              	.LVL362:
 3692              	.L312:
 871:ThirdParty/Letter-shell/Src/shell.c ****         {
 3693              		.loc 1 871 34 is_stmt 1 discriminator 1 view .LVU1010
 871:ThirdParty/Letter-shell/Src/shell.c ****         {
 3694              		.loc 1 871 49 is_stmt 0 discriminator 1 view .LVU1011
 3695 0058 A089     		ldrh	r0, [r4, #12]
 871:ThirdParty/Letter-shell/Src/shell.c ****         {
 3696              		.loc 1 871 72 discriminator 1 view .LVU1012
 3697 005a E289     		ldrh	r2, [r4, #14]
 871:ThirdParty/Letter-shell/Src/shell.c ****         {
 3698              		.loc 1 871 57 discriminator 1 view .LVU1013
 3699 005c 851A     		subs	r5, r0, r2
 871:ThirdParty/Letter-shell/Src/shell.c ****         {
 3700              		.loc 1 871 34 discriminator 1 view .LVU1014
 3701 005e AB42     		cmp	r3, r5
 3702 0060 F3DB     		blt	.L313
 871:ThirdParty/Letter-shell/Src/shell.c ****         {
 3703              		.loc 1 871 34 discriminator 1 view .LVU1015
 3704              	.LBE30:
 876:ThirdParty/Letter-shell/Src/shell.c ****         if (!offset)
 3705              		.loc 1 876 9 is_stmt 1 view .LVU1016
 876:ThirdParty/Letter-shell/Src/shell.c ****         if (!offset)
 3706              		.loc 1 876 29 is_stmt 0 view .LVU1017
 3707 0062 0138     		subs	r0, r0, #1
 3708 0064 A081     		strh	r0, [r4, #12]	@ movhi
 877:ThirdParty/Letter-shell/Src/shell.c ****         {
 3709              		.loc 1 877 9 is_stmt 1 view .LVU1018
 877:ThirdParty/Letter-shell/Src/shell.c ****         {
 3710              		.loc 1 877 12 is_stmt 0 view .LVU1019
 3711 0066 B1F1FF3F 		cmp	r1, #-1
 3712 006a 06D1     		bne	.L322
 3713              	.LVL363:
 3714              	.L314:
 882:ThirdParty/Letter-shell/Src/shell.c ****         for (short i = shell->parser.cursor; i < shell->parser.length; i++)
 3715              		.loc 1 882 9 is_stmt 1 view .LVU1020
ARM GAS  /var/folders/h7/llxr0vxd5sd9z74__7r6nx9r0000gn/T//ccSPSBV9.s 			page 115


 882:ThirdParty/Letter-shell/Src/shell.c ****         for (short i = shell->parser.cursor; i < shell->parser.length; i++)
 3716              		.loc 1 882 22 is_stmt 0 view .LVU1021
 3717 006c 2269     		ldr	r2, [r4, #16]
 882:ThirdParty/Letter-shell/Src/shell.c ****         for (short i = shell->parser.cursor; i < shell->parser.length; i++)
 3718              		.loc 1 882 43 view .LVU1022
 3719 006e A389     		ldrh	r3, [r4, #12]
 882:ThirdParty/Letter-shell/Src/shell.c ****         for (short i = shell->parser.cursor; i < shell->parser.length; i++)
 3720              		.loc 1 882 52 view .LVU1023
 3721 0070 0021     		movs	r1, #0
 3722 0072 D154     		strb	r1, [r2, r3]
 883:ThirdParty/Letter-shell/Src/shell.c ****         {
 3723              		.loc 1 883 9 is_stmt 1 view .LVU1024
 3724              	.LBB31:
 883:ThirdParty/Letter-shell/Src/shell.c ****         {
 3725              		.loc 1 883 14 view .LVU1025
 883:ThirdParty/Letter-shell/Src/shell.c ****         {
 3726              		.loc 1 883 20 is_stmt 0 view .LVU1026
 3727 0074 B4F90E50 		ldrsh	r5, [r4, #14]
 3728              	.LVL364:
 883:ThirdParty/Letter-shell/Src/shell.c ****         {
 3729              		.loc 1 883 9 view .LVU1027
 3730 0078 0DE0     		b	.L315
 3731              	.LVL365:
 3732              	.L322:
 883:ThirdParty/Letter-shell/Src/shell.c ****         {
 3733              		.loc 1 883 9 view .LVU1028
 3734              	.LBE31:
 879:ThirdParty/Letter-shell/Src/shell.c ****             shellWriteByte(shell, '\b');
 3735              		.loc 1 879 13 is_stmt 1 view .LVU1029
 879:ThirdParty/Letter-shell/Src/shell.c ****             shellWriteByte(shell, '\b');
 3736              		.loc 1 879 33 is_stmt 0 view .LVU1030
 3737 007a 013A     		subs	r2, r2, #1
 3738 007c E281     		strh	r2, [r4, #14]	@ movhi
 880:ThirdParty/Letter-shell/Src/shell.c ****         }
 3739              		.loc 1 880 13 is_stmt 1 view .LVU1031
 3740 007e 0821     		movs	r1, #8
 3741              	.LVL366:
 880:ThirdParty/Letter-shell/Src/shell.c ****         }
 3742              		.loc 1 880 13 is_stmt 0 view .LVU1032
 3743 0080 2046     		mov	r0, r4
 3744 0082 FFF7FEFF 		bl	shellWriteByte
 3745              	.LVL367:
 880:ThirdParty/Letter-shell/Src/shell.c ****         }
 3746              		.loc 1 880 13 view .LVU1033
 3747 0086 F1E7     		b	.L314
 3748              	.LVL368:
 3749              	.L316:
 3750              	.LBB32:
 885:ThirdParty/Letter-shell/Src/shell.c ****         }
 3751              		.loc 1 885 13 is_stmt 1 discriminator 3 view .LVU1034
 885:ThirdParty/Letter-shell/Src/shell.c ****         }
 3752              		.loc 1 885 48 is_stmt 0 discriminator 3 view .LVU1035
 3753 0088 2369     		ldr	r3, [r4, #16]
 885:ThirdParty/Letter-shell/Src/shell.c ****         }
 3754              		.loc 1 885 13 discriminator 3 view .LVU1036
 3755 008a 595D     		ldrb	r1, [r3, r5]	@ zero_extendqisi2
 3756 008c 2046     		mov	r0, r4
ARM GAS  /var/folders/h7/llxr0vxd5sd9z74__7r6nx9r0000gn/T//ccSPSBV9.s 			page 116


 3757 008e FFF7FEFF 		bl	shellWriteByte
 3758              	.LVL369:
 883:ThirdParty/Letter-shell/Src/shell.c ****         {
 3759              		.loc 1 883 73 is_stmt 1 discriminator 3 view .LVU1037
 3760 0092 0135     		adds	r5, r5, #1
 3761              	.LVL370:
 883:ThirdParty/Letter-shell/Src/shell.c ****         {
 3762              		.loc 1 883 73 is_stmt 0 discriminator 3 view .LVU1038
 3763 0094 2DB2     		sxth	r5, r5
 3764              	.LVL371:
 3765              	.L315:
 883:ThirdParty/Letter-shell/Src/shell.c ****         {
 3766              		.loc 1 883 48 is_stmt 1 discriminator 1 view .LVU1039
 883:ThirdParty/Letter-shell/Src/shell.c ****         {
 3767              		.loc 1 883 63 is_stmt 0 discriminator 1 view .LVU1040
 3768 0096 A389     		ldrh	r3, [r4, #12]
 883:ThirdParty/Letter-shell/Src/shell.c ****         {
 3769              		.loc 1 883 48 discriminator 1 view .LVU1041
 3770 0098 9D42     		cmp	r5, r3
 3771 009a F5DB     		blt	.L316
 883:ThirdParty/Letter-shell/Src/shell.c ****         {
 3772              		.loc 1 883 48 discriminator 1 view .LVU1042
 3773              	.LBE32:
 887:ThirdParty/Letter-shell/Src/shell.c ****         for (short i = shell->parser.length - shell->parser.cursor + 1; i > 0; i--)
 3774              		.loc 1 887 9 is_stmt 1 view .LVU1043
 3775 009c 2021     		movs	r1, #32
 3776 009e 2046     		mov	r0, r4
 3777 00a0 FFF7FEFF 		bl	shellWriteByte
 3778              	.LVL372:
 888:ThirdParty/Letter-shell/Src/shell.c ****         {
 3779              		.loc 1 888 9 view .LVU1044
 3780              	.LBB33:
 888:ThirdParty/Letter-shell/Src/shell.c ****         {
 3781              		.loc 1 888 14 view .LVU1045
 888:ThirdParty/Letter-shell/Src/shell.c ****         {
 3782              		.loc 1 888 37 is_stmt 0 view .LVU1046
 3783 00a4 A589     		ldrh	r5, [r4, #12]
 3784              	.LVL373:
 888:ThirdParty/Letter-shell/Src/shell.c ****         {
 3785              		.loc 1 888 60 view .LVU1047
 3786 00a6 E389     		ldrh	r3, [r4, #14]
 888:ThirdParty/Letter-shell/Src/shell.c ****         {
 3787              		.loc 1 888 45 view .LVU1048
 3788 00a8 ED1A     		subs	r5, r5, r3
 3789 00aa ADB2     		uxth	r5, r5
 888:ThirdParty/Letter-shell/Src/shell.c ****         {
 3790              		.loc 1 888 68 view .LVU1049
 3791 00ac 0135     		adds	r5, r5, #1
 888:ThirdParty/Letter-shell/Src/shell.c ****         {
 3792              		.loc 1 888 20 view .LVU1050
 3793 00ae 2DB2     		sxth	r5, r5
 3794              	.LVL374:
 888:ThirdParty/Letter-shell/Src/shell.c ****         {
 3795              		.loc 1 888 9 view .LVU1051
 3796 00b0 05E0     		b	.L317
 3797              	.L318:
 890:ThirdParty/Letter-shell/Src/shell.c ****         }
ARM GAS  /var/folders/h7/llxr0vxd5sd9z74__7r6nx9r0000gn/T//ccSPSBV9.s 			page 117


 3798              		.loc 1 890 13 is_stmt 1 discriminator 3 view .LVU1052
 3799 00b2 0821     		movs	r1, #8
 3800 00b4 2046     		mov	r0, r4
 3801 00b6 FFF7FEFF 		bl	shellWriteByte
 3802              	.LVL375:
 888:ThirdParty/Letter-shell/Src/shell.c ****         {
 3803              		.loc 1 888 81 discriminator 3 view .LVU1053
 3804 00ba 013D     		subs	r5, r5, #1
 3805              	.LVL376:
 888:ThirdParty/Letter-shell/Src/shell.c ****         {
 3806              		.loc 1 888 81 is_stmt 0 discriminator 3 view .LVU1054
 3807 00bc 2DB2     		sxth	r5, r5
 3808              	.LVL377:
 3809              	.L317:
 888:ThirdParty/Letter-shell/Src/shell.c ****         {
 3810              		.loc 1 888 75 is_stmt 1 discriminator 1 view .LVU1055
 3811 00be 002D     		cmp	r5, #0
 3812 00c0 F7DC     		bgt	.L318
 3813              	.LVL378:
 3814              	.L307:
 888:ThirdParty/Letter-shell/Src/shell.c ****         {
 3815              		.loc 1 888 75 is_stmt 0 discriminator 1 view .LVU1056
 3816              	.LBE33:
 893:ThirdParty/Letter-shell/Src/shell.c **** 
 3817              		.loc 1 893 1 view .LVU1057
 3818 00c2 38BD     		pop	{r3, r4, r5, pc}
 893:ThirdParty/Letter-shell/Src/shell.c **** 
 3819              		.loc 1 893 1 view .LVU1058
 3820              		.cfi_endproc
 3821              	.LFE28:
 3823              		.section	.text.shellBackspace,"ax",%progbits
 3824              		.align	1
 3825              		.global	shellBackspace
 3826              		.syntax unified
 3827              		.thumb
 3828              		.thumb_func
 3830              	shellBackspace:
 3831              	.LVL379:
 3832              	.LFB49:
1620:ThirdParty/Letter-shell/Src/shell.c ****     shellDeleteByte(shell, 1);
 3833              		.loc 1 1620 1 is_stmt 1 view -0
 3834              		.cfi_startproc
 3835              		@ args = 0, pretend = 0, frame = 0
 3836              		@ frame_needed = 0, uses_anonymous_args = 0
1620:ThirdParty/Letter-shell/Src/shell.c ****     shellDeleteByte(shell, 1);
 3837              		.loc 1 1620 1 is_stmt 0 view .LVU1060
 3838 0000 08B5     		push	{r3, lr}
 3839              	.LCFI46:
 3840              		.cfi_def_cfa_offset 8
 3841              		.cfi_offset 3, -8
 3842              		.cfi_offset 14, -4
1621:ThirdParty/Letter-shell/Src/shell.c **** }
 3843              		.loc 1 1621 5 is_stmt 1 view .LVU1061
 3844 0002 0121     		movs	r1, #1
 3845 0004 FFF7FEFF 		bl	shellDeleteByte
 3846              	.LVL380:
1622:ThirdParty/Letter-shell/Src/shell.c **** SHELL_EXPORT_KEY(SHELL_CMD_PERMISSION(0)|SHELL_CMD_ENABLE_UNCHECKED,
ARM GAS  /var/folders/h7/llxr0vxd5sd9z74__7r6nx9r0000gn/T//ccSPSBV9.s 			page 118


 3847              		.loc 1 1622 1 is_stmt 0 view .LVU1062
 3848 0008 08BD     		pop	{r3, pc}
 3849              		.cfi_endproc
 3850              	.LFE49:
 3852              		.section	.text.shellDelete,"ax",%progbits
 3853              		.align	1
 3854              		.global	shellDelete
 3855              		.syntax unified
 3856              		.thumb
 3857              		.thumb_func
 3859              	shellDelete:
 3860              	.LVL381:
 3861              	.LFB50:
1635:ThirdParty/Letter-shell/Src/shell.c ****     shellDeleteByte(shell, -1);
 3862              		.loc 1 1635 1 is_stmt 1 view -0
 3863              		.cfi_startproc
 3864              		@ args = 0, pretend = 0, frame = 0
 3865              		@ frame_needed = 0, uses_anonymous_args = 0
1635:ThirdParty/Letter-shell/Src/shell.c ****     shellDeleteByte(shell, -1);
 3866              		.loc 1 1635 1 is_stmt 0 view .LVU1064
 3867 0000 08B5     		push	{r3, lr}
 3868              	.LCFI47:
 3869              		.cfi_def_cfa_offset 8
 3870              		.cfi_offset 3, -8
 3871              		.cfi_offset 14, -4
1636:ThirdParty/Letter-shell/Src/shell.c **** }
 3872              		.loc 1 1636 5 is_stmt 1 view .LVU1065
 3873 0002 4FF0FF31 		mov	r1, #-1
 3874 0006 FFF7FEFF 		bl	shellDeleteByte
 3875              	.LVL382:
1637:ThirdParty/Letter-shell/Src/shell.c **** SHELL_EXPORT_KEY(SHELL_CMD_PERMISSION(0)|SHELL_CMD_ENABLE_UNCHECKED,
 3876              		.loc 1 1637 1 is_stmt 0 view .LVU1066
 3877 000a 08BD     		pop	{r3, pc}
 3878              		.cfi_endproc
 3879              	.LFE50:
 3881              		.section	.text.shellSeekCommand,"ax",%progbits
 3882              		.align	1
 3883              		.global	shellSeekCommand
 3884              		.syntax unified
 3885              		.thumb
 3886              		.thumb_func
 3888              	shellSeekCommand:
 3889              	.LVL383:
 3890              	.LFB31:
 983:ThirdParty/Letter-shell/Src/shell.c ****     const char *name;
 3891              		.loc 1 983 1 is_stmt 1 view -0
 3892              		.cfi_startproc
 3893              		@ args = 0, pretend = 0, frame = 0
 3894              		@ frame_needed = 0, uses_anonymous_args = 0
 983:ThirdParty/Letter-shell/Src/shell.c ****     const char *name;
 3895              		.loc 1 983 1 is_stmt 0 view .LVU1068
 3896 0000 2DE9F047 		push	{r4, r5, r6, r7, r8, r9, r10, lr}
 3897              	.LCFI48:
 3898              		.cfi_def_cfa_offset 32
 3899              		.cfi_offset 4, -32
 3900              		.cfi_offset 5, -28
 3901              		.cfi_offset 6, -24
ARM GAS  /var/folders/h7/llxr0vxd5sd9z74__7r6nx9r0000gn/T//ccSPSBV9.s 			page 119


 3902              		.cfi_offset 7, -20
 3903              		.cfi_offset 8, -16
 3904              		.cfi_offset 9, -12
 3905              		.cfi_offset 10, -8
 3906              		.cfi_offset 14, -4
 3907 0004 8046     		mov	r8, r0
 3908 0006 8A46     		mov	r10, r1
 3909 0008 1746     		mov	r7, r2
 3910 000a 9946     		mov	r9, r3
 984:ThirdParty/Letter-shell/Src/shell.c ****     unsigned short count = shell->commandList.count -
 3911              		.loc 1 984 5 is_stmt 1 view .LVU1069
 985:ThirdParty/Letter-shell/Src/shell.c ****         ((int)base - (int)shell->commandList.base) / sizeof(ShellCommand);
 3912              		.loc 1 985 5 view .LVU1070
 985:ThirdParty/Letter-shell/Src/shell.c ****         ((int)base - (int)shell->commandList.base) / sizeof(ShellCommand);
 3913              		.loc 1 985 46 is_stmt 0 view .LVU1071
 3914 000c B0F85C60 		ldrh	r6, [r0, #92]
 986:ThirdParty/Letter-shell/Src/shell.c ****     for (unsigned short i = 0; i < count; i++)
 3915              		.loc 1 986 45 view .LVU1072
 3916 0010 836D     		ldr	r3, [r0, #88]
 3917              	.LVL384:
 986:ThirdParty/Letter-shell/Src/shell.c ****     for (unsigned short i = 0; i < count; i++)
 3918              		.loc 1 986 20 view .LVU1073
 3919 0012 D31A     		subs	r3, r2, r3
 985:ThirdParty/Letter-shell/Src/shell.c ****         ((int)base - (int)shell->commandList.base) / sizeof(ShellCommand);
 3920              		.loc 1 985 53 view .LVU1074
 3921 0014 C3F30F13 		ubfx	r3, r3, #4, #16
 985:ThirdParty/Letter-shell/Src/shell.c ****         ((int)base - (int)shell->commandList.base) / sizeof(ShellCommand);
 3922              		.loc 1 985 20 view .LVU1075
 3923 0018 F61A     		subs	r6, r6, r3
 3924 001a B6B2     		uxth	r6, r6
 3925              	.LVL385:
 987:ThirdParty/Letter-shell/Src/shell.c ****     {
 3926              		.loc 1 987 5 is_stmt 1 view .LVU1076
 3927              	.LBB34:
 987:ThirdParty/Letter-shell/Src/shell.c ****     {
 3928              		.loc 1 987 10 view .LVU1077
 987:ThirdParty/Letter-shell/Src/shell.c ****     {
 3929              		.loc 1 987 25 is_stmt 0 view .LVU1078
 3930 001c 0024     		movs	r4, #0
 987:ThirdParty/Letter-shell/Src/shell.c ****     {
 3931              		.loc 1 987 5 view .LVU1079
 3932 001e 06E0     		b	.L328
 3933              	.LVL386:
 3934              	.L330:
1004:ThirdParty/Letter-shell/Src/shell.c ****             {
 3935              		.loc 1 1004 13 is_stmt 1 view .LVU1080
1004:ThirdParty/Letter-shell/Src/shell.c ****             {
 3936              		.loc 1 1004 17 is_stmt 0 view .LVU1081
 3937 0020 4A46     		mov	r2, r9
 3938 0022 5046     		mov	r0, r10
 3939              	.LVL387:
1004:ThirdParty/Letter-shell/Src/shell.c ****             {
 3940              		.loc 1 1004 17 view .LVU1082
 3941 0024 FFF7FEFF 		bl	strncmp
 3942              	.LVL388:
1004:ThirdParty/Letter-shell/Src/shell.c ****             {
 3943              		.loc 1 1004 16 view .LVU1083
ARM GAS  /var/folders/h7/llxr0vxd5sd9z74__7r6nx9r0000gn/T//ccSPSBV9.s 			page 120


 3944 0028 00B3     		cbz	r0, .L327
 3945              	.LVL389:
 3946              	.L329:
 987:ThirdParty/Letter-shell/Src/shell.c ****     {
 3947              		.loc 1 987 44 is_stmt 1 discriminator 2 view .LVU1084
 3948 002a 0134     		adds	r4, r4, #1
 3949              	.LVL390:
 987:ThirdParty/Letter-shell/Src/shell.c ****     {
 3950              		.loc 1 987 44 is_stmt 0 discriminator 2 view .LVU1085
 3951 002c A4B2     		uxth	r4, r4
 3952              	.LVL391:
 3953              	.L328:
 987:ThirdParty/Letter-shell/Src/shell.c ****     {
 3954              		.loc 1 987 34 is_stmt 1 discriminator 1 view .LVU1086
 3955 002e B442     		cmp	r4, r6
 3956 0030 1BD2     		bcs	.L334
 989:ThirdParty/Letter-shell/Src/shell.c ****             || shellCheckPermission(shell, &base[i]) != 0)
 3957              		.loc 1 989 9 view .LVU1087
 989:ThirdParty/Letter-shell/Src/shell.c ****             || shellCheckPermission(shell, &base[i]) != 0)
 3958              		.loc 1 989 17 is_stmt 0 view .LVU1088
 3959 0032 07EB0415 		add	r5, r7, r4, lsl #4
 989:ThirdParty/Letter-shell/Src/shell.c ****             || shellCheckPermission(shell, &base[i]) != 0)
 3960              		.loc 1 989 37 view .LVU1089
 3961 0036 95F801C0 		ldrb	ip, [r5, #1]	@ zero_extendqisi2
 3962 003a 0CF00F0C 		and	ip, ip, #15
 989:ThirdParty/Letter-shell/Src/shell.c ****             || shellCheckPermission(shell, &base[i]) != 0)
 3963              		.loc 1 989 12 view .LVU1090
 3964 003e BCF1090F 		cmp	ip, #9
 3965 0042 F2D0     		beq	.L329
 990:ThirdParty/Letter-shell/Src/shell.c ****         {
 3966              		.loc 1 990 16 view .LVU1091
 3967 0044 2946     		mov	r1, r5
 3968 0046 4046     		mov	r0, r8
 3969 0048 FFF7FEFF 		bl	shellCheckPermission
 3970              	.LVL392:
 990:ThirdParty/Letter-shell/Src/shell.c ****         {
 3971              		.loc 1 990 13 view .LVU1092
 3972 004c 0028     		cmp	r0, #0
 3973 004e ECD1     		bne	.L329
 994:ThirdParty/Letter-shell/Src/shell.c ****         if (!compareLength)
 3974              		.loc 1 994 9 is_stmt 1 view .LVU1093
 994:ThirdParty/Letter-shell/Src/shell.c ****         if (!compareLength)
 3975              		.loc 1 994 16 is_stmt 0 view .LVU1094
 3976 0050 2846     		mov	r0, r5
 3977 0052 FFF7FEFF 		bl	shellGetCommandName
 3978              	.LVL393:
 3979 0056 0146     		mov	r1, r0
 3980              	.LVL394:
 995:ThirdParty/Letter-shell/Src/shell.c ****         {
 3981              		.loc 1 995 9 is_stmt 1 view .LVU1095
 995:ThirdParty/Letter-shell/Src/shell.c ****         {
 3982              		.loc 1 995 12 is_stmt 0 view .LVU1096
 3983 0058 B9F1000F 		cmp	r9, #0
 3984 005c E0D1     		bne	.L330
 997:ThirdParty/Letter-shell/Src/shell.c ****             {
 3985              		.loc 1 997 13 is_stmt 1 view .LVU1097
 997:ThirdParty/Letter-shell/Src/shell.c ****             {
ARM GAS  /var/folders/h7/llxr0vxd5sd9z74__7r6nx9r0000gn/T//ccSPSBV9.s 			page 121


 3986              		.loc 1 997 17 is_stmt 0 view .LVU1098
 3987 005e 5046     		mov	r0, r10
 3988              	.LVL395:
 997:ThirdParty/Letter-shell/Src/shell.c ****             {
 3989              		.loc 1 997 17 view .LVU1099
 3990 0060 FFF7FEFF 		bl	strcmp
 3991              	.LVL396:
 997:ThirdParty/Letter-shell/Src/shell.c ****             {
 3992              		.loc 1 997 16 view .LVU1100
 3993 0064 0028     		cmp	r0, #0
 3994 0066 E0D1     		bne	.L329
 3995 0068 00E0     		b	.L327
 3996              	.LVL397:
 3997              	.L334:
 997:ThirdParty/Letter-shell/Src/shell.c ****             {
 3998              		.loc 1 997 16 view .LVU1101
 3999              	.LBE34:
1010:ThirdParty/Letter-shell/Src/shell.c **** }
 4000              		.loc 1 1010 12 view .LVU1102
 4001 006a 0025     		movs	r5, #0
 4002              	.L327:
1011:ThirdParty/Letter-shell/Src/shell.c **** 
 4003              		.loc 1 1011 1 view .LVU1103
 4004 006c 2846     		mov	r0, r5
 4005 006e BDE8F087 		pop	{r4, r5, r6, r7, r8, r9, r10, pc}
1011:ThirdParty/Letter-shell/Src/shell.c **** 
 4006              		.loc 1 1011 1 view .LVU1104
 4007              		.cfi_endproc
 4008              	.LFE31:
 4010              		.section	.rodata.shellWriteCommandHelp.str1.4,"aMS",%progbits,1
 4011              		.align	2
 4012              	.LC24:
 4013 0000 636F6D6D 		.ascii	"command help of \000"
 4013      616E6420 
 4013      68656C70 
 4013      206F6620 
 4013      00
 4014 0011 000000   		.align	2
 4015              	.LC25:
 4016 0014 436F6D6D 		.ascii	"Command not Found\015\012\000"
 4016      616E6420 
 4016      6E6F7420 
 4016      466F756E 
 4016      640D0A00 
 4017              		.section	.text.shellWriteCommandHelp,"ax",%progbits
 4018              		.align	1
 4019              		.syntax unified
 4020              		.thumb
 4021              		.thumb_func
 4023              	shellWriteCommandHelp:
 4024              	.LVL398:
 4025              	.LFB52:
1672:ThirdParty/Letter-shell/Src/shell.c ****     ShellCommand *command = shellSeekCommand(shell,
 4026              		.loc 1 1672 1 is_stmt 1 view -0
 4027              		.cfi_startproc
 4028              		@ args = 0, pretend = 0, frame = 0
 4029              		@ frame_needed = 0, uses_anonymous_args = 0
ARM GAS  /var/folders/h7/llxr0vxd5sd9z74__7r6nx9r0000gn/T//ccSPSBV9.s 			page 122


1672:ThirdParty/Letter-shell/Src/shell.c ****     ShellCommand *command = shellSeekCommand(shell,
 4030              		.loc 1 1672 1 is_stmt 0 view .LVU1106
 4031 0000 70B5     		push	{r4, r5, r6, lr}
 4032              	.LCFI49:
 4033              		.cfi_def_cfa_offset 16
 4034              		.cfi_offset 4, -16
 4035              		.cfi_offset 5, -12
 4036              		.cfi_offset 6, -8
 4037              		.cfi_offset 14, -4
 4038 0002 0446     		mov	r4, r0
1673:ThirdParty/Letter-shell/Src/shell.c ****                                              cmd,
 4039              		.loc 1 1673 5 is_stmt 1 view .LVU1107
1673:ThirdParty/Letter-shell/Src/shell.c ****                                              cmd,
 4040              		.loc 1 1673 29 is_stmt 0 view .LVU1108
 4041 0004 0023     		movs	r3, #0
 4042 0006 826D     		ldr	r2, [r0, #88]
 4043 0008 FFF7FEFF 		bl	shellSeekCommand
 4044              	.LVL399:
1677:ThirdParty/Letter-shell/Src/shell.c ****     {
 4045              		.loc 1 1677 5 is_stmt 1 view .LVU1109
1677:ThirdParty/Letter-shell/Src/shell.c ****     {
 4046              		.loc 1 1677 8 is_stmt 0 view .LVU1110
 4047 000c E0B1     		cbz	r0, .L336
 4048 000e 0546     		mov	r5, r0
1679:ThirdParty/Letter-shell/Src/shell.c ****         shellWriteString(shell, shellGetCommandName(command));
 4049              		.loc 1 1679 9 is_stmt 1 view .LVU1111
 4050 0010 1049     		ldr	r1, .L339
 4051 0012 2046     		mov	r0, r4
 4052              	.LVL400:
1679:ThirdParty/Letter-shell/Src/shell.c ****         shellWriteString(shell, shellGetCommandName(command));
 4053              		.loc 1 1679 9 is_stmt 0 view .LVU1112
 4054 0014 FFF7FEFF 		bl	shellWriteString
 4055              	.LVL401:
1680:ThirdParty/Letter-shell/Src/shell.c ****         shellWriteString(shell, "\r\n");
 4056              		.loc 1 1680 9 is_stmt 1 view .LVU1113
 4057 0018 2846     		mov	r0, r5
 4058 001a FFF7FEFF 		bl	shellGetCommandName
 4059              	.LVL402:
 4060 001e 0146     		mov	r1, r0
 4061 0020 2046     		mov	r0, r4
 4062 0022 FFF7FEFF 		bl	shellWriteString
 4063              	.LVL403:
1681:ThirdParty/Letter-shell/Src/shell.c ****         shellWriteString(shell, shellGetCommandDesc(command));
 4064              		.loc 1 1681 9 view .LVU1114
 4065 0026 0C4E     		ldr	r6, .L339+4
 4066 0028 3146     		mov	r1, r6
 4067 002a 2046     		mov	r0, r4
 4068 002c FFF7FEFF 		bl	shellWriteString
 4069              	.LVL404:
1682:ThirdParty/Letter-shell/Src/shell.c ****         shellWriteString(shell, "\r\n");
 4070              		.loc 1 1682 9 view .LVU1115
 4071 0030 2846     		mov	r0, r5
 4072 0032 FFF7FEFF 		bl	shellGetCommandDesc
 4073              	.LVL405:
 4074 0036 0146     		mov	r1, r0
 4075 0038 2046     		mov	r0, r4
 4076 003a FFF7FEFF 		bl	shellWriteString
ARM GAS  /var/folders/h7/llxr0vxd5sd9z74__7r6nx9r0000gn/T//ccSPSBV9.s 			page 123


 4077              	.LVL406:
1683:ThirdParty/Letter-shell/Src/shell.c ****     }
 4078              		.loc 1 1683 9 view .LVU1116
 4079 003e 3146     		mov	r1, r6
 4080 0040 2046     		mov	r0, r4
 4081 0042 FFF7FEFF 		bl	shellWriteString
 4082              	.LVL407:
 4083              	.L335:
1689:ThirdParty/Letter-shell/Src/shell.c **** 
 4084              		.loc 1 1689 1 is_stmt 0 view .LVU1117
 4085 0046 70BD     		pop	{r4, r5, r6, pc}
 4086              	.LVL408:
 4087              	.L336:
1687:ThirdParty/Letter-shell/Src/shell.c ****     }
 4088              		.loc 1 1687 9 is_stmt 1 view .LVU1118
 4089 0048 0449     		ldr	r1, .L339+8
 4090 004a 2046     		mov	r0, r4
 4091              	.LVL409:
1687:ThirdParty/Letter-shell/Src/shell.c ****     }
 4092              		.loc 1 1687 9 is_stmt 0 view .LVU1119
 4093 004c FFF7FEFF 		bl	shellWriteString
 4094              	.LVL410:
1689:ThirdParty/Letter-shell/Src/shell.c **** 
 4095              		.loc 1 1689 1 view .LVU1120
 4096 0050 F9E7     		b	.L335
 4097              	.L340:
 4098 0052 00BF     		.align	2
 4099              	.L339:
 4100 0054 00000000 		.word	.LC24
 4101 0058 04000000 		.word	.LC2
 4102 005c 14000000 		.word	.LC25
 4103              		.cfi_endproc
 4104              	.LFE52:
 4106              		.section	.text.shellHelp,"ax",%progbits
 4107              		.align	1
 4108              		.global	shellHelp
 4109              		.syntax unified
 4110              		.thumb
 4111              		.thumb_func
 4113              	shellHelp:
 4114              	.LVL411:
 4115              	.LFB53:
1698:ThirdParty/Letter-shell/Src/shell.c ****     Shell *shell = shellGetCurrent();
 4116              		.loc 1 1698 1 is_stmt 1 view -0
 4117              		.cfi_startproc
 4118              		@ args = 0, pretend = 0, frame = 0
 4119              		@ frame_needed = 0, uses_anonymous_args = 0
1698:ThirdParty/Letter-shell/Src/shell.c ****     Shell *shell = shellGetCurrent();
 4120              		.loc 1 1698 1 is_stmt 0 view .LVU1122
 4121 0000 38B5     		push	{r3, r4, r5, lr}
 4122              	.LCFI50:
 4123              		.cfi_def_cfa_offset 16
 4124              		.cfi_offset 3, -16
 4125              		.cfi_offset 4, -12
 4126              		.cfi_offset 5, -8
 4127              		.cfi_offset 14, -4
 4128 0002 0446     		mov	r4, r0
ARM GAS  /var/folders/h7/llxr0vxd5sd9z74__7r6nx9r0000gn/T//ccSPSBV9.s 			page 124


 4129 0004 0D46     		mov	r5, r1
1699:ThirdParty/Letter-shell/Src/shell.c ****     SHELL_ASSERT(shell, return);
 4130              		.loc 1 1699 5 is_stmt 1 view .LVU1123
1699:ThirdParty/Letter-shell/Src/shell.c ****     SHELL_ASSERT(shell, return);
 4131              		.loc 1 1699 20 is_stmt 0 view .LVU1124
 4132 0006 FFF7FEFF 		bl	shellGetCurrent
 4133              	.LVL412:
1700:ThirdParty/Letter-shell/Src/shell.c ****     if (argc == 1)
 4134              		.loc 1 1700 5 is_stmt 1 view .LVU1125
 4135 000a 18B1     		cbz	r0, .L341
1700:ThirdParty/Letter-shell/Src/shell.c ****     if (argc == 1)
 4136              		.loc 1 1700 32 discriminator 2 view .LVU1126
1701:ThirdParty/Letter-shell/Src/shell.c ****     {
 4137              		.loc 1 1701 5 discriminator 2 view .LVU1127
1701:ThirdParty/Letter-shell/Src/shell.c ****     {
 4138              		.loc 1 1701 8 is_stmt 0 discriminator 2 view .LVU1128
 4139 000c 012C     		cmp	r4, #1
 4140 000e 02D0     		beq	.L345
1705:ThirdParty/Letter-shell/Src/shell.c ****     {
 4141              		.loc 1 1705 10 is_stmt 1 view .LVU1129
1705:ThirdParty/Letter-shell/Src/shell.c ****     {
 4142              		.loc 1 1705 13 is_stmt 0 view .LVU1130
 4143 0010 012C     		cmp	r4, #1
 4144 0012 03DC     		bgt	.L346
 4145              	.LVL413:
 4146              	.L341:
1709:ThirdParty/Letter-shell/Src/shell.c **** SHELL_EXPORT_CMD(
 4147              		.loc 1 1709 1 view .LVU1131
 4148 0014 38BD     		pop	{r3, r4, r5, pc}
 4149              	.LVL414:
 4150              	.L345:
1703:ThirdParty/Letter-shell/Src/shell.c ****     }
 4151              		.loc 1 1703 9 is_stmt 1 view .LVU1132
 4152 0016 FFF7FEFF 		bl	shellListAll
 4153              	.LVL415:
1703:ThirdParty/Letter-shell/Src/shell.c ****     }
 4154              		.loc 1 1703 9 is_stmt 0 view .LVU1133
 4155 001a FBE7     		b	.L341
 4156              	.LVL416:
 4157              	.L346:
1707:ThirdParty/Letter-shell/Src/shell.c ****     }
 4158              		.loc 1 1707 9 is_stmt 1 view .LVU1134
 4159 001c 6968     		ldr	r1, [r5, #4]
 4160 001e FFF7FEFF 		bl	shellWriteCommandHelp
 4161              	.LVL417:
1707:ThirdParty/Letter-shell/Src/shell.c ****     }
 4162              		.loc 1 1707 9 is_stmt 0 view .LVU1135
 4163 0022 F7E7     		b	.L341
 4164              		.cfi_endproc
 4165              	.LFE53:
 4167              		.section	.text.shellGetVarValue,"ax",%progbits
 4168              		.align	1
 4169              		.global	shellGetVarValue
 4170              		.syntax unified
 4171              		.thumb
 4172              		.thumb_func
 4174              	shellGetVarValue:
ARM GAS  /var/folders/h7/llxr0vxd5sd9z74__7r6nx9r0000gn/T//ccSPSBV9.s 			page 125


 4175              	.LVL418:
 4176              	.LFB32:
1022:ThirdParty/Letter-shell/Src/shell.c ****     int value = 0;
 4177              		.loc 1 1022 1 is_stmt 1 view -0
 4178              		.cfi_startproc
 4179              		@ args = 0, pretend = 0, frame = 0
 4180              		@ frame_needed = 0, uses_anonymous_args = 0
1022:ThirdParty/Letter-shell/Src/shell.c ****     int value = 0;
 4181              		.loc 1 1022 1 is_stmt 0 view .LVU1137
 4182 0000 08B5     		push	{r3, lr}
 4183              	.LCFI51:
 4184              		.cfi_def_cfa_offset 8
 4185              		.cfi_offset 3, -8
 4186              		.cfi_offset 14, -4
1023:ThirdParty/Letter-shell/Src/shell.c ****     switch (command->attr.attrs.type)
 4187              		.loc 1 1023 5 is_stmt 1 view .LVU1138
 4188              	.LVL419:
1024:ThirdParty/Letter-shell/Src/shell.c ****     {
 4189              		.loc 1 1024 5 view .LVU1139
1024:ThirdParty/Letter-shell/Src/shell.c ****     {
 4190              		.loc 1 1024 32 is_stmt 0 view .LVU1140
 4191 0002 4B78     		ldrb	r3, [r1, #1]	@ zero_extendqisi2
 4192 0004 03F00F03 		and	r3, r3, #15
1024:ThirdParty/Letter-shell/Src/shell.c ****     {
 4193              		.loc 1 1024 5 view .LVU1141
 4194 0008 023B     		subs	r3, r3, #2
 4195 000a 052B     		cmp	r3, #5
 4196 000c 16D8     		bhi	.L355
 4197 000e DFE803F0 		tbb	[pc, r3]
 4198              	.L350:
 4199 0012 03       		.byte	(.L354-.L350)/2
 4200 0013 06       		.byte	(.L353-.L350)/2
 4201 0014 0A       		.byte	(.L352-.L350)/2
 4202 0015 0D       		.byte	(.L351-.L350)/2
 4203 0016 0D       		.byte	(.L351-.L350)/2
 4204 0017 0F       		.byte	(.L349-.L350)/2
 4205              		.p2align 1
 4206              	.L354:
1027:ThirdParty/Letter-shell/Src/shell.c ****         break;
 4207              		.loc 1 1027 9 is_stmt 1 view .LVU1142
1027:ThirdParty/Letter-shell/Src/shell.c ****         break;
 4208              		.loc 1 1027 44 is_stmt 0 view .LVU1143
 4209 0018 8B68     		ldr	r3, [r1, #8]
1027:ThirdParty/Letter-shell/Src/shell.c ****         break;
 4210              		.loc 1 1027 15 view .LVU1144
 4211 001a 1868     		ldr	r0, [r3]
 4212              	.LVL420:
1028:ThirdParty/Letter-shell/Src/shell.c ****     case SHELL_TYPE_VAR_SHORT:
 4213              		.loc 1 1028 9 is_stmt 1 view .LVU1145
 4214              	.L347:
1048:ThirdParty/Letter-shell/Src/shell.c **** 
 4215              		.loc 1 1048 1 is_stmt 0 view .LVU1146
 4216 001c 08BD     		pop	{r3, pc}
 4217              	.LVL421:
 4218              	.L353:
1030:ThirdParty/Letter-shell/Src/shell.c ****         break;
 4219              		.loc 1 1030 9 is_stmt 1 view .LVU1147
ARM GAS  /var/folders/h7/llxr0vxd5sd9z74__7r6nx9r0000gn/T//ccSPSBV9.s 			page 126


1030:ThirdParty/Letter-shell/Src/shell.c ****         break;
 4220              		.loc 1 1030 46 is_stmt 0 view .LVU1148
 4221 001e 8B68     		ldr	r3, [r1, #8]
1030:ThirdParty/Letter-shell/Src/shell.c ****         break;
 4222              		.loc 1 1030 17 view .LVU1149
 4223 0020 B3F90000 		ldrsh	r0, [r3]
 4224              	.LVL422:
1031:ThirdParty/Letter-shell/Src/shell.c ****     case SHELL_TYPE_VAR_CHAR:
 4225              		.loc 1 1031 9 is_stmt 1 view .LVU1150
 4226 0024 FAE7     		b	.L347
 4227              	.LVL423:
 4228              	.L352:
1033:ThirdParty/Letter-shell/Src/shell.c ****         break;
 4229              		.loc 1 1033 9 view .LVU1151
1033:ThirdParty/Letter-shell/Src/shell.c ****         break;
 4230              		.loc 1 1033 45 is_stmt 0 view .LVU1152
 4231 0026 8B68     		ldr	r3, [r1, #8]
1033:ThirdParty/Letter-shell/Src/shell.c ****         break;
 4232              		.loc 1 1033 17 view .LVU1153
 4233 0028 1878     		ldrb	r0, [r3]	@ zero_extendqisi2
 4234              	.LVL424:
1034:ThirdParty/Letter-shell/Src/shell.c ****     case SHELL_TYPE_VAR_STRING:
 4235              		.loc 1 1034 9 is_stmt 1 view .LVU1154
 4236 002a F7E7     		b	.L347
 4237              	.LVL425:
 4238              	.L351:
1037:ThirdParty/Letter-shell/Src/shell.c ****         break;
 4239              		.loc 1 1037 9 view .LVU1155
1037:ThirdParty/Letter-shell/Src/shell.c ****         break;
 4240              		.loc 1 1037 40 is_stmt 0 view .LVU1156
 4241 002c 8868     		ldr	r0, [r1, #8]
 4242              	.LVL426:
1038:ThirdParty/Letter-shell/Src/shell.c ****     case SHELL_TYPE_VAR_NODE:
 4243              		.loc 1 1038 9 is_stmt 1 view .LVU1157
 4244 002e F5E7     		b	.L347
 4245              	.LVL427:
 4246              	.L349:
1040:ThirdParty/Letter-shell/Src/shell.c ****                     ((ShellNodeVarAttr *)command->data.var.value)
 4247              		.loc 1 1040 9 view .LVU1158
1040:ThirdParty/Letter-shell/Src/shell.c ****                     ((ShellNodeVarAttr *)command->data.var.value)
 4248              		.loc 1 1040 55 is_stmt 0 view .LVU1159
 4249 0030 8A68     		ldr	r2, [r1, #8]
1040:ThirdParty/Letter-shell/Src/shell.c ****                     ((ShellNodeVarAttr *)command->data.var.value)
 4250              		.loc 1 1040 62 view .LVU1160
 4251 0032 5368     		ldr	r3, [r2, #4]
1042:ThirdParty/Letter-shell/Src/shell.c ****         break;
 4252              		.loc 1 1042 83 view .LVU1161
 4253 0034 23B1     		cbz	r3, .L356
1041:ThirdParty/Letter-shell/Src/shell.c ****                         ->get(((ShellNodeVarAttr *)command->data.var.value)->var) : 0;
 4254              		.loc 1 1041 22 view .LVU1162
 4255 0036 1068     		ldr	r0, [r2]
 4256              	.LVL428:
1041:ThirdParty/Letter-shell/Src/shell.c ****                         ->get(((ShellNodeVarAttr *)command->data.var.value)->var) : 0;
 4257              		.loc 1 1041 22 view .LVU1163
 4258 0038 9847     		blx	r3
 4259              	.LVL429:
1041:ThirdParty/Letter-shell/Src/shell.c ****                         ->get(((ShellNodeVarAttr *)command->data.var.value)->var) : 0;
ARM GAS  /var/folders/h7/llxr0vxd5sd9z74__7r6nx9r0000gn/T//ccSPSBV9.s 			page 127


 4260              		.loc 1 1041 22 view .LVU1164
 4261 003a EFE7     		b	.L347
 4262              	.LVL430:
 4263              	.L355:
1024:ThirdParty/Letter-shell/Src/shell.c ****     {
 4264              		.loc 1 1024 5 view .LVU1165
 4265 003c 0020     		movs	r0, #0
 4266              	.LVL431:
1024:ThirdParty/Letter-shell/Src/shell.c ****     {
 4267              		.loc 1 1024 5 view .LVU1166
 4268 003e EDE7     		b	.L347
 4269              	.LVL432:
 4270              	.L356:
1042:ThirdParty/Letter-shell/Src/shell.c ****         break;
 4271              		.loc 1 1042 83 view .LVU1167
 4272 0040 0020     		movs	r0, #0
 4273              	.LVL433:
1047:ThirdParty/Letter-shell/Src/shell.c **** }
 4274              		.loc 1 1047 5 is_stmt 1 view .LVU1168
1047:ThirdParty/Letter-shell/Src/shell.c **** }
 4275              		.loc 1 1047 12 is_stmt 0 view .LVU1169
 4276 0042 EBE7     		b	.L347
 4277              		.cfi_endproc
 4278              	.LFE32:
 4280              		.section	.rodata.shellShowVar.str1.4,"aMS",%progbits,1
 4281              		.align	2
 4282              	.LC26:
 4283 0000 203D2000 		.ascii	" = \000"
 4284              		.align	2
 4285              	.LC27:
 4286 0004 2200     		.ascii	"\"\000"
 4287              		.section	.text.shellShowVar,"ax",%progbits
 4288              		.align	1
 4289              		.syntax unified
 4290              		.thumb
 4291              		.thumb_func
 4293              	shellShowVar:
 4294              	.LVL434:
 4295              	.LFB34:
1114:ThirdParty/Letter-shell/Src/shell.c ****     char buffer[12] = "00000000000";
 4296              		.loc 1 1114 1 is_stmt 1 view -0
 4297              		.cfi_startproc
 4298              		@ args = 0, pretend = 0, frame = 16
 4299              		@ frame_needed = 0, uses_anonymous_args = 0
1114:ThirdParty/Letter-shell/Src/shell.c ****     char buffer[12] = "00000000000";
 4300              		.loc 1 1114 1 is_stmt 0 view .LVU1171
 4301 0000 70B5     		push	{r4, r5, r6, lr}
 4302              	.LCFI52:
 4303              		.cfi_def_cfa_offset 16
 4304              		.cfi_offset 4, -16
 4305              		.cfi_offset 5, -12
 4306              		.cfi_offset 6, -8
 4307              		.cfi_offset 14, -4
 4308 0002 84B0     		sub	sp, sp, #16
 4309              	.LCFI53:
 4310              		.cfi_def_cfa_offset 32
 4311 0004 0446     		mov	r4, r0
ARM GAS  /var/folders/h7/llxr0vxd5sd9z74__7r6nx9r0000gn/T//ccSPSBV9.s 			page 128


 4312 0006 0D46     		mov	r5, r1
1115:ThirdParty/Letter-shell/Src/shell.c ****     int value = shellGetVarValue(shell, command);
 4313              		.loc 1 1115 5 is_stmt 1 view .LVU1172
1115:ThirdParty/Letter-shell/Src/shell.c ****     int value = shellGetVarValue(shell, command);
 4314              		.loc 1 1115 10 is_stmt 0 view .LVU1173
 4315 0008 284B     		ldr	r3, .L365
 4316 000a 93E80700 		ldm	r3, {r0, r1, r2}
 4317              	.LVL435:
1115:ThirdParty/Letter-shell/Src/shell.c ****     int value = shellGetVarValue(shell, command);
 4318              		.loc 1 1115 10 view .LVU1174
 4319 000e 04AB     		add	r3, sp, #16
 4320 0010 03E90700 		stmdb	r3, {r0, r1, r2}
1116:ThirdParty/Letter-shell/Src/shell.c ****     
 4321              		.loc 1 1116 5 is_stmt 1 view .LVU1175
1116:ThirdParty/Letter-shell/Src/shell.c ****     
 4322              		.loc 1 1116 17 is_stmt 0 view .LVU1176
 4323 0014 2946     		mov	r1, r5
 4324 0016 2046     		mov	r0, r4
 4325 0018 FFF7FEFF 		bl	shellGetVarValue
 4326              	.LVL436:
 4327 001c 0646     		mov	r6, r0
 4328              	.LVL437:
1118:ThirdParty/Letter-shell/Src/shell.c ****     shellWriteString(shell, " = ");
 4329              		.loc 1 1118 5 is_stmt 1 view .LVU1177
 4330 001e 6968     		ldr	r1, [r5, #4]
 4331 0020 2046     		mov	r0, r4
 4332              	.LVL438:
1118:ThirdParty/Letter-shell/Src/shell.c ****     shellWriteString(shell, " = ");
 4333              		.loc 1 1118 5 is_stmt 0 view .LVU1178
 4334 0022 FFF7FEFF 		bl	shellWriteString
 4335              	.LVL439:
1119:ThirdParty/Letter-shell/Src/shell.c **** 
 4336              		.loc 1 1119 5 is_stmt 1 view .LVU1179
 4337 0026 2249     		ldr	r1, .L365+4
 4338 0028 2046     		mov	r0, r4
 4339 002a FFF7FEFF 		bl	shellWriteString
 4340              	.LVL440:
1121:ThirdParty/Letter-shell/Src/shell.c ****     {
 4341              		.loc 1 1121 5 view .LVU1180
1121:ThirdParty/Letter-shell/Src/shell.c ****     {
 4342              		.loc 1 1121 32 is_stmt 0 view .LVU1181
 4343 002e 6B78     		ldrb	r3, [r5, #1]	@ zero_extendqisi2
 4344 0030 03F00F03 		and	r3, r3, #15
1121:ThirdParty/Letter-shell/Src/shell.c ****     {
 4345              		.loc 1 1121 5 view .LVU1182
 4346 0034 052B     		cmp	r3, #5
 4347 0036 10D0     		beq	.L364
1133:ThirdParty/Letter-shell/Src/shell.c ****         shellWriteString(shell, ", 0x");
 4348              		.loc 1 1133 9 is_stmt 1 view .LVU1183
1133:ThirdParty/Letter-shell/Src/shell.c ****         shellWriteString(shell, ", 0x");
 4349              		.loc 1 1133 46 is_stmt 0 view .LVU1184
 4350 0038 01A9     		add	r1, sp, #4
 4351 003a 3046     		mov	r0, r6
 4352 003c FFF7FEFF 		bl	shellToDec
 4353              	.LVL441:
1133:ThirdParty/Letter-shell/Src/shell.c ****         shellWriteString(shell, ", 0x");
 4354              		.loc 1 1133 44 view .LVU1185
ARM GAS  /var/folders/h7/llxr0vxd5sd9z74__7r6nx9r0000gn/T//ccSPSBV9.s 			page 129


 4355 0040 C0F10B01 		rsb	r1, r0, #11
1133:ThirdParty/Letter-shell/Src/shell.c ****         shellWriteString(shell, ", 0x");
 4356              		.loc 1 1133 9 view .LVU1186
 4357 0044 01AB     		add	r3, sp, #4
 4358 0046 1944     		add	r1, r1, r3
 4359 0048 2046     		mov	r0, r4
 4360 004a FFF7FEFF 		bl	shellWriteString
 4361              	.LVL442:
1134:ThirdParty/Letter-shell/Src/shell.c ****         for (short i = 0; i < 11; i++)
 4362              		.loc 1 1134 9 is_stmt 1 view .LVU1187
 4363 004e 1949     		ldr	r1, .L365+8
 4364 0050 2046     		mov	r0, r4
 4365 0052 FFF7FEFF 		bl	shellWriteString
 4366              	.LVL443:
1135:ThirdParty/Letter-shell/Src/shell.c ****         {
 4367              		.loc 1 1135 9 view .LVU1188
 4368              	.LBB35:
1135:ThirdParty/Letter-shell/Src/shell.c ****         {
 4369              		.loc 1 1135 14 view .LVU1189
1135:ThirdParty/Letter-shell/Src/shell.c ****         {
 4370              		.loc 1 1135 20 is_stmt 0 view .LVU1190
 4371 0056 0023     		movs	r3, #0
1135:ThirdParty/Letter-shell/Src/shell.c ****         {
 4372              		.loc 1 1135 9 view .LVU1191
 4373 0058 16E0     		b	.L361
 4374              	.LVL444:
 4375              	.L364:
1135:ThirdParty/Letter-shell/Src/shell.c ****         {
 4376              		.loc 1 1135 9 view .LVU1192
 4377              	.LBE35:
1124:ThirdParty/Letter-shell/Src/shell.c ****         shellWriteString(shell, (char *)value);
 4378              		.loc 1 1124 9 is_stmt 1 view .LVU1193
 4379 005a 174D     		ldr	r5, .L365+12
 4380              	.LVL445:
1124:ThirdParty/Letter-shell/Src/shell.c ****         shellWriteString(shell, (char *)value);
 4381              		.loc 1 1124 9 is_stmt 0 view .LVU1194
 4382 005c 2946     		mov	r1, r5
 4383 005e 2046     		mov	r0, r4
 4384 0060 FFF7FEFF 		bl	shellWriteString
 4385              	.LVL446:
1125:ThirdParty/Letter-shell/Src/shell.c ****         shellWriteString(shell, "\"");
 4386              		.loc 1 1125 9 is_stmt 1 view .LVU1195
 4387 0064 3146     		mov	r1, r6
 4388 0066 2046     		mov	r0, r4
 4389 0068 FFF7FEFF 		bl	shellWriteString
 4390              	.LVL447:
1126:ThirdParty/Letter-shell/Src/shell.c ****         break;
 4391              		.loc 1 1126 9 view .LVU1196
 4392 006c 2946     		mov	r1, r5
 4393 006e 2046     		mov	r0, r4
 4394 0070 FFF7FEFF 		bl	shellWriteString
 4395              	.LVL448:
1127:ThirdParty/Letter-shell/Src/shell.c ****     // case SHELL_TYPE_VAR_INT:
 4396              		.loc 1 1127 9 view .LVU1197
 4397 0074 12E0     		b	.L360
 4398              	.LVL449:
 4399              	.L362:
ARM GAS  /var/folders/h7/llxr0vxd5sd9z74__7r6nx9r0000gn/T//ccSPSBV9.s 			page 130


 4400              	.LBB36:
1137:ThirdParty/Letter-shell/Src/shell.c ****         }
 4401              		.loc 1 1137 13 discriminator 3 view .LVU1198
1137:ThirdParty/Letter-shell/Src/shell.c ****         }
 4402              		.loc 1 1137 23 is_stmt 0 discriminator 3 view .LVU1199
 4403 0076 03F11002 		add	r2, r3, #16
 4404 007a 6A44     		add	r2, sp, r2
 4405 007c 4FF0300C 		mov	ip, #48
 4406 0080 02F80CCC 		strb	ip, [r2, #-12]
1135:ThirdParty/Letter-shell/Src/shell.c ****         {
 4407              		.loc 1 1135 36 is_stmt 1 discriminator 3 view .LVU1200
 4408 0084 0133     		adds	r3, r3, #1
 4409              	.LVL450:
1135:ThirdParty/Letter-shell/Src/shell.c ****         {
 4410              		.loc 1 1135 36 is_stmt 0 discriminator 3 view .LVU1201
 4411 0086 1BB2     		sxth	r3, r3
 4412              	.LVL451:
 4413              	.L361:
1135:ThirdParty/Letter-shell/Src/shell.c ****         {
 4414              		.loc 1 1135 29 is_stmt 1 discriminator 1 view .LVU1202
 4415 0088 0A2B     		cmp	r3, #10
 4416 008a F4DD     		ble	.L362
 4417              	.LBE36:
1139:ThirdParty/Letter-shell/Src/shell.c ****         shellWriteString(shell, buffer);
 4418              		.loc 1 1139 9 view .LVU1203
 4419 008c 01A9     		add	r1, sp, #4
 4420 008e 3046     		mov	r0, r6
 4421 0090 FFF7FEFF 		bl	shellToHex
 4422              	.LVL452:
1140:ThirdParty/Letter-shell/Src/shell.c ****         break;
 4423              		.loc 1 1140 9 view .LVU1204
 4424 0094 01A9     		add	r1, sp, #4
 4425 0096 2046     		mov	r0, r4
 4426 0098 FFF7FEFF 		bl	shellWriteString
 4427              	.LVL453:
1141:ThirdParty/Letter-shell/Src/shell.c ****     }
 4428              		.loc 1 1141 9 view .LVU1205
 4429              	.L360:
1144:ThirdParty/Letter-shell/Src/shell.c ****     return value;
 4430              		.loc 1 1144 5 view .LVU1206
 4431 009c 0749     		ldr	r1, .L365+16
 4432 009e 2046     		mov	r0, r4
 4433 00a0 FFF7FEFF 		bl	shellWriteString
 4434              	.LVL454:
1145:ThirdParty/Letter-shell/Src/shell.c **** }
 4435              		.loc 1 1145 5 view .LVU1207
1146:ThirdParty/Letter-shell/Src/shell.c **** 
 4436              		.loc 1 1146 1 is_stmt 0 view .LVU1208
 4437 00a4 3046     		mov	r0, r6
 4438 00a6 04B0     		add	sp, sp, #16
 4439              	.LCFI54:
 4440              		.cfi_def_cfa_offset 16
 4441              		@ sp needed
 4442 00a8 70BD     		pop	{r4, r5, r6, pc}
 4443              	.LVL455:
 4444              	.L366:
1146:ThirdParty/Letter-shell/Src/shell.c **** 
ARM GAS  /var/folders/h7/llxr0vxd5sd9z74__7r6nx9r0000gn/T//ccSPSBV9.s 			page 131


 4445              		.loc 1 1146 1 view .LVU1209
 4446 00aa 00BF     		.align	2
 4447              	.L365:
 4448 00ac 14000000 		.word	.LC9
 4449 00b0 00000000 		.word	.LC26
 4450 00b4 0C000000 		.word	.LC11
 4451 00b8 04000000 		.word	.LC27
 4452 00bc 04000000 		.word	.LC2
 4453              		.cfi_endproc
 4454              	.LFE34:
 4456              		.section	.rodata.shellSetVarValue.str1.4,"aMS",%progbits,1
 4457              		.align	2
 4458              	.LC28:
 4459 0000 63616E27 		.ascii	"can't set read only var\015\012\000"
 4459      74207365 
 4459      74207265 
 4459      6164206F 
 4459      6E6C7920 
 4460 001a 0000     		.align	2
 4461              	.LC29:
 4462 001c 63616E27 		.ascii	"can't set pointer\015\012\000"
 4462      74207365 
 4462      7420706F 
 4462      696E7465 
 4462      720D0A00 
 4463              		.section	.text.shellSetVarValue,"ax",%progbits
 4464              		.align	1
 4465              		.global	shellSetVarValue
 4466              		.syntax unified
 4467              		.thumb
 4468              		.thumb_func
 4470              	shellSetVarValue:
 4471              	.LVL456:
 4472              	.LFB33:
1060:ThirdParty/Letter-shell/Src/shell.c ****     if (command->attr.attrs.readOnly)
 4473              		.loc 1 1060 1 is_stmt 1 view -0
 4474              		.cfi_startproc
 4475              		@ args = 0, pretend = 0, frame = 0
 4476              		@ frame_needed = 0, uses_anonymous_args = 0
1060:ThirdParty/Letter-shell/Src/shell.c ****     if (command->attr.attrs.readOnly)
 4477              		.loc 1 1060 1 is_stmt 0 view .LVU1211
 4478 0000 70B5     		push	{r4, r5, r6, lr}
 4479              	.LCFI55:
 4480              		.cfi_def_cfa_offset 16
 4481              		.cfi_offset 4, -16
 4482              		.cfi_offset 5, -12
 4483              		.cfi_offset 6, -8
 4484              		.cfi_offset 14, -4
 4485 0002 0546     		mov	r5, r0
 4486 0004 0C46     		mov	r4, r1
1061:ThirdParty/Letter-shell/Src/shell.c ****     {
 4487              		.loc 1 1061 5 is_stmt 1 view .LVU1212
1061:ThirdParty/Letter-shell/Src/shell.c ****     {
 4488              		.loc 1 1061 9 is_stmt 0 view .LVU1213
 4489 0006 4B78     		ldrb	r3, [r1, #1]	@ zero_extendqisi2
1061:ThirdParty/Letter-shell/Src/shell.c ****     {
 4490              		.loc 1 1061 8 view .LVU1214
ARM GAS  /var/folders/h7/llxr0vxd5sd9z74__7r6nx9r0000gn/T//ccSPSBV9.s 			page 132


 4491 0008 13F0400F 		tst	r3, #64
 4492 000c 0AD1     		bne	.L380
1067:ThirdParty/Letter-shell/Src/shell.c ****         {
 4493              		.loc 1 1067 9 is_stmt 1 view .LVU1215
1067:ThirdParty/Letter-shell/Src/shell.c ****         {
 4494              		.loc 1 1067 36 is_stmt 0 view .LVU1216
 4495 000e 4B78     		ldrb	r3, [r1, #1]	@ zero_extendqisi2
 4496 0010 03F00F03 		and	r3, r3, #15
1067:ThirdParty/Letter-shell/Src/shell.c ****         {
 4497              		.loc 1 1067 9 view .LVU1217
 4498 0014 023B     		subs	r3, r3, #2
 4499 0016 052B     		cmp	r3, #5
 4500 0018 07D8     		bhi	.L369
 4501 001a DFE803F0 		tbb	[pc, r3]
 4502              	.LVL457:
 4503              	.L371:
 4504 001e 0B       		.byte	(.L376-.L371)/2
 4505 001f 0E       		.byte	(.L375-.L371)/2
 4506 0020 11       		.byte	(.L374-.L371)/2
 4507 0021 14       		.byte	(.L373-.L371)/2
 4508 0022 19       		.byte	(.L372-.L371)/2
 4509 0023 1D       		.byte	(.L370-.L371)/2
 4510              		.p2align 1
 4511              	.L380:
1063:ThirdParty/Letter-shell/Src/shell.c ****     }
 4512              		.loc 1 1063 9 is_stmt 1 view .LVU1218
 4513 0024 1249     		ldr	r1, .L381
 4514              	.LVL458:
1063:ThirdParty/Letter-shell/Src/shell.c ****     }
 4515              		.loc 1 1063 9 is_stmt 0 view .LVU1219
 4516 0026 FFF7FEFF 		bl	shellWriteString
 4517              	.LVL459:
 4518              	.L369:
1102:ThirdParty/Letter-shell/Src/shell.c **** }
 4519              		.loc 1 1102 5 is_stmt 1 view .LVU1220
1102:ThirdParty/Letter-shell/Src/shell.c **** }
 4520              		.loc 1 1102 12 is_stmt 0 view .LVU1221
 4521 002a 2146     		mov	r1, r4
 4522 002c 2846     		mov	r0, r5
 4523 002e FFF7FEFF 		bl	shellShowVar
 4524              	.LVL460:
1103:ThirdParty/Letter-shell/Src/shell.c **** 
 4525              		.loc 1 1103 1 view .LVU1222
 4526 0032 70BD     		pop	{r4, r5, r6, pc}
 4527              	.LVL461:
 4528              	.L376:
1070:ThirdParty/Letter-shell/Src/shell.c ****             break;
 4529              		.loc 1 1070 13 is_stmt 1 view .LVU1223
1070:ThirdParty/Letter-shell/Src/shell.c ****             break;
 4530              		.loc 1 1070 40 is_stmt 0 view .LVU1224
 4531 0034 A368     		ldr	r3, [r4, #8]
1070:ThirdParty/Letter-shell/Src/shell.c ****             break;
 4532              		.loc 1 1070 49 view .LVU1225
 4533 0036 1A60     		str	r2, [r3]
1071:ThirdParty/Letter-shell/Src/shell.c ****         case SHELL_TYPE_VAR_SHORT:
 4534              		.loc 1 1071 13 is_stmt 1 view .LVU1226
 4535 0038 F7E7     		b	.L369
ARM GAS  /var/folders/h7/llxr0vxd5sd9z74__7r6nx9r0000gn/T//ccSPSBV9.s 			page 133


 4536              	.L375:
1073:ThirdParty/Letter-shell/Src/shell.c ****             break;
 4537              		.loc 1 1073 13 view .LVU1227
1073:ThirdParty/Letter-shell/Src/shell.c ****             break;
 4538              		.loc 1 1073 42 is_stmt 0 view .LVU1228
 4539 003a A368     		ldr	r3, [r4, #8]
1073:ThirdParty/Letter-shell/Src/shell.c ****             break;
 4540              		.loc 1 1073 51 view .LVU1229
 4541 003c 1A80     		strh	r2, [r3]	@ movhi
1074:ThirdParty/Letter-shell/Src/shell.c ****         case SHELL_TYPE_VAR_CHAR:
 4542              		.loc 1 1074 13 is_stmt 1 view .LVU1230
 4543 003e F4E7     		b	.L369
 4544              	.L374:
1076:ThirdParty/Letter-shell/Src/shell.c ****             break;
 4545              		.loc 1 1076 13 view .LVU1231
1076:ThirdParty/Letter-shell/Src/shell.c ****             break;
 4546              		.loc 1 1076 41 is_stmt 0 view .LVU1232
 4547 0040 A368     		ldr	r3, [r4, #8]
1076:ThirdParty/Letter-shell/Src/shell.c ****             break;
 4548              		.loc 1 1076 50 view .LVU1233
 4549 0042 1A70     		strb	r2, [r3]
1077:ThirdParty/Letter-shell/Src/shell.c ****         case SHELL_TYPE_VAR_STRING:
 4550              		.loc 1 1077 13 is_stmt 1 view .LVU1234
 4551 0044 F1E7     		b	.L369
 4552              	.L373:
1079:ThirdParty/Letter-shell/Src/shell.c ****             break;
 4553              		.loc 1 1079 13 view .LVU1235
 4554 0046 1146     		mov	r1, r2
 4555 0048 A068     		ldr	r0, [r4, #8]
 4556              	.LVL462:
1079:ThirdParty/Letter-shell/Src/shell.c ****             break;
 4557              		.loc 1 1079 13 is_stmt 0 view .LVU1236
 4558 004a FFF7FEFF 		bl	shellStringCopy
 4559              	.LVL463:
1080:ThirdParty/Letter-shell/Src/shell.c ****         case SHELL_TYPE_VAR_POINT:
 4560              		.loc 1 1080 13 is_stmt 1 view .LVU1237
 4561 004e ECE7     		b	.L369
 4562              	.LVL464:
 4563              	.L372:
1082:ThirdParty/Letter-shell/Src/shell.c ****             break;
 4564              		.loc 1 1082 13 view .LVU1238
 4565 0050 0849     		ldr	r1, .L381+4
 4566 0052 FFF7FEFF 		bl	shellWriteString
 4567              	.LVL465:
1083:ThirdParty/Letter-shell/Src/shell.c ****         case SHELL_TYPE_VAR_NODE:
 4568              		.loc 1 1083 13 view .LVU1239
 4569 0056 E8E7     		b	.L369
 4570              	.LVL466:
 4571              	.L370:
1085:ThirdParty/Letter-shell/Src/shell.c ****             {
 4572              		.loc 1 1085 13 view .LVU1240
1085:ThirdParty/Letter-shell/Src/shell.c ****             {
 4573              		.loc 1 1085 55 is_stmt 0 view .LVU1241
 4574 0058 A368     		ldr	r3, [r4, #8]
1085:ThirdParty/Letter-shell/Src/shell.c ****             {
 4575              		.loc 1 1085 62 view .LVU1242
 4576 005a 9E68     		ldr	r6, [r3, #8]
ARM GAS  /var/folders/h7/llxr0vxd5sd9z74__7r6nx9r0000gn/T//ccSPSBV9.s 			page 134


1085:ThirdParty/Letter-shell/Src/shell.c ****             {
 4577              		.loc 1 1085 16 view .LVU1243
 4578 005c 002E     		cmp	r6, #0
 4579 005e E4D0     		beq	.L369
1087:ThirdParty/Letter-shell/Src/shell.c ****                 {
 4580              		.loc 1 1087 17 is_stmt 1 view .LVU1244
1087:ThirdParty/Letter-shell/Src/shell.c ****                 {
 4581              		.loc 1 1087 66 is_stmt 0 view .LVU1245
 4582 0060 1868     		ldr	r0, [r3]
 4583              	.LVL467:
1087:ThirdParty/Letter-shell/Src/shell.c ****                 {
 4584              		.loc 1 1087 20 view .LVU1246
 4585 0062 10B1     		cbz	r0, .L377
1089:ThirdParty/Letter-shell/Src/shell.c ****                         ->set(((ShellNodeVarAttr *)command->data.var.value)->var, value);
 4586              		.loc 1 1089 21 is_stmt 1 view .LVU1247
1089:ThirdParty/Letter-shell/Src/shell.c ****                         ->set(((ShellNodeVarAttr *)command->data.var.value)->var, value);
 4587              		.loc 1 1089 22 is_stmt 0 view .LVU1248
 4588 0064 1146     		mov	r1, r2
 4589 0066 B047     		blx	r6
 4590              	.LVL468:
1089:ThirdParty/Letter-shell/Src/shell.c ****                         ->set(((ShellNodeVarAttr *)command->data.var.value)->var, value);
 4591              		.loc 1 1089 22 view .LVU1249
 4592 0068 DFE7     		b	.L369
 4593              	.LVL469:
 4594              	.L377:
1094:ThirdParty/Letter-shell/Src/shell.c ****                 }
 4595              		.loc 1 1094 21 is_stmt 1 view .LVU1250
1094:ThirdParty/Letter-shell/Src/shell.c ****                 }
 4596              		.loc 1 1094 22 is_stmt 0 view .LVU1251
 4597 006a 1046     		mov	r0, r2
 4598 006c B047     		blx	r6
 4599              	.LVL470:
1094:ThirdParty/Letter-shell/Src/shell.c ****                 }
 4600              		.loc 1 1094 22 view .LVU1252
 4601 006e DCE7     		b	.L369
 4602              	.L382:
 4603              		.align	2
 4604              	.L381:
 4605 0070 00000000 		.word	.LC28
 4606 0074 1C000000 		.word	.LC29
 4607              		.cfi_endproc
 4608              	.LFE33:
 4610              		.section	.rodata.shellSetVar.str1.4,"aMS",%progbits,1
 4611              		.align	2
 4612              	.LC30:
 4613 0000 56617220 		.ascii	"Var not Fount\015\012\000"
 4613      6E6F7420 
 4613      466F756E 
 4613      740D0A00 
 4614              		.align	2
 4615              	.LC31:
 4616 0010 20697320 		.ascii	" is not a var\015\012\000"
 4616      6E6F7420 
 4616      61207661 
 4616      720D0A00 
 4617              		.section	.text.shellSetVar,"ax",%progbits
 4618              		.align	1
ARM GAS  /var/folders/h7/llxr0vxd5sd9z74__7r6nx9r0000gn/T//ccSPSBV9.s 			page 135


 4619              		.global	shellSetVar
 4620              		.syntax unified
 4621              		.thumb
 4622              		.thumb_func
 4624              	shellSetVar:
 4625              	.LVL471:
 4626              	.LFB35:
1157:ThirdParty/Letter-shell/Src/shell.c ****     Shell *shell = shellGetCurrent();
 4627              		.loc 1 1157 1 is_stmt 1 view -0
 4628              		.cfi_startproc
 4629              		@ args = 0, pretend = 0, frame = 0
 4630              		@ frame_needed = 0, uses_anonymous_args = 0
1157:ThirdParty/Letter-shell/Src/shell.c ****     Shell *shell = shellGetCurrent();
 4631              		.loc 1 1157 1 is_stmt 0 view .LVU1254
 4632 0000 70B5     		push	{r4, r5, r6, lr}
 4633              	.LCFI56:
 4634              		.cfi_def_cfa_offset 16
 4635              		.cfi_offset 4, -16
 4636              		.cfi_offset 5, -12
 4637              		.cfi_offset 6, -8
 4638              		.cfi_offset 14, -4
 4639 0002 0446     		mov	r4, r0
 4640 0004 0D46     		mov	r5, r1
1158:ThirdParty/Letter-shell/Src/shell.c ****     if (shell == NULL)
 4641              		.loc 1 1158 5 is_stmt 1 view .LVU1255
1158:ThirdParty/Letter-shell/Src/shell.c ****     if (shell == NULL)
 4642              		.loc 1 1158 20 is_stmt 0 view .LVU1256
 4643 0006 FFF7FEFF 		bl	shellGetCurrent
 4644              	.LVL472:
1159:ThirdParty/Letter-shell/Src/shell.c ****     {
 4645              		.loc 1 1159 5 is_stmt 1 view .LVU1257
1159:ThirdParty/Letter-shell/Src/shell.c ****     {
 4646              		.loc 1 1159 8 is_stmt 0 view .LVU1258
 4647 000a 20B3     		cbz	r0, .L387
 4648 000c 0646     		mov	r6, r0
1163:ThirdParty/Letter-shell/Src/shell.c ****                                              name,
 4649              		.loc 1 1163 5 is_stmt 1 view .LVU1259
1163:ThirdParty/Letter-shell/Src/shell.c ****                                              name,
 4650              		.loc 1 1163 29 is_stmt 0 view .LVU1260
 4651 000e 0023     		movs	r3, #0
 4652 0010 826D     		ldr	r2, [r0, #88]
 4653 0012 2146     		mov	r1, r4
 4654 0014 FFF7FEFF 		bl	shellSeekCommand
 4655              	.LVL473:
1167:ThirdParty/Letter-shell/Src/shell.c ****     {
 4656              		.loc 1 1167 5 is_stmt 1 view .LVU1261
1167:ThirdParty/Letter-shell/Src/shell.c ****     {
 4657              		.loc 1 1167 8 is_stmt 0 view .LVU1262
 4658 0018 0146     		mov	r1, r0
 4659 001a 60B1     		cbz	r0, .L389
1172:ThirdParty/Letter-shell/Src/shell.c ****         || command->attr.attrs.type > SHELL_TYPE_VAR_NODE)
 4660              		.loc 1 1172 5 is_stmt 1 view .LVU1263
1172:ThirdParty/Letter-shell/Src/shell.c ****         || command->attr.attrs.type > SHELL_TYPE_VAR_NODE)
 4661              		.loc 1 1172 28 is_stmt 0 view .LVU1264
 4662 001c 4378     		ldrb	r3, [r0, #1]	@ zero_extendqisi2
 4663 001e 03F00F03 		and	r3, r3, #15
1173:ThirdParty/Letter-shell/Src/shell.c ****     {
ARM GAS  /var/folders/h7/llxr0vxd5sd9z74__7r6nx9r0000gn/T//ccSPSBV9.s 			page 136


 4664              		.loc 1 1173 9 view .LVU1265
 4665 0022 0E33     		adds	r3, r3, #14
 4666 0024 03F00F03 		and	r3, r3, #15
1172:ThirdParty/Letter-shell/Src/shell.c ****         || command->attr.attrs.type > SHELL_TYPE_VAR_NODE)
 4667              		.loc 1 1172 8 view .LVU1266
 4668 0028 052B     		cmp	r3, #5
 4669 002a 0AD8     		bhi	.L390
1179:ThirdParty/Letter-shell/Src/shell.c **** }
 4670              		.loc 1 1179 5 is_stmt 1 view .LVU1267
1179:ThirdParty/Letter-shell/Src/shell.c **** }
 4671              		.loc 1 1179 12 is_stmt 0 view .LVU1268
 4672 002c 2A46     		mov	r2, r5
 4673 002e 3046     		mov	r0, r6
 4674              	.LVL474:
1179:ThirdParty/Letter-shell/Src/shell.c **** }
 4675              		.loc 1 1179 12 view .LVU1269
 4676 0030 FFF7FEFF 		bl	shellSetVarValue
 4677              	.LVL475:
 4678              	.L383:
1180:ThirdParty/Letter-shell/Src/shell.c **** SHELL_EXPORT_CMD(
 4679              		.loc 1 1180 1 view .LVU1270
 4680 0034 70BD     		pop	{r4, r5, r6, pc}
 4681              	.LVL476:
 4682              	.L389:
1169:ThirdParty/Letter-shell/Src/shell.c ****         return 0;
 4683              		.loc 1 1169 9 is_stmt 1 view .LVU1271
 4684 0036 0949     		ldr	r1, .L391
 4685 0038 3046     		mov	r0, r6
 4686              	.LVL477:
1169:ThirdParty/Letter-shell/Src/shell.c ****         return 0;
 4687              		.loc 1 1169 9 is_stmt 0 view .LVU1272
 4688 003a FFF7FEFF 		bl	shellWriteString
 4689              	.LVL478:
1170:ThirdParty/Letter-shell/Src/shell.c ****     }
 4690              		.loc 1 1170 9 is_stmt 1 view .LVU1273
1170:ThirdParty/Letter-shell/Src/shell.c ****     }
 4691              		.loc 1 1170 16 is_stmt 0 view .LVU1274
 4692 003e 0020     		movs	r0, #0
 4693 0040 F8E7     		b	.L383
 4694              	.LVL479:
 4695              	.L390:
1175:ThirdParty/Letter-shell/Src/shell.c ****         shellWriteString(shell, shellText[SHELL_TEXT_NOT_VAR]);
 4696              		.loc 1 1175 9 is_stmt 1 view .LVU1275
 4697 0042 2146     		mov	r1, r4
 4698 0044 3046     		mov	r0, r6
 4699              	.LVL480:
1175:ThirdParty/Letter-shell/Src/shell.c ****         shellWriteString(shell, shellText[SHELL_TEXT_NOT_VAR]);
 4700              		.loc 1 1175 9 is_stmt 0 view .LVU1276
 4701 0046 FFF7FEFF 		bl	shellWriteString
 4702              	.LVL481:
1176:ThirdParty/Letter-shell/Src/shell.c ****         return 0;
 4703              		.loc 1 1176 9 is_stmt 1 view .LVU1277
 4704 004a 0549     		ldr	r1, .L391+4
 4705 004c 3046     		mov	r0, r6
 4706 004e FFF7FEFF 		bl	shellWriteString
 4707              	.LVL482:
1177:ThirdParty/Letter-shell/Src/shell.c ****     }
ARM GAS  /var/folders/h7/llxr0vxd5sd9z74__7r6nx9r0000gn/T//ccSPSBV9.s 			page 137


 4708              		.loc 1 1177 9 view .LVU1278
1177:ThirdParty/Letter-shell/Src/shell.c ****     }
 4709              		.loc 1 1177 16 is_stmt 0 view .LVU1279
 4710 0052 0020     		movs	r0, #0
 4711 0054 EEE7     		b	.L383
 4712              	.LVL483:
 4713              	.L387:
1161:ThirdParty/Letter-shell/Src/shell.c ****     }
 4714              		.loc 1 1161 16 view .LVU1280
 4715 0056 0020     		movs	r0, #0
 4716              	.LVL484:
1161:ThirdParty/Letter-shell/Src/shell.c ****     }
 4717              		.loc 1 1161 16 view .LVU1281
 4718 0058 ECE7     		b	.L383
 4719              	.L392:
 4720 005a 00BF     		.align	2
 4721              	.L391:
 4722 005c 00000000 		.word	.LC30
 4723 0060 10000000 		.word	.LC31
 4724              		.cfi_endproc
 4725              	.LFE35:
 4727              		.section	.text.shellSetUser,"ax",%progbits
 4728              		.align	1
 4729              		.global	shellSetUser
 4730              		.syntax unified
 4731              		.thumb
 4732              		.thumb_func
 4734              	shellSetUser:
 4735              	.LVL485:
 4736              	.LFB38:
1264:ThirdParty/Letter-shell/Src/shell.c ****     shell->info.user = user;
 4737              		.loc 1 1264 1 is_stmt 1 view -0
 4738              		.cfi_startproc
 4739              		@ args = 0, pretend = 0, frame = 0
 4740              		@ frame_needed = 0, uses_anonymous_args = 0
1264:ThirdParty/Letter-shell/Src/shell.c ****     shell->info.user = user;
 4741              		.loc 1 1264 1 is_stmt 0 view .LVU1283
 4742 0000 10B5     		push	{r4, lr}
 4743              	.LCFI57:
 4744              		.cfi_def_cfa_offset 8
 4745              		.cfi_offset 4, -8
 4746              		.cfi_offset 14, -4
 4747 0002 0446     		mov	r4, r0
1265:ThirdParty/Letter-shell/Src/shell.c ****     shell->status.isChecked = 
 4748              		.loc 1 1265 5 is_stmt 1 view .LVU1284
1265:ThirdParty/Letter-shell/Src/shell.c ****     shell->status.isChecked = 
 4749              		.loc 1 1265 22 is_stmt 0 view .LVU1285
 4750 0004 0160     		str	r1, [r0]
1266:ThirdParty/Letter-shell/Src/shell.c ****         ((user->data.user.password && strlen(user->data.user.password) != 0)
 4751              		.loc 1 1266 5 is_stmt 1 view .LVU1286
1267:ThirdParty/Letter-shell/Src/shell.c ****             && (shell->parser.paramCount < 2
 4752              		.loc 1 1267 26 is_stmt 0 view .LVU1287
 4753 0006 8868     		ldr	r0, [r1, #8]
 4754              	.LVL486:
1270:ThirdParty/Letter-shell/Src/shell.c ****         
 4755              		.loc 1 1270 14 view .LVU1288
 4756 0008 50B1     		cbz	r0, .L396
ARM GAS  /var/folders/h7/llxr0vxd5sd9z74__7r6nx9r0000gn/T//ccSPSBV9.s 			page 138


1267:ThirdParty/Letter-shell/Src/shell.c ****             && (shell->parser.paramCount < 2
 4757              		.loc 1 1267 72 view .LVU1289
 4758 000a 0378     		ldrb	r3, [r0]	@ zero_extendqisi2
1267:ThirdParty/Letter-shell/Src/shell.c ****             && (shell->parser.paramCount < 2
 4759              		.loc 1 1267 36 view .LVU1290
 4760 000c 53B1     		cbz	r3, .L397
1268:ThirdParty/Letter-shell/Src/shell.c ****                 || strcmp(user->data.user.password, shell->parser.param[1]) != 0))
 4761              		.loc 1 1268 30 view .LVU1291
 4762 000e E38E     		ldrh	r3, [r4, #54]
1270:ThirdParty/Letter-shell/Src/shell.c ****         
 4763              		.loc 1 1270 14 view .LVU1292
 4764 0010 012B     		cmp	r3, #1
 4765 0012 18D9     		bls	.L398
1269:ThirdParty/Letter-shell/Src/shell.c ****          ? 0 : 1;
 4766              		.loc 1 1269 20 view .LVU1293
 4767 0014 A169     		ldr	r1, [r4, #24]
 4768              	.LVL487:
1269:ThirdParty/Letter-shell/Src/shell.c ****          ? 0 : 1;
 4769              		.loc 1 1269 20 view .LVU1294
 4770 0016 FFF7FEFF 		bl	strcmp
 4771              	.LVL488:
1269:ThirdParty/Letter-shell/Src/shell.c ****          ? 0 : 1;
 4772              		.loc 1 1269 17 view .LVU1295
 4773 001a B0B1     		cbz	r0, .L399
1270:ThirdParty/Letter-shell/Src/shell.c ****         
 4774              		.loc 1 1270 14 view .LVU1296
 4775 001c 0022     		movs	r2, #0
 4776 001e 02E0     		b	.L394
 4777              	.LVL489:
 4778              	.L396:
1270:ThirdParty/Letter-shell/Src/shell.c ****         
 4779              		.loc 1 1270 14 view .LVU1297
 4780 0020 0122     		movs	r2, #1
 4781 0022 00E0     		b	.L394
 4782              	.L397:
 4783 0024 0122     		movs	r2, #1
 4784              	.LVL490:
 4785              	.L394:
1266:ThirdParty/Letter-shell/Src/shell.c ****         ((user->data.user.password && strlen(user->data.user.password) != 0)
 4786              		.loc 1 1266 29 discriminator 4 view .LVU1298
 4787 0026 94F86030 		ldrb	r3, [r4, #96]	@ zero_extendqisi2
 4788 002a 62F30003 		bfi	r3, r2, #0, #1
 4789 002e 84F86030 		strb	r3, [r4, #96]
1273:ThirdParty/Letter-shell/Src/shell.c **** #endif
 4790              		.loc 1 1273 5 is_stmt 1 discriminator 4 view .LVU1299
 4791 0032 0949     		ldr	r1, .L402
 4792 0034 2046     		mov	r0, r4
 4793 0036 FFF7FEFF 		bl	shellWriteString
 4794              	.LVL491:
1276:ThirdParty/Letter-shell/Src/shell.c ****     {
 4795              		.loc 1 1276 5 discriminator 4 view .LVU1300
1276:ThirdParty/Letter-shell/Src/shell.c ****     {
 4796              		.loc 1 1276 9 is_stmt 0 discriminator 4 view .LVU1301
 4797 003a 94F86030 		ldrb	r3, [r4, #96]	@ zero_extendqisi2
1276:ThirdParty/Letter-shell/Src/shell.c ****     {
 4798              		.loc 1 1276 8 discriminator 4 view .LVU1302
 4799 003e 13F0010F 		tst	r3, #1
ARM GAS  /var/folders/h7/llxr0vxd5sd9z74__7r6nx9r0000gn/T//ccSPSBV9.s 			page 139


 4800 0042 04D1     		bne	.L401
 4801              	.L393:
1281:ThirdParty/Letter-shell/Src/shell.c **** 
 4802              		.loc 1 1281 1 view .LVU1303
 4803 0044 10BD     		pop	{r4, pc}
 4804              	.LVL492:
 4805              	.L398:
1270:ThirdParty/Letter-shell/Src/shell.c ****         
 4806              		.loc 1 1270 14 view .LVU1304
 4807 0046 0022     		movs	r2, #0
 4808 0048 EDE7     		b	.L394
 4809              	.LVL493:
 4810              	.L399:
1270:ThirdParty/Letter-shell/Src/shell.c ****         
 4811              		.loc 1 1270 14 view .LVU1305
 4812 004a 0122     		movs	r2, #1
 4813 004c EBE7     		b	.L394
 4814              	.L401:
1278:ThirdParty/Letter-shell/Src/shell.c ****     }
 4815              		.loc 1 1278 9 is_stmt 1 view .LVU1306
 4816 004e 0349     		ldr	r1, .L402+4
 4817 0050 2046     		mov	r0, r4
 4818 0052 FFF7FEFF 		bl	shellWriteString
 4819              	.LVL494:
1281:ThirdParty/Letter-shell/Src/shell.c **** 
 4820              		.loc 1 1281 1 is_stmt 0 view .LVU1307
 4821 0056 F5E7     		b	.L393
 4822              	.L403:
 4823              		.align	2
 4824              	.L402:
 4825 0058 00000000 		.word	.LC8
 4826 005c 00000000 		.word	.LC6
 4827              		.cfi_endproc
 4828              	.LFE38:
 4830              		.section	.rodata.shellInit.str1.4,"aMS",%progbits,1
 4831              		.align	2
 4832              	.LC32:
 4833 0000 6C657474 		.ascii	"letter\000"
 4833      657200
 4834              		.section	.text.shellInit,"ax",%progbits
 4835              		.align	1
 4836              		.global	shellInit
 4837              		.syntax unified
 4838              		.thumb
 4839              		.thumb_func
 4841              	shellInit:
 4842              	.LVL495:
 4843              	.LFB3:
 169:ThirdParty/Letter-shell/Src/shell.c ****     shell->parser.length = 0;
 4844              		.loc 1 169 1 is_stmt 1 view -0
 4845              		.cfi_startproc
 4846              		@ args = 0, pretend = 0, frame = 0
 4847              		@ frame_needed = 0, uses_anonymous_args = 0
 169:ThirdParty/Letter-shell/Src/shell.c ****     shell->parser.length = 0;
 4848              		.loc 1 169 1 is_stmt 0 view .LVU1309
 4849 0000 10B5     		push	{r4, lr}
 4850              	.LCFI58:
ARM GAS  /var/folders/h7/llxr0vxd5sd9z74__7r6nx9r0000gn/T//ccSPSBV9.s 			page 140


 4851              		.cfi_def_cfa_offset 8
 4852              		.cfi_offset 4, -8
 4853              		.cfi_offset 14, -4
 4854 0002 0446     		mov	r4, r0
 170:ThirdParty/Letter-shell/Src/shell.c ****     shell->parser.cursor = 0;
 4855              		.loc 1 170 5 is_stmt 1 view .LVU1310
 170:ThirdParty/Letter-shell/Src/shell.c ****     shell->parser.cursor = 0;
 4856              		.loc 1 170 26 is_stmt 0 view .LVU1311
 4857 0004 0023     		movs	r3, #0
 4858 0006 8381     		strh	r3, [r0, #12]	@ movhi
 171:ThirdParty/Letter-shell/Src/shell.c ****     shell->info.user = NULL;
 4859              		.loc 1 171 5 is_stmt 1 view .LVU1312
 171:ThirdParty/Letter-shell/Src/shell.c ****     shell->info.user = NULL;
 4860              		.loc 1 171 26 is_stmt 0 view .LVU1313
 4861 0008 C381     		strh	r3, [r0, #14]	@ movhi
 172:ThirdParty/Letter-shell/Src/shell.c ****     shell->status.isChecked = 1;
 4862              		.loc 1 172 5 is_stmt 1 view .LVU1314
 172:ThirdParty/Letter-shell/Src/shell.c ****     shell->status.isChecked = 1;
 4863              		.loc 1 172 22 is_stmt 0 view .LVU1315
 4864 000a 0360     		str	r3, [r0]
 173:ThirdParty/Letter-shell/Src/shell.c **** 
 4865              		.loc 1 173 5 is_stmt 1 view .LVU1316
 173:ThirdParty/Letter-shell/Src/shell.c **** 
 4866              		.loc 1 173 29 is_stmt 0 view .LVU1317
 4867 000c 90F86000 		ldrb	r0, [r0, #96]	@ zero_extendqisi2
 4868              	.LVL496:
 173:ThirdParty/Letter-shell/Src/shell.c **** 
 4869              		.loc 1 173 29 view .LVU1318
 4870 0010 40F00100 		orr	r0, r0, #1
 4871 0014 84F86000 		strb	r0, [r4, #96]
 175:ThirdParty/Letter-shell/Src/shell.c ****     shell->parser.bufferSize = size / (SHELL_HISTORY_MAX_NUMBER + 1);
 4872              		.loc 1 175 5 is_stmt 1 view .LVU1319
 175:ThirdParty/Letter-shell/Src/shell.c ****     shell->parser.bufferSize = size / (SHELL_HISTORY_MAX_NUMBER + 1);
 4873              		.loc 1 175 26 is_stmt 0 view .LVU1320
 4874 0018 2161     		str	r1, [r4, #16]
 176:ThirdParty/Letter-shell/Src/shell.c ****     
 4875              		.loc 1 176 5 is_stmt 1 view .LVU1321
 176:ThirdParty/Letter-shell/Src/shell.c ****     
 4876              		.loc 1 176 30 is_stmt 0 view .LVU1322
 4877 001a 1948     		ldr	r0, .L408
 4878 001c A0FB020C 		umull	r0, ip, r0, r2
 4879 0020 4FEA9C0C 		lsr	ip, ip, #2
 4880 0024 A4F834C0 		strh	ip, [r4, #52]	@ movhi
 179:ThirdParty/Letter-shell/Src/shell.c ****     shell->history.number = 0;
 4881              		.loc 1 179 5 is_stmt 1 view .LVU1323
 179:ThirdParty/Letter-shell/Src/shell.c ****     shell->history.number = 0;
 4882              		.loc 1 179 27 is_stmt 0 view .LVU1324
 4883 0028 A4F85430 		strh	r3, [r4, #84]	@ movhi
 180:ThirdParty/Letter-shell/Src/shell.c ****     shell->history.record = 0;
 4884              		.loc 1 180 5 is_stmt 1 view .LVU1325
 180:ThirdParty/Letter-shell/Src/shell.c ****     shell->history.record = 0;
 4885              		.loc 1 180 27 is_stmt 0 view .LVU1326
 4886 002c A4F85030 		strh	r3, [r4, #80]	@ movhi
 181:ThirdParty/Letter-shell/Src/shell.c ****     for (short i = 0; i < SHELL_HISTORY_MAX_NUMBER; i++)
 4887              		.loc 1 181 5 is_stmt 1 view .LVU1327
 181:ThirdParty/Letter-shell/Src/shell.c ****     for (short i = 0; i < SHELL_HISTORY_MAX_NUMBER; i++)
 4888              		.loc 1 181 27 is_stmt 0 view .LVU1328
ARM GAS  /var/folders/h7/llxr0vxd5sd9z74__7r6nx9r0000gn/T//ccSPSBV9.s 			page 141


 4889 0030 A4F85230 		strh	r3, [r4, #82]	@ movhi
 182:ThirdParty/Letter-shell/Src/shell.c ****     {
 4890              		.loc 1 182 5 is_stmt 1 view .LVU1329
 4891              	.LBB37:
 182:ThirdParty/Letter-shell/Src/shell.c ****     {
 4892              		.loc 1 182 10 view .LVU1330
 4893              	.LVL497:
 182:ThirdParty/Letter-shell/Src/shell.c ****     {
 4894              		.loc 1 182 5 is_stmt 0 view .LVU1331
 4895 0034 09E0     		b	.L405
 4896              	.LVL498:
 4897              	.L406:
 184:ThirdParty/Letter-shell/Src/shell.c ****     }
 4898              		.loc 1 184 9 is_stmt 1 discriminator 3 view .LVU1332
 184:ThirdParty/Letter-shell/Src/shell.c ****     }
 4899              		.loc 1 184 68 is_stmt 0 discriminator 3 view .LVU1333
 4900 0036 03FB0CC0 		mla	r0, r3, ip, ip
 184:ThirdParty/Letter-shell/Src/shell.c ****     }
 4901              		.loc 1 184 41 discriminator 3 view .LVU1334
 4902 003a 0844     		add	r0, r0, r1
 184:ThirdParty/Letter-shell/Src/shell.c ****     }
 4903              		.loc 1 184 32 discriminator 3 view .LVU1335
 4904 003c 03F10E02 		add	r2, r3, #14
 4905 0040 04EB8202 		add	r2, r4, r2, lsl #2
 4906 0044 5060     		str	r0, [r2, #4]
 182:ThirdParty/Letter-shell/Src/shell.c ****     {
 4907              		.loc 1 182 54 is_stmt 1 discriminator 3 view .LVU1336
 4908 0046 0133     		adds	r3, r3, #1
 4909              	.LVL499:
 182:ThirdParty/Letter-shell/Src/shell.c ****     {
 4910              		.loc 1 182 54 is_stmt 0 discriminator 3 view .LVU1337
 4911 0048 1BB2     		sxth	r3, r3
 4912              	.LVL500:
 4913              	.L405:
 182:ThirdParty/Letter-shell/Src/shell.c ****     {
 4914              		.loc 1 182 25 is_stmt 1 discriminator 1 view .LVU1338
 4915 004a 042B     		cmp	r3, #4
 4916 004c F3DD     		ble	.L406
 4917              	.LBE37:
 201:ThirdParty/Letter-shell/Src/shell.c ****         shell->commandList.count = ((unsigned int)(&_shell_command_end)
 4918              		.loc 1 201 9 view .LVU1339
 201:ThirdParty/Letter-shell/Src/shell.c ****         shell->commandList.count = ((unsigned int)(&_shell_command_end)
 4919              		.loc 1 201 33 is_stmt 0 view .LVU1340
 4920 004e 0D4A     		ldr	r2, .L408+4
 4921 0050 A265     		str	r2, [r4, #88]
 202:ThirdParty/Letter-shell/Src/shell.c ****                                 - (unsigned int)(&_shell_command_start))
 4922              		.loc 1 202 9 is_stmt 1 view .LVU1341
 202:ThirdParty/Letter-shell/Src/shell.c ****                                 - (unsigned int)(&_shell_command_start))
 4923              		.loc 1 202 37 is_stmt 0 view .LVU1342
 4924 0052 0D4B     		ldr	r3, .L408+8
 4925              	.LVL501:
 203:ThirdParty/Letter-shell/Src/shell.c ****                                 / sizeof(ShellCommand);
 4926              		.loc 1 203 33 view .LVU1343
 4927 0054 9B1A     		subs	r3, r3, r2
 204:ThirdParty/Letter-shell/Src/shell.c ****     #else
 4928              		.loc 1 204 33 view .LVU1344
 4929 0056 1B09     		lsrs	r3, r3, #4
ARM GAS  /var/folders/h7/llxr0vxd5sd9z74__7r6nx9r0000gn/T//ccSPSBV9.s 			page 142


 202:ThirdParty/Letter-shell/Src/shell.c ****                                 - (unsigned int)(&_shell_command_start))
 4930              		.loc 1 202 34 view .LVU1345
 4931 0058 A4F85C30 		strh	r3, [r4, #92]	@ movhi
 213:ThirdParty/Letter-shell/Src/shell.c **** 
 4932              		.loc 1 213 5 is_stmt 1 view .LVU1346
 4933 005c 2046     		mov	r0, r4
 4934 005e FFF7FEFF 		bl	shellAdd
 4935              	.LVL502:
 215:ThirdParty/Letter-shell/Src/shell.c ****                                          SHELL_DEFAULT_USER,
 4936              		.loc 1 215 5 view .LVU1347
 215:ThirdParty/Letter-shell/Src/shell.c ****                                          SHELL_DEFAULT_USER,
 4937              		.loc 1 215 25 is_stmt 0 view .LVU1348
 4938 0062 0023     		movs	r3, #0
 4939 0064 A26D     		ldr	r2, [r4, #88]
 4940 0066 0949     		ldr	r1, .L408+12
 4941 0068 2046     		mov	r0, r4
 4942 006a FFF7FEFF 		bl	shellSeekCommand
 4943              	.LVL503:
 4944 006e 0146     		mov	r1, r0
 215:ThirdParty/Letter-shell/Src/shell.c ****                                          SHELL_DEFAULT_USER,
 4945              		.loc 1 215 5 view .LVU1349
 4946 0070 2046     		mov	r0, r4
 4947 0072 FFF7FEFF 		bl	shellSetUser
 4948              	.LVL504:
 219:ThirdParty/Letter-shell/Src/shell.c **** }
 4949              		.loc 1 219 5 is_stmt 1 view .LVU1350
 4950 0076 0121     		movs	r1, #1
 4951 0078 2046     		mov	r0, r4
 4952 007a FFF7FEFF 		bl	shellWritePrompt
 4953              	.LVL505:
 220:ThirdParty/Letter-shell/Src/shell.c **** 
 4954              		.loc 1 220 1 is_stmt 0 view .LVU1351
 4955 007e 10BD     		pop	{r4, pc}
 4956              	.LVL506:
 4957              	.L409:
 220:ThirdParty/Letter-shell/Src/shell.c **** 
 4958              		.loc 1 220 1 view .LVU1352
 4959              		.align	2
 4960              	.L408:
 4961 0080 ABAAAAAA 		.word	-1431655765
 4962 0084 00000000 		.word	_shell_command_start
 4963 0088 00000000 		.word	_shell_command_end
 4964 008c 00000000 		.word	.LC32
 4965              		.cfi_endproc
 4966              	.LFE3:
 4968              		.section	.text.shellRunCommand,"ax",%progbits
 4969              		.align	1
 4970              		.global	shellRunCommand
 4971              		.syntax unified
 4972              		.thumb
 4973              		.thumb_func
 4975              	shellRunCommand:
 4976              	.LVL507:
 4977              	.LFB36:
1195:ThirdParty/Letter-shell/Src/shell.c ****     int returnValue = 0;
 4978              		.loc 1 1195 1 is_stmt 1 view -0
 4979              		.cfi_startproc
ARM GAS  /var/folders/h7/llxr0vxd5sd9z74__7r6nx9r0000gn/T//ccSPSBV9.s 			page 143


 4980              		@ args = 0, pretend = 0, frame = 0
 4981              		@ frame_needed = 0, uses_anonymous_args = 0
1195:ThirdParty/Letter-shell/Src/shell.c ****     int returnValue = 0;
 4982              		.loc 1 1195 1 is_stmt 0 view .LVU1354
 4983 0000 70B5     		push	{r4, r5, r6, lr}
 4984              	.LCFI59:
 4985              		.cfi_def_cfa_offset 16
 4986              		.cfi_offset 4, -16
 4987              		.cfi_offset 5, -12
 4988              		.cfi_offset 6, -8
 4989              		.cfi_offset 14, -4
 4990 0002 0446     		mov	r4, r0
 4991 0004 0D46     		mov	r5, r1
1196:ThirdParty/Letter-shell/Src/shell.c ****     shell->status.isActive = 1;
 4992              		.loc 1 1196 5 is_stmt 1 view .LVU1355
 4993              	.LVL508:
1197:ThirdParty/Letter-shell/Src/shell.c ****     if (command->attr.attrs.type == SHELL_TYPE_CMD_MAIN)
 4994              		.loc 1 1197 5 view .LVU1356
1197:ThirdParty/Letter-shell/Src/shell.c ****     if (command->attr.attrs.type == SHELL_TYPE_CMD_MAIN)
 4995              		.loc 1 1197 28 is_stmt 0 view .LVU1357
 4996 0006 90F86030 		ldrb	r3, [r0, #96]	@ zero_extendqisi2
 4997 000a 43F00203 		orr	r3, r3, #2
 4998 000e 80F86030 		strb	r3, [r0, #96]
1198:ThirdParty/Letter-shell/Src/shell.c ****     {
 4999              		.loc 1 1198 5 is_stmt 1 view .LVU1358
1198:ThirdParty/Letter-shell/Src/shell.c ****     {
 5000              		.loc 1 1198 34 is_stmt 0 view .LVU1359
 5001 0012 4B78     		ldrb	r3, [r1, #1]	@ zero_extendqisi2
1198:ThirdParty/Letter-shell/Src/shell.c ****     {
 5002              		.loc 1 1198 8 view .LVU1360
 5003 0014 13F00F03 		ands	r3, r3, #15
 5004 0018 14D0     		beq	.L417
1208:ThirdParty/Letter-shell/Src/shell.c ****     {
 5005              		.loc 1 1208 10 is_stmt 1 view .LVU1361
1208:ThirdParty/Letter-shell/Src/shell.c ****     {
 5006              		.loc 1 1208 13 is_stmt 0 view .LVU1362
 5007 001a 012B     		cmp	r3, #1
 5008 001c 23D0     		beq	.L418
1219:ThirdParty/Letter-shell/Src/shell.c ****         && command->attr.attrs.type <= SHELL_TYPE_VAR_NODE)
 5009              		.loc 1 1219 10 is_stmt 1 view .LVU1363
1219:ThirdParty/Letter-shell/Src/shell.c ****         && command->attr.attrs.type <= SHELL_TYPE_VAR_NODE)
 5010              		.loc 1 1219 33 is_stmt 0 view .LVU1364
 5011 001e 4A78     		ldrb	r2, [r1, #1]	@ zero_extendqisi2
 5012 0020 02F00F02 		and	r2, r2, #15
1220:ThirdParty/Letter-shell/Src/shell.c ****     {
 5013              		.loc 1 1220 9 view .LVU1365
 5014 0024 0E32     		adds	r2, r2, #14
 5015 0026 02F00F02 		and	r2, r2, #15
1219:ThirdParty/Letter-shell/Src/shell.c ****         && command->attr.attrs.type <= SHELL_TYPE_VAR_NODE)
 5016              		.loc 1 1219 13 view .LVU1366
 5017 002a 052A     		cmp	r2, #5
 5018 002c 2AD9     		bls	.L419
1224:ThirdParty/Letter-shell/Src/shell.c ****     {
 5019              		.loc 1 1224 10 is_stmt 1 view .LVU1367
1224:ThirdParty/Letter-shell/Src/shell.c ****     {
 5020              		.loc 1 1224 13 is_stmt 0 view .LVU1368
 5021 002e 082B     		cmp	r3, #8
ARM GAS  /var/folders/h7/llxr0vxd5sd9z74__7r6nx9r0000gn/T//ccSPSBV9.s 			page 144


 5022 0030 2CD0     		beq	.L420
1196:ThirdParty/Letter-shell/Src/shell.c ****     shell->status.isActive = 1;
 5023              		.loc 1 1196 9 view .LVU1369
 5024 0032 0026     		movs	r6, #0
 5025              	.LVL509:
 5026              	.L412:
1228:ThirdParty/Letter-shell/Src/shell.c **** 
 5027              		.loc 1 1228 5 is_stmt 1 view .LVU1370
1228:ThirdParty/Letter-shell/Src/shell.c **** 
 5028              		.loc 1 1228 28 is_stmt 0 view .LVU1371
 5029 0034 94F86030 		ldrb	r3, [r4, #96]	@ zero_extendqisi2
 5030 0038 6FF34103 		bfc	r3, #1, #1
 5031 003c 84F86030 		strb	r3, [r4, #96]
1230:ThirdParty/Letter-shell/Src/shell.c **** }
 5032              		.loc 1 1230 5 is_stmt 1 view .LVU1372
1231:ThirdParty/Letter-shell/Src/shell.c **** 
 5033              		.loc 1 1231 1 is_stmt 0 view .LVU1373
 5034 0040 3046     		mov	r0, r6
 5035 0042 70BD     		pop	{r4, r5, r6, pc}
 5036              	.LVL510:
 5037              	.L417:
1200:ThirdParty/Letter-shell/Src/shell.c ****         returnValue = command->data.cmd.function(shell->parser.paramCount,
 5038              		.loc 1 1200 9 is_stmt 1 view .LVU1374
 5039 0044 FFF7FEFF 		bl	shellRemoveParamQuotes
 5040              	.LVL511:
1201:ThirdParty/Letter-shell/Src/shell.c ****                                                  shell->parser.param);
 5041              		.loc 1 1201 9 view .LVU1375
1201:ThirdParty/Letter-shell/Src/shell.c ****                                                  shell->parser.param);
 5042              		.loc 1 1201 40 is_stmt 0 view .LVU1376
 5043 0048 AB68     		ldr	r3, [r5, #8]
1201:ThirdParty/Letter-shell/Src/shell.c ****                                                  shell->parser.param);
 5044              		.loc 1 1201 23 view .LVU1377
 5045 004a 04F11401 		add	r1, r4, #20
 5046 004e E08E     		ldrh	r0, [r4, #54]
 5047 0050 9847     		blx	r3
 5048              	.LVL512:
 5049 0052 0646     		mov	r6, r0
 5050              	.LVL513:
1203:ThirdParty/Letter-shell/Src/shell.c ****         {
 5051              		.loc 1 1203 9 is_stmt 1 view .LVU1378
1203:ThirdParty/Letter-shell/Src/shell.c ****         {
 5052              		.loc 1 1203 13 is_stmt 0 view .LVU1379
 5053 0054 6B78     		ldrb	r3, [r5, #1]	@ zero_extendqisi2
1203:ThirdParty/Letter-shell/Src/shell.c ****         {
 5054              		.loc 1 1203 12 view .LVU1380
 5055 0056 13F0200F 		tst	r3, #32
 5056 005a EBD1     		bne	.L412
1205:ThirdParty/Letter-shell/Src/shell.c ****         }
 5057              		.loc 1 1205 13 is_stmt 1 view .LVU1381
 5058 005c 0146     		mov	r1, r0
 5059 005e 2046     		mov	r0, r4
 5060              	.LVL514:
1205:ThirdParty/Letter-shell/Src/shell.c ****         }
 5061              		.loc 1 1205 13 is_stmt 0 view .LVU1382
 5062 0060 FFF7FEFF 		bl	shellWriteReturnValue
 5063              	.LVL515:
1205:ThirdParty/Letter-shell/Src/shell.c ****         }
ARM GAS  /var/folders/h7/llxr0vxd5sd9z74__7r6nx9r0000gn/T//ccSPSBV9.s 			page 145


 5064              		.loc 1 1205 13 view .LVU1383
 5065 0064 E6E7     		b	.L412
 5066              	.LVL516:
 5067              	.L418:
1210:ThirdParty/Letter-shell/Src/shell.c ****                                   command,
 5068              		.loc 1 1210 9 is_stmt 1 view .LVU1384
1210:ThirdParty/Letter-shell/Src/shell.c ****                                   command,
 5069              		.loc 1 1210 23 is_stmt 0 view .LVU1385
 5070 0066 00F11403 		add	r3, r0, #20
 5071 006a C28E     		ldrh	r2, [r0, #54]
 5072 006c FFF7FEFF 		bl	shellExtRun
 5073              	.LVL517:
1210:ThirdParty/Letter-shell/Src/shell.c ****                                   command,
 5074              		.loc 1 1210 23 view .LVU1386
 5075 0070 0646     		mov	r6, r0
 5076              	.LVL518:
1214:ThirdParty/Letter-shell/Src/shell.c ****         {
 5077              		.loc 1 1214 9 is_stmt 1 view .LVU1387
1214:ThirdParty/Letter-shell/Src/shell.c ****         {
 5078              		.loc 1 1214 13 is_stmt 0 view .LVU1388
 5079 0072 6B78     		ldrb	r3, [r5, #1]	@ zero_extendqisi2
1214:ThirdParty/Letter-shell/Src/shell.c ****         {
 5080              		.loc 1 1214 12 view .LVU1389
 5081 0074 13F0200F 		tst	r3, #32
 5082 0078 DCD1     		bne	.L412
1216:ThirdParty/Letter-shell/Src/shell.c ****         }
 5083              		.loc 1 1216 13 is_stmt 1 view .LVU1390
 5084 007a 0146     		mov	r1, r0
 5085 007c 2046     		mov	r0, r4
 5086              	.LVL519:
1216:ThirdParty/Letter-shell/Src/shell.c ****         }
 5087              		.loc 1 1216 13 is_stmt 0 view .LVU1391
 5088 007e FFF7FEFF 		bl	shellWriteReturnValue
 5089              	.LVL520:
1216:ThirdParty/Letter-shell/Src/shell.c ****         }
 5090              		.loc 1 1216 13 view .LVU1392
 5091 0082 D7E7     		b	.L412
 5092              	.LVL521:
 5093              	.L419:
1222:ThirdParty/Letter-shell/Src/shell.c ****     }
 5094              		.loc 1 1222 9 is_stmt 1 view .LVU1393
 5095 0084 FFF7FEFF 		bl	shellShowVar
 5096              	.LVL522:
1196:ThirdParty/Letter-shell/Src/shell.c ****     shell->status.isActive = 1;
 5097              		.loc 1 1196 9 is_stmt 0 view .LVU1394
 5098 0088 0026     		movs	r6, #0
 5099 008a D3E7     		b	.L412
 5100              	.LVL523:
 5101              	.L420:
1226:ThirdParty/Letter-shell/Src/shell.c ****     }
 5102              		.loc 1 1226 9 is_stmt 1 view .LVU1395
 5103 008c FFF7FEFF 		bl	shellSetUser
 5104              	.LVL524:
1196:ThirdParty/Letter-shell/Src/shell.c ****     shell->status.isActive = 1;
 5105              		.loc 1 1196 9 is_stmt 0 view .LVU1396
 5106 0090 0026     		movs	r6, #0
 5107 0092 CFE7     		b	.L412
ARM GAS  /var/folders/h7/llxr0vxd5sd9z74__7r6nx9r0000gn/T//ccSPSBV9.s 			page 146


 5108              		.cfi_endproc
 5109              	.LFE36:
 5111              		.section	.text.shellNormalInput,"ax",%progbits
 5112              		.align	1
 5113              		.global	shellNormalInput
 5114              		.syntax unified
 5115              		.thumb
 5116              		.thumb_func
 5118              	shellNormalInput:
 5119              	.LVL525:
 5120              	.LFB42:
1399:ThirdParty/Letter-shell/Src/shell.c ****     shell->status.tabFlag = 0;
 5121              		.loc 1 1399 1 is_stmt 1 view -0
 5122              		.cfi_startproc
 5123              		@ args = 0, pretend = 0, frame = 0
 5124              		@ frame_needed = 0, uses_anonymous_args = 0
1399:ThirdParty/Letter-shell/Src/shell.c ****     shell->status.tabFlag = 0;
 5125              		.loc 1 1399 1 is_stmt 0 view .LVU1398
 5126 0000 08B5     		push	{r3, lr}
 5127              	.LCFI60:
 5128              		.cfi_def_cfa_offset 8
 5129              		.cfi_offset 3, -8
 5130              		.cfi_offset 14, -4
1400:ThirdParty/Letter-shell/Src/shell.c ****     shellInsertByte(shell, data);
 5131              		.loc 1 1400 5 is_stmt 1 view .LVU1399
1400:ThirdParty/Letter-shell/Src/shell.c ****     shellInsertByte(shell, data);
 5132              		.loc 1 1400 27 is_stmt 0 view .LVU1400
 5133 0002 90F86020 		ldrb	r2, [r0, #96]	@ zero_extendqisi2
 5134 0006 6FF38202 		bfc	r2, #2, #1
 5135 000a 80F86020 		strb	r2, [r0, #96]
1401:ThirdParty/Letter-shell/Src/shell.c **** }
 5136              		.loc 1 1401 5 is_stmt 1 view .LVU1401
 5137 000e FFF7FEFF 		bl	shellInsertByte
 5138              	.LVL526:
1402:ThirdParty/Letter-shell/Src/shell.c **** 
 5139              		.loc 1 1402 1 is_stmt 0 view .LVU1402
 5140 0012 08BD     		pop	{r3, pc}
 5141              		.cfi_endproc
 5142              	.LFE42:
 5144              		.section	.text.shellExec,"ax",%progbits
 5145              		.align	1
 5146              		.global	shellExec
 5147              		.syntax unified
 5148              		.thumb
 5149              		.thumb_func
 5151              	shellExec:
 5152              	.LVL527:
 5153              	.LFB43:
1411:ThirdParty/Letter-shell/Src/shell.c ****     
 5154              		.loc 1 1411 1 is_stmt 1 view -0
 5155              		.cfi_startproc
 5156              		@ args = 0, pretend = 0, frame = 0
 5157              		@ frame_needed = 0, uses_anonymous_args = 0
1413:ThirdParty/Letter-shell/Src/shell.c ****     {
 5158              		.loc 1 1413 5 view .LVU1404
1413:ThirdParty/Letter-shell/Src/shell.c ****     {
 5159              		.loc 1 1413 22 is_stmt 0 view .LVU1405
ARM GAS  /var/folders/h7/llxr0vxd5sd9z74__7r6nx9r0000gn/T//ccSPSBV9.s 			page 147


 5160 0000 8389     		ldrh	r3, [r0, #12]
1413:ThirdParty/Letter-shell/Src/shell.c ****     {
 5161              		.loc 1 1413 8 view .LVU1406
 5162 0002 5BB3     		cbz	r3, .L428
1411:ThirdParty/Letter-shell/Src/shell.c ****     
 5163              		.loc 1 1411 1 view .LVU1407
 5164 0004 10B5     		push	{r4, lr}
 5165              	.LCFI61:
 5166              		.cfi_def_cfa_offset 8
 5167              		.cfi_offset 4, -8
 5168              		.cfi_offset 14, -4
 5169 0006 0446     		mov	r4, r0
1418:ThirdParty/Letter-shell/Src/shell.c **** 
 5170              		.loc 1 1418 5 is_stmt 1 view .LVU1408
1418:ThirdParty/Letter-shell/Src/shell.c **** 
 5171              		.loc 1 1418 18 is_stmt 0 view .LVU1409
 5172 0008 0269     		ldr	r2, [r0, #16]
1418:ThirdParty/Letter-shell/Src/shell.c **** 
 5173              		.loc 1 1418 48 view .LVU1410
 5174 000a 0021     		movs	r1, #0
 5175 000c D154     		strb	r1, [r2, r3]
1420:ThirdParty/Letter-shell/Src/shell.c ****     {
 5176              		.loc 1 1420 5 is_stmt 1 view .LVU1411
1420:ThirdParty/Letter-shell/Src/shell.c ****     {
 5177              		.loc 1 1420 9 is_stmt 0 view .LVU1412
 5178 000e 90F86030 		ldrb	r3, [r0, #96]	@ zero_extendqisi2
1420:ThirdParty/Letter-shell/Src/shell.c ****     {
 5179              		.loc 1 1420 8 view .LVU1413
 5180 0012 13F0010F 		tst	r3, #1
 5181 0016 1ED0     		beq	.L425
 5182              	.LBB38:
1423:ThirdParty/Letter-shell/Src/shell.c ****     #endif /** SHELL_HISTORY_MAX_NUMBER > 0 */
 5183              		.loc 1 1423 9 is_stmt 1 view .LVU1414
 5184 0018 FFF7FEFF 		bl	shellHistoryAdd
 5185              	.LVL528:
1425:ThirdParty/Letter-shell/Src/shell.c ****         shell->parser.length = shell->parser.cursor = 0;
 5186              		.loc 1 1425 9 view .LVU1415
 5187 001c 2046     		mov	r0, r4
 5188 001e FFF7FEFF 		bl	shellParserParam
 5189              	.LVL529:
1426:ThirdParty/Letter-shell/Src/shell.c ****         if (shell->parser.paramCount == 0)
 5190              		.loc 1 1426 9 view .LVU1416
1426:ThirdParty/Letter-shell/Src/shell.c ****         if (shell->parser.paramCount == 0)
 5191              		.loc 1 1426 53 is_stmt 0 view .LVU1417
 5192 0022 0023     		movs	r3, #0
 5193 0024 E381     		strh	r3, [r4, #14]	@ movhi
1426:ThirdParty/Letter-shell/Src/shell.c ****         if (shell->parser.paramCount == 0)
 5194              		.loc 1 1426 30 view .LVU1418
 5195 0026 A381     		strh	r3, [r4, #12]	@ movhi
1427:ThirdParty/Letter-shell/Src/shell.c ****         {
 5196              		.loc 1 1427 9 is_stmt 1 view .LVU1419
1427:ThirdParty/Letter-shell/Src/shell.c ****         {
 5197              		.loc 1 1427 26 is_stmt 0 view .LVU1420
 5198 0028 E38E     		ldrh	r3, [r4, #54]
1427:ThirdParty/Letter-shell/Src/shell.c ****         {
 5199              		.loc 1 1427 12 view .LVU1421
 5200 002a B3B1     		cbz	r3, .L423
ARM GAS  /var/folders/h7/llxr0vxd5sd9z74__7r6nx9r0000gn/T//ccSPSBV9.s 			page 148


1431:ThirdParty/Letter-shell/Src/shell.c **** 
 5201              		.loc 1 1431 9 is_stmt 1 view .LVU1422
 5202 002c 0C49     		ldr	r1, .L431
 5203 002e 2046     		mov	r0, r4
 5204 0030 FFF7FEFF 		bl	shellWriteString
 5205              	.LVL530:
1433:ThirdParty/Letter-shell/Src/shell.c ****                                                  shell->parser.param[0],
 5206              		.loc 1 1433 9 view .LVU1423
1433:ThirdParty/Letter-shell/Src/shell.c ****                                                  shell->parser.param[0],
 5207              		.loc 1 1433 33 is_stmt 0 view .LVU1424
 5208 0034 0023     		movs	r3, #0
 5209 0036 A26D     		ldr	r2, [r4, #88]
 5210 0038 6169     		ldr	r1, [r4, #20]
 5211 003a 2046     		mov	r0, r4
 5212 003c FFF7FEFF 		bl	shellSeekCommand
 5213              	.LVL531:
1437:ThirdParty/Letter-shell/Src/shell.c ****         {
 5214              		.loc 1 1437 9 is_stmt 1 view .LVU1425
1437:ThirdParty/Letter-shell/Src/shell.c ****         {
 5215              		.loc 1 1437 12 is_stmt 0 view .LVU1426
 5216 0040 0146     		mov	r1, r0
 5217 0042 18B1     		cbz	r0, .L426
1439:ThirdParty/Letter-shell/Src/shell.c ****         }
 5218              		.loc 1 1439 13 is_stmt 1 view .LVU1427
 5219 0044 2046     		mov	r0, r4
 5220              	.LVL532:
1439:ThirdParty/Letter-shell/Src/shell.c ****         }
 5221              		.loc 1 1439 13 is_stmt 0 view .LVU1428
 5222 0046 FFF7FEFF 		bl	shellRunCommand
 5223              	.LVL533:
1439:ThirdParty/Letter-shell/Src/shell.c ****         }
 5224              		.loc 1 1439 13 view .LVU1429
 5225 004a 06E0     		b	.L423
 5226              	.LVL534:
 5227              	.L426:
1443:ThirdParty/Letter-shell/Src/shell.c ****         }
 5228              		.loc 1 1443 13 is_stmt 1 view .LVU1430
 5229 004c 0549     		ldr	r1, .L431+4
 5230 004e 2046     		mov	r0, r4
 5231              	.LVL535:
1443:ThirdParty/Letter-shell/Src/shell.c ****         }
 5232              		.loc 1 1443 13 is_stmt 0 view .LVU1431
 5233 0050 FFF7FEFF 		bl	shellWriteString
 5234              	.LVL536:
 5235 0054 01E0     		b	.L423
 5236              	.LVL537:
 5237              	.L425:
1443:ThirdParty/Letter-shell/Src/shell.c ****         }
 5238              		.loc 1 1443 13 view .LVU1432
 5239              	.LBE38:
1448:ThirdParty/Letter-shell/Src/shell.c ****     }
 5240              		.loc 1 1448 9 is_stmt 1 view .LVU1433
 5241 0056 FFF7FEFF 		bl	shellCheckPassword
 5242              	.LVL538:
 5243              	.L423:
1450:ThirdParty/Letter-shell/Src/shell.c **** 
 5244              		.loc 1 1450 1 is_stmt 0 view .LVU1434
ARM GAS  /var/folders/h7/llxr0vxd5sd9z74__7r6nx9r0000gn/T//ccSPSBV9.s 			page 149


 5245 005a 10BD     		pop	{r4, pc}
 5246              	.LVL539:
 5247              	.L428:
 5248              	.LCFI62:
 5249              		.cfi_def_cfa_offset 0
 5250              		.cfi_restore 4
 5251              		.cfi_restore 14
1450:ThirdParty/Letter-shell/Src/shell.c **** 
 5252              		.loc 1 1450 1 view .LVU1435
 5253 005c 7047     		bx	lr
 5254              	.L432:
 5255 005e 00BF     		.align	2
 5256              	.L431:
 5257 0060 04000000 		.word	.LC2
 5258 0064 14000000 		.word	.LC25
 5259              		.cfi_endproc
 5260              	.LFE43:
 5262              		.section	.text.shellEnter,"ax",%progbits
 5263              		.align	1
 5264              		.global	shellEnter
 5265              		.syntax unified
 5266              		.thumb
 5267              		.thumb_func
 5269              	shellEnter:
 5270              	.LVL540:
 5271              	.LFB51:
1648:ThirdParty/Letter-shell/Src/shell.c ****     shellExec(shell);
 5272              		.loc 1 1648 1 is_stmt 1 view -0
 5273              		.cfi_startproc
 5274              		@ args = 0, pretend = 0, frame = 0
 5275              		@ frame_needed = 0, uses_anonymous_args = 0
1648:ThirdParty/Letter-shell/Src/shell.c ****     shellExec(shell);
 5276              		.loc 1 1648 1 is_stmt 0 view .LVU1437
 5277 0000 10B5     		push	{r4, lr}
 5278              	.LCFI63:
 5279              		.cfi_def_cfa_offset 8
 5280              		.cfi_offset 4, -8
 5281              		.cfi_offset 14, -4
 5282 0002 0446     		mov	r4, r0
1649:ThirdParty/Letter-shell/Src/shell.c ****     shellWritePrompt(shell, 1);
 5283              		.loc 1 1649 5 is_stmt 1 view .LVU1438
 5284 0004 FFF7FEFF 		bl	shellExec
 5285              	.LVL541:
1650:ThirdParty/Letter-shell/Src/shell.c **** }
 5286              		.loc 1 1650 5 view .LVU1439
 5287 0008 0121     		movs	r1, #1
 5288 000a 2046     		mov	r0, r4
 5289 000c FFF7FEFF 		bl	shellWritePrompt
 5290              	.LVL542:
1651:ThirdParty/Letter-shell/Src/shell.c **** #if SHELL_ENTER_LF == 1
 5291              		.loc 1 1651 1 is_stmt 0 view .LVU1440
 5292 0010 10BD     		pop	{r4, pc}
1651:ThirdParty/Letter-shell/Src/shell.c **** #if SHELL_ENTER_LF == 1
 5293              		.loc 1 1651 1 view .LVU1441
 5294              		.cfi_endproc
 5295              	.LFE51:
 5297              		.section	.text.shellHandler,"ax",%progbits
ARM GAS  /var/folders/h7/llxr0vxd5sd9z74__7r6nx9r0000gn/T//ccSPSBV9.s 			page 150


 5298              		.align	1
 5299              		.global	shellHandler
 5300              		.syntax unified
 5301              		.thumb
 5302              		.thumb_func
 5304              	shellHandler:
 5305              	.LVL543:
 5306              	.LFB54:
1721:ThirdParty/Letter-shell/Src/shell.c ****     SHELL_ASSERT(data, return);
 5307              		.loc 1 1721 1 is_stmt 1 view -0
 5308              		.cfi_startproc
 5309              		@ args = 0, pretend = 0, frame = 0
 5310              		@ frame_needed = 0, uses_anonymous_args = 0
1722:ThirdParty/Letter-shell/Src/shell.c ****     SHELL_LOCK(shell);
 5311              		.loc 1 1722 5 view .LVU1443
 5312 0000 0029     		cmp	r1, #0
 5313 0002 64D0     		beq	.L448
1721:ThirdParty/Letter-shell/Src/shell.c ****     SHELL_ASSERT(data, return);
 5314              		.loc 1 1721 1 is_stmt 0 discriminator 2 view .LVU1444
 5315 0004 2DE9F047 		push	{r4, r5, r6, r7, r8, r9, r10, lr}
 5316              	.LCFI64:
 5317              		.cfi_def_cfa_offset 32
 5318              		.cfi_offset 4, -32
 5319              		.cfi_offset 5, -28
 5320              		.cfi_offset 6, -24
 5321              		.cfi_offset 7, -20
 5322              		.cfi_offset 8, -16
 5323              		.cfi_offset 9, -12
 5324              		.cfi_offset 10, -8
 5325              		.cfi_offset 14, -4
 5326 0008 0646     		mov	r6, r0
 5327 000a 8A46     		mov	r10, r1
1722:ThirdParty/Letter-shell/Src/shell.c ****     SHELL_LOCK(shell);
 5328              		.loc 1 1722 31 is_stmt 1 discriminator 2 view .LVU1445
1723:ThirdParty/Letter-shell/Src/shell.c **** 
 5329              		.loc 1 1723 22 discriminator 2 view .LVU1446
1738:ThirdParty/Letter-shell/Src/shell.c ****     int keyFilter = 0x00000000;
 5330              		.loc 1 1738 5 discriminator 2 view .LVU1447
 5331              	.LVL544:
1739:ThirdParty/Letter-shell/Src/shell.c ****     if ((shell->parser.keyValue & 0x0000FF00) != 0x00000000)
 5332              		.loc 1 1739 5 discriminator 2 view .LVU1448
1740:ThirdParty/Letter-shell/Src/shell.c ****     {
 5333              		.loc 1 1740 5 discriminator 2 view .LVU1449
1740:ThirdParty/Letter-shell/Src/shell.c ****     {
 5334              		.loc 1 1740 23 is_stmt 0 discriminator 2 view .LVU1450
 5335 000c 836B     		ldr	r3, [r0, #56]
1740:ThirdParty/Letter-shell/Src/shell.c ****     {
 5336              		.loc 1 1740 8 discriminator 2 view .LVU1451
 5337 000e 13F47F4F 		tst	r3, #65280
 5338 0012 08D1     		bne	.L443
1745:ThirdParty/Letter-shell/Src/shell.c ****     {
 5339              		.loc 1 1745 10 is_stmt 1 view .LVU1452
1745:ThirdParty/Letter-shell/Src/shell.c ****     {
 5340              		.loc 1 1745 13 is_stmt 0 view .LVU1453
 5341 0014 13F47F09 		ands	r9, r3, #16711680
 5342 0018 0AD1     		bne	.L444
1750:ThirdParty/Letter-shell/Src/shell.c ****     {
ARM GAS  /var/folders/h7/llxr0vxd5sd9z74__7r6nx9r0000gn/T//ccSPSBV9.s 			page 151


 5343              		.loc 1 1750 10 is_stmt 1 view .LVU1454
1750:ThirdParty/Letter-shell/Src/shell.c ****     {
 5344              		.loc 1 1750 13 is_stmt 0 view .LVU1455
 5345 001a B3F1807F 		cmp	r3, #16777216
 5346 001e 0ED2     		bcs	.L445
1738:ThirdParty/Letter-shell/Src/shell.c ****     int keyFilter = 0x00000000;
 5347              		.loc 1 1738 10 view .LVU1456
 5348 0020 4FF01808 		mov	r8, #24
 5349 0024 08E0     		b	.L437
 5350              	.L443:
1743:ThirdParty/Letter-shell/Src/shell.c ****     }
 5351              		.loc 1 1743 19 view .LVU1457
 5352 0026 6FF0FF09 		mvn	r9, #255
1742:ThirdParty/Letter-shell/Src/shell.c ****         keyFilter = 0xFFFFFF00;
 5353              		.loc 1 1742 23 view .LVU1458
 5354 002a 4FF00008 		mov	r8, #0
 5355 002e 03E0     		b	.L437
 5356              	.L444:
1748:ThirdParty/Letter-shell/Src/shell.c ****     }
 5357              		.loc 1 1748 19 view .LVU1459
 5358 0030 DFF89C90 		ldr	r9, .L453
1747:ThirdParty/Letter-shell/Src/shell.c ****         keyFilter = 0xFFFF0000;
 5359              		.loc 1 1747 23 view .LVU1460
 5360 0034 4FF00808 		mov	r8, #8
 5361              	.L437:
 5362              	.LVL545:
1757:ThirdParty/Letter-shell/Src/shell.c ****     for (short i = 0; i < shell->commandList.count; i++)
 5363              		.loc 1 1757 5 is_stmt 1 view .LVU1461
1757:ThirdParty/Letter-shell/Src/shell.c ****     for (short i = 0; i < shell->commandList.count; i++)
 5364              		.loc 1 1757 19 is_stmt 0 view .LVU1462
 5365 0038 B76D     		ldr	r7, [r6, #88]
 5366              	.LVL546:
1758:ThirdParty/Letter-shell/Src/shell.c ****     {
 5367              		.loc 1 1758 5 is_stmt 1 view .LVU1463
 5368              	.LBB39:
1758:ThirdParty/Letter-shell/Src/shell.c ****     {
 5369              		.loc 1 1758 10 view .LVU1464
1758:ThirdParty/Letter-shell/Src/shell.c ****     {
 5370              		.loc 1 1758 16 is_stmt 0 view .LVU1465
 5371 003a 0024     		movs	r4, #0
1758:ThirdParty/Letter-shell/Src/shell.c ****     {
 5372              		.loc 1 1758 5 view .LVU1466
 5373 003c 0DE0     		b	.L438
 5374              	.LVL547:
 5375              	.L445:
1758:ThirdParty/Letter-shell/Src/shell.c ****     {
 5376              		.loc 1 1758 5 view .LVU1467
 5377              	.LBE39:
1753:ThirdParty/Letter-shell/Src/shell.c ****     }
 5378              		.loc 1 1753 19 view .LVU1468
 5379 003e 4FF07F49 		mov	r9, #-16777216
1752:ThirdParty/Letter-shell/Src/shell.c ****         keyFilter = 0xFF000000;
 5380              		.loc 1 1752 23 view .LVU1469
 5381 0042 4FF01008 		mov	r8, #16
 5382 0046 F7E7     		b	.L437
 5383              	.LVL548:
 5384              	.L440:
ARM GAS  /var/folders/h7/llxr0vxd5sd9z74__7r6nx9r0000gn/T//ccSPSBV9.s 			page 152


 5385              	.LBB40:
1775:ThirdParty/Letter-shell/Src/shell.c ****                     {
 5386              		.loc 1 1775 21 is_stmt 1 view .LVU1470
1775:ThirdParty/Letter-shell/Src/shell.c ****                     {
 5387              		.loc 1 1775 41 is_stmt 0 view .LVU1471
 5388 0048 AB68     		ldr	r3, [r5, #8]
1775:ThirdParty/Letter-shell/Src/shell.c ****                     {
 5389              		.loc 1 1775 24 view .LVU1472
 5390 004a 0BB1     		cbz	r3, .L441
1777:ThirdParty/Letter-shell/Src/shell.c ****                     }
 5391              		.loc 1 1777 25 is_stmt 1 view .LVU1473
 5392 004c 3046     		mov	r0, r6
 5393 004e 9847     		blx	r3
 5394              	.LVL549:
 5395              	.L441:
1779:ThirdParty/Letter-shell/Src/shell.c ****                     break;
 5396              		.loc 1 1779 21 view .LVU1474
1779:ThirdParty/Letter-shell/Src/shell.c ****                     break;
 5397              		.loc 1 1779 44 is_stmt 0 view .LVU1475
 5398 0050 0023     		movs	r3, #0
 5399 0052 B363     		str	r3, [r6, #56]
1780:ThirdParty/Letter-shell/Src/shell.c ****                 }
 5400              		.loc 1 1780 21 is_stmt 1 view .LVU1476
1780:ThirdParty/Letter-shell/Src/shell.c ****                 }
 5401              		.loc 1 1780 21 is_stmt 0 view .LVU1477
 5402              	.LBE40:
1786:ThirdParty/Letter-shell/Src/shell.c ****     {
 5403              		.loc 1 1786 5 is_stmt 1 view .LVU1478
 5404 0054 32E0     		b	.L435
 5405              	.LVL550:
 5406              	.L439:
 5407              	.LBB41:
1758:ThirdParty/Letter-shell/Src/shell.c ****     {
 5408              		.loc 1 1758 54 discriminator 2 view .LVU1479
 5409 0056 0134     		adds	r4, r4, #1
 5410              	.LVL551:
1758:ThirdParty/Letter-shell/Src/shell.c ****     {
 5411              		.loc 1 1758 54 is_stmt 0 discriminator 2 view .LVU1480
 5412 0058 24B2     		sxth	r4, r4
 5413              	.LVL552:
 5414              	.L438:
1758:ThirdParty/Letter-shell/Src/shell.c ****     {
 5415              		.loc 1 1758 25 is_stmt 1 discriminator 1 view .LVU1481
1758:ThirdParty/Letter-shell/Src/shell.c ****     {
 5416              		.loc 1 1758 45 is_stmt 0 discriminator 1 view .LVU1482
 5417 005a B6F85C30 		ldrh	r3, [r6, #92]
1758:ThirdParty/Letter-shell/Src/shell.c ****     {
 5418              		.loc 1 1758 25 discriminator 1 view .LVU1483
 5419 005e 9C42     		cmp	r4, r3
 5420 0060 29DA     		bge	.L451
1761:ThirdParty/Letter-shell/Src/shell.c ****             && shellCheckPermission(shell, &(base[i])) == 0)
 5421              		.loc 1 1761 9 is_stmt 1 view .LVU1484
1761:ThirdParty/Letter-shell/Src/shell.c ****             && shellCheckPermission(shell, &(base[i])) == 0)
 5422              		.loc 1 1761 17 is_stmt 0 view .LVU1485
 5423 0062 07EB0415 		add	r5, r7, r4, lsl #4
1761:ThirdParty/Letter-shell/Src/shell.c ****             && shellCheckPermission(shell, &(base[i])) == 0)
 5424              		.loc 1 1761 37 view .LVU1486
ARM GAS  /var/folders/h7/llxr0vxd5sd9z74__7r6nx9r0000gn/T//ccSPSBV9.s 			page 153


 5425 0066 6B78     		ldrb	r3, [r5, #1]	@ zero_extendqisi2
 5426 0068 03F00F03 		and	r3, r3, #15
1761:ThirdParty/Letter-shell/Src/shell.c ****             && shellCheckPermission(shell, &(base[i])) == 0)
 5427              		.loc 1 1761 12 view .LVU1487
 5428 006c 092B     		cmp	r3, #9
 5429 006e F2D1     		bne	.L439
1762:ThirdParty/Letter-shell/Src/shell.c ****         {
 5430              		.loc 1 1762 16 view .LVU1488
 5431 0070 2946     		mov	r1, r5
 5432 0072 3046     		mov	r0, r6
 5433 0074 FFF7FEFF 		bl	shellCheckPermission
 5434              	.LVL553:
1762:ThirdParty/Letter-shell/Src/shell.c ****         {
 5435              		.loc 1 1762 13 view .LVU1489
 5436 0078 0028     		cmp	r0, #0
 5437 007a ECD1     		bne	.L439
1765:ThirdParty/Letter-shell/Src/shell.c ****                 && (base[i].data.key.value & (0xFF << keyByteOffset))
 5438              		.loc 1 1765 13 is_stmt 1 view .LVU1490
1765:ThirdParty/Letter-shell/Src/shell.c ****                 && (base[i].data.key.value & (0xFF << keyByteOffset))
 5439              		.loc 1 1765 34 is_stmt 0 view .LVU1491
 5440 007c 6B68     		ldr	r3, [r5, #4]
1765:ThirdParty/Letter-shell/Src/shell.c ****                 && (base[i].data.key.value & (0xFF << keyByteOffset))
 5441              		.loc 1 1765 41 view .LVU1492
 5442 007e 03EA0901 		and	r1, r3, r9
1765:ThirdParty/Letter-shell/Src/shell.c ****                 && (base[i].data.key.value & (0xFF << keyByteOffset))
 5443              		.loc 1 1765 70 view .LVU1493
 5444 0082 B26B     		ldr	r2, [r6, #56]
1765:ThirdParty/Letter-shell/Src/shell.c ****                 && (base[i].data.key.value & (0xFF << keyByteOffset))
 5445              		.loc 1 1765 16 view .LVU1494
 5446 0084 9142     		cmp	r1, r2
 5447 0086 E6D1     		bne	.L439
1766:ThirdParty/Letter-shell/Src/shell.c ****                     == (data << keyByteOffset))
 5448              		.loc 1 1766 52 view .LVU1495
 5449 0088 FF21     		movs	r1, #255
 5450 008a 01FA08F1 		lsl	r1, r1, r8
1766:ThirdParty/Letter-shell/Src/shell.c ****                     == (data << keyByteOffset))
 5451              		.loc 1 1766 44 view .LVU1496
 5452 008e 0B40     		ands	r3, r3, r1
1767:ThirdParty/Letter-shell/Src/shell.c ****             {
 5453              		.loc 1 1767 30 view .LVU1497
 5454 0090 0AFA08F1 		lsl	r1, r10, r8
1766:ThirdParty/Letter-shell/Src/shell.c ****                     == (data << keyByteOffset))
 5455              		.loc 1 1766 17 view .LVU1498
 5456 0094 8B42     		cmp	r3, r1
 5457 0096 DED1     		bne	.L439
1769:ThirdParty/Letter-shell/Src/shell.c ****                 data = 0x00;
 5458              		.loc 1 1769 17 is_stmt 1 view .LVU1499
1769:ThirdParty/Letter-shell/Src/shell.c ****                 data = 0x00;
 5459              		.loc 1 1769 40 is_stmt 0 view .LVU1500
 5460 0098 0A43     		orrs	r2, r2, r1
 5461 009a B263     		str	r2, [r6, #56]
1770:ThirdParty/Letter-shell/Src/shell.c ****                 if (keyByteOffset == 0 
 5462              		.loc 1 1770 17 is_stmt 1 view .LVU1501
 5463              	.LVL554:
1771:ThirdParty/Letter-shell/Src/shell.c ****                     || (base[i].data.key.value & (0xFF << (keyByteOffset - 8)))
 5464              		.loc 1 1771 17 view .LVU1502
1771:ThirdParty/Letter-shell/Src/shell.c ****                     || (base[i].data.key.value & (0xFF << (keyByteOffset - 8)))
ARM GAS  /var/folders/h7/llxr0vxd5sd9z74__7r6nx9r0000gn/T//ccSPSBV9.s 			page 154


 5465              		.loc 1 1771 20 is_stmt 0 view .LVU1503
 5466 009c B8F1000F 		cmp	r8, #0
 5467 00a0 D2D0     		beq	.L440
1772:ThirdParty/Letter-shell/Src/shell.c ****                         == 0x00000000)
 5468              		.loc 1 1772 41 view .LVU1504
 5469 00a2 6A68     		ldr	r2, [r5, #4]
1772:ThirdParty/Letter-shell/Src/shell.c ****                         == 0x00000000)
 5470              		.loc 1 1772 74 view .LVU1505
 5471 00a4 A8F10800 		sub	r0, r8, #8
1772:ThirdParty/Letter-shell/Src/shell.c ****                         == 0x00000000)
 5472              		.loc 1 1772 56 view .LVU1506
 5473 00a8 FF23     		movs	r3, #255
 5474 00aa 8340     		lsls	r3, r3, r0
1772:ThirdParty/Letter-shell/Src/shell.c ****                         == 0x00000000)
 5475              		.loc 1 1772 21 view .LVU1507
 5476 00ac 1A42     		tst	r2, r3
 5477 00ae CBD0     		beq	.L440
1770:ThirdParty/Letter-shell/Src/shell.c ****                 if (keyByteOffset == 0 
 5478              		.loc 1 1770 22 view .LVU1508
 5479 00b0 4FF0000A 		mov	r10, #0
 5480 00b4 CFE7     		b	.L439
 5481              	.LVL555:
 5482              	.L451:
1770:ThirdParty/Letter-shell/Src/shell.c ****                 if (keyByteOffset == 0 
 5483              		.loc 1 1770 22 view .LVU1509
 5484              	.LBE41:
1786:ThirdParty/Letter-shell/Src/shell.c ****     {
 5485              		.loc 1 1786 5 is_stmt 1 view .LVU1510
1786:ThirdParty/Letter-shell/Src/shell.c ****     {
 5486              		.loc 1 1786 8 is_stmt 0 view .LVU1511
 5487 00b6 BAF1000F 		cmp	r10, #0
 5488 00ba 01D1     		bne	.L452
 5489              	.LVL556:
 5490              	.L435:
1797:ThirdParty/Letter-shell/Src/shell.c **** 
 5491              		.loc 1 1797 1 view .LVU1512
 5492 00bc BDE8F087 		pop	{r4, r5, r6, r7, r8, r9, r10, pc}
 5493              	.LVL557:
 5494              	.L452:
1788:ThirdParty/Letter-shell/Src/shell.c ****         shellNormalInput(shell, data);
 5495              		.loc 1 1788 9 is_stmt 1 view .LVU1513
1788:ThirdParty/Letter-shell/Src/shell.c ****         shellNormalInput(shell, data);
 5496              		.loc 1 1788 32 is_stmt 0 view .LVU1514
 5497 00c0 0023     		movs	r3, #0
 5498 00c2 B363     		str	r3, [r6, #56]
1789:ThirdParty/Letter-shell/Src/shell.c ****     }
 5499              		.loc 1 1789 9 is_stmt 1 view .LVU1515
 5500 00c4 5146     		mov	r1, r10
 5501 00c6 3046     		mov	r0, r6
 5502 00c8 FFF7FEFF 		bl	shellNormalInput
 5503              	.LVL558:
1796:ThirdParty/Letter-shell/Src/shell.c **** }
 5504              		.loc 1 1796 24 view .LVU1516
 5505 00cc F6E7     		b	.L435
 5506              	.LVL559:
 5507              	.L448:
 5508              	.LCFI65:
ARM GAS  /var/folders/h7/llxr0vxd5sd9z74__7r6nx9r0000gn/T//ccSPSBV9.s 			page 155


 5509              		.cfi_def_cfa_offset 0
 5510              		.cfi_restore 4
 5511              		.cfi_restore 5
 5512              		.cfi_restore 6
 5513              		.cfi_restore 7
 5514              		.cfi_restore 8
 5515              		.cfi_restore 9
 5516              		.cfi_restore 10
 5517              		.cfi_restore 14
1796:ThirdParty/Letter-shell/Src/shell.c **** }
 5518              		.loc 1 1796 24 is_stmt 0 view .LVU1517
 5519 00ce 7047     		bx	lr
 5520              	.L454:
 5521              		.align	2
 5522              	.L453:
 5523 00d0 0000FFFF 		.word	-65536
 5524              		.cfi_endproc
 5525              	.LFE54:
 5527              		.section	.text.shellTask,"ax",%progbits
 5528              		.align	1
 5529              		.global	shellTask
 5530              		.syntax unified
 5531              		.thumb
 5532              		.thumb_func
 5534              	shellTask:
 5535              	.LVL560:
 5536              	.LFB55:
1834:ThirdParty/Letter-shell/Src/shell.c ****     Shell *shell = (Shell *)param;
 5537              		.loc 1 1834 1 is_stmt 1 view -0
 5538              		.cfi_startproc
 5539              		@ args = 0, pretend = 0, frame = 8
 5540              		@ frame_needed = 0, uses_anonymous_args = 0
1834:ThirdParty/Letter-shell/Src/shell.c ****     Shell *shell = (Shell *)param;
 5541              		.loc 1 1834 1 is_stmt 0 view .LVU1519
 5542 0000 10B5     		push	{r4, lr}
 5543              	.LCFI66:
 5544              		.cfi_def_cfa_offset 8
 5545              		.cfi_offset 4, -8
 5546              		.cfi_offset 14, -4
 5547 0002 82B0     		sub	sp, sp, #8
 5548              	.LCFI67:
 5549              		.cfi_def_cfa_offset 16
 5550 0004 0446     		mov	r4, r0
1835:ThirdParty/Letter-shell/Src/shell.c ****     char data;
 5551              		.loc 1 1835 5 is_stmt 1 view .LVU1520
 5552              	.LVL561:
 5553              	.L456:
1836:ThirdParty/Letter-shell/Src/shell.c **** #if SHELL_TASK_WHILE == 1
 5554              		.loc 1 1836 5 view .LVU1521
1838:ThirdParty/Letter-shell/Src/shell.c ****     {
 5555              		.loc 1 1838 5 view .LVU1522
1841:ThirdParty/Letter-shell/Src/shell.c ****         {
 5556              		.loc 1 1841 9 view .LVU1523
1841:ThirdParty/Letter-shell/Src/shell.c ****         {
 5557              		.loc 1 1841 18 is_stmt 0 view .LVU1524
 5558 0006 636E     		ldr	r3, [r4, #100]
1841:ThirdParty/Letter-shell/Src/shell.c ****         {
ARM GAS  /var/folders/h7/llxr0vxd5sd9z74__7r6nx9r0000gn/T//ccSPSBV9.s 			page 156


 5559              		.loc 1 1841 12 view .LVU1525
 5560 0008 002B     		cmp	r3, #0
 5561 000a FCD0     		beq	.L456
1841:ThirdParty/Letter-shell/Src/shell.c ****         {
 5562              		.loc 1 1841 28 discriminator 1 view .LVU1526
 5563 000c 0121     		movs	r1, #1
 5564 000e 0DF10700 		add	r0, sp, #7
 5565 0012 9847     		blx	r3
 5566              	.LVL562:
1841:ThirdParty/Letter-shell/Src/shell.c ****         {
 5567              		.loc 1 1841 25 discriminator 1 view .LVU1527
 5568 0014 0128     		cmp	r0, #1
 5569 0016 F6D1     		bne	.L456
1843:ThirdParty/Letter-shell/Src/shell.c ****         }
 5570              		.loc 1 1843 13 is_stmt 1 view .LVU1528
 5571 0018 9DF80710 		ldrb	r1, [sp, #7]	@ zero_extendqisi2
 5572 001c 2046     		mov	r0, r4
 5573 001e FFF7FEFF 		bl	shellHandler
 5574              	.LVL563:
 5575 0022 F0E7     		b	.L456
 5576              		.cfi_endproc
 5577              	.LFE55:
 5579              		.section	.text.shellRun,"ax",%progbits
 5580              		.align	1
 5581              		.global	shellRun
 5582              		.syntax unified
 5583              		.thumb
 5584              		.thumb_func
 5586              	shellRun:
 5587              	.LVL564:
 5588              	.LFB61:
1926:ThirdParty/Letter-shell/Src/shell.c **** SHELL_EXPORT_CMD(
1927:ThirdParty/Letter-shell/Src/shell.c **** SHELL_CMD_PERMISSION(0)|SHELL_CMD_TYPE(SHELL_TYPE_CMD_FUNC)|SHELL_CMD_DISABLE_RETURN,
1928:ThirdParty/Letter-shell/Src/shell.c **** clear, shellClear, clear console);
1929:ThirdParty/Letter-shell/Src/shell.c **** 
1930:ThirdParty/Letter-shell/Src/shell.c **** 
1931:ThirdParty/Letter-shell/Src/shell.c **** /**
1932:ThirdParty/Letter-shell/Src/shell.c ****  * @brief shell执行命令
1933:ThirdParty/Letter-shell/Src/shell.c ****  * 
1934:ThirdParty/Letter-shell/Src/shell.c ****  * @param shell shell对象
1935:ThirdParty/Letter-shell/Src/shell.c ****  * @param cmd 命令字符串
1936:ThirdParty/Letter-shell/Src/shell.c ****  * @return int 返回值
1937:ThirdParty/Letter-shell/Src/shell.c ****  */
1938:ThirdParty/Letter-shell/Src/shell.c **** int shellRun(Shell *shell, const char *cmd)
1939:ThirdParty/Letter-shell/Src/shell.c **** {
 5589              		.loc 1 1939 1 view -0
 5590              		.cfi_startproc
 5591              		@ args = 0, pretend = 0, frame = 0
 5592              		@ frame_needed = 0, uses_anonymous_args = 0
1940:ThirdParty/Letter-shell/Src/shell.c ****     SHELL_ASSERT(shell && cmd, return -1);
 5593              		.loc 1 1940 5 view .LVU1530
 5594 0000 28B3     		cbz	r0, .L463
1939:ThirdParty/Letter-shell/Src/shell.c ****     SHELL_ASSERT(shell && cmd, return -1);
 5595              		.loc 1 1939 1 is_stmt 0 discriminator 2 view .LVU1531
 5596 0002 70B5     		push	{r4, r5, r6, lr}
 5597              	.LCFI68:
 5598              		.cfi_def_cfa_offset 16
ARM GAS  /var/folders/h7/llxr0vxd5sd9z74__7r6nx9r0000gn/T//ccSPSBV9.s 			page 157


 5599              		.cfi_offset 4, -16
 5600              		.cfi_offset 5, -12
 5601              		.cfi_offset 6, -8
 5602              		.cfi_offset 14, -4
 5603 0004 0D46     		mov	r5, r1
 5604 0006 0446     		mov	r4, r0
 5605              		.loc 1 1940 5 discriminator 2 view .LVU1532
 5606 0008 21B3     		cbz	r1, .L464
 5607              		.loc 1 1940 42 is_stmt 1 discriminator 4 view .LVU1533
1941:ThirdParty/Letter-shell/Src/shell.c ****     char active = shell->status.isActive;
 5608              		.loc 1 1941 5 discriminator 4 view .LVU1534
 5609              		.loc 1 1941 32 is_stmt 0 discriminator 4 view .LVU1535
 5610 000a 90F86030 		ldrb	r3, [r0, #96]	@ zero_extendqisi2
 5611 000e C3F34006 		ubfx	r6, r3, #1, #1
 5612              	.LVL565:
1942:ThirdParty/Letter-shell/Src/shell.c ****     if (strlen(cmd) > shell->parser.bufferSize - 1)
 5613              		.loc 1 1942 5 is_stmt 1 discriminator 4 view .LVU1536
 5614              		.loc 1 1942 9 is_stmt 0 discriminator 4 view .LVU1537
 5615 0012 0846     		mov	r0, r1
 5616              	.LVL566:
 5617              		.loc 1 1942 9 discriminator 4 view .LVU1538
 5618 0014 FFF7FEFF 		bl	strlen
 5619              	.LVL567:
 5620              		.loc 1 1942 36 discriminator 4 view .LVU1539
 5621 0018 A38E     		ldrh	r3, [r4, #52]
 5622              		.loc 1 1942 48 discriminator 4 view .LVU1540
 5623 001a 013B     		subs	r3, r3, #1
 5624              		.loc 1 1942 8 discriminator 4 view .LVU1541
 5625 001c 9842     		cmp	r0, r3
 5626 001e 0FD8     		bhi	.L469
1943:ThirdParty/Letter-shell/Src/shell.c ****     {
1944:ThirdParty/Letter-shell/Src/shell.c ****         shellWriteString(shell, shellText[SHELL_TEXT_CMD_TOO_LONG]);
1945:ThirdParty/Letter-shell/Src/shell.c ****         return -1;
1946:ThirdParty/Letter-shell/Src/shell.c ****     }
1947:ThirdParty/Letter-shell/Src/shell.c ****     else
1948:ThirdParty/Letter-shell/Src/shell.c ****     {
1949:ThirdParty/Letter-shell/Src/shell.c ****         shell->parser.length = shellStringCopy(shell->parser.buffer, (char *)cmd);
 5627              		.loc 1 1949 9 is_stmt 1 view .LVU1542
 5628              		.loc 1 1949 32 is_stmt 0 view .LVU1543
 5629 0020 2946     		mov	r1, r5
 5630 0022 2069     		ldr	r0, [r4, #16]
 5631 0024 FFF7FEFF 		bl	shellStringCopy
 5632              	.LVL568:
 5633              		.loc 1 1949 30 view .LVU1544
 5634 0028 A081     		strh	r0, [r4, #12]	@ movhi
1950:ThirdParty/Letter-shell/Src/shell.c ****         shellExec(shell);
 5635              		.loc 1 1950 9 is_stmt 1 view .LVU1545
 5636 002a 2046     		mov	r0, r4
 5637 002c FFF7FEFF 		bl	shellExec
 5638              	.LVL569:
1951:ThirdParty/Letter-shell/Src/shell.c ****         shell->status.isActive = active;
 5639              		.loc 1 1951 9 view .LVU1546
 5640              		.loc 1 1951 32 is_stmt 0 view .LVU1547
 5641 0030 94F86030 		ldrb	r3, [r4, #96]	@ zero_extendqisi2
 5642 0034 66F34103 		bfi	r3, r6, #1, #1
 5643 0038 84F86030 		strb	r3, [r4, #96]
1952:ThirdParty/Letter-shell/Src/shell.c ****         return 0;
ARM GAS  /var/folders/h7/llxr0vxd5sd9z74__7r6nx9r0000gn/T//ccSPSBV9.s 			page 158


 5644              		.loc 1 1952 9 is_stmt 1 view .LVU1548
 5645              		.loc 1 1952 16 is_stmt 0 view .LVU1549
 5646 003c 0020     		movs	r0, #0
 5647              	.LVL570:
 5648              	.L460:
1953:ThirdParty/Letter-shell/Src/shell.c ****     }
1954:ThirdParty/Letter-shell/Src/shell.c **** }
 5649              		.loc 1 1954 1 view .LVU1550
 5650 003e 70BD     		pop	{r4, r5, r6, pc}
 5651              	.LVL571:
 5652              	.L469:
1944:ThirdParty/Letter-shell/Src/shell.c ****         return -1;
 5653              		.loc 1 1944 9 is_stmt 1 view .LVU1551
 5654 0040 0649     		ldr	r1, .L470
 5655 0042 2046     		mov	r0, r4
 5656 0044 FFF7FEFF 		bl	shellWriteString
 5657              	.LVL572:
1945:ThirdParty/Letter-shell/Src/shell.c ****     }
 5658              		.loc 1 1945 9 view .LVU1552
1945:ThirdParty/Letter-shell/Src/shell.c ****     }
 5659              		.loc 1 1945 16 is_stmt 0 view .LVU1553
 5660 0048 4FF0FF30 		mov	r0, #-1
 5661 004c F7E7     		b	.L460
 5662              	.LVL573:
 5663              	.L463:
 5664              	.LCFI69:
 5665              		.cfi_def_cfa_offset 0
 5666              		.cfi_restore 4
 5667              		.cfi_restore 5
 5668              		.cfi_restore 6
 5669              		.cfi_restore 14
1940:ThirdParty/Letter-shell/Src/shell.c ****     char active = shell->status.isActive;
 5670              		.loc 1 1940 5 view .LVU1554
 5671 004e 4FF0FF30 		mov	r0, #-1
 5672              	.LVL574:
 5673              		.loc 1 1954 1 view .LVU1555
 5674 0052 7047     		bx	lr
 5675              	.LVL575:
 5676              	.L464:
 5677              	.LCFI70:
 5678              		.cfi_def_cfa_offset 16
 5679              		.cfi_offset 4, -16
 5680              		.cfi_offset 5, -12
 5681              		.cfi_offset 6, -8
 5682              		.cfi_offset 14, -4
1940:ThirdParty/Letter-shell/Src/shell.c ****     char active = shell->status.isActive;
 5683              		.loc 1 1940 5 view .LVU1556
 5684 0054 4FF0FF30 		mov	r0, #-1
 5685              	.LVL576:
1940:ThirdParty/Letter-shell/Src/shell.c ****     char active = shell->status.isActive;
 5686              		.loc 1 1940 5 view .LVU1557
 5687 0058 F1E7     		b	.L460
 5688              	.L471:
 5689 005a 00BF     		.align	2
 5690              	.L470:
 5691 005c 00000000 		.word	.LC23
 5692              		.cfi_endproc
ARM GAS  /var/folders/h7/llxr0vxd5sd9z74__7r6nx9r0000gn/T//ccSPSBV9.s 			page 159


 5693              	.LFE61:
 5695              		.section	.bss.buffer.0,"aw",%nobits
 5696              		.align	2
 5699              	buffer.0:
 5700 0000 00000000 		.space	9
 5700      00000000 
 5700      00
 5701              		.global	shellCommandclear
 5702              		.section	shellCommand,"a"
 5705              	shellCommandclear:
 5706 0000 00210000 		.4byte	8448
 5707 0004 00000000 		.4byte	shellCmdclear
 5708 0008 00000000 		.4byte	shellClear
 5709 000c 00000000 		.4byte	shellDescclear
 5710              		.global	shellDescclear
 5711              		.section	.rodata.shellDescclear,"a"
 5712              		.align	2
 5715              	shellDescclear:
 5716 0000 636C6561 		.ascii	"clear console\000"
 5716      7220636F 
 5716      6E736F6C 
 5716      6500
 5717              		.global	shellCmdclear
 5718              		.section	.rodata.shellCmdclear,"a"
 5719              		.align	2
 5722              	shellCmdclear:
 5723 0000 636C6561 		.ascii	"clear\000"
 5723      7200
 5724              		.global	shellCommandkeys
 5725              		.section	shellCommand
 5728              	shellCommandkeys:
 5729 0010 00210000 		.4byte	8448
 5730 0014 00000000 		.4byte	shellCmdkeys
 5731 0018 00000000 		.4byte	shellKeys
 5732 001c 00000000 		.4byte	shellDesckeys
 5733              		.global	shellDesckeys
 5734              		.section	.rodata.shellDesckeys,"a"
 5735              		.align	2
 5738              	shellDesckeys:
 5739 0000 6C697374 		.ascii	"list all key\000"
 5739      20616C6C 
 5739      206B6579 
 5739      00
 5740              		.global	shellCmdkeys
 5741              		.section	.rodata.shellCmdkeys,"a"
 5742              		.align	2
 5745              	shellCmdkeys:
 5746 0000 6B657973 		.ascii	"keys\000"
 5746      00
 5747              		.global	shellCommandvars
 5748              		.section	shellCommand
 5751              	shellCommandvars:
 5752 0020 00210000 		.4byte	8448
 5753 0024 00000000 		.4byte	shellCmdvars
 5754 0028 00000000 		.4byte	shellVars
 5755 002c 00000000 		.4byte	shellDescvars
 5756              		.global	shellDescvars
ARM GAS  /var/folders/h7/llxr0vxd5sd9z74__7r6nx9r0000gn/T//ccSPSBV9.s 			page 160


 5757              		.section	.rodata.shellDescvars,"a"
 5758              		.align	2
 5761              	shellDescvars:
 5762 0000 6C697374 		.ascii	"list all var\000"
 5762      20616C6C 
 5762      20766172 
 5762      00
 5763              		.global	shellCmdvars
 5764              		.section	.rodata.shellCmdvars,"a"
 5765              		.align	2
 5768              	shellCmdvars:
 5769 0000 76617273 		.ascii	"vars\000"
 5769      00
 5770              		.global	shellCommandcmds
 5771              		.section	shellCommand
 5774              	shellCommandcmds:
 5775 0030 00210000 		.4byte	8448
 5776 0034 00000000 		.4byte	shellCmdcmds
 5777 0038 00000000 		.4byte	shellCmds
 5778 003c 00000000 		.4byte	shellDesccmds
 5779              		.global	shellDesccmds
 5780              		.section	.rodata.shellDesccmds,"a"
 5781              		.align	2
 5784              	shellDesccmds:
 5785 0000 6C697374 		.ascii	"list all cmd\000"
 5785      20616C6C 
 5785      20636D64 
 5785      00
 5786              		.global	shellCmdcmds
 5787              		.section	.rodata.shellCmdcmds,"a"
 5788              		.align	2
 5791              	shellCmdcmds:
 5792 0000 636D6473 		.ascii	"cmds\000"
 5792      00
 5793              		.global	shellCommandusers
 5794              		.section	shellCommand
 5797              	shellCommandusers:
 5798 0040 00210000 		.4byte	8448
 5799 0044 00000000 		.4byte	shellCmdusers
 5800 0048 00000000 		.4byte	shellUsers
 5801 004c 00000000 		.4byte	shellDescusers
 5802              		.global	shellDescusers
 5803              		.section	.rodata.shellDescusers,"a"
 5804              		.align	2
 5807              	shellDescusers:
 5808 0000 6C697374 		.ascii	"list all user\000"
 5808      20616C6C 
 5808      20757365 
 5808      7200
 5809              		.global	shellCmdusers
 5810              		.section	.rodata.shellCmdusers,"a"
 5811              		.align	2
 5814              	shellCmdusers:
 5815 0000 75736572 		.ascii	"users\000"
 5815      7300
 5816              		.global	shellCommandhelp
 5817              		.section	shellCommand
ARM GAS  /var/folders/h7/llxr0vxd5sd9z74__7r6nx9r0000gn/T//ccSPSBV9.s 			page 161


 5820              	shellCommandhelp:
 5821 0050 00200000 		.4byte	8192
 5822 0054 00000000 		.4byte	shellCmdhelp
 5823 0058 00000000 		.4byte	shellHelp
 5824 005c 00000000 		.4byte	shellDeschelp
 5825              		.global	shellDeschelp
 5826              		.section	.rodata.shellDeschelp,"a"
 5827              		.align	2
 5830              	shellDeschelp:
 5831 0000 73686F77 		.ascii	"show command info\015\012help [cmd]\000"
 5831      20636F6D 
 5831      6D616E64 
 5831      20696E66 
 5831      6F0D0A68 
 5832              		.global	shellCmdhelp
 5833              		.section	.rodata.shellCmdhelp,"a"
 5834              		.align	2
 5837              	shellCmdhelp:
 5838 0000 68656C70 		.ascii	"help\000"
 5838      00
 5839              		.global	shellKey0x0D000000
 5840              		.section	shellCommand
 5843              	shellKey0x0D000000:
 5844 0060 00190000 		.4byte	6400
 5845 0064 0000000D 		.4byte	218103808
 5846 0068 00000000 		.4byte	shellEnter
 5847 006c 00000000 		.4byte	shellDesc0x0D000000
 5848              		.global	shellDesc0x0D000000
 5849              		.section	.rodata.shellDesc0x0D000000,"a"
 5850              		.align	2
 5853              	shellDesc0x0D000000:
 5854 0000 656E7465 		.ascii	"enter\000"
 5854      7200
 5855              		.global	shellKey0x0A000000
 5856              		.section	shellCommand
 5859              	shellKey0x0A000000:
 5860 0070 00190000 		.4byte	6400
 5861 0074 0000000A 		.4byte	167772160
 5862 0078 00000000 		.4byte	shellEnter
 5863 007c 00000000 		.4byte	shellDesc0x0A000000
 5864              		.global	shellDesc0x0A000000
 5865              		.section	.rodata.shellDesc0x0A000000,"a"
 5866              		.align	2
 5869              	shellDesc0x0A000000:
 5870 0000 656E7465 		.ascii	"enter\000"
 5870      7200
 5871              		.global	shellKey0x1B5B337E
 5872              		.section	shellCommand
 5875              	shellKey0x1B5B337E:
 5876 0080 00190000 		.4byte	6400
 5877 0084 7E335B1B 		.4byte	458961790
 5878 0088 00000000 		.4byte	shellDelete
 5879 008c 00000000 		.4byte	shellDesc0x1B5B337E
 5880              		.global	shellDesc0x1B5B337E
 5881              		.section	.rodata.shellDesc0x1B5B337E,"a"
 5882              		.align	2
 5885              	shellDesc0x1B5B337E:
ARM GAS  /var/folders/h7/llxr0vxd5sd9z74__7r6nx9r0000gn/T//ccSPSBV9.s 			page 162


 5886 0000 64656C65 		.ascii	"delete\000"
 5886      746500
 5887              		.global	shellKey0x7F000000
 5888              		.section	shellCommand
 5891              	shellKey0x7F000000:
 5892 0090 00190000 		.4byte	6400
 5893 0094 0000007F 		.4byte	2130706432
 5894 0098 00000000 		.4byte	shellBackspace
 5895 009c 00000000 		.4byte	shellDesc0x7F000000
 5896              		.global	shellDesc0x7F000000
 5897              		.section	.rodata.shellDesc0x7F000000,"a"
 5898              		.align	2
 5901              	shellDesc0x7F000000:
 5902 0000 6261636B 		.ascii	"backspace\000"
 5902      73706163 
 5902      6500
 5903              		.global	shellKey0x08000000
 5904              		.section	shellCommand
 5907              	shellKey0x08000000:
 5908 00a0 00190000 		.4byte	6400
 5909 00a4 00000008 		.4byte	134217728
 5910 00a8 00000000 		.4byte	shellBackspace
 5911 00ac 00000000 		.4byte	shellDesc0x08000000
 5912              		.global	shellDesc0x08000000
 5913              		.section	.rodata.shellDesc0x08000000,"a"
 5914              		.align	2
 5917              	shellDesc0x08000000:
 5918 0000 6261636B 		.ascii	"backspace\000"
 5918      73706163 
 5918      6500
 5919              		.global	shellKey0x09000000
 5920              		.section	shellCommand
 5923              	shellKey0x09000000:
 5924 00b0 00090000 		.4byte	2304
 5925 00b4 00000009 		.4byte	150994944
 5926 00b8 00000000 		.4byte	shellTab
 5927 00bc 00000000 		.4byte	shellDesc0x09000000
 5928              		.global	shellDesc0x09000000
 5929              		.section	.rodata.shellDesc0x09000000,"a"
 5930              		.align	2
 5933              	shellDesc0x09000000:
 5934 0000 74616200 		.ascii	"tab\000"
 5935              		.global	shellKey0x1B5B4400
 5936              		.section	shellCommand
 5939              	shellKey0x1B5B4400:
 5940 00c0 00190000 		.4byte	6400
 5941 00c4 00445B1B 		.4byte	458966016
 5942 00c8 00000000 		.4byte	shellLeft
 5943 00cc 00000000 		.4byte	shellDesc0x1B5B4400
 5944              		.global	shellDesc0x1B5B4400
 5945              		.section	.rodata.shellDesc0x1B5B4400,"a"
 5946              		.align	2
 5949              	shellDesc0x1B5B4400:
 5950 0000 6C656674 		.ascii	"left\000"
 5950      00
 5951              		.global	shellKey0x1B5B4300
 5952              		.section	shellCommand
ARM GAS  /var/folders/h7/llxr0vxd5sd9z74__7r6nx9r0000gn/T//ccSPSBV9.s 			page 163


 5955              	shellKey0x1B5B4300:
 5956 00d0 00190000 		.4byte	6400
 5957 00d4 00435B1B 		.4byte	458965760
 5958 00d8 00000000 		.4byte	shellRight
 5959 00dc 00000000 		.4byte	shellDesc0x1B5B4300
 5960              		.global	shellDesc0x1B5B4300
 5961              		.section	.rodata.shellDesc0x1B5B4300,"a"
 5962              		.align	2
 5965              	shellDesc0x1B5B4300:
 5966 0000 72696768 		.ascii	"right\000"
 5966      7400
 5967              		.global	shellKey0x1B5B4200
 5968              		.section	shellCommand
 5971              	shellKey0x1B5B4200:
 5972 00e0 00090000 		.4byte	2304
 5973 00e4 00425B1B 		.4byte	458965504
 5974 00e8 00000000 		.4byte	shellDown
 5975 00ec 00000000 		.4byte	shellDesc0x1B5B4200
 5976              		.global	shellDesc0x1B5B4200
 5977              		.section	.rodata.shellDesc0x1B5B4200,"a"
 5978              		.align	2
 5981              	shellDesc0x1B5B4200:
 5982 0000 646F776E 		.ascii	"down\000"
 5982      00
 5983              		.global	shellKey0x1B5B4100
 5984              		.section	shellCommand
 5987              	shellKey0x1B5B4100:
 5988 00f0 00090000 		.4byte	2304
 5989 00f4 00415B1B 		.4byte	458965248
 5990 00f8 00000000 		.4byte	shellUp
 5991 00fc 00000000 		.4byte	shellDesc0x1B5B4100
 5992              		.global	shellDesc0x1B5B4100
 5993              		.section	.rodata.shellDesc0x1B5B4100,"a"
 5994              		.align	2
 5997              	shellDesc0x1B5B4100:
 5998 0000 757000   		.ascii	"up\000"
 5999              		.global	shellCommandsetVar
 6000              		.section	shellCommand
 6003              	shellCommandsetVar:
 6004 0100 00210000 		.4byte	8448
 6005 0104 00000000 		.4byte	shellCmdsetVar
 6006 0108 00000000 		.4byte	shellSetVar
 6007 010c 00000000 		.4byte	shellDescsetVar
 6008              		.global	shellDescsetVar
 6009              		.section	.rodata.shellDescsetVar,"a"
 6010              		.align	2
 6013              	shellDescsetVar:
 6014 0000 73657420 		.ascii	"set var\000"
 6014      76617200 
 6015              		.global	shellCmdsetVar
 6016              		.section	.rodata.shellCmdsetVar,"a"
 6017              		.align	2
 6020              	shellCmdsetVar:
 6021 0000 73657456 		.ascii	"setVar\000"
 6021      617200
 6022              		.section	.bss.shellList,"aw",%nobits
 6023              		.align	2
ARM GAS  /var/folders/h7/llxr0vxd5sd9z74__7r6nx9r0000gn/T//ccSPSBV9.s 			page 164


 6026              	shellList:
 6027 0000 00000000 		.space	20
 6027      00000000 
 6027      00000000 
 6027      00000000 
 6027      00000000 
 6028              		.global	shellUserDefault
 6029              		.section	shellCommand
 6032              	shellUserDefault:
 6033 0110 00080000 		.4byte	2048
 6034 0114 00000000 		.4byte	shellCmdDefaultUser
 6035 0118 00000000 		.4byte	shellPasswordDefaultUser
 6036 011c 00000000 		.4byte	shellDesDefaultUser
 6037              		.global	shellDesDefaultUser
 6038              		.section	.rodata.shellDesDefaultUser,"a"
 6039              		.align	2
 6042              	shellDesDefaultUser:
 6043 0000 64656661 		.ascii	"default user\000"
 6043      756C7420 
 6043      75736572 
 6043      00
 6044              		.global	shellPasswordDefaultUser
 6045              		.section	.rodata.shellPasswordDefaultUser,"a"
 6046              		.align	2
 6049              	shellPasswordDefaultUser:
 6050 0000 00       		.space	1
 6051              		.global	shellCmdDefaultUser
 6052              		.section	.rodata.shellCmdDefaultUser,"a"
 6053              		.align	2
 6056              	shellCmdDefaultUser:
 6057 0000 6C657474 		.ascii	"letter\000"
 6057      657200
 6058              		.text
 6059              	.Letext0:
 6060              		.file 2 "ThirdParty/Letter-shell/Inc/shell.h"
 6061              		.file 3 "/Applications/ArmGNUToolchain/12.3.rel1/arm-none-eabi/lib/gcc/arm-none-eabi/12.3.1/includ
 6062              		.file 4 "/Applications/ArmGNUToolchain/12.3.rel1/arm-none-eabi/lib/gcc/arm-none-eabi/12.3.1/includ
 6063              		.file 5 "/Applications/ArmGNUToolchain/12.3.rel1/arm-none-eabi/arm-none-eabi/include/stdio.h"
 6064              		.file 6 "/Applications/ArmGNUToolchain/12.3.rel1/arm-none-eabi/arm-none-eabi/include/string.h"
 6065              		.file 7 "ThirdParty/Letter-shell/Inc/shell_ext.h"
 6066              		.file 8 "<built-in>"
ARM GAS  /var/folders/h7/llxr0vxd5sd9z74__7r6nx9r0000gn/T//ccSPSBV9.s 			page 165


DEFINED SYMBOLS
                            *ABS*:00000000 shell.c
/var/folders/h7/llxr0vxd5sd9z74__7r6nx9r0000gn/T//ccSPSBV9.s:21     .text.shellAdd:00000000 $t
/var/folders/h7/llxr0vxd5sd9z74__7r6nx9r0000gn/T//ccSPSBV9.s:26     .text.shellAdd:00000000 shellAdd
/var/folders/h7/llxr0vxd5sd9z74__7r6nx9r0000gn/T//ccSPSBV9.s:73     .text.shellAdd:00000020 $d
/var/folders/h7/llxr0vxd5sd9z74__7r6nx9r0000gn/T//ccSPSBV9.s:6026   .bss.shellList:00000000 shellList
/var/folders/h7/llxr0vxd5sd9z74__7r6nx9r0000gn/T//ccSPSBV9.s:78     .text.shellWriteByte:00000000 $t
/var/folders/h7/llxr0vxd5sd9z74__7r6nx9r0000gn/T//ccSPSBV9.s:83     .text.shellWriteByte:00000000 shellWriteByte
/var/folders/h7/llxr0vxd5sd9z74__7r6nx9r0000gn/T//ccSPSBV9.s:121    .rodata.shellWriteCommandDesc.str1.4:00000000 $d
/var/folders/h7/llxr0vxd5sd9z74__7r6nx9r0000gn/T//ccSPSBV9.s:125    .text.shellWriteCommandDesc:00000000 $t
/var/folders/h7/llxr0vxd5sd9z74__7r6nx9r0000gn/T//ccSPSBV9.s:130    .text.shellWriteCommandDesc:00000000 shellWriteCommandDesc
/var/folders/h7/llxr0vxd5sd9z74__7r6nx9r0000gn/T//ccSPSBV9.s:234    .text.shellWriteCommandDesc:00000048 $d
/var/folders/h7/llxr0vxd5sd9z74__7r6nx9r0000gn/T//ccSPSBV9.s:239    .text.shellStringCopy:00000000 $t
/var/folders/h7/llxr0vxd5sd9z74__7r6nx9r0000gn/T//ccSPSBV9.s:244    .text.shellStringCopy:00000000 shellStringCopy
/var/folders/h7/llxr0vxd5sd9z74__7r6nx9r0000gn/T//ccSPSBV9.s:289    .text.shellStringCompare:00000000 $t
/var/folders/h7/llxr0vxd5sd9z74__7r6nx9r0000gn/T//ccSPSBV9.s:294    .text.shellStringCompare:00000000 shellStringCompare
/var/folders/h7/llxr0vxd5sd9z74__7r6nx9r0000gn/T//ccSPSBV9.s:369    .text.shellGetCommandDesc:00000000 $t
/var/folders/h7/llxr0vxd5sd9z74__7r6nx9r0000gn/T//ccSPSBV9.s:374    .text.shellGetCommandDesc:00000000 shellGetCommandDesc
/var/folders/h7/llxr0vxd5sd9z74__7r6nx9r0000gn/T//ccSPSBV9.s:431    .text.shellParserParam:00000000 $t
/var/folders/h7/llxr0vxd5sd9z74__7r6nx9r0000gn/T//ccSPSBV9.s:436    .text.shellParserParam:00000000 shellParserParam
/var/folders/h7/llxr0vxd5sd9z74__7r6nx9r0000gn/T//ccSPSBV9.s:618    .text.shellRight:00000000 $t
/var/folders/h7/llxr0vxd5sd9z74__7r6nx9r0000gn/T//ccSPSBV9.s:624    .text.shellRight:00000000 shellRight
/var/folders/h7/llxr0vxd5sd9z74__7r6nx9r0000gn/T//ccSPSBV9.s:667    .text.shellLeft:00000000 $t
/var/folders/h7/llxr0vxd5sd9z74__7r6nx9r0000gn/T//ccSPSBV9.s:673    .text.shellLeft:00000000 shellLeft
/var/folders/h7/llxr0vxd5sd9z74__7r6nx9r0000gn/T//ccSPSBV9.s:711    .text.shellHistoryAdd:00000000 $t
/var/folders/h7/llxr0vxd5sd9z74__7r6nx9r0000gn/T//ccSPSBV9.s:716    .text.shellHistoryAdd:00000000 shellHistoryAdd
/var/folders/h7/llxr0vxd5sd9z74__7r6nx9r0000gn/T//ccSPSBV9.s:815    .text.shellRemoveParamQuotes:00000000 $t
/var/folders/h7/llxr0vxd5sd9z74__7r6nx9r0000gn/T//ccSPSBV9.s:820    .text.shellRemoveParamQuotes:00000000 shellRemoveParamQuotes
/var/folders/h7/llxr0vxd5sd9z74__7r6nx9r0000gn/T//ccSPSBV9.s:921    .text.shellRemove:00000000 $t
/var/folders/h7/llxr0vxd5sd9z74__7r6nx9r0000gn/T//ccSPSBV9.s:927    .text.shellRemove:00000000 shellRemove
/var/folders/h7/llxr0vxd5sd9z74__7r6nx9r0000gn/T//ccSPSBV9.s:976    .text.shellRemove:00000024 $d
/var/folders/h7/llxr0vxd5sd9z74__7r6nx9r0000gn/T//ccSPSBV9.s:981    .text.shellGetCurrent:00000000 $t
/var/folders/h7/llxr0vxd5sd9z74__7r6nx9r0000gn/T//ccSPSBV9.s:987    .text.shellGetCurrent:00000000 shellGetCurrent
/var/folders/h7/llxr0vxd5sd9z74__7r6nx9r0000gn/T//ccSPSBV9.s:1036   .text.shellGetCurrent:00000028 $d
/var/folders/h7/llxr0vxd5sd9z74__7r6nx9r0000gn/T//ccSPSBV9.s:1041   .text.shellWriteString:00000000 $t
/var/folders/h7/llxr0vxd5sd9z74__7r6nx9r0000gn/T//ccSPSBV9.s:1047   .text.shellWriteString:00000000 shellWriteString
/var/folders/h7/llxr0vxd5sd9z74__7r6nx9r0000gn/T//ccSPSBV9.s:1115   .rodata.shellWritePrompt.str1.4:00000000 $d
/var/folders/h7/llxr0vxd5sd9z74__7r6nx9r0000gn/T//ccSPSBV9.s:1131   .text.shellWritePrompt:00000000 $t
/var/folders/h7/llxr0vxd5sd9z74__7r6nx9r0000gn/T//ccSPSBV9.s:1136   .text.shellWritePrompt:00000000 shellWritePrompt
/var/folders/h7/llxr0vxd5sd9z74__7r6nx9r0000gn/T//ccSPSBV9.s:1219   .text.shellWritePrompt:0000004c $d
/var/folders/h7/llxr0vxd5sd9z74__7r6nx9r0000gn/T//ccSPSBV9.s:1228   .rodata.shellCheckPassword.str1.4:00000000 $d
/var/folders/h7/llxr0vxd5sd9z74__7r6nx9r0000gn/T//ccSPSBV9.s:1243   .text.shellCheckPassword:00000000 $t
/var/folders/h7/llxr0vxd5sd9z74__7r6nx9r0000gn/T//ccSPSBV9.s:1248   .text.shellCheckPassword:00000000 shellCheckPassword
/var/folders/h7/llxr0vxd5sd9z74__7r6nx9r0000gn/T//ccSPSBV9.s:1305   .text.shellCheckPassword:00000038 $d
/var/folders/h7/llxr0vxd5sd9z74__7r6nx9r0000gn/T//ccSPSBV9.s:1311   .rodata.shellClear.str1.4:00000000 $d
/var/folders/h7/llxr0vxd5sd9z74__7r6nx9r0000gn/T//ccSPSBV9.s:1315   .text.shellClear:00000000 $t
/var/folders/h7/llxr0vxd5sd9z74__7r6nx9r0000gn/T//ccSPSBV9.s:1321   .text.shellClear:00000000 shellClear
/var/folders/h7/llxr0vxd5sd9z74__7r6nx9r0000gn/T//ccSPSBV9.s:1349   .text.shellClear:00000010 $d
/var/folders/h7/llxr0vxd5sd9z74__7r6nx9r0000gn/T//ccSPSBV9.s:1354   .text.shellPrint:00000000 $t
/var/folders/h7/llxr0vxd5sd9z74__7r6nx9r0000gn/T//ccSPSBV9.s:1360   .text.shellPrint:00000000 shellPrint
/var/folders/h7/llxr0vxd5sd9z74__7r6nx9r0000gn/T//ccSPSBV9.s:1447   .text.shellCheckPermission:00000000 $t
/var/folders/h7/llxr0vxd5sd9z74__7r6nx9r0000gn/T//ccSPSBV9.s:1453   .text.shellCheckPermission:00000000 shellCheckPermission
/var/folders/h7/llxr0vxd5sd9z74__7r6nx9r0000gn/T//ccSPSBV9.s:1528   .text.shellToHex:00000000 $t
/var/folders/h7/llxr0vxd5sd9z74__7r6nx9r0000gn/T//ccSPSBV9.s:1534   .text.shellToHex:00000000 shellToHex
/var/folders/h7/llxr0vxd5sd9z74__7r6nx9r0000gn/T//ccSPSBV9.s:1600   .text.shellGetCommandName:00000000 $t
/var/folders/h7/llxr0vxd5sd9z74__7r6nx9r0000gn/T//ccSPSBV9.s:1605   .text.shellGetCommandName:00000000 shellGetCommandName
/var/folders/h7/llxr0vxd5sd9z74__7r6nx9r0000gn/T//ccSPSBV9.s:1701   .text.shellGetCommandName:00000040 $d
ARM GAS  /var/folders/h7/llxr0vxd5sd9z74__7r6nx9r0000gn/T//ccSPSBV9.s 			page 166


/var/folders/h7/llxr0vxd5sd9z74__7r6nx9r0000gn/T//ccSPSBV9.s:5699   .bss.buffer.0:00000000 buffer.0
/var/folders/h7/llxr0vxd5sd9z74__7r6nx9r0000gn/T//ccSPSBV9.s:1706   .text.shellToDec:00000000 $t
/var/folders/h7/llxr0vxd5sd9z74__7r6nx9r0000gn/T//ccSPSBV9.s:1712   .text.shellToDec:00000000 shellToDec
/var/folders/h7/llxr0vxd5sd9z74__7r6nx9r0000gn/T//ccSPSBV9.s:1834   .text.shellToDec:0000005c $d
/var/folders/h7/llxr0vxd5sd9z74__7r6nx9r0000gn/T//ccSPSBV9.s:1839   .rodata.shellWriteReturnValue.str1.4:00000000 $d
/var/folders/h7/llxr0vxd5sd9z74__7r6nx9r0000gn/T//ccSPSBV9.s:1849   .text.shellWriteReturnValue:00000000 $t
/var/folders/h7/llxr0vxd5sd9z74__7r6nx9r0000gn/T//ccSPSBV9.s:1854   .text.shellWriteReturnValue:00000000 shellWriteReturnValue
/var/folders/h7/llxr0vxd5sd9z74__7r6nx9r0000gn/T//ccSPSBV9.s:1957   .text.shellWriteReturnValue:00000070 $d
/var/folders/h7/llxr0vxd5sd9z74__7r6nx9r0000gn/T//ccSPSBV9.s:1965   .rodata.shellListItem.str1.4:00000000 $d
/var/folders/h7/llxr0vxd5sd9z74__7r6nx9r0000gn/T//ccSPSBV9.s:1984   .text.shellListItem:00000000 $t
/var/folders/h7/llxr0vxd5sd9z74__7r6nx9r0000gn/T//ccSPSBV9.s:1990   .text.shellListItem:00000000 shellListItem
/var/folders/h7/llxr0vxd5sd9z74__7r6nx9r0000gn/T//ccSPSBV9.s:2180   .text.shellListItem:000000c4 $d
/var/folders/h7/llxr0vxd5sd9z74__7r6nx9r0000gn/T//ccSPSBV9.s:2191   .rodata.shellListCommand.str1.4:00000000 $d
/var/folders/h7/llxr0vxd5sd9z74__7r6nx9r0000gn/T//ccSPSBV9.s:2195   .text.shellListCommand:00000000 $t
/var/folders/h7/llxr0vxd5sd9z74__7r6nx9r0000gn/T//ccSPSBV9.s:2201   .text.shellListCommand:00000000 shellListCommand
/var/folders/h7/llxr0vxd5sd9z74__7r6nx9r0000gn/T//ccSPSBV9.s:2282   .text.shellListCommand:00000044 $d
/var/folders/h7/llxr0vxd5sd9z74__7r6nx9r0000gn/T//ccSPSBV9.s:2287   .text.shellCmds:00000000 $t
/var/folders/h7/llxr0vxd5sd9z74__7r6nx9r0000gn/T//ccSPSBV9.s:2293   .text.shellCmds:00000000 shellCmds
/var/folders/h7/llxr0vxd5sd9z74__7r6nx9r0000gn/T//ccSPSBV9.s:2321   .rodata.shellListVar.str1.4:00000000 $d
/var/folders/h7/llxr0vxd5sd9z74__7r6nx9r0000gn/T//ccSPSBV9.s:2325   .text.shellListVar:00000000 $t
/var/folders/h7/llxr0vxd5sd9z74__7r6nx9r0000gn/T//ccSPSBV9.s:2331   .text.shellListVar:00000000 shellListVar
/var/folders/h7/llxr0vxd5sd9z74__7r6nx9r0000gn/T//ccSPSBV9.s:2415   .text.shellListVar:00000048 $d
/var/folders/h7/llxr0vxd5sd9z74__7r6nx9r0000gn/T//ccSPSBV9.s:2420   .text.shellVars:00000000 $t
/var/folders/h7/llxr0vxd5sd9z74__7r6nx9r0000gn/T//ccSPSBV9.s:2426   .text.shellVars:00000000 shellVars
/var/folders/h7/llxr0vxd5sd9z74__7r6nx9r0000gn/T//ccSPSBV9.s:2454   .rodata.shellListUser.str1.4:00000000 $d
/var/folders/h7/llxr0vxd5sd9z74__7r6nx9r0000gn/T//ccSPSBV9.s:2458   .text.shellListUser:00000000 $t
/var/folders/h7/llxr0vxd5sd9z74__7r6nx9r0000gn/T//ccSPSBV9.s:2464   .text.shellListUser:00000000 shellListUser
/var/folders/h7/llxr0vxd5sd9z74__7r6nx9r0000gn/T//ccSPSBV9.s:2545   .text.shellListUser:00000044 $d
/var/folders/h7/llxr0vxd5sd9z74__7r6nx9r0000gn/T//ccSPSBV9.s:2550   .text.shellUsers:00000000 $t
/var/folders/h7/llxr0vxd5sd9z74__7r6nx9r0000gn/T//ccSPSBV9.s:2556   .text.shellUsers:00000000 shellUsers
/var/folders/h7/llxr0vxd5sd9z74__7r6nx9r0000gn/T//ccSPSBV9.s:2584   .rodata.shellListKey.str1.4:00000000 $d
/var/folders/h7/llxr0vxd5sd9z74__7r6nx9r0000gn/T//ccSPSBV9.s:2588   .text.shellListKey:00000000 $t
/var/folders/h7/llxr0vxd5sd9z74__7r6nx9r0000gn/T//ccSPSBV9.s:2594   .text.shellListKey:00000000 shellListKey
/var/folders/h7/llxr0vxd5sd9z74__7r6nx9r0000gn/T//ccSPSBV9.s:2675   .text.shellListKey:00000044 $d
/var/folders/h7/llxr0vxd5sd9z74__7r6nx9r0000gn/T//ccSPSBV9.s:2680   .text.shellKeys:00000000 $t
/var/folders/h7/llxr0vxd5sd9z74__7r6nx9r0000gn/T//ccSPSBV9.s:2686   .text.shellKeys:00000000 shellKeys
/var/folders/h7/llxr0vxd5sd9z74__7r6nx9r0000gn/T//ccSPSBV9.s:2714   .text.shellListAll:00000000 $t
/var/folders/h7/llxr0vxd5sd9z74__7r6nx9r0000gn/T//ccSPSBV9.s:2720   .text.shellListAll:00000000 shellListAll
/var/folders/h7/llxr0vxd5sd9z74__7r6nx9r0000gn/T//ccSPSBV9.s:2742   .rodata.shellDeleteCommandLine.str1.4:00000000 $d
/var/folders/h7/llxr0vxd5sd9z74__7r6nx9r0000gn/T//ccSPSBV9.s:2746   .text.shellDeleteCommandLine:00000000 $t
/var/folders/h7/llxr0vxd5sd9z74__7r6nx9r0000gn/T//ccSPSBV9.s:2752   .text.shellDeleteCommandLine:00000000 shellDeleteCommandLine
/var/folders/h7/llxr0vxd5sd9z74__7r6nx9r0000gn/T//ccSPSBV9.s:2797   .text.shellDeleteCommandLine:0000001c $d
/var/folders/h7/llxr0vxd5sd9z74__7r6nx9r0000gn/T//ccSPSBV9.s:2802   .text.shellClearCommandLine:00000000 $t
/var/folders/h7/llxr0vxd5sd9z74__7r6nx9r0000gn/T//ccSPSBV9.s:2808   .text.shellClearCommandLine:00000000 shellClearCommandLine
/var/folders/h7/llxr0vxd5sd9z74__7r6nx9r0000gn/T//ccSPSBV9.s:2869   .text.shellHistory:00000000 $t
/var/folders/h7/llxr0vxd5sd9z74__7r6nx9r0000gn/T//ccSPSBV9.s:2874   .text.shellHistory:00000000 shellHistory
/var/folders/h7/llxr0vxd5sd9z74__7r6nx9r0000gn/T//ccSPSBV9.s:2998   .text.shellHistory:00000094 $d
/var/folders/h7/llxr0vxd5sd9z74__7r6nx9r0000gn/T//ccSPSBV9.s:3003   .text.shellUp:00000000 $t
/var/folders/h7/llxr0vxd5sd9z74__7r6nx9r0000gn/T//ccSPSBV9.s:3009   .text.shellUp:00000000 shellUp
/var/folders/h7/llxr0vxd5sd9z74__7r6nx9r0000gn/T//ccSPSBV9.s:3032   .text.shellDown:00000000 $t
/var/folders/h7/llxr0vxd5sd9z74__7r6nx9r0000gn/T//ccSPSBV9.s:3038   .text.shellDown:00000000 shellDown
/var/folders/h7/llxr0vxd5sd9z74__7r6nx9r0000gn/T//ccSPSBV9.s:3061   .text.shellTab:00000000 $t
/var/folders/h7/llxr0vxd5sd9z74__7r6nx9r0000gn/T//ccSPSBV9.s:3067   .text.shellTab:00000000 shellTab
/var/folders/h7/llxr0vxd5sd9z74__7r6nx9r0000gn/T//ccSPSBV9.s:3328   .text.shellTab:00000110 $d
/var/folders/h7/llxr0vxd5sd9z74__7r6nx9r0000gn/T//ccSPSBV9.s:3334   .rodata.shellInsertByte.str1.4:00000000 $d
/var/folders/h7/llxr0vxd5sd9z74__7r6nx9r0000gn/T//ccSPSBV9.s:3338   .text.shellInsertByte:00000000 $t
/var/folders/h7/llxr0vxd5sd9z74__7r6nx9r0000gn/T//ccSPSBV9.s:3344   .text.shellInsertByte:00000000 shellInsertByte
ARM GAS  /var/folders/h7/llxr0vxd5sd9z74__7r6nx9r0000gn/T//ccSPSBV9.s 			page 167


/var/folders/h7/llxr0vxd5sd9z74__7r6nx9r0000gn/T//ccSPSBV9.s:3572   .text.shellInsertByte:000000b8 $d
/var/folders/h7/llxr0vxd5sd9z74__7r6nx9r0000gn/T//ccSPSBV9.s:3577   .text.shellDeleteByte:00000000 $t
/var/folders/h7/llxr0vxd5sd9z74__7r6nx9r0000gn/T//ccSPSBV9.s:3583   .text.shellDeleteByte:00000000 shellDeleteByte
/var/folders/h7/llxr0vxd5sd9z74__7r6nx9r0000gn/T//ccSPSBV9.s:3824   .text.shellBackspace:00000000 $t
/var/folders/h7/llxr0vxd5sd9z74__7r6nx9r0000gn/T//ccSPSBV9.s:3830   .text.shellBackspace:00000000 shellBackspace
/var/folders/h7/llxr0vxd5sd9z74__7r6nx9r0000gn/T//ccSPSBV9.s:3853   .text.shellDelete:00000000 $t
/var/folders/h7/llxr0vxd5sd9z74__7r6nx9r0000gn/T//ccSPSBV9.s:3859   .text.shellDelete:00000000 shellDelete
/var/folders/h7/llxr0vxd5sd9z74__7r6nx9r0000gn/T//ccSPSBV9.s:3882   .text.shellSeekCommand:00000000 $t
/var/folders/h7/llxr0vxd5sd9z74__7r6nx9r0000gn/T//ccSPSBV9.s:3888   .text.shellSeekCommand:00000000 shellSeekCommand
/var/folders/h7/llxr0vxd5sd9z74__7r6nx9r0000gn/T//ccSPSBV9.s:4011   .rodata.shellWriteCommandHelp.str1.4:00000000 $d
/var/folders/h7/llxr0vxd5sd9z74__7r6nx9r0000gn/T//ccSPSBV9.s:4018   .text.shellWriteCommandHelp:00000000 $t
/var/folders/h7/llxr0vxd5sd9z74__7r6nx9r0000gn/T//ccSPSBV9.s:4023   .text.shellWriteCommandHelp:00000000 shellWriteCommandHelp
/var/folders/h7/llxr0vxd5sd9z74__7r6nx9r0000gn/T//ccSPSBV9.s:4100   .text.shellWriteCommandHelp:00000054 $d
/var/folders/h7/llxr0vxd5sd9z74__7r6nx9r0000gn/T//ccSPSBV9.s:4107   .text.shellHelp:00000000 $t
/var/folders/h7/llxr0vxd5sd9z74__7r6nx9r0000gn/T//ccSPSBV9.s:4113   .text.shellHelp:00000000 shellHelp
/var/folders/h7/llxr0vxd5sd9z74__7r6nx9r0000gn/T//ccSPSBV9.s:4168   .text.shellGetVarValue:00000000 $t
/var/folders/h7/llxr0vxd5sd9z74__7r6nx9r0000gn/T//ccSPSBV9.s:4174   .text.shellGetVarValue:00000000 shellGetVarValue
/var/folders/h7/llxr0vxd5sd9z74__7r6nx9r0000gn/T//ccSPSBV9.s:4199   .text.shellGetVarValue:00000012 $d
/var/folders/h7/llxr0vxd5sd9z74__7r6nx9r0000gn/T//ccSPSBV9.s:4205   .text.shellGetVarValue:00000018 $t
/var/folders/h7/llxr0vxd5sd9z74__7r6nx9r0000gn/T//ccSPSBV9.s:4281   .rodata.shellShowVar.str1.4:00000000 $d
/var/folders/h7/llxr0vxd5sd9z74__7r6nx9r0000gn/T//ccSPSBV9.s:4288   .text.shellShowVar:00000000 $t
/var/folders/h7/llxr0vxd5sd9z74__7r6nx9r0000gn/T//ccSPSBV9.s:4293   .text.shellShowVar:00000000 shellShowVar
/var/folders/h7/llxr0vxd5sd9z74__7r6nx9r0000gn/T//ccSPSBV9.s:4448   .text.shellShowVar:000000ac $d
/var/folders/h7/llxr0vxd5sd9z74__7r6nx9r0000gn/T//ccSPSBV9.s:4457   .rodata.shellSetVarValue.str1.4:00000000 $d
/var/folders/h7/llxr0vxd5sd9z74__7r6nx9r0000gn/T//ccSPSBV9.s:4464   .text.shellSetVarValue:00000000 $t
/var/folders/h7/llxr0vxd5sd9z74__7r6nx9r0000gn/T//ccSPSBV9.s:4470   .text.shellSetVarValue:00000000 shellSetVarValue
/var/folders/h7/llxr0vxd5sd9z74__7r6nx9r0000gn/T//ccSPSBV9.s:4504   .text.shellSetVarValue:0000001e $d
/var/folders/h7/llxr0vxd5sd9z74__7r6nx9r0000gn/T//ccSPSBV9.s:4510   .text.shellSetVarValue:00000024 $t
/var/folders/h7/llxr0vxd5sd9z74__7r6nx9r0000gn/T//ccSPSBV9.s:4605   .text.shellSetVarValue:00000070 $d
/var/folders/h7/llxr0vxd5sd9z74__7r6nx9r0000gn/T//ccSPSBV9.s:4611   .rodata.shellSetVar.str1.4:00000000 $d
/var/folders/h7/llxr0vxd5sd9z74__7r6nx9r0000gn/T//ccSPSBV9.s:4618   .text.shellSetVar:00000000 $t
/var/folders/h7/llxr0vxd5sd9z74__7r6nx9r0000gn/T//ccSPSBV9.s:4624   .text.shellSetVar:00000000 shellSetVar
/var/folders/h7/llxr0vxd5sd9z74__7r6nx9r0000gn/T//ccSPSBV9.s:4722   .text.shellSetVar:0000005c $d
/var/folders/h7/llxr0vxd5sd9z74__7r6nx9r0000gn/T//ccSPSBV9.s:4728   .text.shellSetUser:00000000 $t
/var/folders/h7/llxr0vxd5sd9z74__7r6nx9r0000gn/T//ccSPSBV9.s:4734   .text.shellSetUser:00000000 shellSetUser
/var/folders/h7/llxr0vxd5sd9z74__7r6nx9r0000gn/T//ccSPSBV9.s:4825   .text.shellSetUser:00000058 $d
/var/folders/h7/llxr0vxd5sd9z74__7r6nx9r0000gn/T//ccSPSBV9.s:4831   .rodata.shellInit.str1.4:00000000 $d
/var/folders/h7/llxr0vxd5sd9z74__7r6nx9r0000gn/T//ccSPSBV9.s:4835   .text.shellInit:00000000 $t
/var/folders/h7/llxr0vxd5sd9z74__7r6nx9r0000gn/T//ccSPSBV9.s:4841   .text.shellInit:00000000 shellInit
/var/folders/h7/llxr0vxd5sd9z74__7r6nx9r0000gn/T//ccSPSBV9.s:4961   .text.shellInit:00000080 $d
/var/folders/h7/llxr0vxd5sd9z74__7r6nx9r0000gn/T//ccSPSBV9.s:4969   .text.shellRunCommand:00000000 $t
/var/folders/h7/llxr0vxd5sd9z74__7r6nx9r0000gn/T//ccSPSBV9.s:4975   .text.shellRunCommand:00000000 shellRunCommand
/var/folders/h7/llxr0vxd5sd9z74__7r6nx9r0000gn/T//ccSPSBV9.s:5112   .text.shellNormalInput:00000000 $t
/var/folders/h7/llxr0vxd5sd9z74__7r6nx9r0000gn/T//ccSPSBV9.s:5118   .text.shellNormalInput:00000000 shellNormalInput
/var/folders/h7/llxr0vxd5sd9z74__7r6nx9r0000gn/T//ccSPSBV9.s:5145   .text.shellExec:00000000 $t
/var/folders/h7/llxr0vxd5sd9z74__7r6nx9r0000gn/T//ccSPSBV9.s:5151   .text.shellExec:00000000 shellExec
/var/folders/h7/llxr0vxd5sd9z74__7r6nx9r0000gn/T//ccSPSBV9.s:5257   .text.shellExec:00000060 $d
/var/folders/h7/llxr0vxd5sd9z74__7r6nx9r0000gn/T//ccSPSBV9.s:5263   .text.shellEnter:00000000 $t
/var/folders/h7/llxr0vxd5sd9z74__7r6nx9r0000gn/T//ccSPSBV9.s:5269   .text.shellEnter:00000000 shellEnter
/var/folders/h7/llxr0vxd5sd9z74__7r6nx9r0000gn/T//ccSPSBV9.s:5298   .text.shellHandler:00000000 $t
/var/folders/h7/llxr0vxd5sd9z74__7r6nx9r0000gn/T//ccSPSBV9.s:5304   .text.shellHandler:00000000 shellHandler
/var/folders/h7/llxr0vxd5sd9z74__7r6nx9r0000gn/T//ccSPSBV9.s:5523   .text.shellHandler:000000d0 $d
/var/folders/h7/llxr0vxd5sd9z74__7r6nx9r0000gn/T//ccSPSBV9.s:5528   .text.shellTask:00000000 $t
/var/folders/h7/llxr0vxd5sd9z74__7r6nx9r0000gn/T//ccSPSBV9.s:5534   .text.shellTask:00000000 shellTask
/var/folders/h7/llxr0vxd5sd9z74__7r6nx9r0000gn/T//ccSPSBV9.s:5580   .text.shellRun:00000000 $t
/var/folders/h7/llxr0vxd5sd9z74__7r6nx9r0000gn/T//ccSPSBV9.s:5586   .text.shellRun:00000000 shellRun
/var/folders/h7/llxr0vxd5sd9z74__7r6nx9r0000gn/T//ccSPSBV9.s:5691   .text.shellRun:0000005c $d
ARM GAS  /var/folders/h7/llxr0vxd5sd9z74__7r6nx9r0000gn/T//ccSPSBV9.s 			page 168


/var/folders/h7/llxr0vxd5sd9z74__7r6nx9r0000gn/T//ccSPSBV9.s:5696   .bss.buffer.0:00000000 $d
/var/folders/h7/llxr0vxd5sd9z74__7r6nx9r0000gn/T//ccSPSBV9.s:5705   shellCommand:00000000 shellCommandclear
/var/folders/h7/llxr0vxd5sd9z74__7r6nx9r0000gn/T//ccSPSBV9.s:5722   .rodata.shellCmdclear:00000000 shellCmdclear
/var/folders/h7/llxr0vxd5sd9z74__7r6nx9r0000gn/T//ccSPSBV9.s:5715   .rodata.shellDescclear:00000000 shellDescclear
/var/folders/h7/llxr0vxd5sd9z74__7r6nx9r0000gn/T//ccSPSBV9.s:5712   .rodata.shellDescclear:00000000 $d
/var/folders/h7/llxr0vxd5sd9z74__7r6nx9r0000gn/T//ccSPSBV9.s:5719   .rodata.shellCmdclear:00000000 $d
/var/folders/h7/llxr0vxd5sd9z74__7r6nx9r0000gn/T//ccSPSBV9.s:5728   shellCommand:00000010 shellCommandkeys
/var/folders/h7/llxr0vxd5sd9z74__7r6nx9r0000gn/T//ccSPSBV9.s:5745   .rodata.shellCmdkeys:00000000 shellCmdkeys
/var/folders/h7/llxr0vxd5sd9z74__7r6nx9r0000gn/T//ccSPSBV9.s:5738   .rodata.shellDesckeys:00000000 shellDesckeys
/var/folders/h7/llxr0vxd5sd9z74__7r6nx9r0000gn/T//ccSPSBV9.s:5735   .rodata.shellDesckeys:00000000 $d
/var/folders/h7/llxr0vxd5sd9z74__7r6nx9r0000gn/T//ccSPSBV9.s:5742   .rodata.shellCmdkeys:00000000 $d
/var/folders/h7/llxr0vxd5sd9z74__7r6nx9r0000gn/T//ccSPSBV9.s:5751   shellCommand:00000020 shellCommandvars
/var/folders/h7/llxr0vxd5sd9z74__7r6nx9r0000gn/T//ccSPSBV9.s:5768   .rodata.shellCmdvars:00000000 shellCmdvars
/var/folders/h7/llxr0vxd5sd9z74__7r6nx9r0000gn/T//ccSPSBV9.s:5761   .rodata.shellDescvars:00000000 shellDescvars
/var/folders/h7/llxr0vxd5sd9z74__7r6nx9r0000gn/T//ccSPSBV9.s:5758   .rodata.shellDescvars:00000000 $d
/var/folders/h7/llxr0vxd5sd9z74__7r6nx9r0000gn/T//ccSPSBV9.s:5765   .rodata.shellCmdvars:00000000 $d
/var/folders/h7/llxr0vxd5sd9z74__7r6nx9r0000gn/T//ccSPSBV9.s:5774   shellCommand:00000030 shellCommandcmds
/var/folders/h7/llxr0vxd5sd9z74__7r6nx9r0000gn/T//ccSPSBV9.s:5791   .rodata.shellCmdcmds:00000000 shellCmdcmds
/var/folders/h7/llxr0vxd5sd9z74__7r6nx9r0000gn/T//ccSPSBV9.s:5784   .rodata.shellDesccmds:00000000 shellDesccmds
/var/folders/h7/llxr0vxd5sd9z74__7r6nx9r0000gn/T//ccSPSBV9.s:5781   .rodata.shellDesccmds:00000000 $d
/var/folders/h7/llxr0vxd5sd9z74__7r6nx9r0000gn/T//ccSPSBV9.s:5788   .rodata.shellCmdcmds:00000000 $d
/var/folders/h7/llxr0vxd5sd9z74__7r6nx9r0000gn/T//ccSPSBV9.s:5797   shellCommand:00000040 shellCommandusers
/var/folders/h7/llxr0vxd5sd9z74__7r6nx9r0000gn/T//ccSPSBV9.s:5814   .rodata.shellCmdusers:00000000 shellCmdusers
/var/folders/h7/llxr0vxd5sd9z74__7r6nx9r0000gn/T//ccSPSBV9.s:5807   .rodata.shellDescusers:00000000 shellDescusers
/var/folders/h7/llxr0vxd5sd9z74__7r6nx9r0000gn/T//ccSPSBV9.s:5804   .rodata.shellDescusers:00000000 $d
/var/folders/h7/llxr0vxd5sd9z74__7r6nx9r0000gn/T//ccSPSBV9.s:5811   .rodata.shellCmdusers:00000000 $d
/var/folders/h7/llxr0vxd5sd9z74__7r6nx9r0000gn/T//ccSPSBV9.s:5820   shellCommand:00000050 shellCommandhelp
/var/folders/h7/llxr0vxd5sd9z74__7r6nx9r0000gn/T//ccSPSBV9.s:5837   .rodata.shellCmdhelp:00000000 shellCmdhelp
/var/folders/h7/llxr0vxd5sd9z74__7r6nx9r0000gn/T//ccSPSBV9.s:5830   .rodata.shellDeschelp:00000000 shellDeschelp
/var/folders/h7/llxr0vxd5sd9z74__7r6nx9r0000gn/T//ccSPSBV9.s:5827   .rodata.shellDeschelp:00000000 $d
/var/folders/h7/llxr0vxd5sd9z74__7r6nx9r0000gn/T//ccSPSBV9.s:5834   .rodata.shellCmdhelp:00000000 $d
/var/folders/h7/llxr0vxd5sd9z74__7r6nx9r0000gn/T//ccSPSBV9.s:5843   shellCommand:00000060 shellKey0x0D000000
/var/folders/h7/llxr0vxd5sd9z74__7r6nx9r0000gn/T//ccSPSBV9.s:5853   .rodata.shellDesc0x0D000000:00000000 shellDesc0x0D000000
/var/folders/h7/llxr0vxd5sd9z74__7r6nx9r0000gn/T//ccSPSBV9.s:5850   .rodata.shellDesc0x0D000000:00000000 $d
/var/folders/h7/llxr0vxd5sd9z74__7r6nx9r0000gn/T//ccSPSBV9.s:5859   shellCommand:00000070 shellKey0x0A000000
/var/folders/h7/llxr0vxd5sd9z74__7r6nx9r0000gn/T//ccSPSBV9.s:5869   .rodata.shellDesc0x0A000000:00000000 shellDesc0x0A000000
/var/folders/h7/llxr0vxd5sd9z74__7r6nx9r0000gn/T//ccSPSBV9.s:5866   .rodata.shellDesc0x0A000000:00000000 $d
/var/folders/h7/llxr0vxd5sd9z74__7r6nx9r0000gn/T//ccSPSBV9.s:5875   shellCommand:00000080 shellKey0x1B5B337E
/var/folders/h7/llxr0vxd5sd9z74__7r6nx9r0000gn/T//ccSPSBV9.s:5885   .rodata.shellDesc0x1B5B337E:00000000 shellDesc0x1B5B337E
/var/folders/h7/llxr0vxd5sd9z74__7r6nx9r0000gn/T//ccSPSBV9.s:5882   .rodata.shellDesc0x1B5B337E:00000000 $d
/var/folders/h7/llxr0vxd5sd9z74__7r6nx9r0000gn/T//ccSPSBV9.s:5891   shellCommand:00000090 shellKey0x7F000000
/var/folders/h7/llxr0vxd5sd9z74__7r6nx9r0000gn/T//ccSPSBV9.s:5901   .rodata.shellDesc0x7F000000:00000000 shellDesc0x7F000000
/var/folders/h7/llxr0vxd5sd9z74__7r6nx9r0000gn/T//ccSPSBV9.s:5898   .rodata.shellDesc0x7F000000:00000000 $d
/var/folders/h7/llxr0vxd5sd9z74__7r6nx9r0000gn/T//ccSPSBV9.s:5907   shellCommand:000000a0 shellKey0x08000000
/var/folders/h7/llxr0vxd5sd9z74__7r6nx9r0000gn/T//ccSPSBV9.s:5917   .rodata.shellDesc0x08000000:00000000 shellDesc0x08000000
/var/folders/h7/llxr0vxd5sd9z74__7r6nx9r0000gn/T//ccSPSBV9.s:5914   .rodata.shellDesc0x08000000:00000000 $d
/var/folders/h7/llxr0vxd5sd9z74__7r6nx9r0000gn/T//ccSPSBV9.s:5923   shellCommand:000000b0 shellKey0x09000000
/var/folders/h7/llxr0vxd5sd9z74__7r6nx9r0000gn/T//ccSPSBV9.s:5933   .rodata.shellDesc0x09000000:00000000 shellDesc0x09000000
/var/folders/h7/llxr0vxd5sd9z74__7r6nx9r0000gn/T//ccSPSBV9.s:5930   .rodata.shellDesc0x09000000:00000000 $d
/var/folders/h7/llxr0vxd5sd9z74__7r6nx9r0000gn/T//ccSPSBV9.s:5939   shellCommand:000000c0 shellKey0x1B5B4400
/var/folders/h7/llxr0vxd5sd9z74__7r6nx9r0000gn/T//ccSPSBV9.s:5949   .rodata.shellDesc0x1B5B4400:00000000 shellDesc0x1B5B4400
/var/folders/h7/llxr0vxd5sd9z74__7r6nx9r0000gn/T//ccSPSBV9.s:5946   .rodata.shellDesc0x1B5B4400:00000000 $d
/var/folders/h7/llxr0vxd5sd9z74__7r6nx9r0000gn/T//ccSPSBV9.s:5955   shellCommand:000000d0 shellKey0x1B5B4300
/var/folders/h7/llxr0vxd5sd9z74__7r6nx9r0000gn/T//ccSPSBV9.s:5965   .rodata.shellDesc0x1B5B4300:00000000 shellDesc0x1B5B4300
/var/folders/h7/llxr0vxd5sd9z74__7r6nx9r0000gn/T//ccSPSBV9.s:5962   .rodata.shellDesc0x1B5B4300:00000000 $d
/var/folders/h7/llxr0vxd5sd9z74__7r6nx9r0000gn/T//ccSPSBV9.s:5971   shellCommand:000000e0 shellKey0x1B5B4200
/var/folders/h7/llxr0vxd5sd9z74__7r6nx9r0000gn/T//ccSPSBV9.s:5981   .rodata.shellDesc0x1B5B4200:00000000 shellDesc0x1B5B4200
ARM GAS  /var/folders/h7/llxr0vxd5sd9z74__7r6nx9r0000gn/T//ccSPSBV9.s 			page 169


/var/folders/h7/llxr0vxd5sd9z74__7r6nx9r0000gn/T//ccSPSBV9.s:5978   .rodata.shellDesc0x1B5B4200:00000000 $d
/var/folders/h7/llxr0vxd5sd9z74__7r6nx9r0000gn/T//ccSPSBV9.s:5987   shellCommand:000000f0 shellKey0x1B5B4100
/var/folders/h7/llxr0vxd5sd9z74__7r6nx9r0000gn/T//ccSPSBV9.s:5997   .rodata.shellDesc0x1B5B4100:00000000 shellDesc0x1B5B4100
/var/folders/h7/llxr0vxd5sd9z74__7r6nx9r0000gn/T//ccSPSBV9.s:5994   .rodata.shellDesc0x1B5B4100:00000000 $d
/var/folders/h7/llxr0vxd5sd9z74__7r6nx9r0000gn/T//ccSPSBV9.s:6003   shellCommand:00000100 shellCommandsetVar
/var/folders/h7/llxr0vxd5sd9z74__7r6nx9r0000gn/T//ccSPSBV9.s:6020   .rodata.shellCmdsetVar:00000000 shellCmdsetVar
/var/folders/h7/llxr0vxd5sd9z74__7r6nx9r0000gn/T//ccSPSBV9.s:6013   .rodata.shellDescsetVar:00000000 shellDescsetVar
/var/folders/h7/llxr0vxd5sd9z74__7r6nx9r0000gn/T//ccSPSBV9.s:6010   .rodata.shellDescsetVar:00000000 $d
/var/folders/h7/llxr0vxd5sd9z74__7r6nx9r0000gn/T//ccSPSBV9.s:6017   .rodata.shellCmdsetVar:00000000 $d
/var/folders/h7/llxr0vxd5sd9z74__7r6nx9r0000gn/T//ccSPSBV9.s:6023   .bss.shellList:00000000 $d
/var/folders/h7/llxr0vxd5sd9z74__7r6nx9r0000gn/T//ccSPSBV9.s:6032   shellCommand:00000110 shellUserDefault
/var/folders/h7/llxr0vxd5sd9z74__7r6nx9r0000gn/T//ccSPSBV9.s:6056   .rodata.shellCmdDefaultUser:00000000 shellCmdDefaultUser
/var/folders/h7/llxr0vxd5sd9z74__7r6nx9r0000gn/T//ccSPSBV9.s:6049   .rodata.shellPasswordDefaultUser:00000000 shellPasswordDefaultUser
/var/folders/h7/llxr0vxd5sd9z74__7r6nx9r0000gn/T//ccSPSBV9.s:6042   .rodata.shellDesDefaultUser:00000000 shellDesDefaultUser
/var/folders/h7/llxr0vxd5sd9z74__7r6nx9r0000gn/T//ccSPSBV9.s:6039   .rodata.shellDesDefaultUser:00000000 $d
/var/folders/h7/llxr0vxd5sd9z74__7r6nx9r0000gn/T//ccSPSBV9.s:6046   .rodata.shellPasswordDefaultUser:00000000 $d
/var/folders/h7/llxr0vxd5sd9z74__7r6nx9r0000gn/T//ccSPSBV9.s:6053   .rodata.shellCmdDefaultUser:00000000 $d

UNDEFINED SYMBOLS
strcmp
strlen
vsnprintf
strncmp
_shell_command_start
_shell_command_end
shellExtRun
