ARM GAS  C:\Users\CL\AppData\Local\Temp\cc2wlHtN.s 			page 1


   1              		.cpu cortex-m4
   2              		.arch armv7e-m
   3              		.fpu fpv4-sp-d16
   4              		.eabi_attribute 27, 1
   5              		.eabi_attribute 28, 1
   6              		.eabi_attribute 20, 1
   7              		.eabi_attribute 21, 1
   8              		.eabi_attribute 23, 3
   9              		.eabi_attribute 24, 1
  10              		.eabi_attribute 25, 1
  11              		.eabi_attribute 26, 1
  12              		.eabi_attribute 30, 4
  13              		.eabi_attribute 34, 1
  14              		.eabi_attribute 18, 4
  15              		.file	"spi.c"
  16              		.text
  17              		.section	.text.MX_SPI2_Init,"ax",%progbits
  18              		.align	1
  19              		.global	MX_SPI2_Init
  20              		.syntax unified
  21              		.thumb
  22              		.thumb_func
  24              	MX_SPI2_Init:
  25              		@ args = 0, pretend = 0, frame = 0
  26              		@ frame_needed = 0, uses_anonymous_args = 0
  27 0000 1148     		ldr	r0, .L3
  28 0002 124A     		ldr	r2, .L3+4
  29 0004 08B5     		push	{r3, lr}
  30 0006 4FF48273 		mov	r3, #260
  31 000a C0E90023 		strd	r2, r3, [r0]
  32 000e 0023     		movs	r3, #0
  33 0010 4FF4E062 		mov	r2, #1792
  34 0014 C0E90232 		strd	r3, r2, [r0, #8]
  35 0018 4FF40071 		mov	r1, #512
  36 001c 1822     		movs	r2, #24
  37 001e C0E90612 		strd	r1, r2, [r0, #24]
  38 0022 0722     		movs	r2, #7
  39 0024 C0E90433 		strd	r3, r3, [r0, #16]
  40 0028 C0E90833 		strd	r3, r3, [r0, #32]
  41 002c C0E90B23 		strd	r2, r3, [r0, #44]
  42 0030 8362     		str	r3, [r0, #40]
  43 0032 0823     		movs	r3, #8
  44 0034 4363     		str	r3, [r0, #52]
  45 0036 FFF7FEFF 		bl	HAL_SPI_Init
  46 003a 18B1     		cbz	r0, .L1
  47 003c BDE80840 		pop	{r3, lr}
  48 0040 FFF7FEBF 		b	Error_Handler
  49              	.L1:
  50 0044 08BD     		pop	{r3, pc}
  51              	.L4:
  52 0046 00BF     		.align	2
  53              	.L3:
  54 0048 00000000 		.word	.LANCHOR0
  55 004c 00380040 		.word	1073756160
  57              		.section	.text.MX_SPI3_Init,"ax",%progbits
  58              		.align	1
  59              		.global	MX_SPI3_Init
ARM GAS  C:\Users\CL\AppData\Local\Temp\cc2wlHtN.s 			page 2


  60              		.syntax unified
  61              		.thumb
  62              		.thumb_func
  64              	MX_SPI3_Init:
  65              		@ args = 0, pretend = 0, frame = 0
  66              		@ frame_needed = 0, uses_anonymous_args = 0
  67 0000 1048     		ldr	r0, .L7
  68 0002 114A     		ldr	r2, .L7+4
  69 0004 08B5     		push	{r3, lr}
  70 0006 4FF48273 		mov	r3, #260
  71 000a C0E90023 		strd	r2, r3, [r0]
  72 000e 0023     		movs	r3, #0
  73 0010 4FF4E062 		mov	r2, #1792
  74 0014 4FF40071 		mov	r1, #512
  75 0018 C0E90232 		strd	r3, r2, [r0, #8]
  76 001c 0822     		movs	r2, #8
  77 001e C0E90612 		strd	r1, r2, [r0, #24]
  78 0022 0721     		movs	r1, #7
  79 0024 C0E90433 		strd	r3, r3, [r0, #16]
  80 0028 C0E90833 		strd	r3, r3, [r0, #32]
  81 002c C0E90B13 		strd	r1, r3, [r0, #44]
  82 0030 8362     		str	r3, [r0, #40]
  83 0032 4263     		str	r2, [r0, #52]
  84 0034 FFF7FEFF 		bl	HAL_SPI_Init
  85 0038 18B1     		cbz	r0, .L5
  86 003a BDE80840 		pop	{r3, lr}
  87 003e FFF7FEBF 		b	Error_Handler
  88              	.L5:
  89 0042 08BD     		pop	{r3, pc}
  90              	.L8:
  91              		.align	2
  92              	.L7:
  93 0044 00000000 		.word	.LANCHOR1
  94 0048 003C0040 		.word	1073757184
  96              		.section	.text.HAL_SPI_MspInit,"ax",%progbits
  97              		.align	1
  98              		.global	HAL_SPI_MspInit
  99              		.syntax unified
 100              		.thumb
 101              		.thumb_func
 103              	HAL_SPI_MspInit:
 104              		@ args = 0, pretend = 0, frame = 40
 105              		@ frame_needed = 0, uses_anonymous_args = 0
 106 0000 10B5     		push	{r4, lr}
 107 0002 1422     		movs	r2, #20
 108 0004 8AB0     		sub	sp, sp, #40
 109 0006 0446     		mov	r4, r0
 110 0008 0021     		movs	r1, #0
 111 000a 0DEB0200 		add	r0, sp, r2
 112 000e FFF7FEFF 		bl	memset
 113 0012 2368     		ldr	r3, [r4]
 114 0014 214A     		ldr	r2, .L13
 115 0016 9342     		cmp	r3, r2
 116 0018 21D1     		bne	.L10
 117 001a 214B     		ldr	r3, .L13+4
 118 001c 9A6D     		ldr	r2, [r3, #88]
 119 001e 42F48042 		orr	r2, r2, #16384
ARM GAS  C:\Users\CL\AppData\Local\Temp\cc2wlHtN.s 			page 3


 120 0022 9A65     		str	r2, [r3, #88]
 121 0024 9A6D     		ldr	r2, [r3, #88]
 122 0026 02F48042 		and	r2, r2, #16384
 123 002a 0192     		str	r2, [sp, #4]
 124 002c 019A     		ldr	r2, [sp, #4]
 125 002e DA6C     		ldr	r2, [r3, #76]
 126 0030 42F00202 		orr	r2, r2, #2
 127 0034 DA64     		str	r2, [r3, #76]
 128 0036 DB6C     		ldr	r3, [r3, #76]
 129 0038 03F00203 		and	r3, r3, #2
 130 003c 0293     		str	r3, [sp, #8]
 131 003e 029B     		ldr	r3, [sp, #8]
 132 0040 4FF46041 		mov	r1, #57344
 133 0044 0223     		movs	r3, #2
 134 0046 CDE90513 		strd	r1, r3, [sp, #20]
 135 004a 0323     		movs	r3, #3
 136 004c 0893     		str	r3, [sp, #32]
 137 004e 0523     		movs	r3, #5
 138              	.L12:
 139 0050 1448     		ldr	r0, .L13+8
 140 0052 0993     		str	r3, [sp, #36]
 141 0054 05A9     		add	r1, sp, #20
 142 0056 FFF7FEFF 		bl	HAL_GPIO_Init
 143              	.L9:
 144 005a 0AB0     		add	sp, sp, #40
 145              		@ sp needed
 146 005c 10BD     		pop	{r4, pc}
 147              	.L10:
 148 005e 124A     		ldr	r2, .L13+12
 149 0060 9342     		cmp	r3, r2
 150 0062 FAD1     		bne	.L9
 151 0064 0E4B     		ldr	r3, .L13+4
 152 0066 9A6D     		ldr	r2, [r3, #88]
 153 0068 42F40042 		orr	r2, r2, #32768
 154 006c 9A65     		str	r2, [r3, #88]
 155 006e 9A6D     		ldr	r2, [r3, #88]
 156 0070 02F40042 		and	r2, r2, #32768
 157 0074 0392     		str	r2, [sp, #12]
 158 0076 039A     		ldr	r2, [sp, #12]
 159 0078 DA6C     		ldr	r2, [r3, #76]
 160 007a 42F00202 		orr	r2, r2, #2
 161 007e DA64     		str	r2, [r3, #76]
 162 0080 DB6C     		ldr	r3, [r3, #76]
 163 0082 03F00203 		and	r3, r3, #2
 164 0086 0493     		str	r3, [sp, #16]
 165 0088 049B     		ldr	r3, [sp, #16]
 166 008a 3822     		movs	r2, #56
 167 008c 0223     		movs	r3, #2
 168 008e CDE90523 		strd	r2, r3, [sp, #20]
 169 0092 0323     		movs	r3, #3
 170 0094 0893     		str	r3, [sp, #32]
 171 0096 0623     		movs	r3, #6
 172 0098 DAE7     		b	.L12
 173              	.L14:
 174 009a 00BF     		.align	2
 175              	.L13:
 176 009c 00380040 		.word	1073756160
ARM GAS  C:\Users\CL\AppData\Local\Temp\cc2wlHtN.s 			page 4


 177 00a0 00100240 		.word	1073876992
 178 00a4 00040048 		.word	1207960576
 179 00a8 003C0040 		.word	1073757184
 181              		.section	.text.HAL_SPI_MspDeInit,"ax",%progbits
 182              		.align	1
 183              		.global	HAL_SPI_MspDeInit
 184              		.syntax unified
 185              		.thumb
 186              		.thumb_func
 188              	HAL_SPI_MspDeInit:
 189              		@ args = 0, pretend = 0, frame = 0
 190              		@ frame_needed = 0, uses_anonymous_args = 0
 191 0000 08B5     		push	{r3, lr}
 192 0002 154A     		ldr	r2, .L19
 193 0004 0368     		ldr	r3, [r0]
 194 0006 9342     		cmp	r3, r2
 195 0008 0FD1     		bne	.L16
 196 000a 02F5EC32 		add	r2, r2, #120832
 197 000e 1348     		ldr	r0, .L19+4
 198 0010 936D     		ldr	r3, [r2, #88]
 199 0012 23F48043 		bic	r3, r3, #16384
 200 0016 9365     		str	r3, [r2, #88]
 201 0018 4FF47041 		mov	r1, #61440
 202 001c FFF7FEFF 		bl	HAL_GPIO_DeInit
 203 0020 2420     		movs	r0, #36
 204              	.L18:
 205 0022 BDE80840 		pop	{r3, lr}
 206 0026 FFF7FEBF 		b	HAL_NVIC_DisableIRQ
 207              	.L16:
 208 002a 0D4A     		ldr	r2, .L19+8
 209 002c 9342     		cmp	r3, r2
 210 002e 11D1     		bne	.L15
 211 0030 02F5EA32 		add	r2, r2, #119808
 212 0034 4FF40041 		mov	r1, #32768
 213 0038 936D     		ldr	r3, [r2, #88]
 214 003a 23F40043 		bic	r3, r3, #32768
 215 003e 9365     		str	r3, [r2, #88]
 216 0040 4FF09040 		mov	r0, #1207959552
 217 0044 FFF7FEFF 		bl	HAL_GPIO_DeInit
 218 0048 0448     		ldr	r0, .L19+4
 219 004a 3821     		movs	r1, #56
 220 004c FFF7FEFF 		bl	HAL_GPIO_DeInit
 221 0050 3320     		movs	r0, #51
 222 0052 E6E7     		b	.L18
 223              	.L15:
 224 0054 08BD     		pop	{r3, pc}
 225              	.L20:
 226 0056 00BF     		.align	2
 227              	.L19:
 228 0058 00380040 		.word	1073756160
 229 005c 00040048 		.word	1207960576
 230 0060 003C0040 		.word	1073757184
 232              		.global	hspi3
 233              		.global	hspi2
 234              		.global	hspi1
 235              		.section	.bss.hspi1,"aw",%nobits
 236              		.align	2
ARM GAS  C:\Users\CL\AppData\Local\Temp\cc2wlHtN.s 			page 5


 239              	hspi1:
 240 0000 00000000 		.space	100
 240      00000000 
 240      00000000 
 240      00000000 
 240      00000000 
 241              		.section	.bss.hspi2,"aw",%nobits
 242              		.align	2
 243              		.set	.LANCHOR0,. + 0
 246              	hspi2:
 247 0000 00000000 		.space	100
 247      00000000 
 247      00000000 
 247      00000000 
 247      00000000 
 248              		.section	.bss.hspi3,"aw",%nobits
 249              		.align	2
 250              		.set	.LANCHOR1,. + 0
 253              	hspi3:
 254 0000 00000000 		.space	100
 254      00000000 
 254      00000000 
 254      00000000 
 254      00000000 
 255              		.ident	"GCC: (GNU Arm Embedded Toolchain 10.3-2021.10) 10.3.1 20210824 (release)"
ARM GAS  C:\Users\CL\AppData\Local\Temp\cc2wlHtN.s 			page 6


DEFINED SYMBOLS
                            *ABS*:00000000 spi.c
C:\Users\CL\AppData\Local\Temp\cc2wlHtN.s:18     .text.MX_SPI2_Init:00000000 $t
C:\Users\CL\AppData\Local\Temp\cc2wlHtN.s:24     .text.MX_SPI2_Init:00000000 MX_SPI2_Init
C:\Users\CL\AppData\Local\Temp\cc2wlHtN.s:54     .text.MX_SPI2_Init:00000048 $d
C:\Users\CL\AppData\Local\Temp\cc2wlHtN.s:58     .text.MX_SPI3_Init:00000000 $t
C:\Users\CL\AppData\Local\Temp\cc2wlHtN.s:64     .text.MX_SPI3_Init:00000000 MX_SPI3_Init
C:\Users\CL\AppData\Local\Temp\cc2wlHtN.s:93     .text.MX_SPI3_Init:00000044 $d
C:\Users\CL\AppData\Local\Temp\cc2wlHtN.s:97     .text.HAL_SPI_MspInit:00000000 $t
C:\Users\CL\AppData\Local\Temp\cc2wlHtN.s:103    .text.HAL_SPI_MspInit:00000000 HAL_SPI_MspInit
C:\Users\CL\AppData\Local\Temp\cc2wlHtN.s:176    .text.HAL_SPI_MspInit:0000009c $d
C:\Users\CL\AppData\Local\Temp\cc2wlHtN.s:182    .text.HAL_SPI_MspDeInit:00000000 $t
C:\Users\CL\AppData\Local\Temp\cc2wlHtN.s:188    .text.HAL_SPI_MspDeInit:00000000 HAL_SPI_MspDeInit
C:\Users\CL\AppData\Local\Temp\cc2wlHtN.s:228    .text.HAL_SPI_MspDeInit:00000058 $d
C:\Users\CL\AppData\Local\Temp\cc2wlHtN.s:253    .bss.hspi3:00000000 hspi3
C:\Users\CL\AppData\Local\Temp\cc2wlHtN.s:246    .bss.hspi2:00000000 hspi2
C:\Users\CL\AppData\Local\Temp\cc2wlHtN.s:239    .bss.hspi1:00000000 hspi1
C:\Users\CL\AppData\Local\Temp\cc2wlHtN.s:236    .bss.hspi1:00000000 $d
C:\Users\CL\AppData\Local\Temp\cc2wlHtN.s:242    .bss.hspi2:00000000 $d
C:\Users\CL\AppData\Local\Temp\cc2wlHtN.s:249    .bss.hspi3:00000000 $d

UNDEFINED SYMBOLS
HAL_SPI_Init
Error_Handler
memset
HAL_GPIO_Init
HAL_GPIO_DeInit
HAL_NVIC_DisableIRQ
