ARM GAS  C:\Users\CL\AppData\Local\Temp\ccBkzGqQ.s 			page 1


   1              		.cpu cortex-m4
   2              		.arch armv7e-m
   3              		.fpu fpv4-sp-d16
   4              		.eabi_attribute 27, 1
   5              		.eabi_attribute 28, 1
   6              		.eabi_attribute 20, 1
   7              		.eabi_attribute 21, 1
   8              		.eabi_attribute 23, 3
   9              		.eabi_attribute 24, 1
  10              		.eabi_attribute 25, 1
  11              		.eabi_attribute 26, 1
  12              		.eabi_attribute 30, 4
  13              		.eabi_attribute 34, 1
  14              		.eabi_attribute 18, 4
  15              		.file	"stm32l4xx_hal_adc_ex.c"
  16              		.text
  17              		.section	.text.LL_ADC_SetChannelSamplingTime,"ax",%progbits
  18              		.align	1
  19              		.syntax unified
  20              		.thumb
  21              		.thumb_func
  23              	LL_ADC_SetChannelSamplingTime:
  24              		@ args = 0, pretend = 0, frame = 0
  25              		@ frame_needed = 0, uses_anonymous_args = 0
  26 0000 30B5     		push	{r4, r5, lr}
  27 0002 CC0D     		lsrs	r4, r1, #23
  28 0004 04F00404 		and	r4, r4, #4
  29 0008 1430     		adds	r0, r0, #20
  30 000a C1F30451 		ubfx	r1, r1, #20, #5
  31 000e 2358     		ldr	r3, [r4, r0]
  32 0010 0725     		movs	r5, #7
  33 0012 8D40     		lsls	r5, r5, r1
  34 0014 23EA0503 		bic	r3, r3, r5
  35 0018 02FA01F1 		lsl	r1, r2, r1
  36 001c 0B43     		orrs	r3, r3, r1
  37 001e 2350     		str	r3, [r4, r0]
  38 0020 30BD     		pop	{r4, r5, pc}
  40              		.section	.text.LL_ADC_INJ_IsConversionOngoing,"ax",%progbits
  41              		.align	1
  42              		.syntax unified
  43              		.thumb
  44              		.thumb_func
  46              	LL_ADC_INJ_IsConversionOngoing:
  47              		@ args = 0, pretend = 0, frame = 0
  48              		@ frame_needed = 0, uses_anonymous_args = 0
  49              		@ link register save eliminated.
  50 0000 8068     		ldr	r0, [r0, #8]
  51 0002 C0F3C000 		ubfx	r0, r0, #3, #1
  52 0006 7047     		bx	lr
  54              		.section	.text.HAL_ADCEx_Calibration_Start,"ax",%progbits
  55              		.align	1
  56              		.global	HAL_ADCEx_Calibration_Start
  57              		.syntax unified
  58              		.thumb
  59              		.thumb_func
  61              	HAL_ADCEx_Calibration_Start:
  62              		@ args = 0, pretend = 0, frame = 8
ARM GAS  C:\Users\CL\AppData\Local\Temp\ccBkzGqQ.s 			page 2


  63              		@ frame_needed = 0, uses_anonymous_args = 0
  64 0000 73B5     		push	{r0, r1, r4, r5, r6, lr}
  65 0002 0023     		movs	r3, #0
  66 0004 0193     		str	r3, [sp, #4]
  67 0006 90F85030 		ldrb	r3, [r0, #80]	@ zero_extendqisi2
  68 000a 012B     		cmp	r3, #1
  69 000c 0446     		mov	r4, r0
  70 000e 0D46     		mov	r5, r1
  71 0010 3ED0     		beq	.L10
  72 0012 0123     		movs	r3, #1
  73 0014 80F85030 		strb	r3, [r0, #80]
  74 0018 FFF7FEFF 		bl	ADC_Disable
  75 001c 0028     		cmp	r0, #0
  76 001e 33D1     		bne	.L5
  77 0020 626D     		ldr	r2, [r4, #84]
  78 0022 2668     		ldr	r6, [r4]
  79 0024 22F48852 		bic	r2, r2, #4352
  80 0028 22F00202 		bic	r2, r2, #2
  81 002c 42F00202 		orr	r2, r2, #2
  82 0030 6265     		str	r2, [r4, #84]
  83 0032 B368     		ldr	r3, [r6, #8]
  84 0034 23F04043 		bic	r3, r3, #-1073741824
  85 0038 23F03F03 		bic	r3, r3, #63
  86 003c 05F08045 		and	r5, r5, #1073741824
  87 0040 2B43     		orrs	r3, r3, r5
  88 0042 43F00043 		orr	r3, r3, #-2147483648
  89 0046 B360     		str	r3, [r6, #8]
  90              	.L6:
  91 0048 B368     		ldr	r3, [r6, #8]
  92 004a 002B     		cmp	r3, #0
  93 004c 12DA     		bge	.L7
  94 004e 019B     		ldr	r3, [sp, #4]
  95 0050 0133     		adds	r3, r3, #1
  96 0052 0193     		str	r3, [sp, #4]
  97 0054 019B     		ldr	r3, [sp, #4]
  98 0056 B3F5912F 		cmp	r3, #296960
  99 005a F5D3     		bcc	.L6
 100 005c 636D     		ldr	r3, [r4, #84]
 101 005e 23F01203 		bic	r3, r3, #18
 102 0062 43F01003 		orr	r3, r3, #16
 103 0066 6365     		str	r3, [r4, #84]
 104 0068 0023     		movs	r3, #0
 105 006a 84F85030 		strb	r3, [r4, #80]
 106 006e 0120     		movs	r0, #1
 107              	.L4:
 108 0070 02B0     		add	sp, sp, #8
 109              		@ sp needed
 110 0072 70BD     		pop	{r4, r5, r6, pc}
 111              	.L7:
 112 0074 636D     		ldr	r3, [r4, #84]
 113 0076 23F00303 		bic	r3, r3, #3
 114 007a 43F00103 		orr	r3, r3, #1
 115              	.L11:
 116 007e 6365     		str	r3, [r4, #84]
 117 0080 0023     		movs	r3, #0
 118 0082 84F85030 		strb	r3, [r4, #80]
 119 0086 F3E7     		b	.L4
ARM GAS  C:\Users\CL\AppData\Local\Temp\ccBkzGqQ.s 			page 3


 120              	.L5:
 121 0088 636D     		ldr	r3, [r4, #84]
 122 008a 43F01003 		orr	r3, r3, #16
 123 008e F6E7     		b	.L11
 124              	.L10:
 125 0090 0220     		movs	r0, #2
 126 0092 EDE7     		b	.L4
 128              		.section	.text.HAL_ADCEx_Calibration_GetValue,"ax",%progbits
 129              		.align	1
 130              		.global	HAL_ADCEx_Calibration_GetValue
 131              		.syntax unified
 132              		.thumb
 133              		.thumb_func
 135              	HAL_ADCEx_Calibration_GetValue:
 136              		@ args = 0, pretend = 0, frame = 0
 137              		@ frame_needed = 0, uses_anonymous_args = 0
 138              		@ link register save eliminated.
 139 0000 0368     		ldr	r3, [r0]
 140 0002 D3F8B400 		ldr	r0, [r3, #180]
 141 0006 0840     		ands	r0, r0, r1
 142 0008 090B     		lsrs	r1, r1, #12
 143 000a 01F01001 		and	r1, r1, #16
 144 000e 00F07F10 		and	r0, r0, #8323199
 145 0012 C840     		lsrs	r0, r0, r1
 146 0014 7047     		bx	lr
 148              		.section	.text.HAL_ADCEx_Calibration_SetValue,"ax",%progbits
 149              		.align	1
 150              		.global	HAL_ADCEx_Calibration_SetValue
 151              		.syntax unified
 152              		.thumb
 153              		.thumb_func
 155              	HAL_ADCEx_Calibration_SetValue:
 156              		@ args = 0, pretend = 0, frame = 0
 157              		@ frame_needed = 0, uses_anonymous_args = 0
 158 0000 F8B5     		push	{r3, r4, r5, r6, r7, lr}
 159 0002 0346     		mov	r3, r0
 160 0004 90F85000 		ldrb	r0, [r0, #80]	@ zero_extendqisi2
 161 0008 0128     		cmp	r0, #1
 162 000a 2DD0     		beq	.L17
 163 000c 0120     		movs	r0, #1
 164 000e 83F85000 		strb	r0, [r3, #80]
 165 0012 1868     		ldr	r0, [r3]
 166 0014 8468     		ldr	r4, [r0, #8]
 167 0016 FFF7FEFF 		bl	LL_ADC_INJ_IsConversionOngoing
 168 001a 1D68     		ldr	r5, [r3]
 169 001c AE68     		ldr	r6, [r5, #8]
 170 001e F607     		lsls	r6, r6, #31
 171 0020 18D5     		bpl	.L15
 172 0022 04F00404 		and	r4, r4, #4
 173 0026 2043     		orrs	r0, r0, r4
 174 0028 14D1     		bne	.L15
 175 002a 01F07F07 		and	r7, r1, #127
 176 002e 0C0B     		lsrs	r4, r1, #12
 177 0030 D5F8B460 		ldr	r6, [r5, #180]
 178 0034 24EA0704 		bic	r4, r4, r7
 179 0038 04F01004 		and	r4, r4, #16
 180 003c 01F07F11 		and	r1, r1, #8323199
ARM GAS  C:\Users\CL\AppData\Local\Temp\ccBkzGqQ.s 			page 4


 181 0040 A240     		lsls	r2, r2, r4
 182 0042 26EA0101 		bic	r1, r6, r1
 183 0046 0A43     		orrs	r2, r2, r1
 184 0048 C5F8B420 		str	r2, [r5, #180]
 185              	.L16:
 186 004c 0022     		movs	r2, #0
 187 004e 83F85020 		strb	r2, [r3, #80]
 188              	.L14:
 189 0052 F8BD     		pop	{r3, r4, r5, r6, r7, pc}
 190              	.L15:
 191 0054 5A6D     		ldr	r2, [r3, #84]
 192 0056 42F02002 		orr	r2, r2, #32
 193 005a 5A65     		str	r2, [r3, #84]
 194 005c 9A6D     		ldr	r2, [r3, #88]
 195 005e 42F00102 		orr	r2, r2, #1
 196 0062 9A65     		str	r2, [r3, #88]
 197 0064 0120     		movs	r0, #1
 198 0066 F1E7     		b	.L16
 199              	.L17:
 200 0068 0220     		movs	r0, #2
 201 006a F2E7     		b	.L14
 203              		.section	.text.HAL_ADCEx_InjectedStart,"ax",%progbits
 204              		.align	1
 205              		.global	HAL_ADCEx_InjectedStart
 206              		.syntax unified
 207              		.thumb
 208              		.thumb_func
 210              	HAL_ADCEx_InjectedStart:
 211              		@ args = 0, pretend = 0, frame = 0
 212              		@ frame_needed = 0, uses_anonymous_args = 0
 213 0000 10B5     		push	{r4, lr}
 214 0002 0446     		mov	r4, r0
 215 0004 0068     		ldr	r0, [r0]
 216 0006 FFF7FEFF 		bl	LL_ADC_INJ_IsConversionOngoing
 217 000a 0028     		cmp	r0, #0
 218 000c 3ED1     		bne	.L28
 219 000e 2368     		ldr	r3, [r4]
 220 0010 DA68     		ldr	r2, [r3, #12]
 221 0012 DB6C     		ldr	r3, [r3, #76]
 222 0014 13F0C00F 		tst	r3, #192
 223 0018 07D1     		bne	.L23
 224 001a 002A     		cmp	r2, #0
 225 001c 05DB     		blt	.L23
 226 001e 636D     		ldr	r3, [r4, #84]
 227 0020 43F02003 		orr	r3, r3, #32
 228 0024 6365     		str	r3, [r4, #84]
 229 0026 0120     		movs	r0, #1
 230              	.L22:
 231 0028 10BD     		pop	{r4, pc}
 232              	.L23:
 233 002a 94F85030 		ldrb	r3, [r4, #80]	@ zero_extendqisi2
 234 002e 012B     		cmp	r3, #1
 235 0030 2CD0     		beq	.L28
 236 0032 0123     		movs	r3, #1
 237 0034 84F85030 		strb	r3, [r4, #80]
 238 0038 2046     		mov	r0, r4
 239 003a FFF7FEFF 		bl	ADC_Enable
ARM GAS  C:\Users\CL\AppData\Local\Temp\ccBkzGqQ.s 			page 5


 240 003e 08BB     		cbnz	r0, .L24
 241 0040 636D     		ldr	r3, [r4, #84]
 242 0042 DA05     		lsls	r2, r3, #23
 243 0044 49BF     		itett	mi
 244 0046 A36D     		ldrmi	r3, [r4, #88]
 245 0048 A065     		strpl	r0, [r4, #88]
 246 004a 23F00803 		bicmi	r3, r3, #8
 247 004e A365     		strmi	r3, [r4, #88]
 248 0050 636D     		ldr	r3, [r4, #84]
 249 0052 2268     		ldr	r2, [r4]
 250 0054 23F44053 		bic	r3, r3, #12288
 251 0058 23F00103 		bic	r3, r3, #1
 252 005c 43F48053 		orr	r3, r3, #4096
 253 0060 6365     		str	r3, [r4, #84]
 254 0062 6023     		movs	r3, #96
 255 0064 1360     		str	r3, [r2]
 256 0066 0023     		movs	r3, #0
 257 0068 84F85030 		strb	r3, [r4, #80]
 258 006c D368     		ldr	r3, [r2, #12]
 259 006e 9B01     		lsls	r3, r3, #6
 260 0070 DAD4     		bmi	.L22
 261 0072 9368     		ldr	r3, [r2, #8]
 262 0074 23F00043 		bic	r3, r3, #-2147483648
 263 0078 23F03F03 		bic	r3, r3, #63
 264 007c 43F00803 		orr	r3, r3, #8
 265 0080 9360     		str	r3, [r2, #8]
 266 0082 D1E7     		b	.L22
 267              	.L24:
 268 0084 0023     		movs	r3, #0
 269 0086 84F85030 		strb	r3, [r4, #80]
 270 008a CDE7     		b	.L22
 271              	.L28:
 272 008c 0220     		movs	r0, #2
 273 008e CBE7     		b	.L22
 275              		.section	.text.HAL_ADCEx_InjectedStop,"ax",%progbits
 276              		.align	1
 277              		.global	HAL_ADCEx_InjectedStop
 278              		.syntax unified
 279              		.thumb
 280              		.thumb_func
 282              	HAL_ADCEx_InjectedStop:
 283              		@ args = 0, pretend = 0, frame = 0
 284              		@ frame_needed = 0, uses_anonymous_args = 0
 285 0000 10B5     		push	{r4, lr}
 286 0002 90F85030 		ldrb	r3, [r0, #80]	@ zero_extendqisi2
 287 0006 012B     		cmp	r3, #1
 288 0008 0446     		mov	r4, r0
 289 000a 1FD0     		beq	.L33
 290 000c 0123     		movs	r3, #1
 291 000e 80F85030 		strb	r3, [r0, #80]
 292 0012 0221     		movs	r1, #2
 293 0014 FFF7FEFF 		bl	ADC_ConversionStop
 294 0018 38B9     		cbnz	r0, .L31
 295 001a 2368     		ldr	r3, [r4]
 296 001c 9B68     		ldr	r3, [r3, #8]
 297 001e 5B07     		lsls	r3, r3, #29
 298 0020 07D5     		bpl	.L32
ARM GAS  C:\Users\CL\AppData\Local\Temp\ccBkzGqQ.s 			page 6


 299 0022 636D     		ldr	r3, [r4, #84]
 300 0024 23F48053 		bic	r3, r3, #4096
 301              	.L34:
 302 0028 6365     		str	r3, [r4, #84]
 303              	.L31:
 304 002a 0023     		movs	r3, #0
 305 002c 84F85030 		strb	r3, [r4, #80]
 306              	.L30:
 307 0030 10BD     		pop	{r4, pc}
 308              	.L32:
 309 0032 2046     		mov	r0, r4
 310 0034 FFF7FEFF 		bl	ADC_Disable
 311 0038 0028     		cmp	r0, #0
 312 003a F6D1     		bne	.L31
 313 003c 636D     		ldr	r3, [r4, #84]
 314 003e 23F48853 		bic	r3, r3, #4352
 315 0042 23F00103 		bic	r3, r3, #1
 316 0046 43F00103 		orr	r3, r3, #1
 317 004a EDE7     		b	.L34
 318              	.L33:
 319 004c 0220     		movs	r0, #2
 320 004e EFE7     		b	.L30
 322              		.section	.text.HAL_ADCEx_InjectedPollForConversion,"ax",%progbits
 323              		.align	1
 324              		.global	HAL_ADCEx_InjectedPollForConversion
 325              		.syntax unified
 326              		.thumb
 327              		.thumb_func
 329              	HAL_ADCEx_InjectedPollForConversion:
 330              		@ args = 0, pretend = 0, frame = 0
 331              		@ frame_needed = 0, uses_anonymous_args = 0
 332 0000 F8B5     		push	{r3, r4, r5, r6, r7, lr}
 333 0002 4369     		ldr	r3, [r0, #20]
 334 0004 082B     		cmp	r3, #8
 335 0006 0446     		mov	r4, r0
 336 0008 0D46     		mov	r5, r1
 337 000a 0CBF     		ite	eq
 338 000c 4026     		moveq	r6, #64
 339 000e 2026     		movne	r6, #32
 340 0010 FFF7FEFF 		bl	HAL_GetTick
 341 0014 0746     		mov	r7, r0
 342              	.L55:
 343 0016 2368     		ldr	r3, [r4]
 344              	.L38:
 345 0018 1A68     		ldr	r2, [r3]
 346 001a 3242     		tst	r2, r6
 347 001c 27D0     		beq	.L41
 348 001e DD6C     		ldr	r5, [r3, #76]
 349 0020 D968     		ldr	r1, [r3, #12]
 350 0022 D868     		ldr	r0, [r3, #12]
 351 0024 626D     		ldr	r2, [r4, #84]
 352 0026 15F0C00F 		tst	r5, #192
 353 002a 42F40052 		orr	r2, r2, #8192
 354 002e 6265     		str	r2, [r4, #84]
 355 0030 05D0     		beq	.L42
 356 0032 1B4A     		ldr	r2, .L60
 357 0034 01F44061 		and	r1, r1, #3072
ARM GAS  C:\Users\CL\AppData\Local\Temp\ccBkzGqQ.s 			page 7


 358 0038 0240     		ands	r2, r2, r0
 359 003a 0A43     		orrs	r2, r1, r2
 360 003c 0FD1     		bne	.L43
 361              	.L42:
 362 003e 1A68     		ldr	r2, [r3]
 363 0040 5506     		lsls	r5, r2, #25
 364 0042 0CD5     		bpl	.L43
 365 0044 8102     		lsls	r1, r0, #10
 366 0046 0AD4     		bmi	.L43
 367 0048 626D     		ldr	r2, [r4, #84]
 368 004a 22F48052 		bic	r2, r2, #4096
 369 004e 6265     		str	r2, [r4, #84]
 370 0050 626D     		ldr	r2, [r4, #84]
 371 0052 D205     		lsls	r2, r2, #23
 372 0054 5EBF     		ittt	pl
 373 0056 626D     		ldrpl	r2, [r4, #84]
 374 0058 42F00102 		orrpl	r2, r2, #1
 375 005c 6265     		strpl	r2, [r4, #84]
 376              	.L43:
 377 005e 402E     		cmp	r6, #64
 378 0060 1AD1     		bne	.L45
 379 0062 10F48040 		ands	r0, r0, #16384
 380 0066 19D1     		bne	.L47
 381 0068 6022     		movs	r2, #96
 382 006a 1A60     		str	r2, [r3]
 383 006c 13E0     		b	.L40
 384              	.L41:
 385 006e 6A1C     		adds	r2, r5, #1
 386 0070 D2D0     		beq	.L38
 387 0072 FFF7FEFF 		bl	HAL_GetTick
 388 0076 C01B     		subs	r0, r0, r7
 389 0078 A842     		cmp	r0, r5
 390 007a 01D8     		bhi	.L39
 391 007c 002D     		cmp	r5, #0
 392 007e CAD1     		bne	.L55
 393              	.L39:
 394 0080 2368     		ldr	r3, [r4]
 395 0082 1B68     		ldr	r3, [r3]
 396 0084 3340     		ands	r3, r3, r6
 397 0086 C6D1     		bne	.L55
 398 0088 626D     		ldr	r2, [r4, #84]
 399 008a 84F85030 		strb	r3, [r4, #80]
 400 008e 42F00402 		orr	r2, r2, #4
 401 0092 6265     		str	r2, [r4, #84]
 402 0094 0320     		movs	r0, #3
 403              	.L40:
 404 0096 F8BD     		pop	{r3, r4, r5, r6, r7, pc}
 405              	.L45:
 406 0098 2022     		movs	r2, #32
 407 009a 1A60     		str	r2, [r3]
 408              	.L47:
 409 009c 0020     		movs	r0, #0
 410 009e FAE7     		b	.L40
 411              	.L61:
 412              		.align	2
 413              	.L60:
 414 00a0 00200002 		.word	33562624
ARM GAS  C:\Users\CL\AppData\Local\Temp\ccBkzGqQ.s 			page 8


 416              		.section	.text.HAL_ADCEx_InjectedStart_IT,"ax",%progbits
 417              		.align	1
 418              		.global	HAL_ADCEx_InjectedStart_IT
 419              		.syntax unified
 420              		.thumb
 421              		.thumb_func
 423              	HAL_ADCEx_InjectedStart_IT:
 424              		@ args = 0, pretend = 0, frame = 0
 425              		@ frame_needed = 0, uses_anonymous_args = 0
 426 0000 10B5     		push	{r4, lr}
 427 0002 0446     		mov	r4, r0
 428 0004 0068     		ldr	r0, [r0]
 429 0006 FFF7FEFF 		bl	LL_ADC_INJ_IsConversionOngoing
 430 000a 0028     		cmp	r0, #0
 431 000c 58D1     		bne	.L72
 432 000e 2368     		ldr	r3, [r4]
 433 0010 DA68     		ldr	r2, [r3, #12]
 434 0012 DB6C     		ldr	r3, [r3, #76]
 435 0014 13F0C00F 		tst	r3, #192
 436 0018 07D1     		bne	.L64
 437 001a 002A     		cmp	r2, #0
 438 001c 05DB     		blt	.L64
 439 001e 636D     		ldr	r3, [r4, #84]
 440 0020 43F02003 		orr	r3, r3, #32
 441 0024 6365     		str	r3, [r4, #84]
 442 0026 0120     		movs	r0, #1
 443              	.L63:
 444 0028 10BD     		pop	{r4, pc}
 445              	.L64:
 446 002a 94F85030 		ldrb	r3, [r4, #80]	@ zero_extendqisi2
 447 002e 012B     		cmp	r3, #1
 448 0030 46D0     		beq	.L72
 449 0032 0123     		movs	r3, #1
 450 0034 84F85030 		strb	r3, [r4, #80]
 451 0038 2046     		mov	r0, r4
 452 003a FFF7FEFF 		bl	ADC_Enable
 453 003e 0028     		cmp	r0, #0
 454 0040 3AD1     		bne	.L65
 455 0042 636D     		ldr	r3, [r4, #84]
 456 0044 DB05     		lsls	r3, r3, #23
 457 0046 49BF     		itett	mi
 458 0048 A36D     		ldrmi	r3, [r4, #88]
 459 004a A065     		strpl	r0, [r4, #88]
 460 004c 23F00803 		bicmi	r3, r3, #8
 461 0050 A365     		strmi	r3, [r4, #88]
 462 0052 636D     		ldr	r3, [r4, #84]
 463 0054 23F44053 		bic	r3, r3, #12288
 464 0058 23F00103 		bic	r3, r3, #1
 465 005c 43F48053 		orr	r3, r3, #4096
 466 0060 6365     		str	r3, [r4, #84]
 467 0062 2368     		ldr	r3, [r4]
 468 0064 6022     		movs	r2, #96
 469 0066 1A60     		str	r2, [r3]
 470 0068 0022     		movs	r2, #0
 471 006a 84F85020 		strb	r2, [r4, #80]
 472 006e DA68     		ldr	r2, [r3, #12]
 473 0070 9102     		lsls	r1, r2, #10
ARM GAS  C:\Users\CL\AppData\Local\Temp\ccBkzGqQ.s 			page 9


 474 0072 42BF     		ittt	mi
 475 0074 5A68     		ldrmi	r2, [r3, #4]
 476 0076 42F48062 		orrmi	r2, r2, #1024
 477 007a 5A60     		strmi	r2, [r3, #4]
 478 007c 6269     		ldr	r2, [r4, #20]
 479 007e 082A     		cmp	r2, #8
 480 0080 5A68     		ldr	r2, [r3, #4]
 481 0082 0BBF     		itete	eq
 482 0084 22F02002 		biceq	r2, r2, #32
 483 0088 22F04002 		bicne	r2, r2, #64
 484 008c 5A60     		streq	r2, [r3, #4]
 485 008e 5A60     		strne	r2, [r3, #4]
 486 0090 0BBF     		itete	eq
 487 0092 5A68     		ldreq	r2, [r3, #4]
 488 0094 5A68     		ldrne	r2, [r3, #4]
 489 0096 42F04002 		orreq	r2, r2, #64
 490 009a 42F02002 		orrne	r2, r2, #32
 491 009e 5A60     		str	r2, [r3, #4]
 492 00a0 DA68     		ldr	r2, [r3, #12]
 493 00a2 9201     		lsls	r2, r2, #6
 494 00a4 C0D4     		bmi	.L63
 495 00a6 9A68     		ldr	r2, [r3, #8]
 496 00a8 22F00042 		bic	r2, r2, #-2147483648
 497 00ac 22F03F02 		bic	r2, r2, #63
 498 00b0 42F00802 		orr	r2, r2, #8
 499 00b4 9A60     		str	r2, [r3, #8]
 500 00b6 B7E7     		b	.L63
 501              	.L65:
 502 00b8 0023     		movs	r3, #0
 503 00ba 84F85030 		strb	r3, [r4, #80]
 504 00be B3E7     		b	.L63
 505              	.L72:
 506 00c0 0220     		movs	r0, #2
 507 00c2 B1E7     		b	.L63
 509              		.section	.text.HAL_ADCEx_InjectedStop_IT,"ax",%progbits
 510              		.align	1
 511              		.global	HAL_ADCEx_InjectedStop_IT
 512              		.syntax unified
 513              		.thumb
 514              		.thumb_func
 516              	HAL_ADCEx_InjectedStop_IT:
 517              		@ args = 0, pretend = 0, frame = 0
 518              		@ frame_needed = 0, uses_anonymous_args = 0
 519 0000 10B5     		push	{r4, lr}
 520 0002 90F85030 		ldrb	r3, [r0, #80]	@ zero_extendqisi2
 521 0006 012B     		cmp	r3, #1
 522 0008 0446     		mov	r4, r0
 523 000a 23D0     		beq	.L81
 524 000c 0123     		movs	r3, #1
 525 000e 80F85030 		strb	r3, [r0, #80]
 526 0012 0221     		movs	r1, #2
 527 0014 FFF7FEFF 		bl	ADC_ConversionStop
 528 0018 58B9     		cbnz	r0, .L79
 529 001a 2368     		ldr	r3, [r4]
 530 001c 5A68     		ldr	r2, [r3, #4]
 531 001e 22F48C62 		bic	r2, r2, #1120
 532 0022 5A60     		str	r2, [r3, #4]
ARM GAS  C:\Users\CL\AppData\Local\Temp\ccBkzGqQ.s 			page 10


 533 0024 9B68     		ldr	r3, [r3, #8]
 534 0026 5B07     		lsls	r3, r3, #29
 535 0028 07D5     		bpl	.L80
 536 002a 636D     		ldr	r3, [r4, #84]
 537 002c 23F48053 		bic	r3, r3, #4096
 538              	.L82:
 539 0030 6365     		str	r3, [r4, #84]
 540              	.L79:
 541 0032 0023     		movs	r3, #0
 542 0034 84F85030 		strb	r3, [r4, #80]
 543              	.L78:
 544 0038 10BD     		pop	{r4, pc}
 545              	.L80:
 546 003a 2046     		mov	r0, r4
 547 003c FFF7FEFF 		bl	ADC_Disable
 548 0040 0028     		cmp	r0, #0
 549 0042 F6D1     		bne	.L79
 550 0044 636D     		ldr	r3, [r4, #84]
 551 0046 23F48853 		bic	r3, r3, #4352
 552 004a 23F00103 		bic	r3, r3, #1
 553 004e 43F00103 		orr	r3, r3, #1
 554 0052 EDE7     		b	.L82
 555              	.L81:
 556 0054 0220     		movs	r0, #2
 557 0056 EFE7     		b	.L78
 559              		.section	.text.HAL_ADCEx_InjectedGetValue,"ax",%progbits
 560              		.align	1
 561              		.global	HAL_ADCEx_InjectedGetValue
 562              		.syntax unified
 563              		.thumb
 564              		.thumb_func
 566              	HAL_ADCEx_InjectedGetValue:
 567              		@ args = 0, pretend = 0, frame = 0
 568              		@ frame_needed = 0, uses_anonymous_args = 0
 569              		@ link register save eliminated.
 570 0000 B1F5057F 		cmp	r1, #532
 571 0004 0368     		ldr	r3, [r0]
 572 0006 0CD0     		beq	.L84
 573 0008 40F21A32 		movw	r2, #794
 574 000c 9142     		cmp	r1, r2
 575 000e 05D0     		beq	.L85
 576 0010 B1F5877F 		cmp	r1, #270
 577 0014 08D1     		bne	.L89
 578 0016 D3F88400 		ldr	r0, [r3, #132]
 579 001a 7047     		bx	lr
 580              	.L85:
 581 001c D3F88C00 		ldr	r0, [r3, #140]
 582 0020 7047     		bx	lr
 583              	.L84:
 584 0022 D3F88800 		ldr	r0, [r3, #136]
 585 0026 7047     		bx	lr
 586              	.L89:
 587 0028 D3F88000 		ldr	r0, [r3, #128]
 588 002c 7047     		bx	lr
 590              		.section	.text.HAL_ADCEx_InjectedConvCpltCallback,"ax",%progbits
 591              		.align	1
 592              		.weak	HAL_ADCEx_InjectedConvCpltCallback
ARM GAS  C:\Users\CL\AppData\Local\Temp\ccBkzGqQ.s 			page 11


 593              		.syntax unified
 594              		.thumb
 595              		.thumb_func
 597              	HAL_ADCEx_InjectedConvCpltCallback:
 598              		@ args = 0, pretend = 0, frame = 0
 599              		@ frame_needed = 0, uses_anonymous_args = 0
 600              		@ link register save eliminated.
 601 0000 7047     		bx	lr
 603              		.section	.text.HAL_ADCEx_InjectedQueueOverflowCallback,"ax",%progbits
 604              		.align	1
 605              		.weak	HAL_ADCEx_InjectedQueueOverflowCallback
 606              		.syntax unified
 607              		.thumb
 608              		.thumb_func
 610              	HAL_ADCEx_InjectedQueueOverflowCallback:
 611              		@ args = 0, pretend = 0, frame = 0
 612              		@ frame_needed = 0, uses_anonymous_args = 0
 613              		@ link register save eliminated.
 614 0000 7047     		bx	lr
 616              		.section	.text.HAL_ADCEx_LevelOutOfWindow2Callback,"ax",%progbits
 617              		.align	1
 618              		.weak	HAL_ADCEx_LevelOutOfWindow2Callback
 619              		.syntax unified
 620              		.thumb
 621              		.thumb_func
 623              	HAL_ADCEx_LevelOutOfWindow2Callback:
 624              		@ args = 0, pretend = 0, frame = 0
 625              		@ frame_needed = 0, uses_anonymous_args = 0
 626              		@ link register save eliminated.
 627 0000 7047     		bx	lr
 629              		.section	.text.HAL_ADCEx_LevelOutOfWindow3Callback,"ax",%progbits
 630              		.align	1
 631              		.weak	HAL_ADCEx_LevelOutOfWindow3Callback
 632              		.syntax unified
 633              		.thumb
 634              		.thumb_func
 636              	HAL_ADCEx_LevelOutOfWindow3Callback:
 637              		@ args = 0, pretend = 0, frame = 0
 638              		@ frame_needed = 0, uses_anonymous_args = 0
 639              		@ link register save eliminated.
 640 0000 7047     		bx	lr
 642              		.section	.text.HAL_ADCEx_EndOfSamplingCallback,"ax",%progbits
 643              		.align	1
 644              		.weak	HAL_ADCEx_EndOfSamplingCallback
 645              		.syntax unified
 646              		.thumb
 647              		.thumb_func
 649              	HAL_ADCEx_EndOfSamplingCallback:
 650              		@ args = 0, pretend = 0, frame = 0
 651              		@ frame_needed = 0, uses_anonymous_args = 0
 652              		@ link register save eliminated.
 653 0000 7047     		bx	lr
 655              		.section	.text.HAL_ADCEx_RegularStop,"ax",%progbits
 656              		.align	1
 657              		.global	HAL_ADCEx_RegularStop
 658              		.syntax unified
 659              		.thumb
ARM GAS  C:\Users\CL\AppData\Local\Temp\ccBkzGqQ.s 			page 12


 660              		.thumb_func
 662              	HAL_ADCEx_RegularStop:
 663              		@ args = 0, pretend = 0, frame = 0
 664              		@ frame_needed = 0, uses_anonymous_args = 0
 665 0000 10B5     		push	{r4, lr}
 666 0002 90F85030 		ldrb	r3, [r0, #80]	@ zero_extendqisi2
 667 0006 012B     		cmp	r3, #1
 668 0008 0446     		mov	r4, r0
 669 000a 24D0     		beq	.L99
 670 000c 0121     		movs	r1, #1
 671 000e 80F85010 		strb	r1, [r0, #80]
 672 0012 FFF7FEFF 		bl	ADC_ConversionStop
 673 0016 0346     		mov	r3, r0
 674 0018 A0B9     		cbnz	r0, .L97
 675 001a 626D     		ldr	r2, [r4, #84]
 676 001c 2068     		ldr	r0, [r4]
 677 001e 22F48072 		bic	r2, r2, #256
 678 0022 6265     		str	r2, [r4, #84]
 679 0024 FFF7FEFF 		bl	LL_ADC_INJ_IsConversionOngoing
 680 0028 88B9     		cbnz	r0, .L98
 681 002a 2046     		mov	r0, r4
 682 002c FFF7FEFF 		bl	ADC_Disable
 683 0030 0346     		mov	r3, r0
 684 0032 38B9     		cbnz	r0, .L97
 685 0034 626D     		ldr	r2, [r4, #84]
 686 0036 22F48052 		bic	r2, r2, #4096
 687 003a 22F00102 		bic	r2, r2, #1
 688 003e 42F00102 		orr	r2, r2, #1
 689              	.L100:
 690 0042 6265     		str	r2, [r4, #84]
 691              	.L97:
 692 0044 0022     		movs	r2, #0
 693 0046 84F85020 		strb	r2, [r4, #80]
 694              	.L96:
 695 004a 1846     		mov	r0, r3
 696 004c 10BD     		pop	{r4, pc}
 697              	.L98:
 698 004e 626D     		ldr	r2, [r4, #84]
 699 0050 42F48052 		orr	r2, r2, #4096
 700 0054 F5E7     		b	.L100
 701              	.L99:
 702 0056 0223     		movs	r3, #2
 703 0058 F7E7     		b	.L96
 705              		.section	.text.HAL_ADCEx_RegularStop_IT,"ax",%progbits
 706              		.align	1
 707              		.global	HAL_ADCEx_RegularStop_IT
 708              		.syntax unified
 709              		.thumb
 710              		.thumb_func
 712              	HAL_ADCEx_RegularStop_IT:
 713              		@ args = 0, pretend = 0, frame = 0
 714              		@ frame_needed = 0, uses_anonymous_args = 0
 715 0000 10B5     		push	{r4, lr}
 716 0002 90F85030 		ldrb	r3, [r0, #80]	@ zero_extendqisi2
 717 0006 012B     		cmp	r3, #1
 718 0008 0446     		mov	r4, r0
 719 000a 28D0     		beq	.L105
ARM GAS  C:\Users\CL\AppData\Local\Temp\ccBkzGqQ.s 			page 13


 720 000c 0121     		movs	r1, #1
 721 000e 80F85010 		strb	r1, [r0, #80]
 722 0012 FFF7FEFF 		bl	ADC_ConversionStop
 723 0016 0346     		mov	r3, r0
 724 0018 C0B9     		cbnz	r0, .L103
 725 001a 626D     		ldr	r2, [r4, #84]
 726 001c 2068     		ldr	r0, [r4]
 727 001e 22F48072 		bic	r2, r2, #256
 728 0022 6265     		str	r2, [r4, #84]
 729 0024 4268     		ldr	r2, [r0, #4]
 730 0026 22F01C02 		bic	r2, r2, #28
 731 002a 4260     		str	r2, [r0, #4]
 732 002c FFF7FEFF 		bl	LL_ADC_INJ_IsConversionOngoing
 733 0030 88B9     		cbnz	r0, .L104
 734 0032 2046     		mov	r0, r4
 735 0034 FFF7FEFF 		bl	ADC_Disable
 736 0038 0346     		mov	r3, r0
 737 003a 38B9     		cbnz	r0, .L103
 738 003c 626D     		ldr	r2, [r4, #84]
 739 003e 22F48052 		bic	r2, r2, #4096
 740 0042 22F00102 		bic	r2, r2, #1
 741 0046 42F00102 		orr	r2, r2, #1
 742              	.L106:
 743 004a 6265     		str	r2, [r4, #84]
 744              	.L103:
 745 004c 0022     		movs	r2, #0
 746 004e 84F85020 		strb	r2, [r4, #80]
 747              	.L102:
 748 0052 1846     		mov	r0, r3
 749 0054 10BD     		pop	{r4, pc}
 750              	.L104:
 751 0056 626D     		ldr	r2, [r4, #84]
 752 0058 42F48052 		orr	r2, r2, #4096
 753 005c F5E7     		b	.L106
 754              	.L105:
 755 005e 0223     		movs	r3, #2
 756 0060 F7E7     		b	.L102
 758              		.section	.text.HAL_ADCEx_RegularStop_DMA,"ax",%progbits
 759              		.align	1
 760              		.global	HAL_ADCEx_RegularStop_DMA
 761              		.syntax unified
 762              		.thumb
 763              		.thumb_func
 765              	HAL_ADCEx_RegularStop_DMA:
 766              		@ args = 0, pretend = 0, frame = 0
 767              		@ frame_needed = 0, uses_anonymous_args = 0
 768 0000 38B5     		push	{r3, r4, r5, lr}
 769 0002 90F85030 		ldrb	r3, [r0, #80]	@ zero_extendqisi2
 770 0006 012B     		cmp	r3, #1
 771 0008 0446     		mov	r4, r0
 772 000a 3BD0     		beq	.L114
 773 000c 0121     		movs	r1, #1
 774 000e 80F85010 		strb	r1, [r0, #80]
 775 0012 FFF7FEFF 		bl	ADC_ConversionStop
 776 0016 0546     		mov	r5, r0
 777 0018 F8B9     		cbnz	r0, .L109
 778 001a 636D     		ldr	r3, [r4, #84]
ARM GAS  C:\Users\CL\AppData\Local\Temp\ccBkzGqQ.s 			page 14


 779 001c 2268     		ldr	r2, [r4]
 780 001e E06C     		ldr	r0, [r4, #76]
 781 0020 23F48073 		bic	r3, r3, #256
 782 0024 6365     		str	r3, [r4, #84]
 783 0026 D368     		ldr	r3, [r2, #12]
 784 0028 23F00103 		bic	r3, r3, #1
 785 002c D360     		str	r3, [r2, #12]
 786 002e FFF7FEFF 		bl	HAL_DMA_Abort
 787 0032 0546     		mov	r5, r0
 788 0034 18B1     		cbz	r0, .L110
 789 0036 636D     		ldr	r3, [r4, #84]
 790 0038 43F04003 		orr	r3, r3, #64
 791 003c 6365     		str	r3, [r4, #84]
 792              	.L110:
 793 003e 2068     		ldr	r0, [r4]
 794 0040 4368     		ldr	r3, [r0, #4]
 795 0042 23F01003 		bic	r3, r3, #16
 796 0046 4360     		str	r3, [r0, #4]
 797 0048 FFF7FEFF 		bl	LL_ADC_INJ_IsConversionOngoing
 798 004c B0B9     		cbnz	r0, .L111
 799 004e 2046     		mov	r0, r4
 800 0050 45B9     		cbnz	r5, .L112
 801 0052 FFF7FEFF 		bl	ADC_Disable
 802 0056 0546     		mov	r5, r0
 803 0058 38B1     		cbz	r0, .L113
 804              	.L109:
 805 005a 0023     		movs	r3, #0
 806 005c 84F85030 		strb	r3, [r4, #80]
 807              	.L108:
 808 0060 2846     		mov	r0, r5
 809 0062 38BD     		pop	{r3, r4, r5, pc}
 810              	.L112:
 811 0064 FFF7FEFF 		bl	ADC_Disable
 812 0068 F7E7     		b	.L109
 813              	.L113:
 814 006a 636D     		ldr	r3, [r4, #84]
 815 006c 23F48053 		bic	r3, r3, #4096
 816 0070 23F00103 		bic	r3, r3, #1
 817 0074 43F00103 		orr	r3, r3, #1
 818              	.L118:
 819 0078 6365     		str	r3, [r4, #84]
 820 007a EEE7     		b	.L109
 821              	.L111:
 822 007c 636D     		ldr	r3, [r4, #84]
 823 007e 43F48053 		orr	r3, r3, #4096
 824 0082 F9E7     		b	.L118
 825              	.L114:
 826 0084 0225     		movs	r5, #2
 827 0086 EBE7     		b	.L108
 829              		.section	.text.HAL_ADCEx_InjectedConfigChannel,"ax",%progbits
 830              		.align	1
 831              		.global	HAL_ADCEx_InjectedConfigChannel
 832              		.syntax unified
 833              		.thumb
 834              		.thumb_func
 836              	HAL_ADCEx_InjectedConfigChannel:
 837              		@ args = 0, pretend = 0, frame = 8
ARM GAS  C:\Users\CL\AppData\Local\Temp\ccBkzGqQ.s 			page 15


 838              		@ frame_needed = 0, uses_anonymous_args = 0
 839 0000 F7B5     		push	{r0, r1, r2, r4, r5, r6, r7, lr}
 840 0002 0C46     		mov	r4, r1
 841 0004 90F85010 		ldrb	r1, [r0, #80]	@ zero_extendqisi2
 842 0008 0269     		ldr	r2, [r0, #16]
 843 000a 0023     		movs	r3, #0
 844 000c 0129     		cmp	r1, #1
 845 000e 0546     		mov	r5, r0
 846 0010 0193     		str	r3, [sp, #4]
 847 0012 00F00382 		beq	.L180
 848 0016 0121     		movs	r1, #1
 849 0018 80F85010 		strb	r1, [r0, #80]
 850 001c 6068     		ldr	r0, [r4, #4]
 851 001e 1AB1     		cbz	r2, .L121
 852 0020 A169     		ldr	r1, [r4, #24]
 853 0022 0129     		cmp	r1, #1
 854 0024 40F0B480 		bne	.L122
 855              	.L121:
 856 0028 0828     		cmp	r0, #8
 857 002a 17D1     		bne	.L124
 858 002c 2368     		ldr	r3, [r4]
 859 002e 226A     		ldr	r2, [r4, #32]
 860 0030 9B0C     		lsrs	r3, r3, #18
 861 0032 03F4F853 		and	r3, r3, #7936
 862 0036 22B1     		cbz	r2, .L125
 863 0038 616A     		ldr	r1, [r4, #36]
 864 003a 02F03C02 		and	r2, r2, #60
 865 003e 0A43     		orrs	r2, r2, r1
 866 0040 1343     		orrs	r3, r3, r2
 867              	.L125:
 868 0042 2968     		ldr	r1, [r5]
 869 0044 CA6C     		ldr	r2, [r1, #76]
 870 0046 22F0FB42 		bic	r2, r2, #2105540608
 871 004a 22F4EF02 		bic	r2, r2, #7831552
 872 004e 22F4BF42 		bic	r2, r2, #24448
 873 0052 22F07F02 		bic	r2, r2, #127
 874 0056 1A43     		orrs	r2, r2, r3
 875 0058 CA64     		str	r2, [r1, #76]
 876 005a EB65     		str	r3, [r5, #92]
 877              	.L124:
 878 005c 2868     		ldr	r0, [r5]
 879 005e FFF7FEFF 		bl	LL_ADC_INJ_IsConversionOngoing
 880 0062 2A68     		ldr	r2, [r5]
 881 0064 68B9     		cbnz	r0, .L128
 882 0066 A37F     		ldrb	r3, [r4, #30]	@ zero_extendqisi2
 883 0068 617F     		ldrb	r1, [r4, #29]	@ zero_extendqisi2
 884 006a 5B05     		lsls	r3, r3, #21
 885 006c 0029     		cmp	r1, #0
 886 006e 40F0BB80 		bne	.L129
 887 0072 207F     		ldrb	r0, [r4, #28]	@ zero_extendqisi2
 888 0074 D168     		ldr	r1, [r2, #12]
 889 0076 43EA0053 		orr	r3, r3, r0, lsl #20
 890              	.L208:
 891 007a 21F44011 		bic	r1, r1, #3145728
 892 007e 0B43     		orrs	r3, r3, r1
 893 0080 D360     		str	r3, [r2, #12]
 894              	.L128:
ARM GAS  C:\Users\CL\AppData\Local\Temp\ccBkzGqQ.s 			page 16


 895 0082 1046     		mov	r0, r2
 896 0084 9368     		ldr	r3, [r2, #8]
 897 0086 FFF7FEFF 		bl	LL_ADC_INJ_IsConversionOngoing
 898 008a 03F00403 		and	r3, r3, #4
 899 008e 0343     		orrs	r3, r3, r0
 900 0090 40F00F81 		bne	.L182
 901 0094 226A     		ldr	r2, [r4, #32]
 902 0096 667F     		ldrb	r6, [r4, #29]	@ zero_extendqisi2
 903 0098 2868     		ldr	r0, [r5]
 904 009a 1AB1     		cbz	r2, .L131
 905 009c 626A     		ldr	r2, [r4, #36]
 906 009e 002A     		cmp	r2, #0
 907 00a0 40F0A480 		bne	.L132
 908              	.L131:
 909 00a4 C368     		ldr	r3, [r0, #12]
 910 00a6 012E     		cmp	r6, #1
 911 00a8 0CBF     		ite	eq
 912 00aa 43F00073 		orreq	r3, r3, #33554432
 913 00ae 23F00073 		bicne	r3, r3, #33554432
 914 00b2 C360     		str	r3, [r0, #12]
 915 00b4 0026     		movs	r6, #0
 916              	.L134:
 917 00b6 94F82830 		ldrb	r3, [r4, #40]	@ zero_extendqisi2
 918 00ba 012B     		cmp	r3, #1
 919 00bc 05BF     		ittet	eq
 920 00be D4E90B31 		ldrdeq	r3, r1, [r4, #44]
 921 00c2 0269     		ldreq	r2, [r0, #16]
 922 00c4 0369     		ldrne	r3, [r0, #16]
 923 00c6 0B43     		orreq	r3, r3, r1
 924 00c8 03BF     		ittte	eq
 925 00ca 22F4FF72 		biceq	r2, r2, #510
 926 00ce 1343     		orreq	r3, r3, r2
 927 00d0 43F00203 		orreq	r3, r3, #2
 928 00d4 23F00203 		bicne	r3, r3, #2
 929 00d8 0361     		str	r3, [r0, #16]
 930 00da A268     		ldr	r2, [r4, #8]
 931 00dc 2168     		ldr	r1, [r4]
 932 00de FFF7FEFF 		bl	LL_ADC_SetChannelSamplingTime
 933 00e2 2769     		ldr	r7, [r4, #16]
 934 00e4 2968     		ldr	r1, [r5]
 935 00e6 2368     		ldr	r3, [r4]
 936 00e8 C868     		ldr	r0, [r1, #12]
 937 00ea 042F     		cmp	r7, #4
 938 00ec 01F16002 		add	r2, r1, #96
 939 00f0 00F08980 		beq	.L138
 940 00f4 C0F3C101 		ubfx	r1, r0, #3, #2
 941 00f8 4800     		lsls	r0, r1, #1
 942 00fa 6169     		ldr	r1, [r4, #20]
 943 00fc 52F827C0 		ldr	ip, [r2, r7, lsl #2]
 944 0100 8140     		lsls	r1, r1, r0
 945 0102 B448     		ldr	r0, .L215
 946 0104 03F0F843 		and	r3, r3, #2080374784
 947 0108 0CEA0000 		and	r0, ip, r0
 948 010c 0343     		orrs	r3, r3, r0
 949 010e 1943     		orrs	r1, r1, r3
 950 0110 41F00041 		orr	r1, r1, #-2147483648
 951 0114 42F82710 		str	r1, [r2, r7, lsl #2]
ARM GAS  C:\Users\CL\AppData\Local\Temp\ccBkzGqQ.s 			page 17


 952              	.L130:
 953 0118 2868     		ldr	r0, [r5]
 954 011a 8368     		ldr	r3, [r0, #8]
 955 011c DF07     		lsls	r7, r3, #31
 956 011e 00F1F580 		bmi	.L155
 957 0122 D4F80CC0 		ldr	ip, [r4, #12]
 958 0126 2368     		ldr	r3, [r4]
 959 0128 AB4A     		ldr	r2, .L215+4
 960 012a D0F8B010 		ldr	r1, [r0, #176]
 961 012e 0CF0180E 		and	lr, ip, #24
 962 0132 C3F31207 		ubfx	r7, r3, #0, #19
 963 0136 22FA0EF2 		lsr	r2, r2, lr
 964 013a 1A40     		ands	r2, r2, r3
 965 013c 21EA0701 		bic	r1, r1, r7
 966 0140 0A43     		orrs	r2, r2, r1
 967 0142 C0F8B020 		str	r2, [r0, #176]
 968 0146 A54A     		ldr	r2, .L215+8
 969 0148 9445     		cmp	ip, r2
 970 014a 40F0DF80 		bne	.L155
 971 014e 002F     		cmp	r7, #0
 972 0150 40F0B180 		bne	.L157
 973 0154 9A0E     		lsrs	r2, r3, #26
 974 0156 0132     		adds	r2, r2, #1
 975 0158 02F01F0C 		and	ip, r2, #31
 976 015c 0121     		movs	r1, #1
 977 015e 9206     		lsls	r2, r2, #26
 978 0160 BCF1090F 		cmp	ip, #9
 979 0164 02F0F842 		and	r2, r2, #2080374784
 980 0168 01FA0CF1 		lsl	r1, r1, ip
 981 016c 40F2BF80 		bls	.L158
 982              	.L159:
 983 0170 0A43     		orrs	r2, r2, r1
 984 0172 002F     		cmp	r7, #0
 985 0174 40F00B81 		bne	.L170
 986 0178 9F0E     		lsrs	r7, r3, #26
 987 017a 0137     		adds	r7, r7, #1
 988 017c 07F01F07 		and	r7, r7, #31
 989 0180 07EB4701 		add	r1, r7, r7, lsl #1
 990 0184 1E39     		subs	r1, r1, #30
 991              	.L212:
 992 0186 0905     		lsls	r1, r1, #20
 993 0188 41F00071 		orr	r1, r1, #33554432
 994 018c 1143     		orrs	r1, r1, r2
 995 018e BAE0     		b	.L167
 996              	.L122:
 997 0190 2A6E     		ldr	r2, [r5, #96]
 998 0192 3ABB     		cbnz	r2, .L181
 999 0194 C5E91721 		strd	r2, r1, [r5, #92]
 1000 0198 226A     		ldr	r2, [r4, #32]
 1001 019a 0139     		subs	r1, r1, #1
 1002 019c 22B1     		cbz	r2, .L126
 1003 019e 636A     		ldr	r3, [r4, #36]
 1004 01a0 02F03C02 		and	r2, r2, #60
 1005 01a4 1143     		orrs	r1, r1, r2
 1006 01a6 1943     		orrs	r1, r1, r3
 1007              	.L126:
 1008 01a8 2268     		ldr	r2, [r4]
ARM GAS  C:\Users\CL\AppData\Local\Temp\ccBkzGqQ.s 			page 18


 1009 01aa 00F01F03 		and	r3, r0, #31
 1010 01ae C2F38462 		ubfx	r2, r2, #26, #5
 1011 01b2 02FA03F3 		lsl	r3, r2, r3
 1012 01b6 EA6D     		ldr	r2, [r5, #92]
 1013 01b8 286E     		ldr	r0, [r5, #96]
 1014 01ba 1343     		orrs	r3, r3, r2
 1015 01bc 0138     		subs	r0, r0, #1
 1016 01be 0B43     		orrs	r3, r3, r1
 1017 01c0 2866     		str	r0, [r5, #96]
 1018 01c2 EB65     		str	r3, [r5, #92]
 1019 01c4 0028     		cmp	r0, #0
 1020 01c6 7FF449AF 		bne	.L124
 1021 01ca 2968     		ldr	r1, [r5]
 1022 01cc CA6C     		ldr	r2, [r1, #76]
 1023 01ce 22F0FB42 		bic	r2, r2, #2105540608
 1024 01d2 22F4EF02 		bic	r2, r2, #7831552
 1025 01d6 22F4BF42 		bic	r2, r2, #24448
 1026 01da 22F07F02 		bic	r2, r2, #127
 1027 01de 1343     		orrs	r3, r3, r2
 1028 01e0 CB64     		str	r3, [r1, #76]
 1029 01e2 3BE7     		b	.L124
 1030              	.L181:
 1031 01e4 1946     		mov	r1, r3
 1032 01e6 DFE7     		b	.L126
 1033              	.L129:
 1034 01e8 D168     		ldr	r1, [r2, #12]
 1035 01ea 46E7     		b	.L208
 1036              	.L132:
 1037 01ec 012E     		cmp	r6, #1
 1038 01ee 0BBF     		itete	eq
 1039 01f0 6B6D     		ldreq	r3, [r5, #84]
 1040 01f2 C268     		ldrne	r2, [r0, #12]
 1041 01f4 43F02003 		orreq	r3, r3, #32
 1042 01f8 22F00072 		bicne	r2, r2, #33554432
 1043 01fc 0EBF     		itee	eq
 1044 01fe 6B65     		streq	r3, [r5, #84]
 1045 0200 C260     		strne	r2, [r0, #12]
 1046 0202 1E46     		movne	r6, r3
 1047 0204 57E7     		b	.L134
 1048              	.L138:
 1049 0206 086E     		ldr	r0, [r1, #96]
 1050 0208 086E     		ldr	r0, [r1, #96]
 1051 020a C3F31207 		ubfx	r7, r3, #0, #19
 1052 020e C0F38460 		ubfx	r0, r0, #26, #5
 1053 0212 002F     		cmp	r7, #0
 1054 0214 39D1     		bne	.L139
 1055 0216 C3F38463 		ubfx	r3, r3, #26, #5
 1056              	.L140:
 1057 021a 9842     		cmp	r0, r3
 1058 021c 02BF     		ittt	eq
 1059 021e 0B6E     		ldreq	r3, [r1, #96]
 1060 0220 23F00043 		biceq	r3, r3, #-2147483648
 1061 0224 0B66     		streq	r3, [r1, #96]
 1062 0226 4B6E     		ldr	r3, [r1, #100]
 1063 0228 2368     		ldr	r3, [r4]
 1064 022a 486E     		ldr	r0, [r1, #100]
 1065 022c C3F31207 		ubfx	r7, r3, #0, #19
ARM GAS  C:\Users\CL\AppData\Local\Temp\ccBkzGqQ.s 			page 19


 1066 0230 C0F38460 		ubfx	r0, r0, #26, #5
 1067 0234 77BB     		cbnz	r7, .L143
 1068 0236 C3F38463 		ubfx	r3, r3, #26, #5
 1069              	.L144:
 1070 023a 9842     		cmp	r0, r3
 1071 023c 02BF     		ittt	eq
 1072 023e 4B6E     		ldreq	r3, [r1, #100]
 1073 0240 23F00043 		biceq	r3, r3, #-2147483648
 1074 0244 4B66     		streq	r3, [r1, #100]
 1075 0246 9368     		ldr	r3, [r2, #8]
 1076 0248 2368     		ldr	r3, [r4]
 1077 024a 9168     		ldr	r1, [r2, #8]
 1078 024c C3F31200 		ubfx	r0, r3, #0, #19
 1079 0250 C1F38461 		ubfx	r1, r1, #26, #5
 1080 0254 18BB     		cbnz	r0, .L147
 1081 0256 C3F38463 		ubfx	r3, r3, #26, #5
 1082              	.L148:
 1083 025a 9942     		cmp	r1, r3
 1084 025c 02BF     		ittt	eq
 1085 025e 9368     		ldreq	r3, [r2, #8]
 1086 0260 23F00043 		biceq	r3, r3, #-2147483648
 1087 0264 9360     		streq	r3, [r2, #8]
 1088 0266 D368     		ldr	r3, [r2, #12]
 1089 0268 2368     		ldr	r3, [r4]
 1090 026a D168     		ldr	r1, [r2, #12]
 1091 026c C3F31200 		ubfx	r0, r3, #0, #19
 1092 0270 C1F38461 		ubfx	r1, r1, #26, #5
 1093 0274 C0B9     		cbnz	r0, .L151
 1094 0276 C3F38463 		ubfx	r3, r3, #26, #5
 1095              	.L152:
 1096 027a 9942     		cmp	r1, r3
 1097 027c 7FF44CAF 		bne	.L130
 1098 0280 D368     		ldr	r3, [r2, #12]
 1099 0282 23F00043 		bic	r3, r3, #-2147483648
 1100 0286 D360     		str	r3, [r2, #12]
 1101 0288 46E7     		b	.L130
 1102              	.L139:
 1103              		.syntax unified
 1104              	@ 1055 "Drivers/CMSIS/Include/cmsis_gcc.h" 1
 1105 028a 93FAA3F3 		rbit r3, r3
 1106              	@ 0 "" 2
 1107              		.thumb
 1108              		.syntax unified
 1109 028e B3FA83F3 		clz	r3, r3
 1110 0292 C2E7     		b	.L140
 1111              	.L143:
 1112              		.syntax unified
 1113              	@ 1055 "Drivers/CMSIS/Include/cmsis_gcc.h" 1
 1114 0294 93FAA3F3 		rbit r3, r3
 1115              	@ 0 "" 2
 1116              		.thumb
 1117              		.syntax unified
 1118 0298 B3FA83F3 		clz	r3, r3
 1119 029c CDE7     		b	.L144
 1120              	.L147:
 1121              		.syntax unified
 1122              	@ 1055 "Drivers/CMSIS/Include/cmsis_gcc.h" 1
ARM GAS  C:\Users\CL\AppData\Local\Temp\ccBkzGqQ.s 			page 20


 1123 029e 93FAA3F3 		rbit r3, r3
 1124              	@ 0 "" 2
 1125              		.thumb
 1126              		.syntax unified
 1127 02a2 B3FA83F3 		clz	r3, r3
 1128 02a6 D8E7     		b	.L148
 1129              	.L151:
 1130              		.syntax unified
 1131              	@ 1055 "Drivers/CMSIS/Include/cmsis_gcc.h" 1
 1132 02a8 93FAA3F3 		rbit r3, r3
 1133              	@ 0 "" 2
 1134              		.thumb
 1135              		.syntax unified
 1136 02ac B3FA83F3 		clz	r3, r3
 1137 02b0 E3E7     		b	.L152
 1138              	.L182:
 1139 02b2 0026     		movs	r6, #0
 1140 02b4 30E7     		b	.L130
 1141              	.L157:
 1142              		.syntax unified
 1143              	@ 1055 "Drivers/CMSIS/Include/cmsis_gcc.h" 1
 1144 02b6 93FAA3F2 		rbit r2, r3
 1145              	@ 0 "" 2
 1146              		.thumb
 1147              		.syntax unified
 1148 02ba 32B1     		cbz	r2, .L160
 1149 02bc B2FA82F2 		clz	r2, r2
 1150 02c0 0132     		adds	r2, r2, #1
 1151 02c2 02F01F02 		and	r2, r2, #31
 1152 02c6 092A     		cmp	r2, #9
 1153 02c8 4ED8     		bhi	.L161
 1154              	.L160:
 1155              		.syntax unified
 1156              	@ 1055 "Drivers/CMSIS/Include/cmsis_gcc.h" 1
 1157 02ca 93FAA3F2 		rbit r2, r3
 1158              	@ 0 "" 2
 1159              		.thumb
 1160              		.syntax unified
 1161 02ce B2FA82F2 		clz	r2, r2
 1162 02d2 0132     		adds	r2, r2, #1
 1163 02d4 9206     		lsls	r2, r2, #26
 1164 02d6 02F0F842 		and	r2, r2, #2080374784
 1165              		.syntax unified
 1166              	@ 1055 "Drivers/CMSIS/Include/cmsis_gcc.h" 1
 1167 02da 93FAA3F1 		rbit r1, r3
 1168              	@ 0 "" 2
 1169              		.thumb
 1170              		.syntax unified
 1171 02de B1FA81F1 		clz	r1, r1
 1172 02e2 0131     		adds	r1, r1, #1
 1173 02e4 01F01F0C 		and	ip, r1, #31
 1174 02e8 0121     		movs	r1, #1
 1175 02ea 01FA0CF1 		lsl	r1, r1, ip
 1176              	.L158:
 1177 02ee 0A43     		orrs	r2, r2, r1
 1178 02f0 002F     		cmp	r7, #0
 1179 02f2 34D1     		bne	.L164
ARM GAS  C:\Users\CL\AppData\Local\Temp\ccBkzGqQ.s 			page 21


 1180 02f4 9B0E     		lsrs	r3, r3, #26
 1181              	.L211:
 1182 02f6 0133     		adds	r3, r3, #1
 1183 02f8 03F01F03 		and	r3, r3, #31
 1184 02fc 03EB4303 		add	r3, r3, r3, lsl #1
 1185 0300 1B05     		lsls	r3, r3, #20
 1186 0302 42EA0301 		orr	r1, r2, r3
 1187              	.L167:
 1188 0306 A268     		ldr	r2, [r4, #8]
 1189 0308 FFF7FEFF 		bl	LL_ADC_SetChannelSamplingTime
 1190              	.L155:
 1191 030c 2068     		ldr	r0, [r4]
 1192 030e 344B     		ldr	r3, .L215+12
 1193 0310 1842     		tst	r0, r3
 1194 0312 1ED0     		beq	.L174
 1195 0314 334B     		ldr	r3, .L215+16
 1196 0316 344A     		ldr	r2, .L215+20
 1197 0318 9968     		ldr	r1, [r3, #8]
 1198 031a 9042     		cmp	r0, r2
 1199 031c 01F0E074 		and	r4, r1, #29360128
 1200 0320 45D1     		bne	.L175
 1201 0322 0802     		lsls	r0, r1, #8
 1202 0324 15D4     		bmi	.L174
 1203 0326 2968     		ldr	r1, [r5]
 1204 0328 304A     		ldr	r2, .L215+24
 1205 032a 9142     		cmp	r1, r2
 1206 032c 11D1     		bne	.L174
 1207 032e 9A68     		ldr	r2, [r3, #8]
 1208 0330 22F0E072 		bic	r2, r2, #29360128
 1209 0334 2243     		orrs	r2, r2, r4
 1210 0336 42F40002 		orr	r2, r2, #8388608
 1211 033a 9A60     		str	r2, [r3, #8]
 1212 033c 2C4B     		ldr	r3, .L215+28
 1213 033e 2D4A     		ldr	r2, .L215+32
 1214 0340 1B68     		ldr	r3, [r3]
 1215 0342 B3FBF2F3 		udiv	r3, r3, r2
 1216 0346 0C22     		movs	r2, #12
 1217 0348 5343     		muls	r3, r2, r3
 1218 034a 1833     		adds	r3, r3, #24
 1219              	.L213:
 1220 034c 0193     		str	r3, [sp, #4]
 1221 034e 019B     		ldr	r3, [sp, #4]
 1222 0350 53BB     		cbnz	r3, .L178
 1223              	.L174:
 1224 0352 0023     		movs	r3, #0
 1225 0354 85F85030 		strb	r3, [r5, #80]
 1226              	.L120:
 1227 0358 3046     		mov	r0, r6
 1228 035a 03B0     		add	sp, sp, #12
 1229              		@ sp needed
 1230 035c F0BD     		pop	{r4, r5, r6, r7, pc}
 1231              	.L164:
 1232              		.syntax unified
 1233              	@ 1055 "Drivers/CMSIS/Include/cmsis_gcc.h" 1
 1234 035e 93FAA3F3 		rbit r3, r3
 1235              	@ 0 "" 2
 1236              		.thumb
ARM GAS  C:\Users\CL\AppData\Local\Temp\ccBkzGqQ.s 			page 22


 1237              		.syntax unified
 1238 0362 B3FA83F3 		clz	r3, r3
 1239 0366 C6E7     		b	.L211
 1240              	.L161:
 1241              		.syntax unified
 1242              	@ 1055 "Drivers/CMSIS/Include/cmsis_gcc.h" 1
 1243 0368 93FAA3F2 		rbit r2, r3
 1244              	@ 0 "" 2
 1245              		.thumb
 1246              		.syntax unified
 1247 036c B2FA82F2 		clz	r2, r2
 1248 0370 0132     		adds	r2, r2, #1
 1249 0372 9206     		lsls	r2, r2, #26
 1250 0374 02F0F842 		and	r2, r2, #2080374784
 1251              		.syntax unified
 1252              	@ 1055 "Drivers/CMSIS/Include/cmsis_gcc.h" 1
 1253 0378 93FAA3F1 		rbit r1, r3
 1254              	@ 0 "" 2
 1255              		.thumb
 1256              		.syntax unified
 1257 037c B1FA81F1 		clz	r1, r1
 1258 0380 0131     		adds	r1, r1, #1
 1259 0382 01F01F0C 		and	ip, r1, #31
 1260 0386 0121     		movs	r1, #1
 1261 0388 01FA0CF1 		lsl	r1, r1, ip
 1262 038c F0E6     		b	.L159
 1263              	.L170:
 1264              		.syntax unified
 1265              	@ 1055 "Drivers/CMSIS/Include/cmsis_gcc.h" 1
 1266 038e 93FAA3F1 		rbit r1, r3
 1267              	@ 0 "" 2
 1268              		.thumb
 1269              		.syntax unified
 1270 0392 B1FA81F1 		clz	r1, r1
 1271 0396 0131     		adds	r1, r1, #1
 1272 0398 01F01F03 		and	r3, r1, #31
 1273 039c 6FF01D07 		mvn	r7, #29
 1274 03a0 0321     		movs	r1, #3
 1275 03a2 11FB0371 		smlabb	r1, r1, r3, r7
 1276 03a6 EEE6     		b	.L212
 1277              	.L178:
 1278 03a8 019B     		ldr	r3, [sp, #4]
 1279 03aa 013B     		subs	r3, r3, #1
 1280 03ac CEE7     		b	.L213
 1281              	.L175:
 1282 03ae 124A     		ldr	r2, .L215+36
 1283 03b0 9042     		cmp	r0, r2
 1284 03b2 23D1     		bne	.L179
 1285 03b4 C901     		lsls	r1, r1, #7
 1286 03b6 CCD4     		bmi	.L174
 1287 03b8 2968     		ldr	r1, [r5]
 1288 03ba A2F1F742 		sub	r2, r2, #2071986176
 1289 03be 9142     		cmp	r1, r2
 1290 03c0 C7D1     		bne	.L174
 1291 03c2 9A68     		ldr	r2, [r3, #8]
 1292 03c4 22F0E072 		bic	r2, r2, #29360128
 1293 03c8 2243     		orrs	r2, r2, r4
ARM GAS  C:\Users\CL\AppData\Local\Temp\ccBkzGqQ.s 			page 23


 1294 03ca 42F08072 		orr	r2, r2, #16777216
 1295              	.L214:
 1296 03ce 9A60     		str	r2, [r3, #8]
 1297 03d0 BFE7     		b	.L174
 1298              	.L216:
 1299 03d2 00BF     		.align	2
 1300              	.L215:
 1301 03d4 00F0FF03 		.word	67104768
 1302 03d8 FFFF0700 		.word	524287
 1303 03dc 00007F40 		.word	1082064896
 1304 03e0 00000880 		.word	-2146959360
 1305 03e4 00030450 		.word	1342440192
 1306 03e8 000052C7 		.word	-950927360
 1307 03ec 00000450 		.word	1342439424
 1308 03f0 00000000 		.word	SystemCoreClock
 1309 03f4 400D0300 		.word	200000
 1310 03f8 000084CB 		.word	-880541696
 1311              	.L179:
 1312 03fc 084A     		ldr	r2, .L217
 1313 03fe 9042     		cmp	r0, r2
 1314 0400 A7D1     		bne	.L174
 1315 0402 4A02     		lsls	r2, r1, #9
 1316 0404 A5D4     		bmi	.L174
 1317 0406 2968     		ldr	r1, [r5]
 1318 0408 064A     		ldr	r2, .L217+4
 1319 040a 9142     		cmp	r1, r2
 1320 040c A1D1     		bne	.L174
 1321 040e 9A68     		ldr	r2, [r3, #8]
 1322 0410 22F0E072 		bic	r2, r2, #29360128
 1323 0414 2243     		orrs	r2, r2, r4
 1324 0416 42F48002 		orr	r2, r2, #4194304
 1325 041a D8E7     		b	.L214
 1326              	.L180:
 1327 041c 0226     		movs	r6, #2
 1328 041e 9BE7     		b	.L120
 1329              	.L218:
 1330              		.align	2
 1331              	.L217:
 1332 0420 01000080 		.word	-2147483647
 1333 0424 00000450 		.word	1342439424
 1335              		.section	.text.HAL_ADCEx_EnableInjectedQueue,"ax",%progbits
 1336              		.align	1
 1337              		.global	HAL_ADCEx_EnableInjectedQueue
 1338              		.syntax unified
 1339              		.thumb
 1340              		.thumb_func
 1342              	HAL_ADCEx_EnableInjectedQueue:
 1343              		@ args = 0, pretend = 0, frame = 0
 1344              		@ frame_needed = 0, uses_anonymous_args = 0
 1345 0000 0246     		mov	r2, r0
 1346 0002 0068     		ldr	r0, [r0]
 1347 0004 08B5     		push	{r3, lr}
 1348 0006 8368     		ldr	r3, [r0, #8]
 1349 0008 FFF7FEFF 		bl	LL_ADC_INJ_IsConversionOngoing
 1350 000c 03F00403 		and	r3, r3, #4
 1351 0010 0343     		orrs	r3, r3, r0
 1352 0012 0AD1     		bne	.L221
ARM GAS  C:\Users\CL\AppData\Local\Temp\ccBkzGqQ.s 			page 24


 1353 0014 1068     		ldr	r0, [r2]
 1354 0016 C168     		ldr	r1, [r0, #12]
 1355 0018 21F00041 		bic	r1, r1, #-2147483648
 1356 001c C160     		str	r1, [r0, #12]
 1357 001e 516D     		ldr	r1, [r2, #84]
 1358 0020 21F48041 		bic	r1, r1, #16384
 1359 0024 5165     		str	r1, [r2, #84]
 1360 0026 1846     		mov	r0, r3
 1361              	.L220:
 1362 0028 08BD     		pop	{r3, pc}
 1363              	.L221:
 1364 002a 0120     		movs	r0, #1
 1365 002c FCE7     		b	.L220
 1367              		.section	.text.HAL_ADCEx_DisableInjectedQueue,"ax",%progbits
 1368              		.align	1
 1369              		.global	HAL_ADCEx_DisableInjectedQueue
 1370              		.syntax unified
 1371              		.thumb
 1372              		.thumb_func
 1374              	HAL_ADCEx_DisableInjectedQueue:
 1375              		@ args = 0, pretend = 0, frame = 0
 1376              		@ frame_needed = 0, uses_anonymous_args = 0
 1377 0000 0246     		mov	r2, r0
 1378 0002 0068     		ldr	r0, [r0]
 1379 0004 08B5     		push	{r3, lr}
 1380 0006 8368     		ldr	r3, [r0, #8]
 1381 0008 FFF7FEFF 		bl	LL_ADC_INJ_IsConversionOngoing
 1382 000c 03F00403 		and	r3, r3, #4
 1383 0010 0343     		orrs	r3, r3, r0
 1384 0012 01BF     		itttt	eq
 1385 0014 1168     		ldreq	r1, [r2]
 1386 0016 CA68     		ldreq	r2, [r1, #12]
 1387 0018 22F00042 		biceq	r2, r2, #-2147483648
 1388 001c 22F40012 		biceq	r2, r2, #2097152
 1389 0020 03BF     		ittte	eq
 1390 0022 42F00042 		orreq	r2, r2, #-2147483648
 1391 0026 CA60     		streq	r2, [r1, #12]
 1392 0028 1846     		moveq	r0, r3
 1393 002a 0120     		movne	r0, #1
 1394 002c 08BD     		pop	{r3, pc}
 1396              		.section	.text.HAL_ADCEx_DisableVoltageRegulator,"ax",%progbits
 1397              		.align	1
 1398              		.global	HAL_ADCEx_DisableVoltageRegulator
 1399              		.syntax unified
 1400              		.thumb
 1401              		.thumb_func
 1403              	HAL_ADCEx_DisableVoltageRegulator:
 1404              		@ args = 0, pretend = 0, frame = 0
 1405              		@ frame_needed = 0, uses_anonymous_args = 0
 1406              		@ link register save eliminated.
 1407 0000 0268     		ldr	r2, [r0]
 1408 0002 9068     		ldr	r0, [r2, #8]
 1409 0004 10F00100 		ands	r0, r0, #1
 1410 0008 01BF     		itttt	eq
 1411 000a 9368     		ldreq	r3, [r2, #8]
 1412 000c 23F01043 		biceq	r3, r3, #-1879048192
 1413 0010 23F03F03 		biceq	r3, r3, #63
ARM GAS  C:\Users\CL\AppData\Local\Temp\ccBkzGqQ.s 			page 25


 1414 0014 9360     		streq	r3, [r2, #8]
 1415 0016 18BF     		it	ne
 1416 0018 0120     		movne	r0, #1
 1417 001a 7047     		bx	lr
 1419              		.section	.text.HAL_ADCEx_EnterADCDeepPowerDownMode,"ax",%progbits
 1420              		.align	1
 1421              		.global	HAL_ADCEx_EnterADCDeepPowerDownMode
 1422              		.syntax unified
 1423              		.thumb
 1424              		.thumb_func
 1426              	HAL_ADCEx_EnterADCDeepPowerDownMode:
 1427              		@ args = 0, pretend = 0, frame = 0
 1428              		@ frame_needed = 0, uses_anonymous_args = 0
 1429              		@ link register save eliminated.
 1430 0000 0268     		ldr	r2, [r0]
 1431 0002 9068     		ldr	r0, [r2, #8]
 1432 0004 10F00100 		ands	r0, r0, #1
 1433 0008 01BF     		itttt	eq
 1434 000a 9368     		ldreq	r3, [r2, #8]
 1435 000c 23F02043 		biceq	r3, r3, #-1610612736
 1436 0010 23F03F03 		biceq	r3, r3, #63
 1437 0014 43F00053 		orreq	r3, r3, #536870912
 1438 0018 0CBF     		ite	eq
 1439 001a 9360     		streq	r3, [r2, #8]
 1440 001c 0120     		movne	r0, #1
 1441 001e 7047     		bx	lr
 1443              		.ident	"GCC: (GNU Arm Embedded Toolchain 10.3-2021.10) 10.3.1 20210824 (release)"
ARM GAS  C:\Users\CL\AppData\Local\Temp\ccBkzGqQ.s 			page 26


DEFINED SYMBOLS
                            *ABS*:00000000 stm32l4xx_hal_adc_ex.c
C:\Users\CL\AppData\Local\Temp\ccBkzGqQ.s:18     .text.LL_ADC_SetChannelSamplingTime:00000000 $t
C:\Users\CL\AppData\Local\Temp\ccBkzGqQ.s:23     .text.LL_ADC_SetChannelSamplingTime:00000000 LL_ADC_SetChannelSamplingTime
C:\Users\CL\AppData\Local\Temp\ccBkzGqQ.s:41     .text.LL_ADC_INJ_IsConversionOngoing:00000000 $t
C:\Users\CL\AppData\Local\Temp\ccBkzGqQ.s:46     .text.LL_ADC_INJ_IsConversionOngoing:00000000 LL_ADC_INJ_IsConversionOngoing
C:\Users\CL\AppData\Local\Temp\ccBkzGqQ.s:55     .text.HAL_ADCEx_Calibration_Start:00000000 $t
C:\Users\CL\AppData\Local\Temp\ccBkzGqQ.s:61     .text.HAL_ADCEx_Calibration_Start:00000000 HAL_ADCEx_Calibration_Start
C:\Users\CL\AppData\Local\Temp\ccBkzGqQ.s:129    .text.HAL_ADCEx_Calibration_GetValue:00000000 $t
C:\Users\CL\AppData\Local\Temp\ccBkzGqQ.s:135    .text.HAL_ADCEx_Calibration_GetValue:00000000 HAL_ADCEx_Calibration_GetValue
C:\Users\CL\AppData\Local\Temp\ccBkzGqQ.s:149    .text.HAL_ADCEx_Calibration_SetValue:00000000 $t
C:\Users\CL\AppData\Local\Temp\ccBkzGqQ.s:155    .text.HAL_ADCEx_Calibration_SetValue:00000000 HAL_ADCEx_Calibration_SetValue
C:\Users\CL\AppData\Local\Temp\ccBkzGqQ.s:204    .text.HAL_ADCEx_InjectedStart:00000000 $t
C:\Users\CL\AppData\Local\Temp\ccBkzGqQ.s:210    .text.HAL_ADCEx_InjectedStart:00000000 HAL_ADCEx_InjectedStart
C:\Users\CL\AppData\Local\Temp\ccBkzGqQ.s:276    .text.HAL_ADCEx_InjectedStop:00000000 $t
C:\Users\CL\AppData\Local\Temp\ccBkzGqQ.s:282    .text.HAL_ADCEx_InjectedStop:00000000 HAL_ADCEx_InjectedStop
C:\Users\CL\AppData\Local\Temp\ccBkzGqQ.s:323    .text.HAL_ADCEx_InjectedPollForConversion:00000000 $t
C:\Users\CL\AppData\Local\Temp\ccBkzGqQ.s:329    .text.HAL_ADCEx_InjectedPollForConversion:00000000 HAL_ADCEx_InjectedPollForConversion
C:\Users\CL\AppData\Local\Temp\ccBkzGqQ.s:414    .text.HAL_ADCEx_InjectedPollForConversion:000000a0 $d
C:\Users\CL\AppData\Local\Temp\ccBkzGqQ.s:417    .text.HAL_ADCEx_InjectedStart_IT:00000000 $t
C:\Users\CL\AppData\Local\Temp\ccBkzGqQ.s:423    .text.HAL_ADCEx_InjectedStart_IT:00000000 HAL_ADCEx_InjectedStart_IT
C:\Users\CL\AppData\Local\Temp\ccBkzGqQ.s:510    .text.HAL_ADCEx_InjectedStop_IT:00000000 $t
C:\Users\CL\AppData\Local\Temp\ccBkzGqQ.s:516    .text.HAL_ADCEx_InjectedStop_IT:00000000 HAL_ADCEx_InjectedStop_IT
C:\Users\CL\AppData\Local\Temp\ccBkzGqQ.s:560    .text.HAL_ADCEx_InjectedGetValue:00000000 $t
C:\Users\CL\AppData\Local\Temp\ccBkzGqQ.s:566    .text.HAL_ADCEx_InjectedGetValue:00000000 HAL_ADCEx_InjectedGetValue
C:\Users\CL\AppData\Local\Temp\ccBkzGqQ.s:591    .text.HAL_ADCEx_InjectedConvCpltCallback:00000000 $t
C:\Users\CL\AppData\Local\Temp\ccBkzGqQ.s:597    .text.HAL_ADCEx_InjectedConvCpltCallback:00000000 HAL_ADCEx_InjectedConvCpltCallback
C:\Users\CL\AppData\Local\Temp\ccBkzGqQ.s:604    .text.HAL_ADCEx_InjectedQueueOverflowCallback:00000000 $t
C:\Users\CL\AppData\Local\Temp\ccBkzGqQ.s:610    .text.HAL_ADCEx_InjectedQueueOverflowCallback:00000000 HAL_ADCEx_InjectedQueueOverflowCallback
C:\Users\CL\AppData\Local\Temp\ccBkzGqQ.s:617    .text.HAL_ADCEx_LevelOutOfWindow2Callback:00000000 $t
C:\Users\CL\AppData\Local\Temp\ccBkzGqQ.s:623    .text.HAL_ADCEx_LevelOutOfWindow2Callback:00000000 HAL_ADCEx_LevelOutOfWindow2Callback
C:\Users\CL\AppData\Local\Temp\ccBkzGqQ.s:630    .text.HAL_ADCEx_LevelOutOfWindow3Callback:00000000 $t
C:\Users\CL\AppData\Local\Temp\ccBkzGqQ.s:636    .text.HAL_ADCEx_LevelOutOfWindow3Callback:00000000 HAL_ADCEx_LevelOutOfWindow3Callback
C:\Users\CL\AppData\Local\Temp\ccBkzGqQ.s:643    .text.HAL_ADCEx_EndOfSamplingCallback:00000000 $t
C:\Users\CL\AppData\Local\Temp\ccBkzGqQ.s:649    .text.HAL_ADCEx_EndOfSamplingCallback:00000000 HAL_ADCEx_EndOfSamplingCallback
C:\Users\CL\AppData\Local\Temp\ccBkzGqQ.s:656    .text.HAL_ADCEx_RegularStop:00000000 $t
C:\Users\CL\AppData\Local\Temp\ccBkzGqQ.s:662    .text.HAL_ADCEx_RegularStop:00000000 HAL_ADCEx_RegularStop
C:\Users\CL\AppData\Local\Temp\ccBkzGqQ.s:706    .text.HAL_ADCEx_RegularStop_IT:00000000 $t
C:\Users\CL\AppData\Local\Temp\ccBkzGqQ.s:712    .text.HAL_ADCEx_RegularStop_IT:00000000 HAL_ADCEx_RegularStop_IT
C:\Users\CL\AppData\Local\Temp\ccBkzGqQ.s:759    .text.HAL_ADCEx_RegularStop_DMA:00000000 $t
C:\Users\CL\AppData\Local\Temp\ccBkzGqQ.s:765    .text.HAL_ADCEx_RegularStop_DMA:00000000 HAL_ADCEx_RegularStop_DMA
C:\Users\CL\AppData\Local\Temp\ccBkzGqQ.s:830    .text.HAL_ADCEx_InjectedConfigChannel:00000000 $t
C:\Users\CL\AppData\Local\Temp\ccBkzGqQ.s:836    .text.HAL_ADCEx_InjectedConfigChannel:00000000 HAL_ADCEx_InjectedConfigChannel
C:\Users\CL\AppData\Local\Temp\ccBkzGqQ.s:1301   .text.HAL_ADCEx_InjectedConfigChannel:000003d4 $d
C:\Users\CL\AppData\Local\Temp\ccBkzGqQ.s:1312   .text.HAL_ADCEx_InjectedConfigChannel:000003fc $t
C:\Users\CL\AppData\Local\Temp\ccBkzGqQ.s:1332   .text.HAL_ADCEx_InjectedConfigChannel:00000420 $d
C:\Users\CL\AppData\Local\Temp\ccBkzGqQ.s:1336   .text.HAL_ADCEx_EnableInjectedQueue:00000000 $t
C:\Users\CL\AppData\Local\Temp\ccBkzGqQ.s:1342   .text.HAL_ADCEx_EnableInjectedQueue:00000000 HAL_ADCEx_EnableInjectedQueue
C:\Users\CL\AppData\Local\Temp\ccBkzGqQ.s:1368   .text.HAL_ADCEx_DisableInjectedQueue:00000000 $t
C:\Users\CL\AppData\Local\Temp\ccBkzGqQ.s:1374   .text.HAL_ADCEx_DisableInjectedQueue:00000000 HAL_ADCEx_DisableInjectedQueue
C:\Users\CL\AppData\Local\Temp\ccBkzGqQ.s:1397   .text.HAL_ADCEx_DisableVoltageRegulator:00000000 $t
C:\Users\CL\AppData\Local\Temp\ccBkzGqQ.s:1403   .text.HAL_ADCEx_DisableVoltageRegulator:00000000 HAL_ADCEx_DisableVoltageRegulator
C:\Users\CL\AppData\Local\Temp\ccBkzGqQ.s:1420   .text.HAL_ADCEx_EnterADCDeepPowerDownMode:00000000 $t
C:\Users\CL\AppData\Local\Temp\ccBkzGqQ.s:1426   .text.HAL_ADCEx_EnterADCDeepPowerDownMode:00000000 HAL_ADCEx_EnterADCDeepPowerDownMode

UNDEFINED SYMBOLS
ADC_Disable
ARM GAS  C:\Users\CL\AppData\Local\Temp\ccBkzGqQ.s 			page 27


ADC_Enable
ADC_ConversionStop
HAL_GetTick
HAL_DMA_Abort
SystemCoreClock
