ARM GAS  C:\Users\CL\AppData\Local\Temp\ccyBuYSY.s 			page 1


   1              		.cpu cortex-m4
   2              		.arch armv7e-m
   3              		.fpu fpv4-sp-d16
   4              		.eabi_attribute 27, 1
   5              		.eabi_attribute 28, 1
   6              		.eabi_attribute 20, 1
   7              		.eabi_attribute 21, 1
   8              		.eabi_attribute 23, 3
   9              		.eabi_attribute 24, 1
  10              		.eabi_attribute 25, 1
  11              		.eabi_attribute 26, 1
  12              		.eabi_attribute 30, 4
  13              		.eabi_attribute 34, 1
  14              		.eabi_attribute 18, 4
  15              		.file	"stm32l4xx_hal_adc.c"
  16              		.text
  17              		.section	.text.LL_ADC_SetChannelSamplingTime,"ax",%progbits
  18              		.align	1
  19              		.syntax unified
  20              		.thumb
  21              		.thumb_func
  23              	LL_ADC_SetChannelSamplingTime:
  24              		@ args = 0, pretend = 0, frame = 0
  25              		@ frame_needed = 0, uses_anonymous_args = 0
  26 0000 30B5     		push	{r4, r5, lr}
  27 0002 CC0D     		lsrs	r4, r1, #23
  28 0004 04F00404 		and	r4, r4, #4
  29 0008 1430     		adds	r0, r0, #20
  30 000a C1F30451 		ubfx	r1, r1, #20, #5
  31 000e 2358     		ldr	r3, [r4, r0]
  32 0010 0725     		movs	r5, #7
  33 0012 8D40     		lsls	r5, r5, r1
  34 0014 23EA0503 		bic	r3, r3, r5
  35 0018 02FA01F1 		lsl	r1, r2, r1
  36 001c 0B43     		orrs	r3, r3, r1
  37 001e 2350     		str	r3, [r4, r0]
  38 0020 30BD     		pop	{r4, r5, pc}
  40              		.section	.text.LL_ADC_SetAnalogWDMonitChannels,"ax",%progbits
  41              		.align	1
  42              		.syntax unified
  43              		.thumb
  44              		.thumb_func
  46              	LL_ADC_SetAnalogWDMonitChannels:
  47              		@ args = 0, pretend = 0, frame = 0
  48              		@ frame_needed = 0, uses_anonymous_args = 0
  49 0000 30B5     		push	{r4, r5, lr}
  50 0002 01F00103 		and	r3, r1, #1
  51 0006 2425     		movs	r5, #36
  52 0008 C1F30154 		ubfx	r4, r1, #20, #2
  53 000c 05FB0344 		mla	r4, r5, r3, r4
  54 0010 0C30     		adds	r0, r0, #12
  55 0012 21F00245 		bic	r5, r1, #-2113929216
  56 0016 50F82430 		ldr	r3, [r0, r4, lsl #2]
  57 001a 25F46015 		bic	r5, r5, #3670016
  58 001e 23EA0503 		bic	r3, r3, r5
  59 0022 0A40     		ands	r2, r2, r1
  60 0024 1343     		orrs	r3, r3, r2
ARM GAS  C:\Users\CL\AppData\Local\Temp\ccyBuYSY.s 			page 2


  61 0026 40F82430 		str	r3, [r0, r4, lsl #2]
  62 002a 30BD     		pop	{r4, r5, pc}
  64              		.section	.text.LL_ADC_REG_IsConversionOngoing,"ax",%progbits
  65              		.align	1
  66              		.syntax unified
  67              		.thumb
  68              		.thumb_func
  70              	LL_ADC_REG_IsConversionOngoing:
  71              		@ args = 0, pretend = 0, frame = 0
  72              		@ frame_needed = 0, uses_anonymous_args = 0
  73              		@ link register save eliminated.
  74 0000 8068     		ldr	r0, [r0, #8]
  75 0002 C0F38000 		ubfx	r0, r0, #2, #1
  76 0006 7047     		bx	lr
  78              		.section	.text.HAL_ADC_MspInit,"ax",%progbits
  79              		.align	1
  80              		.weak	HAL_ADC_MspInit
  81              		.syntax unified
  82              		.thumb
  83              		.thumb_func
  85              	HAL_ADC_MspInit:
  86              		@ args = 0, pretend = 0, frame = 0
  87              		@ frame_needed = 0, uses_anonymous_args = 0
  88              		@ link register save eliminated.
  89 0000 7047     		bx	lr
  91              		.section	.text.HAL_ADC_Init,"ax",%progbits
  92              		.align	1
  93              		.global	HAL_ADC_Init
  94              		.syntax unified
  95              		.thumb
  96              		.thumb_func
  98              	HAL_ADC_Init:
  99              		@ args = 0, pretend = 0, frame = 8
 100              		@ frame_needed = 0, uses_anonymous_args = 0
 101 0000 37B5     		push	{r0, r1, r2, r4, r5, lr}
 102 0002 0023     		movs	r3, #0
 103 0004 0193     		str	r3, [sp, #4]
 104 0006 0446     		mov	r4, r0
 105 0008 0028     		cmp	r0, #0
 106 000a 00F0BF80 		beq	.L23
 107 000e 456D     		ldr	r5, [r0, #84]
 108 0010 25B9     		cbnz	r5, .L7
 109 0012 FFF7FEFF 		bl	HAL_ADC_MspInit
 110 0016 A565     		str	r5, [r4, #88]
 111 0018 84F85050 		strb	r5, [r4, #80]
 112              	.L7:
 113 001c 2068     		ldr	r0, [r4]
 114 001e 8368     		ldr	r3, [r0, #8]
 115 0020 9B00     		lsls	r3, r3, #2
 116 0022 41BF     		itttt	mi
 117 0024 8368     		ldrmi	r3, [r0, #8]
 118 0026 23F02043 		bicmi	r3, r3, #-1610612736
 119 002a 23F03F03 		bicmi	r3, r3, #63
 120 002e 8360     		strmi	r3, [r0, #8]
 121 0030 8368     		ldr	r3, [r0, #8]
 122 0032 DD00     		lsls	r5, r3, #3
 123 0034 40F18A80 		bpl	.L9
ARM GAS  C:\Users\CL\AppData\Local\Temp\ccyBuYSY.s 			page 3


 124              	.L14:
 125 0038 8368     		ldr	r3, [r0, #8]
 126 003a D900     		lsls	r1, r3, #3
 127 003c 00F19D80 		bmi	.L24
 128 0040 636D     		ldr	r3, [r4, #84]
 129 0042 43F01003 		orr	r3, r3, #16
 130 0046 6365     		str	r3, [r4, #84]
 131 0048 A36D     		ldr	r3, [r4, #88]
 132 004a 43F00103 		orr	r3, r3, #1
 133 004e A365     		str	r3, [r4, #88]
 134 0050 0121     		movs	r1, #1
 135              	.L10:
 136 0052 FFF7FEFF 		bl	LL_ADC_REG_IsConversionOngoing
 137 0056 636D     		ldr	r3, [r4, #84]
 138 0058 03F01003 		and	r3, r3, #16
 139 005c 0343     		orrs	r3, r3, r0
 140 005e 636D     		ldr	r3, [r4, #84]
 141 0060 40F09180 		bne	.L15
 142 0064 23F48173 		bic	r3, r3, #258
 143 0068 43F00203 		orr	r3, r3, #2
 144 006c 2068     		ldr	r0, [r4]
 145 006e 6365     		str	r3, [r4, #84]
 146 0070 8368     		ldr	r3, [r0, #8]
 147 0072 DA07     		lsls	r2, r3, #31
 148 0074 0AD4     		bmi	.L16
 149 0076 464B     		ldr	r3, .L35
 150 0078 9B68     		ldr	r3, [r3, #8]
 151 007a DB07     		lsls	r3, r3, #31
 152 007c 06D4     		bmi	.L16
 153 007e 454A     		ldr	r2, .L35+4
 154 0080 6568     		ldr	r5, [r4, #4]
 155 0082 9368     		ldr	r3, [r2, #8]
 156 0084 23F47C13 		bic	r3, r3, #4128768
 157 0088 2B43     		orrs	r3, r3, r5
 158 008a 9360     		str	r3, [r2, #8]
 159              	.L16:
 160 008c E568     		ldr	r5, [r4, #12]
 161 008e 636B     		ldr	r3, [r4, #52]
 162 0090 94F82020 		ldrb	r2, [r4, #32]	@ zero_extendqisi2
 163 0094 2B43     		orrs	r3, r3, r5
 164 0096 A568     		ldr	r5, [r4, #8]
 165 0098 2B43     		orrs	r3, r3, r5
 166 009a 657E     		ldrb	r5, [r4, #25]	@ zero_extendqisi2
 167 009c 012A     		cmp	r2, #1
 168 009e 43EA4533 		orr	r3, r3, r5, lsl #13
 169 00a2 43EA0243 		orr	r3, r3, r2, lsl #16
 170 00a6 02BF     		ittt	eq
 171 00a8 626A     		ldreq	r2, [r4, #36]
 172 00aa 02F1FF32 		addeq	r2, r2, #-1
 173 00ae 43EA4243 		orreq	r3, r3, r2, lsl #17
 174 00b2 A26A     		ldr	r2, [r4, #40]
 175 00b4 22B1     		cbz	r2, .L18
 176 00b6 E56A     		ldr	r5, [r4, #44]
 177 00b8 02F47072 		and	r2, r2, #960
 178 00bc 2A43     		orrs	r2, r2, r5
 179 00be 1343     		orrs	r3, r3, r2
 180              	.L18:
ARM GAS  C:\Users\CL\AppData\Local\Temp\ccyBuYSY.s 			page 4


 181 00c0 C568     		ldr	r5, [r0, #12]
 182 00c2 354A     		ldr	r2, .L35+8
 183 00c4 2A40     		ands	r2, r2, r5
 184 00c6 1343     		orrs	r3, r3, r2
 185 00c8 C360     		str	r3, [r0, #12]
 186 00ca FFF7FEFF 		bl	LL_ADC_REG_IsConversionOngoing
 187 00ce 2368     		ldr	r3, [r4]
 188 00d0 9A68     		ldr	r2, [r3, #8]
 189 00d2 02F00802 		and	r2, r2, #8
 190 00d6 0243     		orrs	r2, r2, r0
 191 00d8 20D1     		bne	.L19
 192 00da D868     		ldr	r0, [r3, #12]
 193 00dc 94F83020 		ldrb	r2, [r4, #48]	@ zero_extendqisi2
 194 00e0 257E     		ldrb	r5, [r4, #24]	@ zero_extendqisi2
 195 00e2 5200     		lsls	r2, r2, #1
 196 00e4 20F48040 		bic	r0, r0, #16384
 197 00e8 42EA8532 		orr	r2, r2, r5, lsl #14
 198 00ec 20F00200 		bic	r0, r0, #2
 199 00f0 0243     		orrs	r2, r2, r0
 200 00f2 DA60     		str	r2, [r3, #12]
 201 00f4 94F83820 		ldrb	r2, [r4, #56]	@ zero_extendqisi2
 202 00f8 012A     		cmp	r2, #1
 203 00fa 40D1     		bne	.L20
 204 00fc D4E90F25 		ldrd	r2, r5, [r4, #60]
 205 0100 1869     		ldr	r0, [r3, #16]
 206 0102 20F4FF60 		bic	r0, r0, #2040
 207 0106 20F00400 		bic	r0, r0, #4
 208 010a 2A43     		orrs	r2, r2, r5
 209 010c 0243     		orrs	r2, r2, r0
 210 010e 606C     		ldr	r0, [r4, #68]
 211 0110 0243     		orrs	r2, r2, r0
 212 0112 A06C     		ldr	r0, [r4, #72]
 213 0114 0243     		orrs	r2, r2, r0
 214 0116 42F00102 		orr	r2, r2, #1
 215              	.L33:
 216 011a 1A61     		str	r2, [r3, #16]
 217              	.L19:
 218 011c 2269     		ldr	r2, [r4, #16]
 219 011e 012A     		cmp	r2, #1
 220 0120 05BF     		ittet	eq
 221 0122 186B     		ldreq	r0, [r3, #48]
 222 0124 E269     		ldreq	r2, [r4, #28]
 223 0126 1A6B     		ldrne	r2, [r3, #48]
 224 0128 02F1FF32 		addeq	r2, r2, #-1
 225 012c 06BF     		itte	eq
 226 012e 20F00F00 		biceq	r0, r0, #15
 227 0132 0243     		orreq	r2, r2, r0
 228 0134 22F00F02 		bicne	r2, r2, #15
 229 0138 1A63     		str	r2, [r3, #48]
 230 013a 636D     		ldr	r3, [r4, #84]
 231 013c 23F00303 		bic	r3, r3, #3
 232 0140 43F00103 		orr	r3, r3, #1
 233 0144 6365     		str	r3, [r4, #84]
 234              	.L6:
 235 0146 0846     		mov	r0, r1
 236 0148 03B0     		add	sp, sp, #12
 237              		@ sp needed
ARM GAS  C:\Users\CL\AppData\Local\Temp\ccyBuYSY.s 			page 5


 238 014a 30BD     		pop	{r4, r5, pc}
 239              	.L9:
 240 014c 8368     		ldr	r3, [r0, #8]
 241 014e 134A     		ldr	r2, .L35+12
 242 0150 23F01043 		bic	r3, r3, #-1879048192
 243 0154 23F03F03 		bic	r3, r3, #63
 244 0158 43F08053 		orr	r3, r3, #268435456
 245 015c 8360     		str	r3, [r0, #8]
 246 015e 104B     		ldr	r3, .L35+16
 247 0160 1B68     		ldr	r3, [r3]
 248 0162 B3FBF2F3 		udiv	r3, r3, r2
 249 0166 0133     		adds	r3, r3, #1
 250 0168 5B00     		lsls	r3, r3, #1
 251              	.L32:
 252 016a 0193     		str	r3, [sp, #4]
 253 016c 019B     		ldr	r3, [sp, #4]
 254 016e 002B     		cmp	r3, #0
 255 0170 3FF462AF 		beq	.L14
 256 0174 019B     		ldr	r3, [sp, #4]
 257 0176 013B     		subs	r3, r3, #1
 258 0178 F7E7     		b	.L32
 259              	.L24:
 260 017a 0021     		movs	r1, #0
 261 017c 69E7     		b	.L10
 262              	.L20:
 263 017e 1A69     		ldr	r2, [r3, #16]
 264 0180 22F00102 		bic	r2, r2, #1
 265 0184 C9E7     		b	.L33
 266              	.L15:
 267 0186 43F01003 		orr	r3, r3, #16
 268 018a 6365     		str	r3, [r4, #84]
 269              	.L23:
 270 018c 0121     		movs	r1, #1
 271 018e DAE7     		b	.L6
 272              	.L36:
 273              		.align	2
 274              	.L35:
 275 0190 00000450 		.word	1342439424
 276 0194 00030450 		.word	1342440192
 277 0198 07C0F0FF 		.word	-999417
 278 019c 400D0300 		.word	200000
 279 01a0 00000000 		.word	SystemCoreClock
 281              		.section	.text.HAL_ADC_MspDeInit,"ax",%progbits
 282              		.align	1
 283              		.weak	HAL_ADC_MspDeInit
 284              		.syntax unified
 285              		.thumb
 286              		.thumb_func
 288              	HAL_ADC_MspDeInit:
 289              		@ args = 0, pretend = 0, frame = 0
 290              		@ frame_needed = 0, uses_anonymous_args = 0
 291              		@ link register save eliminated.
 292 0000 7047     		bx	lr
 294              		.section	.text.HAL_ADC_PollForConversion,"ax",%progbits
 295              		.align	1
 296              		.global	HAL_ADC_PollForConversion
 297              		.syntax unified
ARM GAS  C:\Users\CL\AppData\Local\Temp\ccyBuYSY.s 			page 6


 298              		.thumb
 299              		.thumb_func
 301              	HAL_ADC_PollForConversion:
 302              		@ args = 0, pretend = 0, frame = 0
 303              		@ frame_needed = 0, uses_anonymous_args = 0
 304 0000 F8B5     		push	{r3, r4, r5, r6, r7, lr}
 305 0002 4569     		ldr	r5, [r0, #20]
 306 0004 082D     		cmp	r5, #8
 307 0006 0446     		mov	r4, r0
 308 0008 0E46     		mov	r6, r1
 309 000a 0AD0     		beq	.L39
 310 000c 0368     		ldr	r3, [r0]
 311 000e DB68     		ldr	r3, [r3, #12]
 312 0010 DD07     		lsls	r5, r3, #31
 313 0012 05D5     		bpl	.L49
 314 0014 436D     		ldr	r3, [r0, #84]
 315 0016 43F02003 		orr	r3, r3, #32
 316 001a 4365     		str	r3, [r0, #84]
 317 001c 0120     		movs	r0, #1
 318              	.L40:
 319 001e F8BD     		pop	{r3, r4, r5, r6, r7, pc}
 320              	.L49:
 321 0020 0425     		movs	r5, #4
 322              	.L39:
 323 0022 FFF7FEFF 		bl	HAL_GetTick
 324 0026 0746     		mov	r7, r0
 325              	.L56:
 326 0028 2368     		ldr	r3, [r4]
 327              	.L42:
 328 002a 1A68     		ldr	r2, [r3]
 329 002c 2A42     		tst	r2, r5
 330 002e 1DD0     		beq	.L44
 331 0030 626D     		ldr	r2, [r4, #84]
 332 0032 42F40072 		orr	r2, r2, #512
 333 0036 6265     		str	r2, [r4, #84]
 334 0038 DA68     		ldr	r2, [r3, #12]
 335 003a 12F4406F 		tst	r2, #3072
 336 003e 0FD1     		bne	.L46
 337 0040 627E     		ldrb	r2, [r4, #25]	@ zero_extendqisi2
 338 0042 6AB9     		cbnz	r2, .L46
 339 0044 1A68     		ldr	r2, [r3]
 340 0046 1107     		lsls	r1, r2, #28
 341 0048 0AD5     		bpl	.L46
 342 004a 626D     		ldr	r2, [r4, #84]
 343 004c 22F48072 		bic	r2, r2, #256
 344 0050 6265     		str	r2, [r4, #84]
 345 0052 626D     		ldr	r2, [r4, #84]
 346 0054 D204     		lsls	r2, r2, #19
 347 0056 5EBF     		ittt	pl
 348 0058 626D     		ldrpl	r2, [r4, #84]
 349 005a 42F00102 		orrpl	r2, r2, #1
 350 005e 6265     		strpl	r2, [r4, #84]
 351              	.L46:
 352 0060 082D     		cmp	r5, #8
 353 0062 D868     		ldr	r0, [r3, #12]
 354 0064 17D1     		bne	.L48
 355 0066 1D60     		str	r5, [r3]
ARM GAS  C:\Users\CL\AppData\Local\Temp\ccyBuYSY.s 			page 7


 356              	.L50:
 357 0068 0020     		movs	r0, #0
 358 006a D8E7     		b	.L40
 359              	.L44:
 360 006c 701C     		adds	r0, r6, #1
 361 006e DCD0     		beq	.L42
 362 0070 FFF7FEFF 		bl	HAL_GetTick
 363 0074 C01B     		subs	r0, r0, r7
 364 0076 B042     		cmp	r0, r6
 365 0078 01D8     		bhi	.L43
 366 007a 002E     		cmp	r6, #0
 367 007c D4D1     		bne	.L56
 368              	.L43:
 369 007e 2368     		ldr	r3, [r4]
 370 0080 1B68     		ldr	r3, [r3]
 371 0082 2B40     		ands	r3, r3, r5
 372 0084 D0D1     		bne	.L56
 373 0086 626D     		ldr	r2, [r4, #84]
 374 0088 84F85030 		strb	r3, [r4, #80]
 375 008c 42F00402 		orr	r2, r2, #4
 376 0090 6265     		str	r2, [r4, #84]
 377 0092 0320     		movs	r0, #3
 378 0094 C3E7     		b	.L40
 379              	.L48:
 380 0096 10F48040 		ands	r0, r0, #16384
 381 009a E5D1     		bne	.L50
 382 009c 0C22     		movs	r2, #12
 383 009e 1A60     		str	r2, [r3]
 384 00a0 BDE7     		b	.L40
 386              		.section	.text.HAL_ADC_PollForEvent,"ax",%progbits
 387              		.align	1
 388              		.global	HAL_ADC_PollForEvent
 389              		.syntax unified
 390              		.thumb
 391              		.thumb_func
 393              	HAL_ADC_PollForEvent:
 394              		@ args = 0, pretend = 0, frame = 0
 395              		@ frame_needed = 0, uses_anonymous_args = 0
 396 0000 F8B5     		push	{r3, r4, r5, r6, r7, lr}
 397 0002 0446     		mov	r4, r0
 398 0004 0D46     		mov	r5, r1
 399 0006 1646     		mov	r6, r2
 400 0008 FFF7FEFF 		bl	HAL_GetTick
 401 000c 0746     		mov	r7, r0
 402              	.L75:
 403 000e 2368     		ldr	r3, [r4]
 404              	.L62:
 405 0010 1A68     		ldr	r2, [r3]
 406 0012 35EA0202 		bics	r2, r5, r2
 407 0016 13D1     		bne	.L65
 408 0018 B5F5807F 		cmp	r5, #256
 409 001c 41D0     		beq	.L66
 410 001e 26D8     		bhi	.L67
 411 0020 022D     		cmp	r5, #2
 412 0022 33D0     		beq	.L68
 413 0024 802D     		cmp	r5, #128
 414 0026 38D0     		beq	.L69
ARM GAS  C:\Users\CL\AppData\Local\Temp\ccyBuYSY.s 			page 8


 415              	.L70:
 416 0028 606B     		ldr	r0, [r4, #52]
 417 002a 0028     		cmp	r0, #0
 418 002c 41D1     		bne	.L73
 419 002e 636D     		ldr	r3, [r4, #84]
 420 0030 43F48063 		orr	r3, r3, #1024
 421 0034 6365     		str	r3, [r4, #84]
 422 0036 A36D     		ldr	r3, [r4, #88]
 423 0038 43F00203 		orr	r3, r3, #2
 424 003c A365     		str	r3, [r4, #88]
 425 003e 15E0     		b	.L64
 426              	.L65:
 427 0040 721C     		adds	r2, r6, #1
 428 0042 E5D0     		beq	.L62
 429 0044 FFF7FEFF 		bl	HAL_GetTick
 430 0048 C01B     		subs	r0, r0, r7
 431 004a B042     		cmp	r0, r6
 432 004c 01D8     		bhi	.L63
 433 004e 002E     		cmp	r6, #0
 434 0050 DDD1     		bne	.L75
 435              	.L63:
 436 0052 2368     		ldr	r3, [r4]
 437 0054 1B68     		ldr	r3, [r3]
 438 0056 35EA0303 		bics	r3, r5, r3
 439 005a D8D0     		beq	.L75
 440 005c 636D     		ldr	r3, [r4, #84]
 441 005e 43F00403 		orr	r3, r3, #4
 442 0062 6365     		str	r3, [r4, #84]
 443 0064 0023     		movs	r3, #0
 444 0066 84F85030 		strb	r3, [r4, #80]
 445 006a 0320     		movs	r0, #3
 446              	.L64:
 447 006c F8BD     		pop	{r3, r4, r5, r6, r7, pc}
 448              	.L67:
 449 006e B5F5007F 		cmp	r5, #512
 450 0072 1AD0     		beq	.L71
 451 0074 B5F5806F 		cmp	r5, #1024
 452 0078 D6D1     		bne	.L70
 453 007a 626D     		ldr	r2, [r4, #84]
 454 007c 42F48042 		orr	r2, r2, #16384
 455 0080 6265     		str	r2, [r4, #84]
 456 0082 A26D     		ldr	r2, [r4, #88]
 457 0084 42F00802 		orr	r2, r2, #8
 458 0088 A265     		str	r2, [r4, #88]
 459 008a 03E0     		b	.L79
 460              	.L68:
 461 008c 626D     		ldr	r2, [r4, #84]
 462 008e 42F40062 		orr	r2, r2, #2048
 463              	.L78:
 464 0092 6265     		str	r2, [r4, #84]
 465              	.L79:
 466 0094 1D60     		str	r5, [r3]
 467              	.L77:
 468 0096 0020     		movs	r0, #0
 469 0098 E8E7     		b	.L64
 470              	.L69:
 471 009a 626D     		ldr	r2, [r4, #84]
ARM GAS  C:\Users\CL\AppData\Local\Temp\ccyBuYSY.s 			page 9


 472 009c 42F48032 		orr	r2, r2, #65536
 473 00a0 F7E7     		b	.L78
 474              	.L66:
 475 00a2 626D     		ldr	r2, [r4, #84]
 476 00a4 42F40032 		orr	r2, r2, #131072
 477 00a8 F3E7     		b	.L78
 478              	.L71:
 479 00aa 626D     		ldr	r2, [r4, #84]
 480 00ac 42F48022 		orr	r2, r2, #262144
 481 00b0 EFE7     		b	.L78
 482              	.L73:
 483 00b2 1022     		movs	r2, #16
 484 00b4 1A60     		str	r2, [r3]
 485 00b6 EEE7     		b	.L77
 487              		.section	.text.HAL_ADC_GetValue,"ax",%progbits
 488              		.align	1
 489              		.global	HAL_ADC_GetValue
 490              		.syntax unified
 491              		.thumb
 492              		.thumb_func
 494              	HAL_ADC_GetValue:
 495              		@ args = 0, pretend = 0, frame = 0
 496              		@ frame_needed = 0, uses_anonymous_args = 0
 497              		@ link register save eliminated.
 498 0000 0368     		ldr	r3, [r0]
 499 0002 186C     		ldr	r0, [r3, #64]
 500 0004 7047     		bx	lr
 502              		.section	.text.HAL_ADC_ConvCpltCallback,"ax",%progbits
 503              		.align	1
 504              		.weak	HAL_ADC_ConvCpltCallback
 505              		.syntax unified
 506              		.thumb
 507              		.thumb_func
 509              	HAL_ADC_ConvCpltCallback:
 510              		@ args = 0, pretend = 0, frame = 0
 511              		@ frame_needed = 0, uses_anonymous_args = 0
 512              		@ link register save eliminated.
 513 0000 7047     		bx	lr
 515              		.section	.text.HAL_ADC_ConvHalfCpltCallback,"ax",%progbits
 516              		.align	1
 517              		.weak	HAL_ADC_ConvHalfCpltCallback
 518              		.syntax unified
 519              		.thumb
 520              		.thumb_func
 522              	HAL_ADC_ConvHalfCpltCallback:
 523              		@ args = 0, pretend = 0, frame = 0
 524              		@ frame_needed = 0, uses_anonymous_args = 0
 525              		@ link register save eliminated.
 526 0000 7047     		bx	lr
 528              		.section	.text.ADC_DMAHalfConvCplt,"ax",%progbits
 529              		.align	1
 530              		.global	ADC_DMAHalfConvCplt
 531              		.syntax unified
 532              		.thumb
 533              		.thumb_func
 535              	ADC_DMAHalfConvCplt:
 536              		@ args = 0, pretend = 0, frame = 0
ARM GAS  C:\Users\CL\AppData\Local\Temp\ccyBuYSY.s 			page 10


 537              		@ frame_needed = 0, uses_anonymous_args = 0
 538 0000 08B5     		push	{r3, lr}
 539 0002 806A     		ldr	r0, [r0, #40]
 540 0004 FFF7FEFF 		bl	HAL_ADC_ConvHalfCpltCallback
 541 0008 08BD     		pop	{r3, pc}
 543              		.section	.text.HAL_ADC_LevelOutOfWindowCallback,"ax",%progbits
 544              		.align	1
 545              		.weak	HAL_ADC_LevelOutOfWindowCallback
 546              		.syntax unified
 547              		.thumb
 548              		.thumb_func
 550              	HAL_ADC_LevelOutOfWindowCallback:
 551              		@ args = 0, pretend = 0, frame = 0
 552              		@ frame_needed = 0, uses_anonymous_args = 0
 553              		@ link register save eliminated.
 554 0000 7047     		bx	lr
 556              		.section	.text.HAL_ADC_ErrorCallback,"ax",%progbits
 557              		.align	1
 558              		.weak	HAL_ADC_ErrorCallback
 559              		.syntax unified
 560              		.thumb
 561              		.thumb_func
 563              	HAL_ADC_ErrorCallback:
 564              		@ args = 0, pretend = 0, frame = 0
 565              		@ frame_needed = 0, uses_anonymous_args = 0
 566              		@ link register save eliminated.
 567 0000 7047     		bx	lr
 569              		.section	.text.HAL_ADC_IRQHandler,"ax",%progbits
 570              		.align	1
 571              		.global	HAL_ADC_IRQHandler
 572              		.syntax unified
 573              		.thumb
 574              		.thumb_func
 576              	HAL_ADC_IRQHandler:
 577              		@ args = 0, pretend = 0, frame = 0
 578              		@ frame_needed = 0, uses_anonymous_args = 0
 579 0000 0368     		ldr	r3, [r0]
 580 0002 70B5     		push	{r4, r5, r6, lr}
 581 0004 1E68     		ldr	r6, [r3]
 582 0006 5D68     		ldr	r5, [r3, #4]
 583 0008 B307     		lsls	r3, r6, #30
 584 000a 0446     		mov	r4, r0
 585 000c 0ED5     		bpl	.L87
 586 000e A807     		lsls	r0, r5, #30
 587 0010 0CD5     		bpl	.L87
 588 0012 636D     		ldr	r3, [r4, #84]
 589 0014 D906     		lsls	r1, r3, #27
 590 0016 5EBF     		ittt	pl
 591 0018 636D     		ldrpl	r3, [r4, #84]
 592 001a 43F40063 		orrpl	r3, r3, #2048
 593 001e 6365     		strpl	r3, [r4, #84]
 594 0020 2046     		mov	r0, r4
 595 0022 FFF7FEFF 		bl	HAL_ADCEx_EndOfSamplingCallback
 596 0026 2368     		ldr	r3, [r4]
 597 0028 0222     		movs	r2, #2
 598 002a 1A60     		str	r2, [r3]
 599              	.L87:
ARM GAS  C:\Users\CL\AppData\Local\Temp\ccyBuYSY.s 			page 11


 600 002c 7207     		lsls	r2, r6, #29
 601 002e 01D5     		bpl	.L89
 602 0030 6B07     		lsls	r3, r5, #29
 603 0032 03D4     		bmi	.L90
 604              	.L89:
 605 0034 3007     		lsls	r0, r6, #28
 606 0036 2ED5     		bpl	.L91
 607 0038 2907     		lsls	r1, r5, #28
 608 003a 2CD5     		bpl	.L91
 609              	.L90:
 610 003c 636D     		ldr	r3, [r4, #84]
 611 003e 2068     		ldr	r0, [r4]
 612 0040 DA06     		lsls	r2, r3, #27
 613 0042 5EBF     		ittt	pl
 614 0044 636D     		ldrpl	r3, [r4, #84]
 615 0046 43F40073 		orrpl	r3, r3, #512
 616 004a 6365     		strpl	r3, [r4, #84]
 617 004c C368     		ldr	r3, [r0, #12]
 618 004e 13F4406F 		tst	r3, #3072
 619 0052 1AD1     		bne	.L94
 620 0054 C368     		ldr	r3, [r0, #12]
 621 0056 9B04     		lsls	r3, r3, #18
 622 0058 17D4     		bmi	.L94
 623 005a 0368     		ldr	r3, [r0]
 624 005c 1907     		lsls	r1, r3, #28
 625 005e 14D5     		bpl	.L94
 626 0060 FFF7FEFF 		bl	LL_ADC_REG_IsConversionOngoing
 627 0064 0028     		cmp	r0, #0
 628 0066 40F0A680 		bne	.L96
 629 006a 2268     		ldr	r2, [r4]
 630 006c 5368     		ldr	r3, [r2, #4]
 631 006e 23F00C03 		bic	r3, r3, #12
 632 0072 5360     		str	r3, [r2, #4]
 633 0074 636D     		ldr	r3, [r4, #84]
 634 0076 23F48073 		bic	r3, r3, #256
 635 007a 6365     		str	r3, [r4, #84]
 636 007c 636D     		ldr	r3, [r4, #84]
 637 007e DA04     		lsls	r2, r3, #19
 638 0080 03D4     		bmi	.L94
 639 0082 636D     		ldr	r3, [r4, #84]
 640 0084 43F00103 		orr	r3, r3, #1
 641 0088 6365     		str	r3, [r4, #84]
 642              	.L94:
 643 008a 2046     		mov	r0, r4
 644 008c FFF7FEFF 		bl	HAL_ADC_ConvCpltCallback
 645 0090 2368     		ldr	r3, [r4]
 646 0092 0C22     		movs	r2, #12
 647 0094 1A60     		str	r2, [r3]
 648              	.L91:
 649 0096 B306     		lsls	r3, r6, #26
 650 0098 01D5     		bpl	.L97
 651 009a A806     		lsls	r0, r5, #26
 652 009c 03D4     		bmi	.L98
 653              	.L97:
 654 009e 7106     		lsls	r1, r6, #25
 655 00a0 30D5     		bpl	.L99
 656 00a2 6A06     		lsls	r2, r5, #25
ARM GAS  C:\Users\CL\AppData\Local\Temp\ccyBuYSY.s 			page 12


 657 00a4 2ED5     		bpl	.L99
 658              	.L98:
 659 00a6 636D     		ldr	r3, [r4, #84]
 660 00a8 DB06     		lsls	r3, r3, #27
 661 00aa 5EBF     		ittt	pl
 662 00ac 636D     		ldrpl	r3, [r4, #84]
 663 00ae 43F40053 		orrpl	r3, r3, #8192
 664 00b2 6365     		strpl	r3, [r4, #84]
 665 00b4 2368     		ldr	r3, [r4]
 666 00b6 D86C     		ldr	r0, [r3, #76]
 667 00b8 D968     		ldr	r1, [r3, #12]
 668 00ba DA68     		ldr	r2, [r3, #12]
 669 00bc 10F0C00F 		tst	r0, #192
 670 00c0 1AD1     		bne	.L102
 671 00c2 9001     		lsls	r0, r2, #6
 672 00c4 05D5     		bpl	.L103
 673 00c6 02F40050 		and	r0, r2, #8192
 674 00ca 01F44061 		and	r1, r1, #3072
 675 00ce 0143     		orrs	r1, r0, r1
 676 00d0 12D1     		bne	.L102
 677              	.L103:
 678 00d2 1968     		ldr	r1, [r3]
 679 00d4 4806     		lsls	r0, r1, #25
 680 00d6 0FD5     		bpl	.L102
 681 00d8 9102     		lsls	r1, r2, #10
 682 00da 0DD4     		bmi	.L102
 683 00dc 9A68     		ldr	r2, [r3, #8]
 684 00de 1207     		lsls	r2, r2, #28
 685 00e0 72D4     		bmi	.L105
 686 00e2 5A68     		ldr	r2, [r3, #4]
 687 00e4 22F06002 		bic	r2, r2, #96
 688 00e8 5A60     		str	r2, [r3, #4]
 689 00ea 636D     		ldr	r3, [r4, #84]
 690 00ec 23F48053 		bic	r3, r3, #4096
 691 00f0 6365     		str	r3, [r4, #84]
 692 00f2 636D     		ldr	r3, [r4, #84]
 693 00f4 D805     		lsls	r0, r3, #23
 694 00f6 70D5     		bpl	.L106
 695              	.L102:
 696 00f8 2046     		mov	r0, r4
 697 00fa FFF7FEFF 		bl	HAL_ADCEx_InjectedConvCpltCallback
 698 00fe 2368     		ldr	r3, [r4]
 699 0100 6022     		movs	r2, #96
 700 0102 1A60     		str	r2, [r3]
 701              	.L99:
 702 0104 3106     		lsls	r1, r6, #24
 703 0106 0BD5     		bpl	.L107
 704 0108 2A06     		lsls	r2, r5, #24
 705 010a 09D5     		bpl	.L107
 706 010c 636D     		ldr	r3, [r4, #84]
 707 010e 43F48033 		orr	r3, r3, #65536
 708 0112 6365     		str	r3, [r4, #84]
 709 0114 2046     		mov	r0, r4
 710 0116 FFF7FEFF 		bl	HAL_ADC_LevelOutOfWindowCallback
 711 011a 2368     		ldr	r3, [r4]
 712 011c 8022     		movs	r2, #128
 713 011e 1A60     		str	r2, [r3]
ARM GAS  C:\Users\CL\AppData\Local\Temp\ccyBuYSY.s 			page 13


 714              	.L107:
 715 0120 F305     		lsls	r3, r6, #23
 716 0122 0CD5     		bpl	.L108
 717 0124 E805     		lsls	r0, r5, #23
 718 0126 0AD5     		bpl	.L108
 719 0128 636D     		ldr	r3, [r4, #84]
 720 012a 43F40033 		orr	r3, r3, #131072
 721 012e 6365     		str	r3, [r4, #84]
 722 0130 2046     		mov	r0, r4
 723 0132 FFF7FEFF 		bl	HAL_ADCEx_LevelOutOfWindow2Callback
 724 0136 2368     		ldr	r3, [r4]
 725 0138 4FF48072 		mov	r2, #256
 726 013c 1A60     		str	r2, [r3]
 727              	.L108:
 728 013e B105     		lsls	r1, r6, #22
 729 0140 0CD5     		bpl	.L109
 730 0142 AA05     		lsls	r2, r5, #22
 731 0144 0AD5     		bpl	.L109
 732 0146 636D     		ldr	r3, [r4, #84]
 733 0148 43F48023 		orr	r3, r3, #262144
 734 014c 6365     		str	r3, [r4, #84]
 735 014e 2046     		mov	r0, r4
 736 0150 FFF7FEFF 		bl	HAL_ADCEx_LevelOutOfWindow3Callback
 737 0154 2368     		ldr	r3, [r4]
 738 0156 4FF40072 		mov	r2, #512
 739 015a 1A60     		str	r2, [r3]
 740              	.L109:
 741 015c F306     		lsls	r3, r6, #27
 742 015e 15D5     		bpl	.L110
 743 0160 E806     		lsls	r0, r5, #27
 744 0162 13D5     		bpl	.L110
 745 0164 636B     		ldr	r3, [r4, #52]
 746 0166 1BB1     		cbz	r3, .L111
 747 0168 2368     		ldr	r3, [r4]
 748 016a DB68     		ldr	r3, [r3, #12]
 749 016c D907     		lsls	r1, r3, #31
 750 016e 0AD5     		bpl	.L112
 751              	.L111:
 752 0170 636D     		ldr	r3, [r4, #84]
 753 0172 43F48063 		orr	r3, r3, #1024
 754 0176 6365     		str	r3, [r4, #84]
 755 0178 A36D     		ldr	r3, [r4, #88]
 756 017a 43F00203 		orr	r3, r3, #2
 757 017e A365     		str	r3, [r4, #88]
 758 0180 2046     		mov	r0, r4
 759 0182 FFF7FEFF 		bl	HAL_ADC_ErrorCallback
 760              	.L112:
 761 0186 2368     		ldr	r3, [r4]
 762 0188 1022     		movs	r2, #16
 763 018a 1A60     		str	r2, [r3]
 764              	.L110:
 765 018c 7205     		lsls	r2, r6, #21
 766 018e 29D5     		bpl	.L86
 767 0190 6B05     		lsls	r3, r5, #21
 768 0192 27D5     		bpl	.L86
 769 0194 636D     		ldr	r3, [r4, #84]
 770 0196 43F48043 		orr	r3, r3, #16384
ARM GAS  C:\Users\CL\AppData\Local\Temp\ccyBuYSY.s 			page 14


 771 019a 6365     		str	r3, [r4, #84]
 772 019c A36D     		ldr	r3, [r4, #88]
 773 019e 43F00803 		orr	r3, r3, #8
 774 01a2 A365     		str	r3, [r4, #88]
 775 01a4 2368     		ldr	r3, [r4]
 776 01a6 4FF48062 		mov	r2, #1024
 777 01aa 2046     		mov	r0, r4
 778 01ac 1A60     		str	r2, [r3]
 779 01ae BDE87040 		pop	{r4, r5, r6, lr}
 780 01b2 FFF7FEBF 		b	HAL_ADCEx_InjectedQueueOverflowCallback
 781              	.L96:
 782 01b6 636D     		ldr	r3, [r4, #84]
 783 01b8 43F01003 		orr	r3, r3, #16
 784 01bc 6365     		str	r3, [r4, #84]
 785 01be A36D     		ldr	r3, [r4, #88]
 786 01c0 43F00103 		orr	r3, r3, #1
 787 01c4 A365     		str	r3, [r4, #88]
 788 01c6 60E7     		b	.L94
 789              	.L105:
 790 01c8 636D     		ldr	r3, [r4, #84]
 791 01ca 43F01003 		orr	r3, r3, #16
 792 01ce 6365     		str	r3, [r4, #84]
 793 01d0 A36D     		ldr	r3, [r4, #88]
 794 01d2 43F00103 		orr	r3, r3, #1
 795 01d6 A365     		str	r3, [r4, #88]
 796 01d8 8EE7     		b	.L102
 797              	.L106:
 798 01da 636D     		ldr	r3, [r4, #84]
 799 01dc 43F00103 		orr	r3, r3, #1
 800 01e0 6365     		str	r3, [r4, #84]
 801 01e2 89E7     		b	.L102
 802              	.L86:
 803 01e4 70BD     		pop	{r4, r5, r6, pc}
 805              		.section	.text.ADC_DMAConvCplt,"ax",%progbits
 806              		.align	1
 807              		.global	ADC_DMAConvCplt
 808              		.syntax unified
 809              		.thumb
 810              		.thumb_func
 812              	ADC_DMAConvCplt:
 813              		@ args = 0, pretend = 0, frame = 0
 814              		@ frame_needed = 0, uses_anonymous_args = 0
 815 0000 836A     		ldr	r3, [r0, #40]
 816 0002 5A6D     		ldr	r2, [r3, #84]
 817 0004 12F0500F 		tst	r2, #80
 818 0008 10B5     		push	{r4, lr}
 819 000a 5A6D     		ldr	r2, [r3, #84]
 820 000c 21D1     		bne	.L184
 821 000e 42F40072 		orr	r2, r2, #512
 822 0012 5A65     		str	r2, [r3, #84]
 823 0014 1A68     		ldr	r2, [r3]
 824 0016 1168     		ldr	r1, [r2]
 825 0018 0807     		lsls	r0, r1, #28
 826 001a 16D5     		bpl	.L185
 827 001c D168     		ldr	r1, [r2, #12]
 828 001e 11F4406F 		tst	r1, #3072
 829 0022 0ED1     		bne	.L187
ARM GAS  C:\Users\CL\AppData\Local\Temp\ccyBuYSY.s 			page 15


 830 0024 D268     		ldr	r2, [r2, #12]
 831 0026 12F4005F 		tst	r2, #8192
 832              	.L195:
 833 002a 0AD1     		bne	.L187
 834 002c 5A6D     		ldr	r2, [r3, #84]
 835 002e 22F48072 		bic	r2, r2, #256
 836 0032 5A65     		str	r2, [r3, #84]
 837 0034 5A6D     		ldr	r2, [r3, #84]
 838 0036 D104     		lsls	r1, r2, #19
 839 0038 5EBF     		ittt	pl
 840 003a 5A6D     		ldrpl	r2, [r3, #84]
 841 003c 42F00102 		orrpl	r2, r2, #1
 842 0040 5A65     		strpl	r2, [r3, #84]
 843              	.L187:
 844 0042 1846     		mov	r0, r3
 845 0044 FFF7FEFF 		bl	HAL_ADC_ConvCpltCallback
 846              	.L183:
 847 0048 10BD     		pop	{r4, pc}
 848              	.L185:
 849 004a D268     		ldr	r2, [r2, #12]
 850 004c 12F0020F 		tst	r2, #2
 851 0050 EBE7     		b	.L195
 852              	.L184:
 853 0052 D206     		lsls	r2, r2, #27
 854 0054 03D5     		bpl	.L190
 855 0056 1846     		mov	r0, r3
 856 0058 FFF7FEFF 		bl	HAL_ADC_ErrorCallback
 857 005c F4E7     		b	.L183
 858              	.L190:
 859 005e DB6C     		ldr	r3, [r3, #76]
 860 0060 BDE81040 		pop	{r4, lr}
 861 0064 5B6B     		ldr	r3, [r3, #52]
 862 0066 1847     		bx	r3	@ indirect register sibling call
 864              		.section	.text.ADC_DMAError,"ax",%progbits
 865              		.align	1
 866              		.global	ADC_DMAError
 867              		.syntax unified
 868              		.thumb
 869              		.thumb_func
 871              	ADC_DMAError:
 872              		@ args = 0, pretend = 0, frame = 0
 873              		@ frame_needed = 0, uses_anonymous_args = 0
 874 0000 806A     		ldr	r0, [r0, #40]
 875 0002 08B5     		push	{r3, lr}
 876 0004 436D     		ldr	r3, [r0, #84]
 877 0006 43F04003 		orr	r3, r3, #64
 878 000a 4365     		str	r3, [r0, #84]
 879 000c 836D     		ldr	r3, [r0, #88]
 880 000e 43F00403 		orr	r3, r3, #4
 881 0012 8365     		str	r3, [r0, #88]
 882 0014 FFF7FEFF 		bl	HAL_ADC_ErrorCallback
 883 0018 08BD     		pop	{r3, pc}
 885              		.section	.text.HAL_ADC_ConfigChannel,"ax",%progbits
 886              		.align	1
 887              		.global	HAL_ADC_ConfigChannel
 888              		.syntax unified
 889              		.thumb
ARM GAS  C:\Users\CL\AppData\Local\Temp\ccyBuYSY.s 			page 16


 890              		.thumb_func
 892              	HAL_ADC_ConfigChannel:
 893              		@ args = 0, pretend = 0, frame = 8
 894              		@ frame_needed = 0, uses_anonymous_args = 0
 895 0000 F7B5     		push	{r0, r1, r2, r4, r5, r6, r7, lr}
 896 0002 0023     		movs	r3, #0
 897 0004 0193     		str	r3, [sp, #4]
 898 0006 90F85030 		ldrb	r3, [r0, #80]	@ zero_extendqisi2
 899 000a 012B     		cmp	r3, #1
 900 000c 0546     		mov	r5, r0
 901 000e 0C46     		mov	r4, r1
 902 0010 00F09581 		beq	.L252
 903 0014 0123     		movs	r3, #1
 904 0016 80F85030 		strb	r3, [r0, #80]
 905 001a 0068     		ldr	r0, [r0]
 906 001c FFF7FEFF 		bl	LL_ADC_REG_IsConversionOngoing
 907 0020 0028     		cmp	r0, #0
 908 0022 40F08681 		bne	.L199
 909 0026 4B68     		ldr	r3, [r1, #4]
 910 0028 052B     		cmp	r3, #5
 911 002a 09D8     		bhi	.L200
 912 002c 023B     		subs	r3, r3, #2
 913 002e 032B     		cmp	r3, #3
 914 0030 00F28C80 		bhi	.L201
 915 0034 DFE803F0 		tbb	[pc, r3]
 916              	.L203:
 917 0038 02       		.byte	(.L206-.L203)/2
 918 0039 83       		.byte	(.L205-.L203)/2
 919 003a 85       		.byte	(.L204-.L203)/2
 920 003b 87       		.byte	(.L202-.L203)/2
 921              		.p2align 1
 922              	.L206:
 923 003c 0C23     		movs	r3, #12
 924              	.L266:
 925 003e 6360     		str	r3, [r4, #4]
 926              	.L200:
 927 0040 6268     		ldr	r2, [r4, #4]
 928 0042 2868     		ldr	r0, [r5]
 929 0044 2368     		ldr	r3, [r4]
 930 0046 9109     		lsrs	r1, r2, #6
 931 0048 00F13007 		add	r7, r0, #48
 932 004c 01F00C01 		and	r1, r1, #12
 933 0050 02F01F02 		and	r2, r2, #31
 934 0054 CE59     		ldr	r6, [r1, r7]
 935 0056 4FF01F0C 		mov	ip, #31
 936 005a C3F38463 		ubfx	r3, r3, #26, #5
 937 005e 9340     		lsls	r3, r3, r2
 938 0060 0CFA02F2 		lsl	r2, ip, r2
 939 0064 26EA0202 		bic	r2, r6, r2
 940 0068 1343     		orrs	r3, r3, r2
 941 006a CB51     		str	r3, [r1, r7]
 942 006c FFF7FEFF 		bl	LL_ADC_REG_IsConversionOngoing
 943 0070 2E68     		ldr	r6, [r5]
 944 0072 B368     		ldr	r3, [r6, #8]
 945 0074 03F00803 		and	r3, r3, #8
 946 0078 0343     		orrs	r3, r3, r0
 947 007a 1DD1     		bne	.L208
ARM GAS  C:\Users\CL\AppData\Local\Temp\ccyBuYSY.s 			page 17


 948 007c 3046     		mov	r0, r6
 949 007e A268     		ldr	r2, [r4, #8]
 950 0080 2168     		ldr	r1, [r4]
 951 0082 FFF7FEFF 		bl	LL_ADC_SetChannelSamplingTime
 952 0086 2669     		ldr	r6, [r4, #16]
 953 0088 2968     		ldr	r1, [r5]
 954 008a 2368     		ldr	r3, [r4]
 955 008c C868     		ldr	r0, [r1, #12]
 956 008e 042E     		cmp	r6, #4
 957 0090 01F16002 		add	r2, r1, #96
 958 0094 5CD0     		beq	.L209
 959 0096 C0F3C101 		ubfx	r1, r0, #3, #2
 960 009a 4800     		lsls	r0, r1, #1
 961 009c 6169     		ldr	r1, [r4, #20]
 962 009e 52F82670 		ldr	r7, [r2, r6, lsl #2]
 963 00a2 8140     		lsls	r1, r1, r0
 964 00a4 A748     		ldr	r0, .L271
 965 00a6 03F0F843 		and	r3, r3, #2080374784
 966 00aa 3840     		ands	r0, r0, r7
 967 00ac 0343     		orrs	r3, r3, r0
 968 00ae 1943     		orrs	r1, r1, r3
 969 00b0 41F00041 		orr	r1, r1, #-2147483648
 970 00b4 42F82610 		str	r1, [r2, r6, lsl #2]
 971              	.L208:
 972 00b8 2868     		ldr	r0, [r5]
 973 00ba 8368     		ldr	r3, [r0, #8]
 974 00bc D907     		lsls	r1, r3, #31
 975 00be 33D4     		bmi	.L227
 976 00c0 E768     		ldr	r7, [r4, #12]
 977 00c2 2368     		ldr	r3, [r4]
 978 00c4 A04A     		ldr	r2, .L271+4
 979 00c6 D0F8B010 		ldr	r1, [r0, #176]
 980 00ca 07F0180C 		and	ip, r7, #24
 981 00ce C3F31206 		ubfx	r6, r3, #0, #19
 982 00d2 22FA0CF2 		lsr	r2, r2, ip
 983 00d6 1A40     		ands	r2, r2, r3
 984 00d8 21EA0601 		bic	r1, r1, r6
 985 00dc 0A43     		orrs	r2, r2, r1
 986 00de C0F8B020 		str	r2, [r0, #176]
 987 00e2 9A4A     		ldr	r2, .L271+8
 988 00e4 9742     		cmp	r7, r2
 989 00e6 1FD1     		bne	.L227
 990 00e8 002E     		cmp	r6, #0
 991 00ea 40F08680 		bne	.L229
 992 00ee 9A0E     		lsrs	r2, r3, #26
 993 00f0 0132     		adds	r2, r2, #1
 994 00f2 02F01F07 		and	r7, r2, #31
 995 00f6 0121     		movs	r1, #1
 996 00f8 9206     		lsls	r2, r2, #26
 997 00fa 092F     		cmp	r7, #9
 998 00fc 02F0F842 		and	r2, r2, #2080374784
 999 0100 01FA07F1 		lsl	r1, r1, r7
 1000 0104 00F2AB80 		bhi	.L231
 1001              	.L230:
 1002 0108 0A43     		orrs	r2, r2, r1
 1003 010a 002E     		cmp	r6, #0
 1004 010c 40F09180 		bne	.L236
ARM GAS  C:\Users\CL\AppData\Local\Temp\ccyBuYSY.s 			page 18


 1005 0110 9B0E     		lsrs	r3, r3, #26
 1006              	.L267:
 1007 0112 0133     		adds	r3, r3, #1
 1008 0114 03F01F03 		and	r3, r3, #31
 1009 0118 03EB4303 		add	r3, r3, r3, lsl #1
 1010 011c 1B05     		lsls	r3, r3, #20
 1011 011e 42EA0301 		orr	r1, r2, r3
 1012              	.L239:
 1013 0122 A268     		ldr	r2, [r4, #8]
 1014 0124 FFF7FEFF 		bl	LL_ADC_SetChannelSamplingTime
 1015              	.L227:
 1016 0128 2168     		ldr	r1, [r4]
 1017 012a 894B     		ldr	r3, .L271+12
 1018 012c 1942     		tst	r1, r3
 1019 012e 40F0B180 		bne	.L245
 1020              	.L248:
 1021 0132 0020     		movs	r0, #0
 1022              	.L246:
 1023 0134 0023     		movs	r3, #0
 1024 0136 85F85030 		strb	r3, [r5, #80]
 1025              	.L198:
 1026 013a 03B0     		add	sp, sp, #12
 1027              		@ sp needed
 1028 013c F0BD     		pop	{r4, r5, r6, r7, pc}
 1029              	.L205:
 1030 013e 1223     		movs	r3, #18
 1031 0140 7DE7     		b	.L266
 1032              	.L204:
 1033 0142 1823     		movs	r3, #24
 1034 0144 7BE7     		b	.L266
 1035              	.L202:
 1036 0146 4FF48073 		mov	r3, #256
 1037 014a 78E7     		b	.L266
 1038              	.L201:
 1039 014c 0623     		movs	r3, #6
 1040 014e 76E7     		b	.L266
 1041              	.L209:
 1042 0150 086E     		ldr	r0, [r1, #96]
 1043 0152 086E     		ldr	r0, [r1, #96]
 1044 0154 C3F31206 		ubfx	r6, r3, #0, #19
 1045 0158 C0F38460 		ubfx	r0, r0, #26, #5
 1046 015c 002E     		cmp	r6, #0
 1047 015e 38D1     		bne	.L210
 1048 0160 C3F38463 		ubfx	r3, r3, #26, #5
 1049              	.L211:
 1050 0164 9842     		cmp	r0, r3
 1051 0166 02BF     		ittt	eq
 1052 0168 0B6E     		ldreq	r3, [r1, #96]
 1053 016a 23F00043 		biceq	r3, r3, #-2147483648
 1054 016e 0B66     		streq	r3, [r1, #96]
 1055 0170 4B6E     		ldr	r3, [r1, #100]
 1056 0172 2368     		ldr	r3, [r4]
 1057 0174 486E     		ldr	r0, [r1, #100]
 1058 0176 C3F31206 		ubfx	r6, r3, #0, #19
 1059 017a C0F38460 		ubfx	r0, r0, #26, #5
 1060 017e 6EBB     		cbnz	r6, .L214
 1061 0180 C3F38463 		ubfx	r3, r3, #26, #5
ARM GAS  C:\Users\CL\AppData\Local\Temp\ccyBuYSY.s 			page 19


 1062              	.L215:
 1063 0184 9842     		cmp	r0, r3
 1064 0186 02BF     		ittt	eq
 1065 0188 4B6E     		ldreq	r3, [r1, #100]
 1066 018a 23F00043 		biceq	r3, r3, #-2147483648
 1067 018e 4B66     		streq	r3, [r1, #100]
 1068 0190 9368     		ldr	r3, [r2, #8]
 1069 0192 2368     		ldr	r3, [r4]
 1070 0194 9168     		ldr	r1, [r2, #8]
 1071 0196 C3F31200 		ubfx	r0, r3, #0, #19
 1072 019a C1F38461 		ubfx	r1, r1, #26, #5
 1073 019e 10BB     		cbnz	r0, .L218
 1074 01a0 C3F38463 		ubfx	r3, r3, #26, #5
 1075              	.L219:
 1076 01a4 9942     		cmp	r1, r3
 1077 01a6 02BF     		ittt	eq
 1078 01a8 9368     		ldreq	r3, [r2, #8]
 1079 01aa 23F00043 		biceq	r3, r3, #-2147483648
 1080 01ae 9360     		streq	r3, [r2, #8]
 1081 01b0 D368     		ldr	r3, [r2, #12]
 1082 01b2 2368     		ldr	r3, [r4]
 1083 01b4 D168     		ldr	r1, [r2, #12]
 1084 01b6 C3F31200 		ubfx	r0, r3, #0, #19
 1085 01ba C1F38461 		ubfx	r1, r1, #26, #5
 1086 01be B8B9     		cbnz	r0, .L222
 1087 01c0 C3F38463 		ubfx	r3, r3, #26, #5
 1088              	.L223:
 1089 01c4 9942     		cmp	r1, r3
 1090 01c6 02BF     		ittt	eq
 1091 01c8 D368     		ldreq	r3, [r2, #12]
 1092 01ca 23F00043 		biceq	r3, r3, #-2147483648
 1093 01ce D360     		streq	r3, [r2, #12]
 1094 01d0 72E7     		b	.L208
 1095              	.L210:
 1096              		.syntax unified
 1097              	@ 1055 "Drivers/CMSIS/Include/cmsis_gcc.h" 1
 1098 01d2 93FAA3F3 		rbit r3, r3
 1099              	@ 0 "" 2
 1100              		.thumb
 1101              		.syntax unified
 1102 01d6 B3FA83F3 		clz	r3, r3
 1103 01da C3E7     		b	.L211
 1104              	.L214:
 1105              		.syntax unified
 1106              	@ 1055 "Drivers/CMSIS/Include/cmsis_gcc.h" 1
 1107 01dc 93FAA3F3 		rbit r3, r3
 1108              	@ 0 "" 2
 1109              		.thumb
 1110              		.syntax unified
 1111 01e0 B3FA83F3 		clz	r3, r3
 1112 01e4 CEE7     		b	.L215
 1113              	.L218:
 1114              		.syntax unified
 1115              	@ 1055 "Drivers/CMSIS/Include/cmsis_gcc.h" 1
 1116 01e6 93FAA3F3 		rbit r3, r3
 1117              	@ 0 "" 2
 1118              		.thumb
ARM GAS  C:\Users\CL\AppData\Local\Temp\ccyBuYSY.s 			page 20


 1119              		.syntax unified
 1120 01ea B3FA83F3 		clz	r3, r3
 1121 01ee D9E7     		b	.L219
 1122              	.L222:
 1123              		.syntax unified
 1124              	@ 1055 "Drivers/CMSIS/Include/cmsis_gcc.h" 1
 1125 01f0 93FAA3F3 		rbit r3, r3
 1126              	@ 0 "" 2
 1127              		.thumb
 1128              		.syntax unified
 1129 01f4 B3FA83F3 		clz	r3, r3
 1130 01f8 E4E7     		b	.L223
 1131              	.L229:
 1132              		.syntax unified
 1133              	@ 1055 "Drivers/CMSIS/Include/cmsis_gcc.h" 1
 1134 01fa 93FAA3F2 		rbit r2, r3
 1135              	@ 0 "" 2
 1136              		.thumb
 1137              		.syntax unified
 1138 01fe 32B1     		cbz	r2, .L232
 1139 0200 B2FA82F2 		clz	r2, r2
 1140 0204 0132     		adds	r2, r2, #1
 1141 0206 02F01F02 		and	r2, r2, #31
 1142 020a 092A     		cmp	r2, #9
 1143 020c 16D8     		bhi	.L233
 1144              	.L232:
 1145              		.syntax unified
 1146              	@ 1055 "Drivers/CMSIS/Include/cmsis_gcc.h" 1
 1147 020e 93FAA3F2 		rbit r2, r3
 1148              	@ 0 "" 2
 1149              		.thumb
 1150              		.syntax unified
 1151 0212 B2FA82F2 		clz	r2, r2
 1152 0216 0132     		adds	r2, r2, #1
 1153 0218 9206     		lsls	r2, r2, #26
 1154 021a 02F0F842 		and	r2, r2, #2080374784
 1155              		.syntax unified
 1156              	@ 1055 "Drivers/CMSIS/Include/cmsis_gcc.h" 1
 1157 021e 93FAA3F1 		rbit r1, r3
 1158              	@ 0 "" 2
 1159              		.thumb
 1160              		.syntax unified
 1161 0222 B1FA81F1 		clz	r1, r1
 1162 0226 0131     		adds	r1, r1, #1
 1163 0228 01F01F07 		and	r7, r1, #31
 1164 022c 0121     		movs	r1, #1
 1165 022e B940     		lsls	r1, r1, r7
 1166 0230 6AE7     		b	.L230
 1167              	.L236:
 1168              		.syntax unified
 1169              	@ 1055 "Drivers/CMSIS/Include/cmsis_gcc.h" 1
 1170 0232 93FAA3F3 		rbit r3, r3
 1171              	@ 0 "" 2
 1172              		.thumb
 1173              		.syntax unified
 1174 0236 B3FA83F3 		clz	r3, r3
 1175 023a 6AE7     		b	.L267
ARM GAS  C:\Users\CL\AppData\Local\Temp\ccyBuYSY.s 			page 21


 1176              	.L233:
 1177              		.syntax unified
 1178              	@ 1055 "Drivers/CMSIS/Include/cmsis_gcc.h" 1
 1179 023c 93FAA3F2 		rbit r2, r3
 1180              	@ 0 "" 2
 1181              		.thumb
 1182              		.syntax unified
 1183 0240 B2FA82F2 		clz	r2, r2
 1184 0244 0132     		adds	r2, r2, #1
 1185 0246 9206     		lsls	r2, r2, #26
 1186 0248 02F0F842 		and	r2, r2, #2080374784
 1187              		.syntax unified
 1188              	@ 1055 "Drivers/CMSIS/Include/cmsis_gcc.h" 1
 1189 024c 93FAA3F1 		rbit r1, r3
 1190              	@ 0 "" 2
 1191              		.thumb
 1192              		.syntax unified
 1193 0250 B1FA81F1 		clz	r1, r1
 1194 0254 0131     		adds	r1, r1, #1
 1195 0256 01F01F07 		and	r7, r1, #31
 1196 025a 0121     		movs	r1, #1
 1197 025c B940     		lsls	r1, r1, r7
 1198              	.L231:
 1199 025e 0A43     		orrs	r2, r2, r1
 1200 0260 5EB9     		cbnz	r6, .L242
 1201 0262 9E0E     		lsrs	r6, r3, #26
 1202 0264 0136     		adds	r6, r6, #1
 1203 0266 06F01F06 		and	r6, r6, #31
 1204 026a 06EB4601 		add	r1, r6, r6, lsl #1
 1205 026e 1E39     		subs	r1, r1, #30
 1206              	.L268:
 1207 0270 0905     		lsls	r1, r1, #20
 1208 0272 41F00071 		orr	r1, r1, #33554432
 1209 0276 1143     		orrs	r1, r1, r2
 1210 0278 53E7     		b	.L239
 1211              	.L242:
 1212              		.syntax unified
 1213              	@ 1055 "Drivers/CMSIS/Include/cmsis_gcc.h" 1
 1214 027a 93FAA3F1 		rbit r1, r3
 1215              	@ 0 "" 2
 1216              		.thumb
 1217              		.syntax unified
 1218 027e B1FA81F1 		clz	r1, r1
 1219 0282 0131     		adds	r1, r1, #1
 1220 0284 01F01F03 		and	r3, r1, #31
 1221 0288 6FF01D06 		mvn	r6, #29
 1222 028c 0321     		movs	r1, #3
 1223 028e 11FB0361 		smlabb	r1, r1, r3, r6
 1224 0292 EDE7     		b	.L268
 1225              	.L245:
 1226 0294 2F4B     		ldr	r3, .L271+16
 1227 0296 304A     		ldr	r2, .L271+20
 1228 0298 9868     		ldr	r0, [r3, #8]
 1229 029a 9142     		cmp	r1, r2
 1230 029c 00F0E074 		and	r4, r0, #29360128
 1231 02a0 1ED1     		bne	.L247
 1232 02a2 0202     		lsls	r2, r0, #8
ARM GAS  C:\Users\CL\AppData\Local\Temp\ccyBuYSY.s 			page 22


 1233 02a4 3FF545AF 		bmi	.L248
 1234 02a8 2968     		ldr	r1, [r5]
 1235 02aa 2C4A     		ldr	r2, .L271+24
 1236 02ac 9142     		cmp	r1, r2
 1237 02ae 7FF440AF 		bne	.L248
 1238 02b2 9A68     		ldr	r2, [r3, #8]
 1239 02b4 22F0E072 		bic	r2, r2, #29360128
 1240 02b8 2243     		orrs	r2, r2, r4
 1241 02ba 42F40002 		orr	r2, r2, #8388608
 1242 02be 9A60     		str	r2, [r3, #8]
 1243 02c0 274B     		ldr	r3, .L271+28
 1244 02c2 284A     		ldr	r2, .L271+32
 1245 02c4 1B68     		ldr	r3, [r3]
 1246 02c6 B3FBF2F2 		udiv	r2, r3, r2
 1247 02ca 0C23     		movs	r3, #12
 1248 02cc 02FB0333 		mla	r3, r2, r3, r3
 1249              	.L269:
 1250 02d0 0193     		str	r3, [sp, #4]
 1251 02d2 019B     		ldr	r3, [sp, #4]
 1252 02d4 002B     		cmp	r3, #0
 1253 02d6 3FF42CAF 		beq	.L248
 1254 02da 019B     		ldr	r3, [sp, #4]
 1255 02dc 013B     		subs	r3, r3, #1
 1256 02de F7E7     		b	.L269
 1257              	.L247:
 1258 02e0 214A     		ldr	r2, .L271+36
 1259 02e2 9142     		cmp	r1, r2
 1260 02e4 11D1     		bne	.L251
 1261 02e6 10F08070 		ands	r0, r0, #16777216
 1262 02ea 7FF422AF 		bne	.L248
 1263 02ee 2968     		ldr	r1, [r5]
 1264 02f0 A2F1F742 		sub	r2, r2, #2071986176
 1265 02f4 9142     		cmp	r1, r2
 1266 02f6 7FF41CAF 		bne	.L248
 1267 02fa 9A68     		ldr	r2, [r3, #8]
 1268 02fc 22F0E072 		bic	r2, r2, #29360128
 1269 0300 2243     		orrs	r2, r2, r4
 1270 0302 42F08072 		orr	r2, r2, #16777216
 1271              	.L270:
 1272 0306 9A60     		str	r2, [r3, #8]
 1273 0308 14E7     		b	.L246
 1274              	.L251:
 1275 030a 184A     		ldr	r2, .L271+40
 1276 030c 9142     		cmp	r1, r2
 1277 030e 7FF410AF 		bne	.L248
 1278 0312 10F48000 		ands	r0, r0, #4194304
 1279 0316 7FF40CAF 		bne	.L248
 1280 031a 2968     		ldr	r1, [r5]
 1281 031c 0F4A     		ldr	r2, .L271+24
 1282 031e 9142     		cmp	r1, r2
 1283 0320 7FF407AF 		bne	.L248
 1284 0324 9A68     		ldr	r2, [r3, #8]
 1285 0326 22F0E072 		bic	r2, r2, #29360128
 1286 032a 2243     		orrs	r2, r2, r4
 1287 032c 42F48002 		orr	r2, r2, #4194304
 1288 0330 E9E7     		b	.L270
 1289              	.L199:
ARM GAS  C:\Users\CL\AppData\Local\Temp\ccyBuYSY.s 			page 23


 1290 0332 6A6D     		ldr	r2, [r5, #84]
 1291 0334 42F02002 		orr	r2, r2, #32
 1292 0338 6A65     		str	r2, [r5, #84]
 1293 033a 1846     		mov	r0, r3
 1294 033c FAE6     		b	.L246
 1295              	.L252:
 1296 033e 0220     		movs	r0, #2
 1297 0340 FBE6     		b	.L198
 1298              	.L272:
 1299 0342 00BF     		.align	2
 1300              	.L271:
 1301 0344 00F0FF03 		.word	67104768
 1302 0348 FFFF0700 		.word	524287
 1303 034c 00007F40 		.word	1082064896
 1304 0350 00000880 		.word	-2146959360
 1305 0354 00030450 		.word	1342440192
 1306 0358 000052C7 		.word	-950927360
 1307 035c 00000450 		.word	1342439424
 1308 0360 00000000 		.word	SystemCoreClock
 1309 0364 400D0300 		.word	200000
 1310 0368 000084CB 		.word	-880541696
 1311 036c 01000080 		.word	-2147483647
 1313              		.section	.text.HAL_ADC_AnalogWDGConfig,"ax",%progbits
 1314              		.align	1
 1315              		.global	HAL_ADC_AnalogWDGConfig
 1316              		.syntax unified
 1317              		.thumb
 1318              		.thumb_func
 1320              	HAL_ADC_AnalogWDGConfig:
 1321              		@ args = 0, pretend = 0, frame = 0
 1322              		@ frame_needed = 0, uses_anonymous_args = 0
 1323 0000 F8B5     		push	{r3, r4, r5, r6, r7, lr}
 1324 0002 90F85030 		ldrb	r3, [r0, #80]	@ zero_extendqisi2
 1325 0006 012B     		cmp	r3, #1
 1326 0008 0446     		mov	r4, r0
 1327 000a 0D46     		mov	r5, r1
 1328 000c 00F01681 		beq	.L307
 1329 0010 0123     		movs	r3, #1
 1330 0012 80F85030 		strb	r3, [r0, #80]
 1331 0016 0068     		ldr	r0, [r0]
 1332 0018 FFF7FEFF 		bl	LL_ADC_REG_IsConversionOngoing
 1333 001c 0146     		mov	r1, r0
 1334 001e 2068     		ldr	r0, [r4]
 1335 0020 8268     		ldr	r2, [r0, #8]
 1336 0022 02F00802 		and	r2, r2, #8
 1337 0026 0A43     		orrs	r2, r2, r1
 1338 0028 40F00281 		bne	.L275
 1339 002c D5E90013 		ldrd	r1, r3, [r5]
 1340 0030 834A     		ldr	r2, .L330
 1341 0032 9142     		cmp	r1, r2
 1342 0034 5FD1     		bne	.L276
 1343 0036 B3F1A07F 		cmp	r3, #20971520
 1344 003a 50D0     		beq	.L277
 1345 003c 0BD8     		bhi	.L278
 1346 003e B3F5400F 		cmp	r3, #12582912
 1347 0042 14D0     		beq	.L279
 1348 0044 B3F1807F 		cmp	r3, #16777216
ARM GAS  C:\Users\CL\AppData\Local\Temp\ccyBuYSY.s 			page 24


 1349 0048 51D0     		beq	.L280
 1350 004a B3F5000F 		cmp	r3, #8388608
 1351 004e 4CD0     		beq	.L281
 1352              	.L282:
 1353 0050 7B49     		ldr	r1, .L330
 1354 0052 0022     		movs	r2, #0
 1355 0054 10E0     		b	.L325
 1356              	.L278:
 1357 0056 B3F1C07F 		cmp	r3, #25165824
 1358 005a 4AD0     		beq	.L283
 1359 005c B3F1E07F 		cmp	r3, #29360128
 1360 0060 F6D1     		bne	.L282
 1361 0062 AA68     		ldr	r2, [r5, #8]
 1362 0064 22F07C72 		bic	r2, r2, #66060288
 1363 0068 42F0E072 		orr	r2, r2, #29360128
 1364 006c 04E0     		b	.L325
 1365              	.L279:
 1366 006e AA68     		ldr	r2, [r5, #8]
 1367 0070 22F07C72 		bic	r2, r2, #66060288
 1368 0074 42F44002 		orr	r2, r2, #12582912
 1369              	.L325:
 1370 0078 FFF7FEFF 		bl	LL_ADC_SetAnalogWDMonitChannels
 1371 007c 2368     		ldr	r3, [r4]
 1372 007e 2968     		ldr	r1, [r5]
 1373 0080 DE68     		ldr	r6, [r3, #12]
 1374 0082 DA68     		ldr	r2, [r3, #12]
 1375 0084 2869     		ldr	r0, [r5, #16]
 1376 0086 890C     		lsrs	r1, r1, #18
 1377 0088 C6F3C106 		ubfx	r6, r6, #3, #2
 1378 008c 01F00C01 		and	r1, r1, #12
 1379 0090 03F12007 		add	r7, r3, #32
 1380 0094 C2F3C102 		ubfx	r2, r2, #3, #2
 1381 0098 7600     		lsls	r6, r6, #1
 1382 009a 00FA06F6 		lsl	r6, r0, r6
 1383 009e 5000     		lsls	r0, r2, #1
 1384 00a0 6A69     		ldr	r2, [r5, #20]
 1385 00a2 51F807C0 		ldr	ip, [r1, r7]
 1386 00a6 8240     		lsls	r2, r2, r0
 1387 00a8 42EA0642 		orr	r2, r2, r6, lsl #16
 1388 00ac 0CF0F02C 		and	ip, ip, #-268374016
 1389 00b0 42EA0C02 		orr	r2, r2, ip
 1390 00b4 CA51     		str	r2, [r1, r7]
 1391 00b6 626D     		ldr	r2, [r4, #84]
 1392 00b8 22F48032 		bic	r2, r2, #65536
 1393 00bc 6265     		str	r2, [r4, #84]
 1394 00be 8022     		movs	r2, #128
 1395 00c0 1A60     		str	r2, [r3]
 1396 00c2 2A7B     		ldrb	r2, [r5, #12]	@ zero_extendqisi2
 1397 00c4 012A     		cmp	r2, #1
 1398 00c6 5A68     		ldr	r2, [r3, #4]
 1399 00c8 0CBF     		ite	eq
 1400 00ca 42F08002 		orreq	r2, r2, #128
 1401 00ce 22F08002 		bicne	r2, r2, #128
 1402              	.L329:
 1403 00d2 5A60     		str	r2, [r3, #4]
 1404 00d4 0020     		movs	r0, #0
 1405              	.L287:
ARM GAS  C:\Users\CL\AppData\Local\Temp\ccyBuYSY.s 			page 25


 1406 00d6 0023     		movs	r3, #0
 1407 00d8 84F85030 		strb	r3, [r4, #80]
 1408              	.L274:
 1409 00dc F8BD     		pop	{r3, r4, r5, r6, r7, pc}
 1410              	.L277:
 1411 00de AA68     		ldr	r2, [r5, #8]
 1412 00e0 22F07C72 		bic	r2, r2, #66060288
 1413 00e4 42F0A072 		orr	r2, r2, #20971520
 1414 00e8 C6E7     		b	.L325
 1415              	.L281:
 1416 00ea 564A     		ldr	r2, .L330+4
 1417 00ec C4E7     		b	.L325
 1418              	.L280:
 1419 00ee 564A     		ldr	r2, .L330+8
 1420 00f0 C2E7     		b	.L325
 1421              	.L283:
 1422 00f2 564A     		ldr	r2, .L330+12
 1423 00f4 C0E7     		b	.L325
 1424              	.L276:
 1425 00f6 B3F1A07F 		cmp	r3, #20971520
 1426 00fa 13D0     		beq	.L288
 1427 00fc 0CD8     		bhi	.L289
 1428 00fe B3F5400F 		cmp	r3, #12582912
 1429 0102 0FD0     		beq	.L288
 1430 0104 B3F1807F 		cmp	r3, #16777216
 1431 0108 02D0     		beq	.L290
 1432 010a B3F5000F 		cmp	r3, #8388608
 1433 010e 7ED1     		bne	.L291
 1434              	.L290:
 1435 0110 4E4A     		ldr	r2, .L330+12
 1436              	.L328:
 1437 0112 FFF7FEFF 		bl	LL_ADC_SetAnalogWDMonitChannels
 1438 0116 17E0     		b	.L296
 1439              	.L289:
 1440 0118 B3F1C07F 		cmp	r3, #25165824
 1441 011c F8D0     		beq	.L290
 1442 011e B3F1E07F 		cmp	r3, #29360128
 1443 0122 74D1     		bne	.L291
 1444              	.L288:
 1445 0124 4A4E     		ldr	r6, .L330+16
 1446 0126 AB68     		ldr	r3, [r5, #8]
 1447 0128 B142     		cmp	r1, r6
 1448 012a C3F31202 		ubfx	r2, r3, #0, #19
 1449 012e 5BD1     		bne	.L292
 1450 0130 002A     		cmp	r2, #0
 1451 0132 52D1     		bne	.L293
 1452 0134 C3F38463 		ubfx	r3, r3, #26, #5
 1453              	.L326:
 1454 0138 0122     		movs	r2, #1
 1455 013a 02FA03F3 		lsl	r3, r2, r3
 1456 013e D0F8A020 		ldr	r2, [r0, #160]
 1457 0142 1343     		orrs	r3, r3, r2
 1458 0144 C0F8A030 		str	r3, [r0, #160]
 1459              	.L296:
 1460 0148 2368     		ldr	r3, [r4]
 1461 014a 2869     		ldr	r0, [r5, #16]
 1462 014c D968     		ldr	r1, [r3, #12]
ARM GAS  C:\Users\CL\AppData\Local\Temp\ccyBuYSY.s 			page 26


 1463 014e 6E69     		ldr	r6, [r5, #20]
 1464 0150 01F01801 		and	r1, r1, #24
 1465 0154 1829     		cmp	r1, #24
 1466 0156 18BF     		it	ne
 1467 0158 DA68     		ldrne	r2, [r3, #12]
 1468 015a 2968     		ldr	r1, [r5]
 1469 015c 1FBF     		itttt	ne
 1470 015e C2F3C102 		ubfxne	r2, r2, #3, #2
 1471 0162 C2F10202 		rsbne	r2, r2, #2
 1472 0166 5200     		lslne	r2, r2, #1
 1473 0168 02F01E02 		andne	r2, r2, #30
 1474 016c 18BF     		it	ne
 1475 016e D040     		lsrne	r0, r0, r2
 1476 0170 DA68     		ldr	r2, [r3, #12]
 1477 0172 02F01802 		and	r2, r2, #24
 1478 0176 08BF     		it	eq
 1479 0178 8000     		lsleq	r0, r0, #2
 1480 017a 182A     		cmp	r2, #24
 1481 017c 1EBF     		ittt	ne
 1482 017e DA68     		ldrne	r2, [r3, #12]
 1483 0180 C2F3C102 		ubfxne	r2, r2, #3, #2
 1484 0184 C2F10202 		rsbne	r2, r2, #2
 1485 0188 4FEA9141 		lsr	r1, r1, #18
 1486 018c 18BF     		it	ne
 1487 018e 5200     		lslne	r2, r2, #1
 1488 0190 01F00C01 		and	r1, r1, #12
 1489 0194 03F12007 		add	r7, r3, #32
 1490 0198 1CBF     		itt	ne
 1491 019a 02F01E02 		andne	r2, r2, #30
 1492 019e D640     		lsrne	r6, r6, r2
 1493 01a0 CA59     		ldr	r2, [r1, r7]
 1494 01a2 02F0F022 		and	r2, r2, #-268374016
 1495 01a6 08BF     		it	eq
 1496 01a8 B600     		lsleq	r6, r6, #2
 1497 01aa 42EA0042 		orr	r2, r2, r0, lsl #16
 1498 01ae 3243     		orrs	r2, r2, r6
 1499 01b0 CA51     		str	r2, [r1, r7]
 1500 01b2 274A     		ldr	r2, .L330+16
 1501 01b4 2968     		ldr	r1, [r5]
 1502 01b6 9142     		cmp	r1, r2
 1503 01b8 626D     		ldr	r2, [r4, #84]
 1504 01ba 2AD1     		bne	.L304
 1505 01bc 22F40032 		bic	r2, r2, #131072
 1506 01c0 6265     		str	r2, [r4, #84]
 1507 01c2 4FF48072 		mov	r2, #256
 1508 01c6 1A60     		str	r2, [r3]
 1509 01c8 2A7B     		ldrb	r2, [r5, #12]	@ zero_extendqisi2
 1510 01ca 012A     		cmp	r2, #1
 1511 01cc 5A68     		ldr	r2, [r3, #4]
 1512 01ce 0CBF     		ite	eq
 1513 01d0 42F48072 		orreq	r2, r2, #256
 1514 01d4 22F48072 		bicne	r2, r2, #256
 1515 01d8 7BE7     		b	.L329
 1516              	.L293:
 1517              		.syntax unified
 1518              	@ 1055 "Drivers/CMSIS/Include/cmsis_gcc.h" 1
 1519 01da 93FAA3F3 		rbit r3, r3
ARM GAS  C:\Users\CL\AppData\Local\Temp\ccyBuYSY.s 			page 27


 1520              	@ 0 "" 2
 1521              		.thumb
 1522              		.syntax unified
 1523 01de B3FA83F3 		clz	r3, r3
 1524 01e2 03F01F03 		and	r3, r3, #31
 1525 01e6 A7E7     		b	.L326
 1526              	.L292:
 1527 01e8 52B9     		cbnz	r2, .L297
 1528 01ea C3F38463 		ubfx	r3, r3, #26, #5
 1529              	.L327:
 1530 01ee 0122     		movs	r2, #1
 1531 01f0 02FA03F3 		lsl	r3, r2, r3
 1532 01f4 D0F8A420 		ldr	r2, [r0, #164]
 1533 01f8 1343     		orrs	r3, r3, r2
 1534 01fa C0F8A430 		str	r3, [r0, #164]
 1535 01fe A3E7     		b	.L296
 1536              	.L297:
 1537              		.syntax unified
 1538              	@ 1055 "Drivers/CMSIS/Include/cmsis_gcc.h" 1
 1539 0200 93FAA3F3 		rbit r3, r3
 1540              	@ 0 "" 2
 1541              		.thumb
 1542              		.syntax unified
 1543 0204 B3FA83F3 		clz	r3, r3
 1544 0208 03F01F03 		and	r3, r3, #31
 1545 020c EFE7     		b	.L327
 1546              	.L291:
 1547 020e 0022     		movs	r2, #0
 1548 0210 7FE7     		b	.L328
 1549              	.L304:
 1550 0212 22F48022 		bic	r2, r2, #262144
 1551 0216 6265     		str	r2, [r4, #84]
 1552 0218 4FF40072 		mov	r2, #512
 1553 021c 1A60     		str	r2, [r3]
 1554 021e 2A7B     		ldrb	r2, [r5, #12]	@ zero_extendqisi2
 1555 0220 012A     		cmp	r2, #1
 1556 0222 5A68     		ldr	r2, [r3, #4]
 1557 0224 0CBF     		ite	eq
 1558 0226 42F40072 		orreq	r2, r2, #512
 1559 022a 22F40072 		bicne	r2, r2, #512
 1560 022e 50E7     		b	.L329
 1561              	.L275:
 1562 0230 626D     		ldr	r2, [r4, #84]
 1563 0232 42F02002 		orr	r2, r2, #32
 1564 0236 6265     		str	r2, [r4, #84]
 1565 0238 1846     		mov	r0, r3
 1566 023a 4CE7     		b	.L287
 1567              	.L307:
 1568 023c 0220     		movs	r0, #2
 1569 023e 4DE7     		b	.L274
 1570              	.L331:
 1571              		.align	2
 1572              	.L330:
 1573 0240 0000C07D 		.word	2109734912
 1574 0244 FFFF8700 		.word	8912895
 1575 0248 FFFF0701 		.word	17301503
 1576 024c FFFF8701 		.word	25690111
ARM GAS  C:\Users\CL\AppData\Local\Temp\ccyBuYSY.s 			page 28


 1577 0250 FFFF1700 		.word	1572863
 1579              		.section	.text.HAL_ADC_GetState,"ax",%progbits
 1580              		.align	1
 1581              		.global	HAL_ADC_GetState
 1582              		.syntax unified
 1583              		.thumb
 1584              		.thumb_func
 1586              	HAL_ADC_GetState:
 1587              		@ args = 0, pretend = 0, frame = 0
 1588              		@ frame_needed = 0, uses_anonymous_args = 0
 1589              		@ link register save eliminated.
 1590 0000 406D     		ldr	r0, [r0, #84]
 1591 0002 7047     		bx	lr
 1593              		.section	.text.HAL_ADC_GetError,"ax",%progbits
 1594              		.align	1
 1595              		.global	HAL_ADC_GetError
 1596              		.syntax unified
 1597              		.thumb
 1598              		.thumb_func
 1600              	HAL_ADC_GetError:
 1601              		@ args = 0, pretend = 0, frame = 0
 1602              		@ frame_needed = 0, uses_anonymous_args = 0
 1603              		@ link register save eliminated.
 1604 0000 806D     		ldr	r0, [r0, #88]
 1605 0002 7047     		bx	lr
 1607              		.section	.text.ADC_ConversionStop,"ax",%progbits
 1608              		.align	1
 1609              		.global	ADC_ConversionStop
 1610              		.syntax unified
 1611              		.thumb
 1612              		.thumb_func
 1614              	ADC_ConversionStop:
 1615              		@ args = 0, pretend = 0, frame = 0
 1616              		@ frame_needed = 0, uses_anonymous_args = 0
 1617 0000 70B5     		push	{r4, r5, r6, lr}
 1618 0002 0446     		mov	r4, r0
 1619 0004 0068     		ldr	r0, [r0]
 1620 0006 FFF7FEFF 		bl	LL_ADC_REG_IsConversionOngoing
 1621 000a 2368     		ldr	r3, [r4]
 1622 000c 9A68     		ldr	r2, [r3, #8]
 1623 000e 02F00802 		and	r2, r2, #8
 1624 0012 0243     		orrs	r2, r2, r0
 1625 0014 01D1     		bne	.L335
 1626              	.L347:
 1627 0016 0020     		movs	r0, #0
 1628              	.L336:
 1629 0018 70BD     		pop	{r4, r5, r6, pc}
 1630              	.L335:
 1631 001a DA68     		ldr	r2, [r3, #12]
 1632 001c 9001     		lsls	r0, r2, #6
 1633 001e 2BD5     		bpl	.L337
 1634 0020 208B     		ldrh	r0, [r4, #24]
 1635 0022 40F20112 		movw	r2, #257
 1636 0026 9042     		cmp	r0, r2
 1637 0028 26D1     		bne	.L337
 1638 002a 284A     		ldr	r2, .L369
 1639              	.L338:
ARM GAS  C:\Users\CL\AppData\Local\Temp\ccyBuYSY.s 			page 29


 1640 002c 1968     		ldr	r1, [r3]
 1641 002e 4906     		lsls	r1, r1, #25
 1642 0030 16D5     		bpl	.L339
 1643 0032 4022     		movs	r2, #64
 1644 0034 1A60     		str	r2, [r3]
 1645 0036 0121     		movs	r1, #1
 1646              	.L340:
 1647 0038 1846     		mov	r0, r3
 1648 003a FFF7FEFF 		bl	LL_ADC_REG_IsConversionOngoing
 1649 003e 58B1     		cbz	r0, .L342
 1650 0040 2268     		ldr	r2, [r4]
 1651 0042 9368     		ldr	r3, [r2, #8]
 1652 0044 9E07     		lsls	r6, r3, #30
 1653 0046 07D4     		bmi	.L342
 1654 0048 9368     		ldr	r3, [r2, #8]
 1655 004a 23F00043 		bic	r3, r3, #-2147483648
 1656 004e 23F03F03 		bic	r3, r3, #63
 1657 0052 43F01003 		orr	r3, r3, #16
 1658 0056 9360     		str	r3, [r2, #8]
 1659              	.L342:
 1660 0058 0129     		cmp	r1, #1
 1661 005a 0FD1     		bne	.L341
 1662 005c 0425     		movs	r5, #4
 1663 005e 22E0     		b	.L343
 1664              	.L339:
 1665 0060 013A     		subs	r2, r2, #1
 1666 0062 E3D1     		bne	.L338
 1667              	.L368:
 1668 0064 636D     		ldr	r3, [r4, #84]
 1669 0066 43F01003 		orr	r3, r3, #16
 1670 006a 6365     		str	r3, [r4, #84]
 1671 006c A36D     		ldr	r3, [r4, #88]
 1672 006e 43F00103 		orr	r3, r3, #1
 1673 0072 A365     		str	r3, [r4, #88]
 1674 0074 0120     		movs	r0, #1
 1675 0076 CFE7     		b	.L336
 1676              	.L337:
 1677 0078 0229     		cmp	r1, #2
 1678 007a DDD1     		bne	.L340
 1679              	.L341:
 1680 007c 2268     		ldr	r2, [r4]
 1681 007e 9368     		ldr	r3, [r2, #8]
 1682 0080 1807     		lsls	r0, r3, #28
 1683 0082 0AD5     		bpl	.L344
 1684 0084 9368     		ldr	r3, [r2, #8]
 1685 0086 9B07     		lsls	r3, r3, #30
 1686 0088 07D4     		bmi	.L344
 1687 008a 9368     		ldr	r3, [r2, #8]
 1688 008c 23F00043 		bic	r3, r3, #-2147483648
 1689 0090 23F03F03 		bic	r3, r3, #63
 1690 0094 43F02003 		orr	r3, r3, #32
 1691 0098 9360     		str	r3, [r2, #8]
 1692              	.L344:
 1693 009a 0229     		cmp	r1, #2
 1694 009c 14D0     		beq	.L350
 1695 009e 0329     		cmp	r1, #3
 1696 00a0 14BF     		ite	ne
ARM GAS  C:\Users\CL\AppData\Local\Temp\ccyBuYSY.s 			page 30


 1697 00a2 0425     		movne	r5, #4
 1698 00a4 0C25     		moveq	r5, #12
 1699              	.L343:
 1700 00a6 FFF7FEFF 		bl	HAL_GetTick
 1701 00aa 0646     		mov	r6, r0
 1702              	.L362:
 1703 00ac 2368     		ldr	r3, [r4]
 1704 00ae 9B68     		ldr	r3, [r3, #8]
 1705 00b0 2B42     		tst	r3, r5
 1706 00b2 B0D0     		beq	.L347
 1707 00b4 FFF7FEFF 		bl	HAL_GetTick
 1708 00b8 801B     		subs	r0, r0, r6
 1709 00ba 0528     		cmp	r0, #5
 1710 00bc F6D9     		bls	.L362
 1711 00be 2368     		ldr	r3, [r4]
 1712 00c0 9B68     		ldr	r3, [r3, #8]
 1713 00c2 2B42     		tst	r3, r5
 1714 00c4 F2D0     		beq	.L362
 1715 00c6 CDE7     		b	.L368
 1716              	.L350:
 1717 00c8 0825     		movs	r5, #8
 1718 00ca ECE7     		b	.L343
 1719              	.L370:
 1720              		.align	2
 1721              	.L369:
 1722 00cc 010040A3 		.word	-1556086783
 1724              		.section	.text.ADC_Enable,"ax",%progbits
 1725              		.align	1
 1726              		.global	ADC_Enable
 1727              		.syntax unified
 1728              		.thumb
 1729              		.thumb_func
 1731              	ADC_Enable:
 1732              		@ args = 0, pretend = 0, frame = 8
 1733              		@ frame_needed = 0, uses_anonymous_args = 0
 1734 0000 73B5     		push	{r0, r1, r4, r5, r6, lr}
 1735 0002 0023     		movs	r3, #0
 1736 0004 0268     		ldr	r2, [r0]
 1737 0006 0193     		str	r3, [sp, #4]
 1738 0008 9368     		ldr	r3, [r2, #8]
 1739 000a DD07     		lsls	r5, r3, #31
 1740 000c 0446     		mov	r4, r0
 1741 000e 02D5     		bpl	.L372
 1742              	.L382:
 1743 0010 0020     		movs	r0, #0
 1744              	.L373:
 1745 0012 02B0     		add	sp, sp, #8
 1746              		@ sp needed
 1747 0014 70BD     		pop	{r4, r5, r6, pc}
 1748              	.L372:
 1749 0016 9168     		ldr	r1, [r2, #8]
 1750 0018 204B     		ldr	r3, .L386
 1751 001a 1942     		tst	r1, r3
 1752 001c 09D0     		beq	.L374
 1753              	.L385:
 1754 001e 636D     		ldr	r3, [r4, #84]
 1755 0020 43F01003 		orr	r3, r3, #16
ARM GAS  C:\Users\CL\AppData\Local\Temp\ccyBuYSY.s 			page 31


 1756 0024 6365     		str	r3, [r4, #84]
 1757 0026 A36D     		ldr	r3, [r4, #88]
 1758 0028 43F00103 		orr	r3, r3, #1
 1759 002c A365     		str	r3, [r4, #88]
 1760 002e 0120     		movs	r0, #1
 1761 0030 EFE7     		b	.L373
 1762              	.L374:
 1763 0032 9368     		ldr	r3, [r2, #8]
 1764 0034 23F00043 		bic	r3, r3, #-2147483648
 1765 0038 23F03F03 		bic	r3, r3, #63
 1766 003c 43F00103 		orr	r3, r3, #1
 1767 0040 9360     		str	r3, [r2, #8]
 1768 0042 174B     		ldr	r3, .L386+4
 1769 0044 9B68     		ldr	r3, [r3, #8]
 1770 0046 1802     		lsls	r0, r3, #8
 1771 0048 19D4     		bmi	.L375
 1772              	.L379:
 1773 004a FFF7FEFF 		bl	HAL_GetTick
 1774 004e 154E     		ldr	r6, .L386+8
 1775 0050 0546     		mov	r5, r0
 1776              	.L383:
 1777 0052 2268     		ldr	r2, [r4]
 1778 0054 1368     		ldr	r3, [r2]
 1779 0056 DB07     		lsls	r3, r3, #31
 1780 0058 DAD4     		bmi	.L382
 1781 005a 9368     		ldr	r3, [r2, #8]
 1782 005c D907     		lsls	r1, r3, #31
 1783 005e 5FBF     		itttt	pl
 1784 0060 9368     		ldrpl	r3, [r2, #8]
 1785 0062 3340     		andpl	r3, r3, r6
 1786 0064 43F00103 		orrpl	r3, r3, #1
 1787 0068 9360     		strpl	r3, [r2, #8]
 1788 006a FFF7FEFF 		bl	HAL_GetTick
 1789 006e 401B     		subs	r0, r0, r5
 1790 0070 0228     		cmp	r0, #2
 1791 0072 EED9     		bls	.L383
 1792 0074 2368     		ldr	r3, [r4]
 1793 0076 1B68     		ldr	r3, [r3]
 1794 0078 DA07     		lsls	r2, r3, #31
 1795 007a EAD4     		bmi	.L383
 1796 007c CFE7     		b	.L385
 1797              	.L375:
 1798 007e 0A4B     		ldr	r3, .L386+12
 1799 0080 0A4A     		ldr	r2, .L386+16
 1800 0082 1B68     		ldr	r3, [r3]
 1801 0084 B3FBF2F2 		udiv	r2, r3, r2
 1802 0088 0C23     		movs	r3, #12
 1803 008a 02FB0333 		mla	r3, r2, r3, r3
 1804              	.L384:
 1805 008e 0193     		str	r3, [sp, #4]
 1806 0090 019B     		ldr	r3, [sp, #4]
 1807 0092 002B     		cmp	r3, #0
 1808 0094 D9D0     		beq	.L379
 1809 0096 019B     		ldr	r3, [sp, #4]
 1810 0098 013B     		subs	r3, r3, #1
 1811 009a F8E7     		b	.L384
 1812              	.L387:
ARM GAS  C:\Users\CL\AppData\Local\Temp\ccyBuYSY.s 			page 32


 1813              		.align	2
 1814              	.L386:
 1815 009c 3F000080 		.word	-2147483585
 1816 00a0 00030450 		.word	1342440192
 1817 00a4 C0FFFF7F 		.word	2147483584
 1818 00a8 00000000 		.word	SystemCoreClock
 1819 00ac 400D0300 		.word	200000
 1821              		.section	.text.HAL_ADC_Start,"ax",%progbits
 1822              		.align	1
 1823              		.global	HAL_ADC_Start
 1824              		.syntax unified
 1825              		.thumb
 1826              		.thumb_func
 1828              	HAL_ADC_Start:
 1829              		@ args = 0, pretend = 0, frame = 0
 1830              		@ frame_needed = 0, uses_anonymous_args = 0
 1831 0000 38B5     		push	{r3, r4, r5, lr}
 1832 0002 0446     		mov	r4, r0
 1833 0004 0068     		ldr	r0, [r0]
 1834 0006 FFF7FEFF 		bl	LL_ADC_REG_IsConversionOngoing
 1835 000a 0546     		mov	r5, r0
 1836 000c 0028     		cmp	r0, #0
 1837 000e 36D1     		bne	.L395
 1838 0010 94F85030 		ldrb	r3, [r4, #80]	@ zero_extendqisi2
 1839 0014 012B     		cmp	r3, #1
 1840 0016 32D0     		beq	.L395
 1841 0018 0123     		movs	r3, #1
 1842 001a 84F85030 		strb	r3, [r4, #80]
 1843 001e 2046     		mov	r0, r4
 1844 0020 FFF7FEFF 		bl	ADC_Enable
 1845 0024 40BB     		cbnz	r0, .L390
 1846 0026 636D     		ldr	r3, [r4, #84]
 1847 0028 23F47063 		bic	r3, r3, #3840
 1848 002c 23F00103 		bic	r3, r3, #1
 1849 0030 43F48073 		orr	r3, r3, #256
 1850 0034 6365     		str	r3, [r4, #84]
 1851 0036 636D     		ldr	r3, [r4, #84]
 1852 0038 DA04     		lsls	r2, r3, #19
 1853 003a 48BF     		it	mi
 1854 003c A36D     		ldrmi	r3, [r4, #88]
 1855 003e 2268     		ldr	r2, [r4]
 1856 0040 52BF     		itee	pl
 1857 0042 A065     		strpl	r0, [r4, #88]
 1858 0044 23F00603 		bicmi	r3, r3, #6
 1859 0048 A365     		strmi	r3, [r4, #88]
 1860 004a 1C23     		movs	r3, #28
 1861 004c 1360     		str	r3, [r2]
 1862 004e 0023     		movs	r3, #0
 1863 0050 84F85030 		strb	r3, [r4, #80]
 1864 0054 D368     		ldr	r3, [r2, #12]
 1865 0056 9B01     		lsls	r3, r3, #6
 1866 0058 41BF     		itttt	mi
 1867 005a 636D     		ldrmi	r3, [r4, #84]
 1868 005c 23F44053 		bicmi	r3, r3, #12288
 1869 0060 43F48053 		orrmi	r3, r3, #4096
 1870 0064 6365     		strmi	r3, [r4, #84]
 1871 0066 9368     		ldr	r3, [r2, #8]
ARM GAS  C:\Users\CL\AppData\Local\Temp\ccyBuYSY.s 			page 33


 1872 0068 23F00043 		bic	r3, r3, #-2147483648
 1873 006c 23F03F03 		bic	r3, r3, #63
 1874 0070 43F00403 		orr	r3, r3, #4
 1875 0074 9360     		str	r3, [r2, #8]
 1876              	.L389:
 1877 0076 38BD     		pop	{r3, r4, r5, pc}
 1878              	.L390:
 1879 0078 84F85050 		strb	r5, [r4, #80]
 1880 007c FBE7     		b	.L389
 1881              	.L395:
 1882 007e 0220     		movs	r0, #2
 1883 0080 F9E7     		b	.L389
 1885              		.section	.text.HAL_ADC_Start_IT,"ax",%progbits
 1886              		.align	1
 1887              		.global	HAL_ADC_Start_IT
 1888              		.syntax unified
 1889              		.thumb
 1890              		.thumb_func
 1892              	HAL_ADC_Start_IT:
 1893              		@ args = 0, pretend = 0, frame = 0
 1894              		@ frame_needed = 0, uses_anonymous_args = 0
 1895 0000 38B5     		push	{r3, r4, r5, lr}
 1896 0002 0446     		mov	r4, r0
 1897 0004 0068     		ldr	r0, [r0]
 1898 0006 FFF7FEFF 		bl	LL_ADC_REG_IsConversionOngoing
 1899 000a 0546     		mov	r5, r0
 1900 000c 0028     		cmp	r0, #0
 1901 000e 5AD1     		bne	.L410
 1902 0010 94F85030 		ldrb	r3, [r4, #80]	@ zero_extendqisi2
 1903 0014 012B     		cmp	r3, #1
 1904 0016 56D0     		beq	.L410
 1905 0018 0123     		movs	r3, #1
 1906 001a 84F85030 		strb	r3, [r4, #80]
 1907 001e 2046     		mov	r0, r4
 1908 0020 FFF7FEFF 		bl	ADC_Enable
 1909 0024 0028     		cmp	r0, #0
 1910 0026 4BD1     		bne	.L401
 1911 0028 636D     		ldr	r3, [r4, #84]
 1912 002a 23F47063 		bic	r3, r3, #3840
 1913 002e 23F00103 		bic	r3, r3, #1
 1914 0032 43F48073 		orr	r3, r3, #256
 1915 0036 6365     		str	r3, [r4, #84]
 1916 0038 636D     		ldr	r3, [r4, #84]
 1917 003a D904     		lsls	r1, r3, #19
 1918 003c 49BF     		itett	mi
 1919 003e A36D     		ldrmi	r3, [r4, #88]
 1920 0040 A065     		strpl	r0, [r4, #88]
 1921 0042 23F00603 		bicmi	r3, r3, #6
 1922 0046 A365     		strmi	r3, [r4, #88]
 1923 0048 2368     		ldr	r3, [r4]
 1924 004a 6169     		ldr	r1, [r4, #20]
 1925 004c 1C22     		movs	r2, #28
 1926 004e 1A60     		str	r2, [r3]
 1927 0050 0022     		movs	r2, #0
 1928 0052 84F85020 		strb	r2, [r4, #80]
 1929 0056 5A68     		ldr	r2, [r3, #4]
 1930 0058 22F01C02 		bic	r2, r2, #28
ARM GAS  C:\Users\CL\AppData\Local\Temp\ccyBuYSY.s 			page 34


 1931 005c 5A60     		str	r2, [r3, #4]
 1932 005e 5A68     		ldr	r2, [r3, #4]
 1933 0060 0829     		cmp	r1, #8
 1934 0062 0CBF     		ite	eq
 1935 0064 42F00802 		orreq	r2, r2, #8
 1936 0068 42F00402 		orrne	r2, r2, #4
 1937 006c 5A60     		str	r2, [r3, #4]
 1938 006e 626B     		ldr	r2, [r4, #52]
 1939 0070 1AB9     		cbnz	r2, .L406
 1940 0072 5A68     		ldr	r2, [r3, #4]
 1941 0074 42F01002 		orr	r2, r2, #16
 1942 0078 5A60     		str	r2, [r3, #4]
 1943              	.L406:
 1944 007a DA68     		ldr	r2, [r3, #12]
 1945 007c 9201     		lsls	r2, r2, #6
 1946 007e 16D5     		bpl	.L407
 1947 0080 626D     		ldr	r2, [r4, #84]
 1948 0082 22F44052 		bic	r2, r2, #12288
 1949 0086 42F48052 		orr	r2, r2, #4096
 1950 008a 6265     		str	r2, [r4, #84]
 1951 008c 5A68     		ldr	r2, [r3, #4]
 1952 008e 0829     		cmp	r1, #8
 1953 0090 0BBF     		itete	eq
 1954 0092 22F02002 		biceq	r2, r2, #32
 1955 0096 22F04002 		bicne	r2, r2, #64
 1956 009a 5A60     		streq	r2, [r3, #4]
 1957 009c 5A60     		strne	r2, [r3, #4]
 1958 009e 0BBF     		itete	eq
 1959 00a0 5A68     		ldreq	r2, [r3, #4]
 1960 00a2 5A68     		ldrne	r2, [r3, #4]
 1961 00a4 42F04002 		orreq	r2, r2, #64
 1962 00a8 42F02002 		orrne	r2, r2, #32
 1963 00ac 5A60     		str	r2, [r3, #4]
 1964              	.L407:
 1965 00ae 9A68     		ldr	r2, [r3, #8]
 1966 00b0 22F00042 		bic	r2, r2, #-2147483648
 1967 00b4 22F03F02 		bic	r2, r2, #63
 1968 00b8 42F00402 		orr	r2, r2, #4
 1969 00bc 9A60     		str	r2, [r3, #8]
 1970              	.L400:
 1971 00be 38BD     		pop	{r3, r4, r5, pc}
 1972              	.L401:
 1973 00c0 84F85050 		strb	r5, [r4, #80]
 1974 00c4 FBE7     		b	.L400
 1975              	.L410:
 1976 00c6 0220     		movs	r0, #2
 1977 00c8 F9E7     		b	.L400
 1979              		.section	.text.HAL_ADC_Start_DMA,"ax",%progbits
 1980              		.align	1
 1981              		.global	HAL_ADC_Start_DMA
 1982              		.syntax unified
 1983              		.thumb
 1984              		.thumb_func
 1986              	HAL_ADC_Start_DMA:
 1987              		@ args = 0, pretend = 0, frame = 0
 1988              		@ frame_needed = 0, uses_anonymous_args = 0
 1989 0000 F8B5     		push	{r3, r4, r5, r6, r7, lr}
ARM GAS  C:\Users\CL\AppData\Local\Temp\ccyBuYSY.s 			page 35


 1990 0002 0446     		mov	r4, r0
 1991 0004 0068     		ldr	r0, [r0]
 1992 0006 FFF7FEFF 		bl	LL_ADC_REG_IsConversionOngoing
 1993 000a 0E46     		mov	r6, r1
 1994 000c 1746     		mov	r7, r2
 1995 000e 0546     		mov	r5, r0
 1996 0010 0028     		cmp	r0, #0
 1997 0012 42D1     		bne	.L422
 1998 0014 94F85030 		ldrb	r3, [r4, #80]	@ zero_extendqisi2
 1999 0018 012B     		cmp	r3, #1
 2000 001a 3ED0     		beq	.L422
 2001 001c 0123     		movs	r3, #1
 2002 001e 84F85030 		strb	r3, [r4, #80]
 2003 0022 2046     		mov	r0, r4
 2004 0024 FFF7FEFF 		bl	ADC_Enable
 2005 0028 0028     		cmp	r0, #0
 2006 002a 33D1     		bne	.L418
 2007 002c 606D     		ldr	r0, [r4, #84]
 2008 002e 2168     		ldr	r1, [r4]
 2009 0030 20F47060 		bic	r0, r0, #3840
 2010 0034 20F00100 		bic	r0, r0, #1
 2011 0038 40F48070 		orr	r0, r0, #256
 2012 003c 6065     		str	r0, [r4, #84]
 2013 003e 636D     		ldr	r3, [r4, #84]
 2014 0040 E06C     		ldr	r0, [r4, #76]
 2015 0042 13F48053 		ands	r3, r3, #4096
 2016 0046 1CBF     		itt	ne
 2017 0048 A36D     		ldrne	r3, [r4, #88]
 2018 004a 23F00603 		bicne	r3, r3, #6
 2019 004e A365     		str	r3, [r4, #88]
 2020 0050 134B     		ldr	r3, .L423
 2021 0052 C362     		str	r3, [r0, #44]
 2022 0054 134B     		ldr	r3, .L423+4
 2023 0056 0363     		str	r3, [r0, #48]
 2024 0058 134B     		ldr	r3, .L423+8
 2025 005a 4363     		str	r3, [r0, #52]
 2026 005c 1C23     		movs	r3, #28
 2027 005e 0B60     		str	r3, [r1]
 2028 0060 0023     		movs	r3, #0
 2029 0062 84F85030 		strb	r3, [r4, #80]
 2030 0066 4B68     		ldr	r3, [r1, #4]
 2031 0068 43F01003 		orr	r3, r3, #16
 2032 006c 4B60     		str	r3, [r1, #4]
 2033 006e CB68     		ldr	r3, [r1, #12]
 2034 0070 43F00103 		orr	r3, r3, #1
 2035 0074 CB60     		str	r3, [r1, #12]
 2036 0076 3246     		mov	r2, r6
 2037 0078 3B46     		mov	r3, r7
 2038 007a 4031     		adds	r1, r1, #64
 2039 007c FFF7FEFF 		bl	HAL_DMA_Start_IT
 2040 0080 2268     		ldr	r2, [r4]
 2041 0082 9368     		ldr	r3, [r2, #8]
 2042 0084 23F00043 		bic	r3, r3, #-2147483648
 2043 0088 23F03F03 		bic	r3, r3, #63
 2044 008c 43F00403 		orr	r3, r3, #4
 2045 0090 9360     		str	r3, [r2, #8]
 2046              	.L417:
ARM GAS  C:\Users\CL\AppData\Local\Temp\ccyBuYSY.s 			page 36


 2047 0092 F8BD     		pop	{r3, r4, r5, r6, r7, pc}
 2048              	.L418:
 2049 0094 84F85050 		strb	r5, [r4, #80]
 2050 0098 FBE7     		b	.L417
 2051              	.L422:
 2052 009a 0220     		movs	r0, #2
 2053 009c F9E7     		b	.L417
 2054              	.L424:
 2055 009e 00BF     		.align	2
 2056              	.L423:
 2057 00a0 00000000 		.word	ADC_DMAConvCplt
 2058 00a4 00000000 		.word	ADC_DMAHalfConvCplt
 2059 00a8 00000000 		.word	ADC_DMAError
 2061              		.section	.text.ADC_Disable,"ax",%progbits
 2062              		.align	1
 2063              		.global	ADC_Disable
 2064              		.syntax unified
 2065              		.thumb
 2066              		.thumb_func
 2068              	ADC_Disable:
 2069              		@ args = 0, pretend = 0, frame = 0
 2070              		@ frame_needed = 0, uses_anonymous_args = 0
 2071 0000 0268     		ldr	r2, [r0]
 2072 0002 38B5     		push	{r3, r4, r5, lr}
 2073 0004 9368     		ldr	r3, [r2, #8]
 2074 0006 9168     		ldr	r1, [r2, #8]
 2075 0008 0446     		mov	r4, r0
 2076 000a C807     		lsls	r0, r1, #31
 2077 000c 01D4     		bmi	.L426
 2078              	.L428:
 2079 000e 0020     		movs	r0, #0
 2080              	.L427:
 2081 0010 38BD     		pop	{r3, r4, r5, pc}
 2082              	.L426:
 2083 0012 9907     		lsls	r1, r3, #30
 2084 0014 FBD4     		bmi	.L428
 2085 0016 9368     		ldr	r3, [r2, #8]
 2086 0018 03F00D03 		and	r3, r3, #13
 2087 001c 012B     		cmp	r3, #1
 2088 001e 19D1     		bne	.L435
 2089 0020 9368     		ldr	r3, [r2, #8]
 2090 0022 23F00043 		bic	r3, r3, #-2147483648
 2091 0026 23F03F03 		bic	r3, r3, #63
 2092 002a 43F00203 		orr	r3, r3, #2
 2093 002e 9360     		str	r3, [r2, #8]
 2094 0030 0323     		movs	r3, #3
 2095 0032 1360     		str	r3, [r2]
 2096 0034 FFF7FEFF 		bl	HAL_GetTick
 2097 0038 0546     		mov	r5, r0
 2098              	.L433:
 2099 003a 2368     		ldr	r3, [r4]
 2100 003c 9B68     		ldr	r3, [r3, #8]
 2101 003e DB07     		lsls	r3, r3, #31
 2102 0040 E5D5     		bpl	.L428
 2103 0042 FFF7FEFF 		bl	HAL_GetTick
 2104 0046 401B     		subs	r0, r0, r5
 2105 0048 0228     		cmp	r0, #2
ARM GAS  C:\Users\CL\AppData\Local\Temp\ccyBuYSY.s 			page 37


 2106 004a F6D9     		bls	.L433
 2107 004c 2368     		ldr	r3, [r4]
 2108 004e 9B68     		ldr	r3, [r3, #8]
 2109 0050 DA07     		lsls	r2, r3, #31
 2110 0052 F2D5     		bpl	.L433
 2111              	.L435:
 2112 0054 636D     		ldr	r3, [r4, #84]
 2113 0056 43F01003 		orr	r3, r3, #16
 2114 005a 6365     		str	r3, [r4, #84]
 2115 005c A36D     		ldr	r3, [r4, #88]
 2116 005e 43F00103 		orr	r3, r3, #1
 2117 0062 A365     		str	r3, [r4, #88]
 2118 0064 0120     		movs	r0, #1
 2119 0066 D3E7     		b	.L427
 2121              		.section	.text.HAL_ADC_DeInit,"ax",%progbits
 2122              		.align	1
 2123              		.global	HAL_ADC_DeInit
 2124              		.syntax unified
 2125              		.thumb
 2126              		.thumb_func
 2128              	HAL_ADC_DeInit:
 2129              		@ args = 0, pretend = 0, frame = 0
 2130              		@ frame_needed = 0, uses_anonymous_args = 0
 2131 0000 38B5     		push	{r3, r4, r5, lr}
 2132 0002 0446     		mov	r4, r0
 2133 0004 0028     		cmp	r0, #0
 2134 0006 00F08F80 		beq	.L440
 2135 000a 436D     		ldr	r3, [r0, #84]
 2136 000c 43F00203 		orr	r3, r3, #2
 2137 0010 4365     		str	r3, [r0, #84]
 2138 0012 0321     		movs	r1, #3
 2139 0014 FFF7FEFF 		bl	ADC_ConversionStop
 2140 0018 2268     		ldr	r2, [r4]
 2141 001a D368     		ldr	r3, [r2, #12]
 2142 001c 43F40013 		orr	r3, r3, #2097152
 2143 0020 D360     		str	r3, [r2, #12]
 2144 0022 0546     		mov	r5, r0
 2145 0024 30B9     		cbnz	r0, .L438
 2146 0026 2046     		mov	r0, r4
 2147 0028 FFF7FEFF 		bl	ADC_Disable
 2148 002c 0546     		mov	r5, r0
 2149 002e 08B9     		cbnz	r0, .L438
 2150 0030 0123     		movs	r3, #1
 2151 0032 6365     		str	r3, [r4, #84]
 2152              	.L438:
 2153 0034 2368     		ldr	r3, [r4]
 2154 0036 3D48     		ldr	r0, .L441
 2155 0038 5968     		ldr	r1, [r3, #4]
 2156 003a 40F2FF72 		movw	r2, #2047
 2157 003e 0140     		ands	r1, r1, r0
 2158 0040 5960     		str	r1, [r3, #4]
 2159 0042 1A60     		str	r2, [r3]
 2160 0044 9968     		ldr	r1, [r3, #8]
 2161 0046 21F0A041 		bic	r1, r1, #1342177280
 2162 004a 9960     		str	r1, [r3, #8]
 2163 004c 9968     		ldr	r1, [r3, #8]
 2164 004e 41F00051 		orr	r1, r1, #536870912
ARM GAS  C:\Users\CL\AppData\Local\Temp\ccyBuYSY.s 			page 38


 2165 0052 9960     		str	r1, [r3, #8]
 2166 0054 DA68     		ldr	r2, [r3, #12]
 2167 0056 3649     		ldr	r1, .L441+4
 2168 0058 1140     		ands	r1, r1, r2
 2169 005a D960     		str	r1, [r3, #12]
 2170 005c D968     		ldr	r1, [r3, #12]
 2171 005e 41F00041 		orr	r1, r1, #-2147483648
 2172 0062 D960     		str	r1, [r3, #12]
 2173 0064 1A69     		ldr	r2, [r3, #16]
 2174 0066 0240     		ands	r2, r2, r0
 2175 0068 1A61     		str	r2, [r3, #16]
 2176 006a 5A69     		ldr	r2, [r3, #20]
 2177 006c 3148     		ldr	r0, .L441+8
 2178 006e 02F04042 		and	r2, r2, #-1073741824
 2179 0072 5A61     		str	r2, [r3, #20]
 2180 0074 9A69     		ldr	r2, [r3, #24]
 2181 0076 02F07842 		and	r2, r2, #-134217728
 2182 007a 9A61     		str	r2, [r3, #24]
 2183 007c 1A6A     		ldr	r2, [r3, #32]
 2184 007e 02F0F022 		and	r2, r2, #-268374016
 2185 0082 1A62     		str	r2, [r3, #32]
 2186 0084 5A6A     		ldr	r2, [r3, #36]
 2187 0086 02F0FF22 		and	r2, r2, #-16711936
 2188 008a 5A62     		str	r2, [r3, #36]
 2189 008c 9A6A     		ldr	r2, [r3, #40]
 2190 008e 02F0FF22 		and	r2, r2, #-16711936
 2191 0092 9A62     		str	r2, [r3, #40]
 2192 0094 196B     		ldr	r1, [r3, #48]
 2193 0096 284A     		ldr	r2, .L441+12
 2194 0098 0A40     		ands	r2, r2, r1
 2195 009a 1A63     		str	r2, [r3, #48]
 2196 009c 596B     		ldr	r1, [r3, #52]
 2197 009e 0140     		ands	r1, r1, r0
 2198 00a0 5963     		str	r1, [r3, #52]
 2199 00a2 9A6B     		ldr	r2, [r3, #56]
 2200 00a4 0240     		ands	r2, r2, r0
 2201 00a6 9A63     		str	r2, [r3, #56]
 2202 00a8 DA6B     		ldr	r2, [r3, #60]
 2203 00aa 22F4FB62 		bic	r2, r2, #2008
 2204 00ae 22F00702 		bic	r2, r2, #7
 2205 00b2 DA63     		str	r2, [r3, #60]
 2206 00b4 196E     		ldr	r1, [r3, #96]
 2207 00b6 214A     		ldr	r2, .L441+16
 2208 00b8 1140     		ands	r1, r1, r2
 2209 00ba 1966     		str	r1, [r3, #96]
 2210 00bc 596E     		ldr	r1, [r3, #100]
 2211 00be 1140     		ands	r1, r1, r2
 2212 00c0 5966     		str	r1, [r3, #100]
 2213 00c2 996E     		ldr	r1, [r3, #104]
 2214 00c4 1140     		ands	r1, r1, r2
 2215 00c6 9966     		str	r1, [r3, #104]
 2216 00c8 D96E     		ldr	r1, [r3, #108]
 2217 00ca 0A40     		ands	r2, r2, r1
 2218 00cc DA66     		str	r2, [r3, #108]
 2219 00ce D3F8A020 		ldr	r2, [r3, #160]
 2220 00d2 1B49     		ldr	r1, .L441+20
 2221 00d4 0A40     		ands	r2, r2, r1
ARM GAS  C:\Users\CL\AppData\Local\Temp\ccyBuYSY.s 			page 39


 2222 00d6 C3F8A020 		str	r2, [r3, #160]
 2223 00da D3F8A420 		ldr	r2, [r3, #164]
 2224 00de 0A40     		ands	r2, r2, r1
 2225 00e0 C3F8A420 		str	r2, [r3, #164]
 2226 00e4 D3F8B020 		ldr	r2, [r3, #176]
 2227 00e8 0A40     		ands	r2, r2, r1
 2228 00ea C3F8B020 		str	r2, [r3, #176]
 2229 00ee D3F8B420 		ldr	r2, [r3, #180]
 2230 00f2 22F07F12 		bic	r2, r2, #8323199
 2231 00f6 C3F8B420 		str	r2, [r3, #180]
 2232 00fa 124B     		ldr	r3, .L441+24
 2233 00fc 9B68     		ldr	r3, [r3, #8]
 2234 00fe DB07     		lsls	r3, r3, #31
 2235 0100 09D4     		bmi	.L439
 2236 0102 114A     		ldr	r2, .L441+28
 2237 0104 9368     		ldr	r3, [r2, #8]
 2238 0106 23F0FF73 		bic	r3, r3, #33423360
 2239 010a 23F48033 		bic	r3, r3, #65536
 2240 010e 9360     		str	r3, [r2, #8]
 2241 0110 2046     		mov	r0, r4
 2242 0112 FFF7FEFF 		bl	HAL_ADC_MspDeInit
 2243              	.L439:
 2244 0116 0023     		movs	r3, #0
 2245 0118 C4E91733 		strd	r3, r3, [r4, #92]
 2246 011c A365     		str	r3, [r4, #88]
 2247 011e 84F85030 		strb	r3, [r4, #80]
 2248 0122 6365     		str	r3, [r4, #84]
 2249              	.L437:
 2250 0124 2846     		mov	r0, r5
 2251 0126 38BD     		pop	{r3, r4, r5, pc}
 2252              	.L440:
 2253 0128 0125     		movs	r5, #1
 2254 012a FBE7     		b	.L437
 2255              	.L442:
 2256              		.align	2
 2257              	.L441:
 2258 012c 00F8FFFF 		.word	-2048
 2259 0130 04800080 		.word	-2147450876
 2260 0134 200882E0 		.word	-528349152
 2261 0138 300882E0 		.word	-528349136
 2262 013c 00F0FF03 		.word	67104768
 2263 0140 0000F8FF 		.word	-524288
 2264 0144 00000450 		.word	1342439424
 2265 0148 00030450 		.word	1342440192
 2267              		.section	.text.HAL_ADC_Stop,"ax",%progbits
 2268              		.align	1
 2269              		.global	HAL_ADC_Stop
 2270              		.syntax unified
 2271              		.thumb
 2272              		.thumb_func
 2274              	HAL_ADC_Stop:
 2275              		@ args = 0, pretend = 0, frame = 0
 2276              		@ frame_needed = 0, uses_anonymous_args = 0
 2277 0000 10B5     		push	{r4, lr}
 2278 0002 90F85030 		ldrb	r3, [r0, #80]	@ zero_extendqisi2
 2279 0006 012B     		cmp	r3, #1
 2280 0008 0446     		mov	r4, r0
ARM GAS  C:\Users\CL\AppData\Local\Temp\ccyBuYSY.s 			page 40


 2281 000a 16D0     		beq	.L446
 2282 000c 0123     		movs	r3, #1
 2283 000e 80F85030 		strb	r3, [r0, #80]
 2284 0012 0321     		movs	r1, #3
 2285 0014 FFF7FEFF 		bl	ADC_ConversionStop
 2286 0018 58B9     		cbnz	r0, .L445
 2287 001a 2046     		mov	r0, r4
 2288 001c FFF7FEFF 		bl	ADC_Disable
 2289 0020 38B9     		cbnz	r0, .L445
 2290 0022 636D     		ldr	r3, [r4, #84]
 2291 0024 23F48853 		bic	r3, r3, #4352
 2292 0028 23F00103 		bic	r3, r3, #1
 2293 002c 43F00103 		orr	r3, r3, #1
 2294 0030 6365     		str	r3, [r4, #84]
 2295              	.L445:
 2296 0032 0023     		movs	r3, #0
 2297 0034 84F85030 		strb	r3, [r4, #80]
 2298              	.L444:
 2299 0038 10BD     		pop	{r4, pc}
 2300              	.L446:
 2301 003a 0220     		movs	r0, #2
 2302 003c FCE7     		b	.L444
 2304              		.section	.text.HAL_ADC_Stop_IT,"ax",%progbits
 2305              		.align	1
 2306              		.global	HAL_ADC_Stop_IT
 2307              		.syntax unified
 2308              		.thumb
 2309              		.thumb_func
 2311              	HAL_ADC_Stop_IT:
 2312              		@ args = 0, pretend = 0, frame = 0
 2313              		@ frame_needed = 0, uses_anonymous_args = 0
 2314 0000 10B5     		push	{r4, lr}
 2315 0002 90F85030 		ldrb	r3, [r0, #80]	@ zero_extendqisi2
 2316 0006 012B     		cmp	r3, #1
 2317 0008 0446     		mov	r4, r0
 2318 000a 1BD0     		beq	.L450
 2319 000c 0123     		movs	r3, #1
 2320 000e 80F85030 		strb	r3, [r0, #80]
 2321 0012 0321     		movs	r1, #3
 2322 0014 FFF7FEFF 		bl	ADC_ConversionStop
 2323 0018 80B9     		cbnz	r0, .L449
 2324 001a 2268     		ldr	r2, [r4]
 2325 001c 5368     		ldr	r3, [r2, #4]
 2326 001e 23F01C03 		bic	r3, r3, #28
 2327 0022 5360     		str	r3, [r2, #4]
 2328 0024 2046     		mov	r0, r4
 2329 0026 FFF7FEFF 		bl	ADC_Disable
 2330 002a 38B9     		cbnz	r0, .L449
 2331 002c 636D     		ldr	r3, [r4, #84]
 2332 002e 23F48853 		bic	r3, r3, #4352
 2333 0032 23F00103 		bic	r3, r3, #1
 2334 0036 43F00103 		orr	r3, r3, #1
 2335 003a 6365     		str	r3, [r4, #84]
 2336              	.L449:
 2337 003c 0023     		movs	r3, #0
 2338 003e 84F85030 		strb	r3, [r4, #80]
 2339              	.L448:
ARM GAS  C:\Users\CL\AppData\Local\Temp\ccyBuYSY.s 			page 41


 2340 0042 10BD     		pop	{r4, pc}
 2341              	.L450:
 2342 0044 0220     		movs	r0, #2
 2343 0046 FCE7     		b	.L448
 2345              		.section	.text.HAL_ADC_Stop_DMA,"ax",%progbits
 2346              		.align	1
 2347              		.global	HAL_ADC_Stop_DMA
 2348              		.syntax unified
 2349              		.thumb
 2350              		.thumb_func
 2352              	HAL_ADC_Stop_DMA:
 2353              		@ args = 0, pretend = 0, frame = 0
 2354              		@ frame_needed = 0, uses_anonymous_args = 0
 2355 0000 38B5     		push	{r3, r4, r5, lr}
 2356 0002 90F85030 		ldrb	r3, [r0, #80]	@ zero_extendqisi2
 2357 0006 012B     		cmp	r3, #1
 2358 0008 0546     		mov	r5, r0
 2359 000a 35D0     		beq	.L457
 2360 000c 0123     		movs	r3, #1
 2361 000e 80F85030 		strb	r3, [r0, #80]
 2362 0012 0321     		movs	r1, #3
 2363 0014 FFF7FEFF 		bl	ADC_ConversionStop
 2364 0018 0446     		mov	r4, r0
 2365 001a E0B9     		cbnz	r0, .L453
 2366 001c 2A68     		ldr	r2, [r5]
 2367 001e E86C     		ldr	r0, [r5, #76]
 2368 0020 D368     		ldr	r3, [r2, #12]
 2369 0022 23F00103 		bic	r3, r3, #1
 2370 0026 D360     		str	r3, [r2, #12]
 2371 0028 90F82530 		ldrb	r3, [r0, #37]	@ zero_extendqisi2
 2372 002c 022B     		cmp	r3, #2
 2373 002e 07D1     		bne	.L454
 2374 0030 FFF7FEFF 		bl	HAL_DMA_Abort
 2375 0034 0446     		mov	r4, r0
 2376 0036 18B1     		cbz	r0, .L454
 2377 0038 6B6D     		ldr	r3, [r5, #84]
 2378 003a 43F04003 		orr	r3, r3, #64
 2379 003e 6B65     		str	r3, [r5, #84]
 2380              	.L454:
 2381 0040 2A68     		ldr	r2, [r5]
 2382 0042 5368     		ldr	r3, [r2, #4]
 2383 0044 23F01003 		bic	r3, r3, #16
 2384 0048 5360     		str	r3, [r2, #4]
 2385 004a 2846     		mov	r0, r5
 2386 004c 44B9     		cbnz	r4, .L455
 2387 004e FFF7FEFF 		bl	ADC_Disable
 2388 0052 0446     		mov	r4, r0
 2389 0054 38B1     		cbz	r0, .L456
 2390              	.L453:
 2391 0056 0023     		movs	r3, #0
 2392 0058 85F85030 		strb	r3, [r5, #80]
 2393              	.L452:
 2394 005c 2046     		mov	r0, r4
 2395 005e 38BD     		pop	{r3, r4, r5, pc}
 2396              	.L455:
 2397 0060 FFF7FEFF 		bl	ADC_Disable
 2398 0064 F7E7     		b	.L453
ARM GAS  C:\Users\CL\AppData\Local\Temp\ccyBuYSY.s 			page 42


 2399              	.L456:
 2400 0066 6B6D     		ldr	r3, [r5, #84]
 2401 0068 23F48853 		bic	r3, r3, #4352
 2402 006c 23F00103 		bic	r3, r3, #1
 2403 0070 43F00103 		orr	r3, r3, #1
 2404 0074 6B65     		str	r3, [r5, #84]
 2405 0076 EEE7     		b	.L453
 2406              	.L457:
 2407 0078 0224     		movs	r4, #2
 2408 007a EFE7     		b	.L452
 2410              		.ident	"GCC: (GNU Arm Embedded Toolchain 10.3-2021.10) 10.3.1 20210824 (release)"
ARM GAS  C:\Users\CL\AppData\Local\Temp\ccyBuYSY.s 			page 43

