ARM GAS  C:\Users\CL\AppData\Local\Temp\ccYI0ruj.s 			page 1


   1              		.cpu cortex-m4
   2              		.arch armv7e-m
   3              		.fpu fpv4-sp-d16
   4              		.eabi_attribute 27, 1
   5              		.eabi_attribute 28, 1
   6              		.eabi_attribute 20, 1
   7              		.eabi_attribute 21, 1
   8              		.eabi_attribute 23, 3
   9              		.eabi_attribute 24, 1
  10              		.eabi_attribute 25, 1
  11              		.eabi_attribute 26, 1
  12              		.eabi_attribute 30, 4
  13              		.eabi_attribute 34, 1
  14              		.eabi_attribute 18, 4
  15              		.file	"stm32l4xx_hal_i2c_ex.c"
  16              		.text
  17              		.section	.text.HAL_I2CEx_ConfigAnalogFilter,"ax",%progbits
  18              		.align	1
  19              		.global	HAL_I2CEx_ConfigAnalogFilter
  20              		.syntax unified
  21              		.thumb
  22              		.thumb_func
  24              	HAL_I2CEx_ConfigAnalogFilter:
  25              		@ args = 0, pretend = 0, frame = 0
  26              		@ frame_needed = 0, uses_anonymous_args = 0
  27 0000 10B5     		push	{r4, lr}
  28 0002 90F84130 		ldrb	r3, [r0, #65]	@ zero_extendqisi2
  29 0006 202B     		cmp	r3, #32
  30 0008 DCB2     		uxtb	r4, r3
  31 000a 1DD1     		bne	.L4
  32 000c 90F84030 		ldrb	r3, [r0, #64]	@ zero_extendqisi2
  33 0010 012B     		cmp	r3, #1
  34 0012 19D0     		beq	.L4
  35 0014 2423     		movs	r3, #36
  36 0016 80F84130 		strb	r3, [r0, #65]
  37 001a 0368     		ldr	r3, [r0]
  38 001c 1A68     		ldr	r2, [r3]
  39 001e 22F00102 		bic	r2, r2, #1
  40 0022 1A60     		str	r2, [r3]
  41 0024 1A68     		ldr	r2, [r3]
  42 0026 22F48052 		bic	r2, r2, #4096
  43 002a 1A60     		str	r2, [r3]
  44 002c 1A68     		ldr	r2, [r3]
  45 002e 1143     		orrs	r1, r1, r2
  46 0030 1960     		str	r1, [r3]
  47 0032 1A68     		ldr	r2, [r3]
  48 0034 42F00102 		orr	r2, r2, #1
  49 0038 1A60     		str	r2, [r3]
  50 003a 0023     		movs	r3, #0
  51 003c 80F84140 		strb	r4, [r0, #65]
  52 0040 80F84030 		strb	r3, [r0, #64]
  53 0044 1846     		mov	r0, r3
  54              	.L2:
  55 0046 10BD     		pop	{r4, pc}
  56              	.L4:
  57 0048 0220     		movs	r0, #2
  58 004a FCE7     		b	.L2
ARM GAS  C:\Users\CL\AppData\Local\Temp\ccYI0ruj.s 			page 2


  60              		.section	.text.HAL_I2CEx_ConfigDigitalFilter,"ax",%progbits
  61              		.align	1
  62              		.global	HAL_I2CEx_ConfigDigitalFilter
  63              		.syntax unified
  64              		.thumb
  65              		.thumb_func
  67              	HAL_I2CEx_ConfigDigitalFilter:
  68              		@ args = 0, pretend = 0, frame = 0
  69              		@ frame_needed = 0, uses_anonymous_args = 0
  70 0000 10B5     		push	{r4, lr}
  71 0002 90F84130 		ldrb	r3, [r0, #65]	@ zero_extendqisi2
  72 0006 202B     		cmp	r3, #32
  73 0008 DCB2     		uxtb	r4, r3
  74 000a 1CD1     		bne	.L8
  75 000c 90F84030 		ldrb	r3, [r0, #64]	@ zero_extendqisi2
  76 0010 012B     		cmp	r3, #1
  77 0012 18D0     		beq	.L8
  78 0014 2423     		movs	r3, #36
  79 0016 80F84130 		strb	r3, [r0, #65]
  80 001a 0368     		ldr	r3, [r0]
  81 001c 1A68     		ldr	r2, [r3]
  82 001e 22F00102 		bic	r2, r2, #1
  83 0022 1A60     		str	r2, [r3]
  84 0024 1A68     		ldr	r2, [r3]
  85 0026 22F47062 		bic	r2, r2, #3840
  86 002a 42EA0121 		orr	r1, r2, r1, lsl #8
  87 002e 1960     		str	r1, [r3]
  88 0030 1A68     		ldr	r2, [r3]
  89 0032 42F00102 		orr	r2, r2, #1
  90 0036 1A60     		str	r2, [r3]
  91 0038 0023     		movs	r3, #0
  92 003a 80F84140 		strb	r4, [r0, #65]
  93 003e 80F84030 		strb	r3, [r0, #64]
  94 0042 1846     		mov	r0, r3
  95              	.L6:
  96 0044 10BD     		pop	{r4, pc}
  97              	.L8:
  98 0046 0220     		movs	r0, #2
  99 0048 FCE7     		b	.L6
 101              		.section	.text.HAL_I2CEx_EnableWakeUp,"ax",%progbits
 102              		.align	1
 103              		.global	HAL_I2CEx_EnableWakeUp
 104              		.syntax unified
 105              		.thumb
 106              		.thumb_func
 108              	HAL_I2CEx_EnableWakeUp:
 109              		@ args = 0, pretend = 0, frame = 0
 110              		@ frame_needed = 0, uses_anonymous_args = 0
 111              		@ link register save eliminated.
 112 0000 90F84130 		ldrb	r3, [r0, #65]	@ zero_extendqisi2
 113 0004 202B     		cmp	r3, #32
 114 0006 D9B2     		uxtb	r1, r3
 115 0008 1AD1     		bne	.L12
 116 000a 90F84030 		ldrb	r3, [r0, #64]	@ zero_extendqisi2
 117 000e 012B     		cmp	r3, #1
 118 0010 16D0     		beq	.L12
 119 0012 2423     		movs	r3, #36
ARM GAS  C:\Users\CL\AppData\Local\Temp\ccYI0ruj.s 			page 3


 120 0014 80F84130 		strb	r3, [r0, #65]
 121 0018 0368     		ldr	r3, [r0]
 122 001a 1A68     		ldr	r2, [r3]
 123 001c 22F00102 		bic	r2, r2, #1
 124 0020 1A60     		str	r2, [r3]
 125 0022 1A68     		ldr	r2, [r3]
 126 0024 42F48022 		orr	r2, r2, #262144
 127 0028 1A60     		str	r2, [r3]
 128 002a 1A68     		ldr	r2, [r3]
 129 002c 42F00102 		orr	r2, r2, #1
 130 0030 1A60     		str	r2, [r3]
 131 0032 0023     		movs	r3, #0
 132 0034 80F84110 		strb	r1, [r0, #65]
 133 0038 80F84030 		strb	r3, [r0, #64]
 134 003c 1846     		mov	r0, r3
 135 003e 7047     		bx	lr
 136              	.L12:
 137 0040 0220     		movs	r0, #2
 138 0042 7047     		bx	lr
 140              		.section	.text.HAL_I2CEx_DisableWakeUp,"ax",%progbits
 141              		.align	1
 142              		.global	HAL_I2CEx_DisableWakeUp
 143              		.syntax unified
 144              		.thumb
 145              		.thumb_func
 147              	HAL_I2CEx_DisableWakeUp:
 148              		@ args = 0, pretend = 0, frame = 0
 149              		@ frame_needed = 0, uses_anonymous_args = 0
 150              		@ link register save eliminated.
 151 0000 90F84130 		ldrb	r3, [r0, #65]	@ zero_extendqisi2
 152 0004 202B     		cmp	r3, #32
 153 0006 D9B2     		uxtb	r1, r3
 154 0008 1AD1     		bne	.L16
 155 000a 90F84030 		ldrb	r3, [r0, #64]	@ zero_extendqisi2
 156 000e 012B     		cmp	r3, #1
 157 0010 16D0     		beq	.L16
 158 0012 2423     		movs	r3, #36
 159 0014 80F84130 		strb	r3, [r0, #65]
 160 0018 0368     		ldr	r3, [r0]
 161 001a 1A68     		ldr	r2, [r3]
 162 001c 22F00102 		bic	r2, r2, #1
 163 0020 1A60     		str	r2, [r3]
 164 0022 1A68     		ldr	r2, [r3]
 165 0024 22F48022 		bic	r2, r2, #262144
 166 0028 1A60     		str	r2, [r3]
 167 002a 1A68     		ldr	r2, [r3]
 168 002c 42F00102 		orr	r2, r2, #1
 169 0030 1A60     		str	r2, [r3]
 170 0032 0023     		movs	r3, #0
 171 0034 80F84110 		strb	r1, [r0, #65]
 172 0038 80F84030 		strb	r3, [r0, #64]
 173 003c 1846     		mov	r0, r3
 174 003e 7047     		bx	lr
 175              	.L16:
 176 0040 0220     		movs	r0, #2
 177 0042 7047     		bx	lr
 179              		.section	.text.HAL_I2CEx_EnableFastModePlus,"ax",%progbits
ARM GAS  C:\Users\CL\AppData\Local\Temp\ccYI0ruj.s 			page 4


 180              		.align	1
 181              		.global	HAL_I2CEx_EnableFastModePlus
 182              		.syntax unified
 183              		.thumb
 184              		.thumb_func
 186              	HAL_I2CEx_EnableFastModePlus:
 187              		@ args = 0, pretend = 0, frame = 8
 188              		@ frame_needed = 0, uses_anonymous_args = 0
 189              		@ link register save eliminated.
 190 0000 084A     		ldr	r2, .L18
 191 0002 116E     		ldr	r1, [r2, #96]
 192 0004 41F00101 		orr	r1, r1, #1
 193 0008 1166     		str	r1, [r2, #96]
 194 000a 126E     		ldr	r2, [r2, #96]
 195 000c 82B0     		sub	sp, sp, #8
 196 000e 02F00102 		and	r2, r2, #1
 197 0012 0192     		str	r2, [sp, #4]
 198 0014 044A     		ldr	r2, .L18+4
 199 0016 019B     		ldr	r3, [sp, #4]
 200 0018 5368     		ldr	r3, [r2, #4]
 201 001a 1843     		orrs	r0, r0, r3
 202 001c 5060     		str	r0, [r2, #4]
 203 001e 02B0     		add	sp, sp, #8
 204              		@ sp needed
 205 0020 7047     		bx	lr
 206              	.L19:
 207 0022 00BF     		.align	2
 208              	.L18:
 209 0024 00100240 		.word	1073876992
 210 0028 00000140 		.word	1073807360
 212              		.section	.text.HAL_I2CEx_DisableFastModePlus,"ax",%progbits
 213              		.align	1
 214              		.global	HAL_I2CEx_DisableFastModePlus
 215              		.syntax unified
 216              		.thumb
 217              		.thumb_func
 219              	HAL_I2CEx_DisableFastModePlus:
 220              		@ args = 0, pretend = 0, frame = 8
 221              		@ frame_needed = 0, uses_anonymous_args = 0
 222              		@ link register save eliminated.
 223 0000 084A     		ldr	r2, .L21
 224 0002 116E     		ldr	r1, [r2, #96]
 225 0004 41F00101 		orr	r1, r1, #1
 226 0008 1166     		str	r1, [r2, #96]
 227 000a 126E     		ldr	r2, [r2, #96]
 228 000c 82B0     		sub	sp, sp, #8
 229 000e 02F00102 		and	r2, r2, #1
 230 0012 0192     		str	r2, [sp, #4]
 231 0014 044A     		ldr	r2, .L21+4
 232 0016 019B     		ldr	r3, [sp, #4]
 233 0018 5368     		ldr	r3, [r2, #4]
 234 001a 23EA0000 		bic	r0, r3, r0
 235 001e 5060     		str	r0, [r2, #4]
 236 0020 02B0     		add	sp, sp, #8
 237              		@ sp needed
 238 0022 7047     		bx	lr
 239              	.L22:
ARM GAS  C:\Users\CL\AppData\Local\Temp\ccYI0ruj.s 			page 5


 240              		.align	2
 241              	.L21:
 242 0024 00100240 		.word	1073876992
 243 0028 00000140 		.word	1073807360
 245              		.ident	"GCC: (GNU Arm Embedded Toolchain 10.3-2021.10) 10.3.1 20210824 (release)"
ARM GAS  C:\Users\CL\AppData\Local\Temp\ccYI0ruj.s 			page 6


DEFINED SYMBOLS
                            *ABS*:00000000 stm32l4xx_hal_i2c_ex.c
C:\Users\CL\AppData\Local\Temp\ccYI0ruj.s:18     .text.HAL_I2CEx_ConfigAnalogFilter:00000000 $t
C:\Users\CL\AppData\Local\Temp\ccYI0ruj.s:24     .text.HAL_I2CEx_ConfigAnalogFilter:00000000 HAL_I2CEx_ConfigAnalogFilter
C:\Users\CL\AppData\Local\Temp\ccYI0ruj.s:61     .text.HAL_I2CEx_ConfigDigitalFilter:00000000 $t
C:\Users\CL\AppData\Local\Temp\ccYI0ruj.s:67     .text.HAL_I2CEx_ConfigDigitalFilter:00000000 HAL_I2CEx_ConfigDigitalFilter
C:\Users\CL\AppData\Local\Temp\ccYI0ruj.s:102    .text.HAL_I2CEx_EnableWakeUp:00000000 $t
C:\Users\CL\AppData\Local\Temp\ccYI0ruj.s:108    .text.HAL_I2CEx_EnableWakeUp:00000000 HAL_I2CEx_EnableWakeUp
C:\Users\CL\AppData\Local\Temp\ccYI0ruj.s:141    .text.HAL_I2CEx_DisableWakeUp:00000000 $t
C:\Users\CL\AppData\Local\Temp\ccYI0ruj.s:147    .text.HAL_I2CEx_DisableWakeUp:00000000 HAL_I2CEx_DisableWakeUp
C:\Users\CL\AppData\Local\Temp\ccYI0ruj.s:180    .text.HAL_I2CEx_EnableFastModePlus:00000000 $t
C:\Users\CL\AppData\Local\Temp\ccYI0ruj.s:186    .text.HAL_I2CEx_EnableFastModePlus:00000000 HAL_I2CEx_EnableFastModePlus
C:\Users\CL\AppData\Local\Temp\ccYI0ruj.s:209    .text.HAL_I2CEx_EnableFastModePlus:00000024 $d
C:\Users\CL\AppData\Local\Temp\ccYI0ruj.s:213    .text.HAL_I2CEx_DisableFastModePlus:00000000 $t
C:\Users\CL\AppData\Local\Temp\ccYI0ruj.s:219    .text.HAL_I2CEx_DisableFastModePlus:00000000 HAL_I2CEx_DisableFastModePlus
C:\Users\CL\AppData\Local\Temp\ccYI0ruj.s:242    .text.HAL_I2CEx_DisableFastModePlus:00000024 $d

NO UNDEFINED SYMBOLS
