ARM GAS  C:\Users\CL\AppData\Local\Temp\cccEtuyk.s 			page 1


   1              		.cpu cortex-m4
   2              		.arch armv7e-m
   3              		.fpu fpv4-sp-d16
   4              		.eabi_attribute 27, 1
   5              		.eabi_attribute 28, 1
   6              		.eabi_attribute 20, 1
   7              		.eabi_attribute 21, 1
   8              		.eabi_attribute 23, 3
   9              		.eabi_attribute 24, 1
  10              		.eabi_attribute 25, 1
  11              		.eabi_attribute 26, 1
  12              		.eabi_attribute 30, 4
  13              		.eabi_attribute 34, 1
  14              		.eabi_attribute 18, 4
  15              		.file	"stm32l4xx_hal_rcc_ex.c"
  16              		.text
  17              		.section	.text.RCCEx_PLLSAI1_Config,"ax",%progbits
  18              		.align	1
  19              		.syntax unified
  20              		.thumb
  21              		.thumb_func
  23              	RCCEx_PLLSAI1_Config:
  24              		@ args = 0, pretend = 0, frame = 0
  25              		@ frame_needed = 0, uses_anonymous_args = 0
  26 0000 F8B5     		push	{r3, r4, r5, r6, r7, lr}
  27 0002 434C     		ldr	r4, .L33
  28 0004 0368     		ldr	r3, [r0]
  29 0006 E268     		ldr	r2, [r4, #12]
  30 0008 0546     		mov	r5, r0
  31 000a 9007     		lsls	r0, r2, #30
  32 000c 0E46     		mov	r6, r1
  33 000e 39D0     		beq	.L2
  34 0010 E268     		ldr	r2, [r4, #12]
  35 0012 02F00302 		and	r2, r2, #3
  36 0016 9A42     		cmp	r2, r3
  37 0018 77D1     		bne	.L25
  38 001a 002A     		cmp	r2, #0
  39 001c 75D0     		beq	.L25
  40 001e E368     		ldr	r3, [r4, #12]
  41 0020 6A68     		ldr	r2, [r5, #4]
  42 0022 C3F30213 		ubfx	r3, r3, #4, #3
  43 0026 0133     		adds	r3, r3, #1
  44 0028 9342     		cmp	r3, r2
  45 002a 6ED1     		bne	.L25
  46              	.L4:
  47 002c 2368     		ldr	r3, [r4]
  48 002e 23F08063 		bic	r3, r3, #67108864
  49 0032 2360     		str	r3, [r4]
  50 0034 FFF7FEFF 		bl	HAL_GetTick
  51 0038 0746     		mov	r7, r0
  52              	.L8:
  53 003a 2368     		ldr	r3, [r4]
  54 003c 1A01     		lsls	r2, r3, #4
  55 003e 40D4     		bmi	.L9
  56 0040 AB68     		ldr	r3, [r5, #8]
  57 0042 1802     		lsls	r0, r3, #8
  58 0044 002E     		cmp	r6, #0
ARM GAS  C:\Users\CL\AppData\Local\Temp\cccEtuyk.s 			page 2


  59 0046 43D0     		beq	.L17
  60 0048 012E     		cmp	r6, #1
  61 004a 4CD1     		bne	.L12
  62 004c 2A69     		ldr	r2, [r5, #16]
  63 004e 2169     		ldr	r1, [r4, #16]
  64 0050 5208     		lsrs	r2, r2, #1
  65 0052 531E     		subs	r3, r2, #1
  66 0054 21F4C002 		bic	r2, r1, #6291456
  67 0058 22F4FE42 		bic	r2, r2, #32512
  68 005c 0243     		orrs	r2, r2, r0
  69 005e 42EA4352 		orr	r2, r2, r3, lsl #21
  70 0062 2261     		str	r2, [r4, #16]
  71              	.L11:
  72 0064 2368     		ldr	r3, [r4]
  73 0066 43F08063 		orr	r3, r3, #67108864
  74 006a 2360     		str	r3, [r4]
  75 006c FFF7FEFF 		bl	HAL_GetTick
  76 0070 0646     		mov	r6, r0
  77              	.L13:
  78 0072 2368     		ldr	r3, [r4]
  79 0074 1B01     		lsls	r3, r3, #4
  80 0076 42D5     		bpl	.L15
  81 0078 2369     		ldr	r3, [r4, #16]
  82 007a AA69     		ldr	r2, [r5, #24]
  83 007c 1343     		orrs	r3, r3, r2
  84 007e 2361     		str	r3, [r4, #16]
  85 0080 0020     		movs	r0, #0
  86 0082 24E0     		b	.L27
  87              	.L2:
  88 0084 022B     		cmp	r3, #2
  89 0086 11D0     		beq	.L5
  90 0088 032B     		cmp	r3, #3
  91 008a 13D0     		beq	.L6
  92 008c 012B     		cmp	r3, #1
  93 008e 3CD1     		bne	.L25
  94 0090 2268     		ldr	r2, [r4]
  95 0092 12F0020F 		tst	r2, #2
  96              	.L32:
  97 0096 38D0     		beq	.L25
  98              	.L7:
  99 0098 E068     		ldr	r0, [r4, #12]
 100 009a 6A68     		ldr	r2, [r5, #4]
 101 009c 20F07300 		bic	r0, r0, #115
 102 00a0 013A     		subs	r2, r2, #1
 103 00a2 1843     		orrs	r0, r0, r3
 104 00a4 40EA0210 		orr	r0, r0, r2, lsl #4
 105 00a8 E060     		str	r0, [r4, #12]
 106 00aa BFE7     		b	.L4
 107              	.L5:
 108 00ac 2268     		ldr	r2, [r4]
 109 00ae 12F4806F 		tst	r2, #1024
 110 00b2 F0E7     		b	.L32
 111              	.L6:
 112 00b4 2268     		ldr	r2, [r4]
 113 00b6 9103     		lsls	r1, r2, #14
 114 00b8 EED4     		bmi	.L7
 115 00ba 2268     		ldr	r2, [r4]
ARM GAS  C:\Users\CL\AppData\Local\Temp\cccEtuyk.s 			page 3


 116 00bc 12F4802F 		tst	r2, #262144
 117 00c0 E9E7     		b	.L32
 118              	.L9:
 119 00c2 FFF7FEFF 		bl	HAL_GetTick
 120 00c6 C01B     		subs	r0, r0, r7
 121 00c8 0228     		cmp	r0, #2
 122 00ca B6D9     		bls	.L8
 123              	.L14:
 124 00cc 0320     		movs	r0, #3
 125              	.L27:
 126 00ce F8BD     		pop	{r3, r4, r5, r6, r7, pc}
 127              	.L17:
 128 00d0 2269     		ldr	r2, [r4, #16]
 129 00d2 EB68     		ldr	r3, [r5, #12]
 130 00d4 40EAC363 		orr	r3, r0, r3, lsl #27
 131 00d8 22F07840 		bic	r0, r2, #-134217728
 132 00dc 20F4FE40 		bic	r0, r0, #32512
 133 00e0 0343     		orrs	r3, r3, r0
 134              	.L31:
 135 00e2 2361     		str	r3, [r4, #16]
 136 00e4 BEE7     		b	.L11
 137              	.L12:
 138 00e6 6B69     		ldr	r3, [r5, #20]
 139 00e8 2269     		ldr	r2, [r4, #16]
 140 00ea 5B08     		lsrs	r3, r3, #1
 141 00ec 591E     		subs	r1, r3, #1
 142 00ee 22F0C063 		bic	r3, r2, #100663296
 143 00f2 23F4FE43 		bic	r3, r3, #32512
 144 00f6 0343     		orrs	r3, r3, r0
 145 00f8 43EA4163 		orr	r3, r3, r1, lsl #25
 146 00fc F1E7     		b	.L31
 147              	.L15:
 148 00fe FFF7FEFF 		bl	HAL_GetTick
 149 0102 801B     		subs	r0, r0, r6
 150 0104 0228     		cmp	r0, #2
 151 0106 B4D9     		bls	.L13
 152 0108 E0E7     		b	.L14
 153              	.L25:
 154 010a 0120     		movs	r0, #1
 155 010c DFE7     		b	.L27
 156              	.L34:
 157 010e 00BF     		.align	2
 158              	.L33:
 159 0110 00100240 		.word	1073876992
 161              		.section	.text.HAL_RCCEx_PeriphCLKConfig,"ax",%progbits
 162              		.align	1
 163              		.global	HAL_RCCEx_PeriphCLKConfig
 164              		.syntax unified
 165              		.thumb
 166              		.thumb_func
 168              	HAL_RCCEx_PeriphCLKConfig:
 169              		@ args = 0, pretend = 0, frame = 8
 170              		@ frame_needed = 0, uses_anonymous_args = 0
 171 0000 2DE9F743 		push	{r0, r1, r2, r4, r5, r6, r7, r8, r9, lr}
 172 0004 0568     		ldr	r5, [r0]
 173 0006 15F40065 		ands	r5, r5, #2048
 174 000a 0446     		mov	r4, r0
ARM GAS  C:\Users\CL\AppData\Local\Temp\cccEtuyk.s 			page 4


 175 000c 09D0     		beq	.L36
 176 000e 416C     		ldr	r1, [r0, #68]
 177 0010 B1F5000F 		cmp	r1, #8388608
 178 0014 35D0     		beq	.L37
 179 0016 B1F5400F 		cmp	r1, #12582912
 180 001a 37D0     		beq	.L38
 181 001c 0029     		cmp	r1, #0
 182 001e 40D0     		beq	.L39
 183 0020 0125     		movs	r5, #1
 184              	.L36:
 185 0022 2368     		ldr	r3, [r4]
 186 0024 9803     		lsls	r0, r3, #14
 187 0026 51D5     		bpl	.L40
 188 0028 A04E     		ldr	r6, .L122
 189 002a B36D     		ldr	r3, [r6, #88]
 190 002c D900     		lsls	r1, r3, #3
 191 002e 3FD4     		bmi	.L66
 192 0030 B36D     		ldr	r3, [r6, #88]
 193 0032 43F08053 		orr	r3, r3, #268435456
 194 0036 B365     		str	r3, [r6, #88]
 195 0038 B36D     		ldr	r3, [r6, #88]
 196 003a 03F08053 		and	r3, r3, #268435456
 197 003e 0193     		str	r3, [sp, #4]
 198 0040 019B     		ldr	r3, [sp, #4]
 199 0042 0127     		movs	r7, #1
 200              	.L41:
 201 0044 DFF86882 		ldr	r8, .L122+4
 202 0048 D8F80030 		ldr	r3, [r8]
 203 004c 43F48073 		orr	r3, r3, #256
 204 0050 C8F80030 		str	r3, [r8]
 205 0054 FFF7FEFF 		bl	HAL_GetTick
 206 0058 8146     		mov	r9, r0
 207              	.L42:
 208 005a D8F80030 		ldr	r3, [r8]
 209 005e DA05     		lsls	r2, r3, #23
 210 0060 28D5     		bpl	.L44
 211 0062 75BB     		cbnz	r5, .L43
 212 0064 D6F89030 		ldr	r3, [r6, #144]
 213 0068 13F44073 		ands	r3, r3, #768
 214 006c 40F0DD80 		bne	.L45
 215              	.L46:
 216 0070 D6F89030 		ldr	r3, [r6, #144]
 217 0074 A26D     		ldr	r2, [r4, #88]
 218 0076 23F44073 		bic	r3, r3, #768
 219 007a 1343     		orrs	r3, r3, r2
 220 007c C6F89030 		str	r3, [r6, #144]
 221 0080 1FE0     		b	.L43
 222              	.L37:
 223 0082 8A4A     		ldr	r2, .L122
 224 0084 D368     		ldr	r3, [r2, #12]
 225 0086 43F48033 		orr	r3, r3, #65536
 226 008a D360     		str	r3, [r2, #12]
 227              	.L38:
 228 008c 874A     		ldr	r2, .L122
 229 008e 616C     		ldr	r1, [r4, #68]
 230 0090 D2F88830 		ldr	r3, [r2, #136]
 231 0094 23F44003 		bic	r3, r3, #12582912
ARM GAS  C:\Users\CL\AppData\Local\Temp\cccEtuyk.s 			page 5


 232 0098 0B43     		orrs	r3, r3, r1
 233 009a C2F88830 		str	r3, [r2, #136]
 234 009e 0025     		movs	r5, #0
 235 00a0 BFE7     		b	.L36
 236              	.L39:
 237 00a2 0430     		adds	r0, r0, #4
 238 00a4 FFF7FEFF 		bl	RCCEx_PLLSAI1_Config
 239 00a8 0546     		mov	r5, r0
 240 00aa 0028     		cmp	r0, #0
 241 00ac B9D1     		bne	.L36
 242 00ae EDE7     		b	.L38
 243              	.L66:
 244 00b0 0027     		movs	r7, #0
 245 00b2 C7E7     		b	.L41
 246              	.L44:
 247 00b4 FFF7FEFF 		bl	HAL_GetTick
 248 00b8 A0EB0900 		sub	r0, r0, r9
 249 00bc 0228     		cmp	r0, #2
 250 00be CCD9     		bls	.L42
 251              	.L48:
 252 00c0 0325     		movs	r5, #3
 253              	.L43:
 254 00c2 1FB1     		cbz	r7, .L40
 255 00c4 B36D     		ldr	r3, [r6, #88]
 256 00c6 23F08053 		bic	r3, r3, #268435456
 257 00ca B365     		str	r3, [r6, #88]
 258              	.L40:
 259 00cc 2368     		ldr	r3, [r4]
 260 00ce D907     		lsls	r1, r3, #31
 261 00d0 08D5     		bpl	.L50
 262 00d2 7649     		ldr	r1, .L122
 263 00d4 206A     		ldr	r0, [r4, #32]
 264 00d6 D1F88820 		ldr	r2, [r1, #136]
 265 00da 22F00302 		bic	r2, r2, #3
 266 00de 0243     		orrs	r2, r2, r0
 267 00e0 C1F88820 		str	r2, [r1, #136]
 268              	.L50:
 269 00e4 9A07     		lsls	r2, r3, #30
 270 00e6 08D5     		bpl	.L51
 271 00e8 7049     		ldr	r1, .L122
 272 00ea 606A     		ldr	r0, [r4, #36]
 273 00ec D1F88820 		ldr	r2, [r1, #136]
 274 00f0 22F00C02 		bic	r2, r2, #12
 275 00f4 0243     		orrs	r2, r2, r0
 276 00f6 C1F88820 		str	r2, [r1, #136]
 277              	.L51:
 278 00fa 5F07     		lsls	r7, r3, #29
 279 00fc 08D5     		bpl	.L52
 280 00fe 6B49     		ldr	r1, .L122
 281 0100 A06A     		ldr	r0, [r4, #40]
 282 0102 D1F88820 		ldr	r2, [r1, #136]
 283 0106 22F03002 		bic	r2, r2, #48
 284 010a 0243     		orrs	r2, r2, r0
 285 010c C1F88820 		str	r2, [r1, #136]
 286              	.L52:
 287 0110 9E06     		lsls	r6, r3, #26
 288 0112 08D5     		bpl	.L53
ARM GAS  C:\Users\CL\AppData\Local\Temp\cccEtuyk.s 			page 6


 289 0114 6549     		ldr	r1, .L122
 290 0116 E06A     		ldr	r0, [r4, #44]
 291 0118 D1F88820 		ldr	r2, [r1, #136]
 292 011c 22F44062 		bic	r2, r2, #3072
 293 0120 0243     		orrs	r2, r2, r0
 294 0122 C1F88820 		str	r2, [r1, #136]
 295              	.L53:
 296 0126 9805     		lsls	r0, r3, #22
 297 0128 08D5     		bpl	.L54
 298 012a 6049     		ldr	r1, .L122
 299 012c E06B     		ldr	r0, [r4, #60]
 300 012e D1F88820 		ldr	r2, [r1, #136]
 301 0132 22F44022 		bic	r2, r2, #786432
 302 0136 0243     		orrs	r2, r2, r0
 303 0138 C1F88820 		str	r2, [r1, #136]
 304              	.L54:
 305 013c 5905     		lsls	r1, r3, #21
 306 013e 08D5     		bpl	.L55
 307 0140 5A49     		ldr	r1, .L122
 308 0142 206C     		ldr	r0, [r4, #64]
 309 0144 D1F88820 		ldr	r2, [r1, #136]
 310 0148 22F44012 		bic	r2, r2, #3145728
 311 014c 0243     		orrs	r2, r2, r0
 312 014e C1F88820 		str	r2, [r1, #136]
 313              	.L55:
 314 0152 5A06     		lsls	r2, r3, #25
 315 0154 08D5     		bpl	.L56
 316 0156 5549     		ldr	r1, .L122
 317 0158 206B     		ldr	r0, [r4, #48]
 318 015a D1F88820 		ldr	r2, [r1, #136]
 319 015e 22F44052 		bic	r2, r2, #12288
 320 0162 0243     		orrs	r2, r2, r0
 321 0164 C1F88820 		str	r2, [r1, #136]
 322              	.L56:
 323 0168 1F06     		lsls	r7, r3, #24
 324 016a 08D5     		bpl	.L57
 325 016c 4F49     		ldr	r1, .L122
 326 016e 606B     		ldr	r0, [r4, #52]
 327 0170 D1F88820 		ldr	r2, [r1, #136]
 328 0174 22F44042 		bic	r2, r2, #49152
 329 0178 0243     		orrs	r2, r2, r0
 330 017a C1F88820 		str	r2, [r1, #136]
 331              	.L57:
 332 017e DE05     		lsls	r6, r3, #23
 333 0180 08D5     		bpl	.L58
 334 0182 4A49     		ldr	r1, .L122
 335 0184 A06B     		ldr	r0, [r4, #56]
 336 0186 D1F88820 		ldr	r2, [r1, #136]
 337 018a 22F44032 		bic	r2, r2, #196608
 338 018e 0243     		orrs	r2, r2, r0
 339 0190 C1F88820 		str	r2, [r1, #136]
 340              	.L58:
 341 0194 1803     		lsls	r0, r3, #12
 342 0196 0FD5     		bpl	.L59
 343 0198 444A     		ldr	r2, .L122
 344 019a A16C     		ldr	r1, [r4, #72]
 345 019c D2F88830 		ldr	r3, [r2, #136]
ARM GAS  C:\Users\CL\AppData\Local\Temp\cccEtuyk.s 			page 7


 346 01a0 23F04063 		bic	r3, r3, #201326592
 347 01a4 0B43     		orrs	r3, r3, r1
 348 01a6 B1F1006F 		cmp	r1, #134217728
 349 01aa C2F88830 		str	r3, [r2, #136]
 350 01ae 66D1     		bne	.L60
 351 01b0 D368     		ldr	r3, [r2, #12]
 352 01b2 43F48013 		orr	r3, r3, #1048576
 353 01b6 D360     		str	r3, [r2, #12]
 354              	.L59:
 355 01b8 2368     		ldr	r3, [r4]
 356 01ba 5903     		lsls	r1, r3, #13
 357 01bc 0FD5     		bpl	.L61
 358 01be 3B4A     		ldr	r2, .L122
 359 01c0 E16C     		ldr	r1, [r4, #76]
 360 01c2 D2F88830 		ldr	r3, [r2, #136]
 361 01c6 23F04063 		bic	r3, r3, #201326592
 362 01ca 0B43     		orrs	r3, r3, r1
 363 01cc B1F1006F 		cmp	r1, #134217728
 364 01d0 C2F88830 		str	r3, [r2, #136]
 365 01d4 5ED1     		bne	.L62
 366 01d6 D368     		ldr	r3, [r2, #12]
 367 01d8 43F48013 		orr	r3, r3, #1048576
 368 01dc D360     		str	r3, [r2, #12]
 369              	.L61:
 370 01de 2368     		ldr	r3, [r4]
 371 01e0 5A04     		lsls	r2, r3, #17
 372 01e2 12D5     		bpl	.L63
 373 01e4 3149     		ldr	r1, .L122
 374 01e6 226D     		ldr	r2, [r4, #80]
 375 01e8 D1F88830 		ldr	r3, [r1, #136]
 376 01ec 23F04053 		bic	r3, r3, #805306368
 377 01f0 1343     		orrs	r3, r3, r2
 378 01f2 B2F1805F 		cmp	r2, #268435456
 379 01f6 C1F88830 		str	r3, [r1, #136]
 380 01fa 06D1     		bne	.L63
 381 01fc 0221     		movs	r1, #2
 382 01fe 201D     		adds	r0, r4, #4
 383 0200 FFF7FEFF 		bl	RCCEx_PLLSAI1_Config
 384 0204 0028     		cmp	r0, #0
 385 0206 18BF     		it	ne
 386 0208 0546     		movne	r5, r0
 387              	.L63:
 388 020a 2368     		ldr	r3, [r4]
 389 020c 1B04     		lsls	r3, r3, #16
 390 020e 08D5     		bpl	.L64
 391 0210 264A     		ldr	r2, .L122
 392 0212 616D     		ldr	r1, [r4, #84]
 393 0214 D2F88830 		ldr	r3, [r2, #136]
 394 0218 23F08043 		bic	r3, r3, #1073741824
 395 021c 0B43     		orrs	r3, r3, r1
 396 021e C2F88830 		str	r3, [r2, #136]
 397              	.L64:
 398 0222 2846     		mov	r0, r5
 399 0224 03B0     		add	sp, sp, #12
 400              		@ sp needed
 401 0226 BDE8F083 		pop	{r4, r5, r6, r7, r8, r9, pc}
 402              	.L45:
ARM GAS  C:\Users\CL\AppData\Local\Temp\cccEtuyk.s 			page 8


 403 022a A26D     		ldr	r2, [r4, #88]
 404 022c 9342     		cmp	r3, r2
 405 022e 3FF41FAF 		beq	.L46
 406 0232 D6F89020 		ldr	r2, [r6, #144]
 407 0236 D6F89030 		ldr	r3, [r6, #144]
 408 023a 43F48033 		orr	r3, r3, #65536
 409 023e C6F89030 		str	r3, [r6, #144]
 410 0242 D6F89030 		ldr	r3, [r6, #144]
 411 0246 23F48033 		bic	r3, r3, #65536
 412 024a C6F89030 		str	r3, [r6, #144]
 413 024e 22F44071 		bic	r1, r2, #768
 414 0252 D307     		lsls	r3, r2, #31
 415 0254 C6F89010 		str	r1, [r6, #144]
 416 0258 7FF50AAF 		bpl	.L46
 417 025c FFF7FEFF 		bl	HAL_GetTick
 418 0260 41F28839 		movw	r9, #5000
 419 0264 8046     		mov	r8, r0
 420              	.L47:
 421 0266 D6F89030 		ldr	r3, [r6, #144]
 422 026a 9807     		lsls	r0, r3, #30
 423 026c 3FF500AF 		bmi	.L46
 424 0270 FFF7FEFF 		bl	HAL_GetTick
 425 0274 A0EB0800 		sub	r0, r0, r8
 426 0278 4845     		cmp	r0, r9
 427 027a F4D9     		bls	.L47
 428 027c 20E7     		b	.L48
 429              	.L60:
 430 027e B1F1806F 		cmp	r1, #67108864
 431 0282 99D1     		bne	.L59
 432 0284 0121     		movs	r1, #1
 433 0286 201D     		adds	r0, r4, #4
 434 0288 FFF7FEFF 		bl	RCCEx_PLLSAI1_Config
 435 028c 0028     		cmp	r0, #0
 436 028e 18BF     		it	ne
 437 0290 0546     		movne	r5, r0
 438 0292 91E7     		b	.L59
 439              	.L62:
 440 0294 B1F1806F 		cmp	r1, #67108864
 441 0298 A1D1     		bne	.L61
 442 029a 0121     		movs	r1, #1
 443 029c 201D     		adds	r0, r4, #4
 444 029e FFF7FEFF 		bl	RCCEx_PLLSAI1_Config
 445 02a2 0028     		cmp	r0, #0
 446 02a4 18BF     		it	ne
 447 02a6 0546     		movne	r5, r0
 448 02a8 99E7     		b	.L61
 449              	.L123:
 450 02aa 00BF     		.align	2
 451              	.L122:
 452 02ac 00100240 		.word	1073876992
 453 02b0 00700040 		.word	1073770496
 455              		.section	.text.HAL_RCCEx_GetPeriphCLKConfig,"ax",%progbits
 456              		.align	1
 457              		.global	HAL_RCCEx_GetPeriphCLKConfig
 458              		.syntax unified
 459              		.thumb
 460              		.thumb_func
ARM GAS  C:\Users\CL\AppData\Local\Temp\cccEtuyk.s 			page 9


 462              	HAL_RCCEx_GetPeriphCLKConfig:
 463              		@ args = 0, pretend = 0, frame = 0
 464              		@ frame_needed = 0, uses_anonymous_args = 0
 465              		@ link register save eliminated.
 466 0000 364B     		ldr	r3, .L125
 467 0002 0360     		str	r3, [r0]
 468 0004 364B     		ldr	r3, .L125+4
 469 0006 DA68     		ldr	r2, [r3, #12]
 470 0008 02F00302 		and	r2, r2, #3
 471 000c 4260     		str	r2, [r0, #4]
 472 000e DA68     		ldr	r2, [r3, #12]
 473 0010 C2F30212 		ubfx	r2, r2, #4, #3
 474 0014 0132     		adds	r2, r2, #1
 475 0016 8260     		str	r2, [r0, #8]
 476 0018 1A69     		ldr	r2, [r3, #16]
 477 001a C2F30622 		ubfx	r2, r2, #8, #7
 478 001e C260     		str	r2, [r0, #12]
 479 0020 1A69     		ldr	r2, [r3, #16]
 480 0022 520B     		lsrs	r2, r2, #13
 481 0024 02F01002 		and	r2, r2, #16
 482 0028 0732     		adds	r2, r2, #7
 483 002a 0261     		str	r2, [r0, #16]
 484 002c 1A69     		ldr	r2, [r3, #16]
 485 002e C2F34152 		ubfx	r2, r2, #21, #2
 486 0032 0132     		adds	r2, r2, #1
 487 0034 5200     		lsls	r2, r2, #1
 488 0036 4261     		str	r2, [r0, #20]
 489 0038 1A69     		ldr	r2, [r3, #16]
 490 003a C2F34162 		ubfx	r2, r2, #25, #2
 491 003e 0132     		adds	r2, r2, #1
 492 0040 5200     		lsls	r2, r2, #1
 493 0042 8261     		str	r2, [r0, #24]
 494 0044 D3F88820 		ldr	r2, [r3, #136]
 495 0048 02F00302 		and	r2, r2, #3
 496 004c 0262     		str	r2, [r0, #32]
 497 004e D3F88820 		ldr	r2, [r3, #136]
 498 0052 02F00C02 		and	r2, r2, #12
 499 0056 4262     		str	r2, [r0, #36]
 500 0058 D3F88820 		ldr	r2, [r3, #136]
 501 005c 02F03002 		and	r2, r2, #48
 502 0060 8262     		str	r2, [r0, #40]
 503 0062 D3F88820 		ldr	r2, [r3, #136]
 504 0066 02F44062 		and	r2, r2, #3072
 505 006a C262     		str	r2, [r0, #44]
 506 006c D3F88820 		ldr	r2, [r3, #136]
 507 0070 02F44052 		and	r2, r2, #12288
 508 0074 0263     		str	r2, [r0, #48]
 509 0076 D3F88820 		ldr	r2, [r3, #136]
 510 007a 02F44042 		and	r2, r2, #49152
 511 007e 4263     		str	r2, [r0, #52]
 512 0080 D3F88820 		ldr	r2, [r3, #136]
 513 0084 02F44032 		and	r2, r2, #196608
 514 0088 8263     		str	r2, [r0, #56]
 515 008a D3F88820 		ldr	r2, [r3, #136]
 516 008e 02F44022 		and	r2, r2, #786432
 517 0092 C263     		str	r2, [r0, #60]
 518 0094 D3F88820 		ldr	r2, [r3, #136]
ARM GAS  C:\Users\CL\AppData\Local\Temp\cccEtuyk.s 			page 10


 519 0098 02F44012 		and	r2, r2, #3145728
 520 009c 0264     		str	r2, [r0, #64]
 521 009e D3F88820 		ldr	r2, [r3, #136]
 522 00a2 02F44002 		and	r2, r2, #12582912
 523 00a6 4264     		str	r2, [r0, #68]
 524 00a8 D3F89020 		ldr	r2, [r3, #144]
 525 00ac 02F44072 		and	r2, r2, #768
 526 00b0 8265     		str	r2, [r0, #88]
 527 00b2 D3F88820 		ldr	r2, [r3, #136]
 528 00b6 02F04062 		and	r2, r2, #201326592
 529 00ba 8264     		str	r2, [r0, #72]
 530 00bc D3F88820 		ldr	r2, [r3, #136]
 531 00c0 02F04062 		and	r2, r2, #201326592
 532 00c4 C264     		str	r2, [r0, #76]
 533 00c6 D3F88820 		ldr	r2, [r3, #136]
 534 00ca 02F04052 		and	r2, r2, #805306368
 535 00ce 0265     		str	r2, [r0, #80]
 536 00d0 D3F88830 		ldr	r3, [r3, #136]
 537 00d4 03F08043 		and	r3, r3, #1073741824
 538 00d8 4365     		str	r3, [r0, #84]
 539 00da 7047     		bx	lr
 540              	.L126:
 541              		.align	2
 542              	.L125:
 543 00dc E7CF0E00 		.word	970727
 544 00e0 00100240 		.word	1073876992
 546              		.section	.text.HAL_RCCEx_GetPeriphCLKFreq,"ax",%progbits
 547              		.align	1
 548              		.global	HAL_RCCEx_GetPeriphCLKFreq
 549              		.syntax unified
 550              		.thumb
 551              		.thumb_func
 553              	HAL_RCCEx_GetPeriphCLKFreq:
 554              		@ args = 0, pretend = 0, frame = 0
 555              		@ frame_needed = 0, uses_anonymous_args = 0
 556              		@ link register save eliminated.
 557 0000 B0F5003F 		cmp	r0, #131072
 558 0004 AC4B     		ldr	r3, .L365
 559 0006 1BD1     		bne	.L128
 560 0008 D3F89020 		ldr	r2, [r3, #144]
 561 000c 02F44072 		and	r2, r2, #768
 562 0010 B2F5007F 		cmp	r2, #512
 563 0014 7ED0     		beq	.L187
 564 0016 B2F5407F 		cmp	r2, #768
 565 001a 0AD0     		beq	.L130
 566 001c B2F5807F 		cmp	r2, #256
 567              	.L348:
 568 0020 3AD1     		bne	.L195
 569              	.L188:
 570 0022 D3F89000 		ldr	r0, [r3, #144]
 571 0026 10F00200 		ands	r0, r0, #2
 572 002a 18BF     		it	ne
 573 002c 4FF40040 		movne	r0, #32768
 574 0030 7047     		bx	lr
 575              	.L130:
 576 0032 1868     		ldr	r0, [r3]
 577 0034 A14B     		ldr	r3, .L365+4
ARM GAS  C:\Users\CL\AppData\Local\Temp\cccEtuyk.s 			page 11


 578 0036 10F40030 		ands	r0, r0, #131072
 579              	.L342:
 580 003a 18BF     		it	ne
 581 003c 1846     		movne	r0, r3
 582 003e 7047     		bx	lr
 583              	.L128:
 584 0040 DA68     		ldr	r2, [r3, #12]
 585 0042 02F00302 		and	r2, r2, #3
 586 0046 022A     		cmp	r2, #2
 587 0048 28D0     		beq	.L132
 588 004a 032A     		cmp	r2, #3
 589 004c 2DD0     		beq	.L133
 590 004e 012A     		cmp	r2, #1
 591 0050 30D1     		bne	.L190
 592 0052 1A68     		ldr	r2, [r3]
 593 0054 12F00202 		ands	r2, r2, #2
 594 0058 0CD0     		beq	.L134
 595 005a 1A68     		ldr	r2, [r3]
 596 005c 9849     		ldr	r1, .L365+8
 597 005e 1207     		lsls	r2, r2, #28
 598 0060 4BBF     		itete	mi
 599 0062 1A68     		ldrmi	r2, [r3]
 600 0064 D3F89420 		ldrpl	r2, [r3, #148]
 601 0068 C2F30312 		ubfxmi	r2, r2, #4, #4
 602 006c C2F30322 		ubfxpl	r2, r2, #8, #4
 603 0070 51F82220 		ldr	r2, [r1, r2, lsl #2]
 604              	.L134:
 605 0074 B0F5807F 		cmp	r0, #256
 606 0078 00F07A81 		beq	.L137
 607 007c 2CD8     		bhi	.L138
 608 007e 2028     		cmp	r0, #32
 609 0080 00F03481 		beq	.L139
 610 0084 18D8     		bhi	.L140
 611 0086 0228     		cmp	r0, #2
 612 0088 00F00481 		beq	.L141
 613 008c 0428     		cmp	r0, #4
 614 008e 00F01F81 		beq	.L142
 615 0092 0128     		cmp	r0, #1
 616 0094 00F0F080 		beq	.L143
 617              	.L195:
 618 0098 0020     		movs	r0, #0
 619              	.L127:
 620 009a 7047     		bx	lr
 621              	.L132:
 622 009c 1A68     		ldr	r2, [r3]
 623 009e 8949     		ldr	r1, .L365+12
 624 00a0 12F48062 		ands	r2, r2, #1024
 625              	.L341:
 626 00a4 18BF     		it	ne
 627 00a6 0A46     		movne	r2, r1
 628 00a8 E4E7     		b	.L134
 629              	.L133:
 630 00aa 1A68     		ldr	r2, [r3]
 631 00ac 8649     		ldr	r1, .L365+16
 632 00ae 12F40032 		ands	r2, r2, #131072
 633 00b2 F7E7     		b	.L341
 634              	.L190:
ARM GAS  C:\Users\CL\AppData\Local\Temp\cccEtuyk.s 			page 12


 635 00b4 0022     		movs	r2, #0
 636 00b6 DDE7     		b	.L134
 637              	.L140:
 638 00b8 4028     		cmp	r0, #64
 639 00ba 00F04981 		beq	.L144
 640 00be 8028     		cmp	r0, #128
 641 00c0 EAD1     		bne	.L195
 642 00c2 D3F88820 		ldr	r2, [r3, #136]
 643 00c6 02F44042 		and	r2, r2, #49152
 644 00ca B2F5804F 		cmp	r2, #16384
 645 00ce 00F0EE80 		beq	.L166
 646 00d2 B2F5004F 		cmp	r2, #32768
 647 00d6 44E1     		b	.L363
 648              	.L138:
 649 00d8 B0F5804F 		cmp	r0, #16384
 650 00dc 00F01681 		beq	.L146
 651 00e0 20D8     		bhi	.L147
 652 00e2 B0F5806F 		cmp	r0, #1024
 653 00e6 00F05081 		beq	.L148
 654 00ea B0F5006F 		cmp	r0, #2048
 655 00ee 2CD0     		beq	.L149
 656 00f0 B0F5007F 		cmp	r0, #512
 657 00f4 D0D1     		bne	.L195
 658 00f6 D3F88820 		ldr	r2, [r3, #136]
 659 00fa 02F44022 		and	r2, r2, #786432
 660 00fe B2F5002F 		cmp	r2, #524288
 661 0102 1DD0     		beq	.L343
 662 0104 00F23E81 		bhi	.L182
 663 0108 002A     		cmp	r2, #0
 664 010a 00F02F81 		beq	.L169
 665 010e B2F5802F 		cmp	r2, #262144
 666              	.L351:
 667 0112 C1D1     		bne	.L195
 668              	.L187:
 669 0114 D3F89400 		ldr	r0, [r3, #148]
 670 0118 10F00200 		ands	r0, r0, #2
 671 011c 18BF     		it	ne
 672 011e 4FF4FA40 		movne	r0, #32000
 673 0122 7047     		bx	lr
 674              	.L147:
 675 0124 B0F5802F 		cmp	r0, #262144
 676 0128 4DD0     		beq	.L151
 677 012a B0F5002F 		cmp	r0, #524288
 678 012e 4AD0     		beq	.L151
 679 0130 B0F5004F 		cmp	r0, #32768
 680 0134 B0D1     		bne	.L195
 681 0136 D3F88820 		ldr	r2, [r3, #136]
 682 013a 5200     		lsls	r2, r2, #1
 683 013c 40F11681 		bpl	.L169
 684              	.L343:
 685 0140 1868     		ldr	r0, [r3]
 686 0142 604B     		ldr	r3, .L365+12
 687 0144 10F48060 		ands	r0, r0, #1024
 688 0148 77E7     		b	.L342
 689              	.L149:
 690 014a D3F88810 		ldr	r1, [r3, #136]
 691 014e 01F44001 		and	r1, r1, #12582912
ARM GAS  C:\Users\CL\AppData\Local\Temp\cccEtuyk.s 			page 13


 692 0152 B1F5400F 		cmp	r1, #12582912
 693 0156 00F02981 		beq	.L191
 694 015a B1F5000F 		cmp	r1, #8388608
 695 015e 1BD1     		bne	.L153
 696 0160 1968     		ldr	r1, [r3]
 697 0162 8901     		lsls	r1, r1, #6
 698 0164 ECD5     		bpl	.L343
 699 0166 D968     		ldr	r1, [r3, #12]
 700 0168 C803     		lsls	r0, r1, #15
 701 016a E9D5     		bpl	.L343
 702 016c D868     		ldr	r0, [r3, #12]
 703 016e D968     		ldr	r1, [r3, #12]
 704 0170 C0F30210 		ubfx	r0, r0, #4, #3
 705 0174 0130     		adds	r0, r0, #1
 706 0176 B2FBF0F0 		udiv	r0, r2, r0
 707 017a DA68     		ldr	r2, [r3, #12]
 708 017c D20E     		lsrs	r2, r2, #27
 709 017e C1F30621 		ubfx	r1, r1, #8, #7
 710 0182 05D1     		bne	.L157
 711 0184 DB68     		ldr	r3, [r3, #12]
 712              	.L345:
 713 0186 13F4003F 		tst	r3, #131072
 714 018a 14BF     		ite	ne
 715 018c 1122     		movne	r2, #17
 716 018e 0722     		moveq	r2, #7
 717              	.L157:
 718 0190 4843     		muls	r0, r1, r0
 719 0192 B0FBF2F0 		udiv	r0, r0, r2
 720 0196 7047     		bx	lr
 721              	.L153:
 722 0198 0029     		cmp	r1, #0
 723 019a 7FF47DAF 		bne	.L195
 724 019e 1968     		ldr	r1, [r3]
 725 01a0 0901     		lsls	r1, r1, #4
 726 01a2 CDD5     		bpl	.L343
 727 01a4 1969     		ldr	r1, [r3, #16]
 728 01a6 C803     		lsls	r0, r1, #15
 729 01a8 CAD5     		bpl	.L343
 730 01aa D868     		ldr	r0, [r3, #12]
 731 01ac 1969     		ldr	r1, [r3, #16]
 732 01ae C0F30210 		ubfx	r0, r0, #4, #3
 733 01b2 0130     		adds	r0, r0, #1
 734 01b4 B2FBF0F0 		udiv	r0, r2, r0
 735 01b8 1A69     		ldr	r2, [r3, #16]
 736 01ba D20E     		lsrs	r2, r2, #27
 737 01bc C1F30621 		ubfx	r1, r1, #8, #7
 738 01c0 E6D1     		bne	.L157
 739 01c2 1B69     		ldr	r3, [r3, #16]
 740 01c4 DFE7     		b	.L345
 741              	.L151:
 742 01c6 D3F88810 		ldr	r1, [r3, #136]
 743 01ca 01F04061 		and	r1, r1, #201326592
 744 01ce B1F1006F 		cmp	r1, #134217728
 745 01d2 2FD0     		beq	.L158
 746 01d4 16D8     		bhi	.L159
 747 01d6 0029     		cmp	r1, #0
 748 01d8 48D0     		beq	.L160
ARM GAS  C:\Users\CL\AppData\Local\Temp\cccEtuyk.s 			page 14


 749 01da B1F1806F 		cmp	r1, #67108864
 750 01de 7FF45BAF 		bne	.L195
 751 01e2 1868     		ldr	r0, [r3]
 752 01e4 10F00060 		ands	r0, r0, #134217728
 753 01e8 3FF457AF 		beq	.L127
 754 01ec 1869     		ldr	r0, [r3, #16]
 755 01ee 10F48010 		ands	r0, r0, #1048576
 756 01f2 3FF452AF 		beq	.L127
 757 01f6 1869     		ldr	r0, [r3, #16]
 758 01f8 C0F30620 		ubfx	r0, r0, #8, #7
 759 01fc 5043     		muls	r0, r2, r0
 760 01fe DA68     		ldr	r2, [r3, #12]
 761 0200 1B69     		ldr	r3, [r3, #16]
 762 0202 27E0     		b	.L346
 763              	.L159:
 764 0204 B1F1406F 		cmp	r1, #201326592
 765 0208 7FF446AF 		bne	.L195
 766 020c 1868     		ldr	r0, [r3]
 767 020e 10F00200 		ands	r0, r0, #2
 768 0212 3FF442AF 		beq	.L127
 769 0216 1A68     		ldr	r2, [r3]
 770 0218 1107     		lsls	r1, r2, #28
 771 021a 4CBF     		ite	mi
 772 021c 1B68     		ldrmi	r3, [r3]
 773 021e D3F89430 		ldrpl	r3, [r3, #148]
 774 0222 274A     		ldr	r2, .L365+8
 775 0224 4CBF     		ite	mi
 776 0226 C3F30313 		ubfxmi	r3, r3, #4, #4
 777 022a C3F30323 		ubfxpl	r3, r3, #8, #4
 778 022e 52F82300 		ldr	r0, [r2, r3, lsl #2]
 779 0232 7047     		bx	lr
 780              	.L158:
 781 0234 1868     		ldr	r0, [r3]
 782 0236 10F00070 		ands	r0, r0, #33554432
 783 023a 3FF42EAF 		beq	.L127
 784 023e D868     		ldr	r0, [r3, #12]
 785 0240 10F48010 		ands	r0, r0, #1048576
 786 0244 3FF429AF 		beq	.L127
 787 0248 D868     		ldr	r0, [r3, #12]
 788 024a C0F30620 		ubfx	r0, r0, #8, #7
 789 024e 5043     		muls	r0, r2, r0
 790 0250 DA68     		ldr	r2, [r3, #12]
 791 0252 DB68     		ldr	r3, [r3, #12]
 792              	.L346:
 793 0254 C2F30212 		ubfx	r2, r2, #4, #3
 794 0258 C3F34153 		ubfx	r3, r3, #21, #2
 795 025c 0132     		adds	r2, r2, #1
 796 025e B0FBF2F0 		udiv	r0, r0, r2
 797              	.L344:
 798 0262 0133     		adds	r3, r3, #1
 799 0264 5B00     		lsls	r3, r3, #1
 800 0266 B0FBF3F0 		udiv	r0, r0, r3
 801 026a 7047     		bx	lr
 802              	.L160:
 803 026c D3F89800 		ldr	r0, [r3, #152]
 804 0270 164B     		ldr	r3, .L365+20
 805 0272 10F00200 		ands	r0, r0, #2
ARM GAS  C:\Users\CL\AppData\Local\Temp\cccEtuyk.s 			page 15


 806 0276 E0E6     		b	.L342
 807              	.L143:
 808 0278 D3F88820 		ldr	r2, [r3, #136]
 809 027c 02F00302 		and	r2, r2, #3
 810 0280 022A     		cmp	r2, #2
 811 0282 3FF45DAF 		beq	.L343
 812 0286 032A     		cmp	r2, #3
 813 0288 3FF4CBAE 		beq	.L188
 814 028c 012A     		cmp	r2, #1
 815 028e 0ED0     		beq	.L166
 816 0290 FFF7FEBF 		b	HAL_RCC_GetPCLK2Freq
 817              	.L141:
 818 0294 D3F88820 		ldr	r2, [r3, #136]
 819 0298 02F00C02 		and	r2, r2, #12
 820 029c 082A     		cmp	r2, #8
 821 029e 3FF44FAF 		beq	.L343
 822 02a2 06D8     		bhi	.L168
 823 02a4 002A     		cmp	r2, #0
 824 02a6 61D0     		beq	.L169
 825 02a8 042A     		cmp	r2, #4
 826              	.L357:
 827 02aa 7FF4F5AE 		bne	.L195
 828              	.L166:
 829 02ae FFF7FEBF 		b	HAL_RCC_GetSysClockFreq
 830              	.L168:
 831 02b2 0C2A     		cmp	r2, #12
 832 02b4 B4E6     		b	.L348
 833              	.L366:
 834 02b6 00BF     		.align	2
 835              	.L365:
 836 02b8 00100240 		.word	1073876992
 837 02bc 90D00300 		.word	250000
 838 02c0 00000000 		.word	MSIRangeTable
 839 02c4 0024F400 		.word	16000000
 840 02c8 00127A00 		.word	8000000
 841 02cc 006CDC02 		.word	48000000
 842              	.L142:
 843 02d0 D3F88820 		ldr	r2, [r3, #136]
 844 02d4 02F03002 		and	r2, r2, #48
 845 02d8 202A     		cmp	r2, #32
 846 02da 3FF431AF 		beq	.L343
 847 02de 03D8     		bhi	.L172
 848 02e0 002A     		cmp	r2, #0
 849 02e2 43D0     		beq	.L169
 850 02e4 102A     		cmp	r2, #16
 851 02e6 E0E7     		b	.L357
 852              	.L172:
 853 02e8 302A     		cmp	r2, #48
 854 02ea 99E6     		b	.L348
 855              	.L139:
 856 02ec D3F88820 		ldr	r2, [r3, #136]
 857 02f0 02F44062 		and	r2, r2, #3072
 858 02f4 B2F5006F 		cmp	r2, #2048
 859 02f8 3FF422AF 		beq	.L343
 860 02fc 03D8     		bhi	.L175
 861 02fe AAB3     		cbz	r2, .L169
 862 0300 B2F5806F 		cmp	r2, #1024
ARM GAS  C:\Users\CL\AppData\Local\Temp\cccEtuyk.s 			page 16


 863 0304 D1E7     		b	.L357
 864              	.L175:
 865 0306 B2F5406F 		cmp	r2, #3072
 866 030a 89E6     		b	.L348
 867              	.L146:
 868 030c D3F88810 		ldr	r1, [r3, #136]
 869 0310 01F04051 		and	r1, r1, #805306368
 870 0314 B1F1805F 		cmp	r1, #268435456
 871 0318 02D0     		beq	.L177
 872 031a B1F1405F 		cmp	r1, #805306368
 873 031e C4E7     		b	.L357
 874              	.L177:
 875 0320 1868     		ldr	r0, [r3]
 876 0322 10F00060 		ands	r0, r0, #134217728
 877 0326 3FF4B8AE 		beq	.L127
 878 032a 1869     		ldr	r0, [r3, #16]
 879 032c 10F08070 		ands	r0, r0, #16777216
 880 0330 3FF4B3AE 		beq	.L127
 881 0334 1869     		ldr	r0, [r3, #16]
 882 0336 C0F30620 		ubfx	r0, r0, #8, #7
 883 033a 5043     		muls	r0, r2, r0
 884 033c DA68     		ldr	r2, [r3, #12]
 885 033e 1B69     		ldr	r3, [r3, #16]
 886 0340 C2F30212 		ubfx	r2, r2, #4, #3
 887 0344 0132     		adds	r2, r2, #1
 888 0346 C3F34163 		ubfx	r3, r3, #25, #2
 889 034a B0FBF2F0 		udiv	r0, r0, r2
 890 034e 88E7     		b	.L344
 891              	.L144:
 892 0350 D3F88820 		ldr	r2, [r3, #136]
 893 0354 02F44052 		and	r2, r2, #12288
 894 0358 B2F5805F 		cmp	r2, #4096
 895 035c A7D0     		beq	.L166
 896 035e B2F5005F 		cmp	r2, #8192
 897              	.L363:
 898 0362 3FF4EDAE 		beq	.L343
 899 0366 002A     		cmp	r2, #0
 900 0368 7FF496AE 		bne	.L195
 901              	.L169:
 902 036c FFF7FEBF 		b	HAL_RCC_GetPCLK1Freq
 903              	.L137:
 904 0370 D3F88820 		ldr	r2, [r3, #136]
 905 0374 02F44032 		and	r2, r2, #196608
 906 0378 B2F5803F 		cmp	r2, #65536
 907 037c 97D0     		beq	.L166
 908 037e B2F5003F 		cmp	r2, #131072
 909 0382 EEE7     		b	.L363
 910              	.L182:
 911 0384 B2F5402F 		cmp	r2, #786432
 912 0388 4AE6     		b	.L348
 913              	.L148:
 914 038a D3F88820 		ldr	r2, [r3, #136]
 915 038e 02F44012 		and	r2, r2, #3145728
 916 0392 B2F5001F 		cmp	r2, #2097152
 917 0396 3FF4D3AE 		beq	.L343
 918 039a 04D8     		bhi	.L186
 919 039c 002A     		cmp	r2, #0
ARM GAS  C:\Users\CL\AppData\Local\Temp\cccEtuyk.s 			page 17


 920 039e E5D0     		beq	.L169
 921 03a0 B2F5801F 		cmp	r2, #1048576
 922 03a4 B5E6     		b	.L351
 923              	.L186:
 924 03a6 B2F5401F 		cmp	r2, #3145728
 925 03aa 39E6     		b	.L348
 926              	.L191:
 927 03ac 0048     		ldr	r0, .L367
 928 03ae 7047     		bx	lr
 929              	.L368:
 930              		.align	2
 931              	.L367:
 932 03b0 68FF1F00 		.word	2097000
 934              		.section	.text.HAL_RCCEx_EnablePLLSAI1,"ax",%progbits
 935              		.align	1
 936              		.global	HAL_RCCEx_EnablePLLSAI1
 937              		.syntax unified
 938              		.thumb
 939              		.thumb_func
 941              	HAL_RCCEx_EnablePLLSAI1:
 942              		@ args = 0, pretend = 0, frame = 0
 943              		@ frame_needed = 0, uses_anonymous_args = 0
 944 0000 70B5     		push	{r4, r5, r6, lr}
 945 0002 1E4C     		ldr	r4, .L380
 946 0004 2368     		ldr	r3, [r4]
 947 0006 23F08063 		bic	r3, r3, #67108864
 948 000a 2360     		str	r3, [r4]
 949 000c 0546     		mov	r5, r0
 950 000e FFF7FEFF 		bl	HAL_GetTick
 951 0012 0646     		mov	r6, r0
 952              	.L370:
 953 0014 2368     		ldr	r3, [r4]
 954 0016 1A01     		lsls	r2, r3, #4
 955 0018 1FD4     		bmi	.L372
 956 001a D5E90223 		ldrd	r2, r3, [r5, #8]
 957 001e DB06     		lsls	r3, r3, #27
 958 0020 2169     		ldr	r1, [r4, #16]
 959 0022 43EA0223 		orr	r3, r3, r2, lsl #8
 960 0026 164A     		ldr	r2, .L380+4
 961 0028 0A40     		ands	r2, r2, r1
 962 002a 1343     		orrs	r3, r3, r2
 963 002c 2A69     		ldr	r2, [r5, #16]
 964 002e 5208     		lsrs	r2, r2, #1
 965 0030 013A     		subs	r2, r2, #1
 966 0032 43EA4253 		orr	r3, r3, r2, lsl #21
 967 0036 6A69     		ldr	r2, [r5, #20]
 968 0038 5208     		lsrs	r2, r2, #1
 969 003a 013A     		subs	r2, r2, #1
 970 003c 43EA4263 		orr	r3, r3, r2, lsl #25
 971 0040 2361     		str	r3, [r4, #16]
 972 0042 2369     		ldr	r3, [r4, #16]
 973 0044 AA69     		ldr	r2, [r5, #24]
 974 0046 1343     		orrs	r3, r3, r2
 975 0048 2361     		str	r3, [r4, #16]
 976 004a 2368     		ldr	r3, [r4]
 977 004c 43F08063 		orr	r3, r3, #67108864
 978 0050 2360     		str	r3, [r4]
ARM GAS  C:\Users\CL\AppData\Local\Temp\cccEtuyk.s 			page 18


 979 0052 FFF7FEFF 		bl	HAL_GetTick
 980 0056 0546     		mov	r5, r0
 981 0058 0BE0     		b	.L376
 982              	.L372:
 983 005a FFF7FEFF 		bl	HAL_GetTick
 984 005e 801B     		subs	r0, r0, r6
 985 0060 0228     		cmp	r0, #2
 986 0062 D7D9     		bls	.L370
 987              	.L374:
 988 0064 0320     		movs	r0, #3
 989              	.L378:
 990 0066 70BD     		pop	{r4, r5, r6, pc}
 991              	.L375:
 992 0068 FFF7FEFF 		bl	HAL_GetTick
 993 006c 401B     		subs	r0, r0, r5
 994 006e 0228     		cmp	r0, #2
 995 0070 F8D8     		bhi	.L374
 996              	.L376:
 997 0072 2368     		ldr	r3, [r4]
 998 0074 1B01     		lsls	r3, r3, #4
 999 0076 F7D5     		bpl	.L375
 1000 0078 0020     		movs	r0, #0
 1001 007a F4E7     		b	.L378
 1002              	.L381:
 1003              		.align	2
 1004              	.L380:
 1005 007c 00100240 		.word	1073876992
 1006 0080 FF809D01 		.word	27099391
 1008              		.section	.text.HAL_RCCEx_DisablePLLSAI1,"ax",%progbits
 1009              		.align	1
 1010              		.global	HAL_RCCEx_DisablePLLSAI1
 1011              		.syntax unified
 1012              		.thumb
 1013              		.thumb_func
 1015              	HAL_RCCEx_DisablePLLSAI1:
 1016              		@ args = 0, pretend = 0, frame = 0
 1017              		@ frame_needed = 0, uses_anonymous_args = 0
 1018 0000 38B5     		push	{r3, r4, r5, lr}
 1019 0002 114C     		ldr	r4, .L388
 1020 0004 2368     		ldr	r3, [r4]
 1021 0006 23F08063 		bic	r3, r3, #67108864
 1022 000a 2360     		str	r3, [r4]
 1023 000c FFF7FEFF 		bl	HAL_GetTick
 1024 0010 0546     		mov	r5, r0
 1025              	.L383:
 1026 0012 2368     		ldr	r3, [r4]
 1027 0014 13F00063 		ands	r3, r3, #134217728
 1028 0018 0ED1     		bne	.L385
 1029 001a 1846     		mov	r0, r3
 1030              	.L384:
 1031 001c 2369     		ldr	r3, [r4, #16]
 1032 001e 23F08873 		bic	r3, r3, #17825792
 1033 0022 23F48033 		bic	r3, r3, #65536
 1034 0026 2361     		str	r3, [r4, #16]
 1035 0028 2368     		ldr	r3, [r4]
 1036 002a 9B01     		lsls	r3, r3, #6
 1037 002c 5EBF     		ittt	pl
ARM GAS  C:\Users\CL\AppData\Local\Temp\cccEtuyk.s 			page 19


 1038 002e E368     		ldrpl	r3, [r4, #12]
 1039 0030 23F00303 		bicpl	r3, r3, #3
 1040 0034 E360     		strpl	r3, [r4, #12]
 1041 0036 38BD     		pop	{r3, r4, r5, pc}
 1042              	.L385:
 1043 0038 FFF7FEFF 		bl	HAL_GetTick
 1044 003c 401B     		subs	r0, r0, r5
 1045 003e 0228     		cmp	r0, #2
 1046 0040 E7D9     		bls	.L383
 1047 0042 0320     		movs	r0, #3
 1048 0044 EAE7     		b	.L384
 1049              	.L389:
 1050 0046 00BF     		.align	2
 1051              	.L388:
 1052 0048 00100240 		.word	1073876992
 1054              		.section	.text.HAL_RCCEx_WakeUpStopCLKConfig,"ax",%progbits
 1055              		.align	1
 1056              		.global	HAL_RCCEx_WakeUpStopCLKConfig
 1057              		.syntax unified
 1058              		.thumb
 1059              		.thumb_func
 1061              	HAL_RCCEx_WakeUpStopCLKConfig:
 1062              		@ args = 0, pretend = 0, frame = 0
 1063              		@ frame_needed = 0, uses_anonymous_args = 0
 1064              		@ link register save eliminated.
 1065 0000 034A     		ldr	r2, .L391
 1066 0002 9368     		ldr	r3, [r2, #8]
 1067 0004 23F40043 		bic	r3, r3, #32768
 1068 0008 1843     		orrs	r0, r0, r3
 1069 000a 9060     		str	r0, [r2, #8]
 1070 000c 7047     		bx	lr
 1071              	.L392:
 1072 000e 00BF     		.align	2
 1073              	.L391:
 1074 0010 00100240 		.word	1073876992
 1076              		.section	.text.HAL_RCCEx_StandbyMSIRangeConfig,"ax",%progbits
 1077              		.align	1
 1078              		.global	HAL_RCCEx_StandbyMSIRangeConfig
 1079              		.syntax unified
 1080              		.thumb
 1081              		.thumb_func
 1083              	HAL_RCCEx_StandbyMSIRangeConfig:
 1084              		@ args = 0, pretend = 0, frame = 0
 1085              		@ frame_needed = 0, uses_anonymous_args = 0
 1086              		@ link register save eliminated.
 1087 0000 044A     		ldr	r2, .L394
 1088 0002 D2F89430 		ldr	r3, [r2, #148]
 1089 0006 23F47063 		bic	r3, r3, #3840
 1090 000a 43EA0010 		orr	r0, r3, r0, lsl #4
 1091 000e C2F89400 		str	r0, [r2, #148]
 1092 0012 7047     		bx	lr
 1093              	.L395:
 1094              		.align	2
 1095              	.L394:
 1096 0014 00100240 		.word	1073876992
 1098              		.section	.text.HAL_RCCEx_EnableLSECSS,"ax",%progbits
 1099              		.align	1
ARM GAS  C:\Users\CL\AppData\Local\Temp\cccEtuyk.s 			page 20


 1100              		.global	HAL_RCCEx_EnableLSECSS
 1101              		.syntax unified
 1102              		.thumb
 1103              		.thumb_func
 1105              	HAL_RCCEx_EnableLSECSS:
 1106              		@ args = 0, pretend = 0, frame = 0
 1107              		@ frame_needed = 0, uses_anonymous_args = 0
 1108              		@ link register save eliminated.
 1109 0000 034A     		ldr	r2, .L397
 1110 0002 D2F89030 		ldr	r3, [r2, #144]
 1111 0006 43F02003 		orr	r3, r3, #32
 1112 000a C2F89030 		str	r3, [r2, #144]
 1113 000e 7047     		bx	lr
 1114              	.L398:
 1115              		.align	2
 1116              	.L397:
 1117 0010 00100240 		.word	1073876992
 1119              		.section	.text.HAL_RCCEx_DisableLSECSS,"ax",%progbits
 1120              		.align	1
 1121              		.global	HAL_RCCEx_DisableLSECSS
 1122              		.syntax unified
 1123              		.thumb
 1124              		.thumb_func
 1126              	HAL_RCCEx_DisableLSECSS:
 1127              		@ args = 0, pretend = 0, frame = 0
 1128              		@ frame_needed = 0, uses_anonymous_args = 0
 1129              		@ link register save eliminated.
 1130 0000 054B     		ldr	r3, .L400
 1131 0002 D3F89020 		ldr	r2, [r3, #144]
 1132 0006 22F02002 		bic	r2, r2, #32
 1133 000a C3F89020 		str	r2, [r3, #144]
 1134 000e 9A69     		ldr	r2, [r3, #24]
 1135 0010 22F40072 		bic	r2, r2, #512
 1136 0014 9A61     		str	r2, [r3, #24]
 1137 0016 7047     		bx	lr
 1138              	.L401:
 1139              		.align	2
 1140              	.L400:
 1141 0018 00100240 		.word	1073876992
 1143              		.section	.text.HAL_RCCEx_EnableLSECSS_IT,"ax",%progbits
 1144              		.align	1
 1145              		.global	HAL_RCCEx_EnableLSECSS_IT
 1146              		.syntax unified
 1147              		.thumb
 1148              		.thumb_func
 1150              	HAL_RCCEx_EnableLSECSS_IT:
 1151              		@ args = 0, pretend = 0, frame = 0
 1152              		@ frame_needed = 0, uses_anonymous_args = 0
 1153              		@ link register save eliminated.
 1154 0000 0A4B     		ldr	r3, .L403
 1155 0002 D3F89020 		ldr	r2, [r3, #144]
 1156 0006 42F02002 		orr	r2, r2, #32
 1157 000a C3F89020 		str	r2, [r3, #144]
 1158 000e 9A69     		ldr	r2, [r3, #24]
 1159 0010 42F40072 		orr	r2, r2, #512
 1160 0014 9A61     		str	r2, [r3, #24]
 1161 0016 A3F58633 		sub	r3, r3, #68608
ARM GAS  C:\Users\CL\AppData\Local\Temp\cccEtuyk.s 			page 21


 1162 001a 1A68     		ldr	r2, [r3]
 1163 001c 42F40022 		orr	r2, r2, #524288
 1164 0020 1A60     		str	r2, [r3]
 1165 0022 9A68     		ldr	r2, [r3, #8]
 1166 0024 42F40022 		orr	r2, r2, #524288
 1167 0028 9A60     		str	r2, [r3, #8]
 1168 002a 7047     		bx	lr
 1169              	.L404:
 1170              		.align	2
 1171              	.L403:
 1172 002c 00100240 		.word	1073876992
 1174              		.section	.text.HAL_RCCEx_LSECSS_Callback,"ax",%progbits
 1175              		.align	1
 1176              		.weak	HAL_RCCEx_LSECSS_Callback
 1177              		.syntax unified
 1178              		.thumb
 1179              		.thumb_func
 1181              	HAL_RCCEx_LSECSS_Callback:
 1182              		@ args = 0, pretend = 0, frame = 0
 1183              		@ frame_needed = 0, uses_anonymous_args = 0
 1184              		@ link register save eliminated.
 1185 0000 7047     		bx	lr
 1187              		.section	.text.HAL_RCCEx_LSECSS_IRQHandler,"ax",%progbits
 1188              		.align	1
 1189              		.global	HAL_RCCEx_LSECSS_IRQHandler
 1190              		.syntax unified
 1191              		.thumb
 1192              		.thumb_func
 1194              	HAL_RCCEx_LSECSS_IRQHandler:
 1195              		@ args = 0, pretend = 0, frame = 0
 1196              		@ frame_needed = 0, uses_anonymous_args = 0
 1197 0000 10B5     		push	{r4, lr}
 1198 0002 054C     		ldr	r4, .L411
 1199 0004 E369     		ldr	r3, [r4, #28]
 1200 0006 9B05     		lsls	r3, r3, #22
 1201 0008 04D5     		bpl	.L406
 1202 000a FFF7FEFF 		bl	HAL_RCCEx_LSECSS_Callback
 1203 000e 4FF40073 		mov	r3, #512
 1204 0012 2362     		str	r3, [r4, #32]
 1205              	.L406:
 1206 0014 10BD     		pop	{r4, pc}
 1207              	.L412:
 1208 0016 00BF     		.align	2
 1209              	.L411:
 1210 0018 00100240 		.word	1073876992
 1212              		.section	.text.HAL_RCCEx_EnableLSCO,"ax",%progbits
 1213              		.align	1
 1214              		.global	HAL_RCCEx_EnableLSCO
 1215              		.syntax unified
 1216              		.thumb
 1217              		.thumb_func
 1219              	HAL_RCCEx_EnableLSCO:
 1220              		@ args = 0, pretend = 0, frame = 32
 1221              		@ frame_needed = 0, uses_anonymous_args = 0
 1222 0000 70B5     		push	{r4, r5, r6, lr}
 1223 0002 214C     		ldr	r4, .L420
 1224 0004 E36C     		ldr	r3, [r4, #76]
ARM GAS  C:\Users\CL\AppData\Local\Temp\cccEtuyk.s 			page 22


 1225 0006 43F00103 		orr	r3, r3, #1
 1226 000a E364     		str	r3, [r4, #76]
 1227 000c E36C     		ldr	r3, [r4, #76]
 1228 000e 88B0     		sub	sp, sp, #32
 1229 0010 03F00103 		and	r3, r3, #1
 1230 0014 0193     		str	r3, [sp, #4]
 1231 0016 019B     		ldr	r3, [sp, #4]
 1232 0018 0422     		movs	r2, #4
 1233 001a 0323     		movs	r3, #3
 1234 001c CDE90323 		strd	r2, r3, [sp, #12]
 1235 0020 03A9     		add	r1, sp, #12
 1236 0022 0223     		movs	r3, #2
 1237 0024 0646     		mov	r6, r0
 1238 0026 0025     		movs	r5, #0
 1239 0028 4FF09040 		mov	r0, #1207959552
 1240 002c CDE90553 		strd	r5, r3, [sp, #20]
 1241 0030 FFF7FEFF 		bl	HAL_GPIO_Init
 1242 0034 A36D     		ldr	r3, [r4, #88]
 1243 0036 D900     		lsls	r1, r3, #3
 1244 0038 09D4     		bmi	.L414
 1245 003a A36D     		ldr	r3, [r4, #88]
 1246 003c 43F08053 		orr	r3, r3, #268435456
 1247 0040 A365     		str	r3, [r4, #88]
 1248 0042 A36D     		ldr	r3, [r4, #88]
 1249 0044 03F08053 		and	r3, r3, #268435456
 1250 0048 0293     		str	r3, [sp, #8]
 1251 004a 029B     		ldr	r3, [sp, #8]
 1252 004c 0125     		movs	r5, #1
 1253              	.L414:
 1254 004e 0F4B     		ldr	r3, .L420+4
 1255 0050 1B68     		ldr	r3, [r3]
 1256 0052 DB05     		lsls	r3, r3, #23
 1257 0054 16D4     		bmi	.L419
 1258 0056 FFF7FEFF 		bl	HAL_PWR_EnableBkUpAccess
 1259 005a 0122     		movs	r2, #1
 1260              	.L415:
 1261 005c D4F89030 		ldr	r3, [r4, #144]
 1262 0060 23F04073 		bic	r3, r3, #50331648
 1263 0064 43EA0600 		orr	r0, r3, r6
 1264 0068 40F08070 		orr	r0, r0, #16777216
 1265 006c C4F89000 		str	r0, [r4, #144]
 1266 0070 0AB1     		cbz	r2, .L416
 1267 0072 FFF7FEFF 		bl	HAL_PWR_DisableBkUpAccess
 1268              	.L416:
 1269 0076 1DB1     		cbz	r5, .L413
 1270 0078 A36D     		ldr	r3, [r4, #88]
 1271 007a 23F08053 		bic	r3, r3, #268435456
 1272 007e A365     		str	r3, [r4, #88]
 1273              	.L413:
 1274 0080 08B0     		add	sp, sp, #32
 1275              		@ sp needed
 1276 0082 70BD     		pop	{r4, r5, r6, pc}
 1277              	.L419:
 1278 0084 0022     		movs	r2, #0
 1279 0086 E9E7     		b	.L415
 1280              	.L421:
 1281              		.align	2
ARM GAS  C:\Users\CL\AppData\Local\Temp\cccEtuyk.s 			page 23


 1282              	.L420:
 1283 0088 00100240 		.word	1073876992
 1284 008c 00700040 		.word	1073770496
 1286              		.section	.text.HAL_RCCEx_DisableLSCO,"ax",%progbits
 1287              		.align	1
 1288              		.global	HAL_RCCEx_DisableLSCO
 1289              		.syntax unified
 1290              		.thumb
 1291              		.thumb_func
 1293              	HAL_RCCEx_DisableLSCO:
 1294              		@ args = 0, pretend = 0, frame = 8
 1295              		@ frame_needed = 0, uses_anonymous_args = 0
 1296 0000 37B5     		push	{r0, r1, r2, r4, r5, lr}
 1297 0002 144C     		ldr	r4, .L429
 1298 0004 A36D     		ldr	r3, [r4, #88]
 1299 0006 DA00     		lsls	r2, r3, #3
 1300 0008 20D4     		bmi	.L427
 1301 000a A36D     		ldr	r3, [r4, #88]
 1302 000c 43F08053 		orr	r3, r3, #268435456
 1303 0010 A365     		str	r3, [r4, #88]
 1304 0012 A36D     		ldr	r3, [r4, #88]
 1305 0014 03F08053 		and	r3, r3, #268435456
 1306 0018 0193     		str	r3, [sp, #4]
 1307 001a 019B     		ldr	r3, [sp, #4]
 1308 001c 0125     		movs	r5, #1
 1309              	.L423:
 1310 001e 0E4B     		ldr	r3, .L429+4
 1311 0020 1B68     		ldr	r3, [r3]
 1312 0022 DB05     		lsls	r3, r3, #23
 1313 0024 14D4     		bmi	.L428
 1314 0026 FFF7FEFF 		bl	HAL_PWR_EnableBkUpAccess
 1315 002a 0122     		movs	r2, #1
 1316              	.L424:
 1317 002c D4F89030 		ldr	r3, [r4, #144]
 1318 0030 23F08073 		bic	r3, r3, #16777216
 1319 0034 C4F89030 		str	r3, [r4, #144]
 1320 0038 0AB1     		cbz	r2, .L425
 1321 003a FFF7FEFF 		bl	HAL_PWR_DisableBkUpAccess
 1322              	.L425:
 1323 003e 1DB1     		cbz	r5, .L422
 1324 0040 A36D     		ldr	r3, [r4, #88]
 1325 0042 23F08053 		bic	r3, r3, #268435456
 1326 0046 A365     		str	r3, [r4, #88]
 1327              	.L422:
 1328 0048 03B0     		add	sp, sp, #12
 1329              		@ sp needed
 1330 004a 30BD     		pop	{r4, r5, pc}
 1331              	.L427:
 1332 004c 0025     		movs	r5, #0
 1333 004e E6E7     		b	.L423
 1334              	.L428:
 1335 0050 0022     		movs	r2, #0
 1336 0052 EBE7     		b	.L424
 1337              	.L430:
 1338              		.align	2
 1339              	.L429:
 1340 0054 00100240 		.word	1073876992
ARM GAS  C:\Users\CL\AppData\Local\Temp\cccEtuyk.s 			page 24


 1341 0058 00700040 		.word	1073770496
 1343              		.section	.text.HAL_RCCEx_EnableMSIPLLMode,"ax",%progbits
 1344              		.align	1
 1345              		.global	HAL_RCCEx_EnableMSIPLLMode
 1346              		.syntax unified
 1347              		.thumb
 1348              		.thumb_func
 1350              	HAL_RCCEx_EnableMSIPLLMode:
 1351              		@ args = 0, pretend = 0, frame = 0
 1352              		@ frame_needed = 0, uses_anonymous_args = 0
 1353              		@ link register save eliminated.
 1354 0000 024A     		ldr	r2, .L432
 1355 0002 1368     		ldr	r3, [r2]
 1356 0004 43F00403 		orr	r3, r3, #4
 1357 0008 1360     		str	r3, [r2]
 1358 000a 7047     		bx	lr
 1359              	.L433:
 1360              		.align	2
 1361              	.L432:
 1362 000c 00100240 		.word	1073876992
 1364              		.section	.text.HAL_RCCEx_DisableMSIPLLMode,"ax",%progbits
 1365              		.align	1
 1366              		.global	HAL_RCCEx_DisableMSIPLLMode
 1367              		.syntax unified
 1368              		.thumb
 1369              		.thumb_func
 1371              	HAL_RCCEx_DisableMSIPLLMode:
 1372              		@ args = 0, pretend = 0, frame = 0
 1373              		@ frame_needed = 0, uses_anonymous_args = 0
 1374              		@ link register save eliminated.
 1375 0000 024A     		ldr	r2, .L435
 1376 0002 1368     		ldr	r3, [r2]
 1377 0004 23F00403 		bic	r3, r3, #4
 1378 0008 1360     		str	r3, [r2]
 1379 000a 7047     		bx	lr
 1380              	.L436:
 1381              		.align	2
 1382              	.L435:
 1383 000c 00100240 		.word	1073876992
 1385              		.section	.text.HAL_RCCEx_CRSConfig,"ax",%progbits
 1386              		.align	1
 1387              		.global	HAL_RCCEx_CRSConfig
 1388              		.syntax unified
 1389              		.thumb
 1390              		.thumb_func
 1392              	HAL_RCCEx_CRSConfig:
 1393              		@ args = 0, pretend = 0, frame = 0
 1394              		@ frame_needed = 0, uses_anonymous_args = 0
 1395              		@ link register save eliminated.
 1396 0000 104B     		ldr	r3, .L438
 1397 0002 9A6B     		ldr	r2, [r3, #56]
 1398 0004 42F08072 		orr	r2, r2, #16777216
 1399 0008 9A63     		str	r2, [r3, #56]
 1400 000a 9A6B     		ldr	r2, [r3, #56]
 1401 000c 22F08072 		bic	r2, r2, #16777216
 1402 0010 9A63     		str	r2, [r3, #56]
 1403 0012 D0E90032 		ldrd	r3, r2, [r0]
ARM GAS  C:\Users\CL\AppData\Local\Temp\cccEtuyk.s 			page 25


 1404 0016 1343     		orrs	r3, r3, r2
 1405 0018 8268     		ldr	r2, [r0, #8]
 1406 001a 1343     		orrs	r3, r3, r2
 1407 001c C268     		ldr	r2, [r0, #12]
 1408 001e 1343     		orrs	r3, r3, r2
 1409 0020 0269     		ldr	r2, [r0, #16]
 1410 0022 43EA0243 		orr	r3, r3, r2, lsl #16
 1411 0026 084A     		ldr	r2, .L438+4
 1412 0028 5360     		str	r3, [r2, #4]
 1413 002a 1368     		ldr	r3, [r2]
 1414 002c 4169     		ldr	r1, [r0, #20]
 1415 002e 23F47C53 		bic	r3, r3, #16128
 1416 0032 43EA0123 		orr	r3, r3, r1, lsl #8
 1417 0036 1360     		str	r3, [r2]
 1418 0038 1368     		ldr	r3, [r2]
 1419 003a 43F06003 		orr	r3, r3, #96
 1420 003e 1360     		str	r3, [r2]
 1421 0040 7047     		bx	lr
 1422              	.L439:
 1423 0042 00BF     		.align	2
 1424              	.L438:
 1425 0044 00100240 		.word	1073876992
 1426 0048 00600040 		.word	1073766400
 1428              		.section	.text.HAL_RCCEx_CRSSoftwareSynchronizationGenerate,"ax",%progbits
 1429              		.align	1
 1430              		.global	HAL_RCCEx_CRSSoftwareSynchronizationGenerate
 1431              		.syntax unified
 1432              		.thumb
 1433              		.thumb_func
 1435              	HAL_RCCEx_CRSSoftwareSynchronizationGenerate:
 1436              		@ args = 0, pretend = 0, frame = 0
 1437              		@ frame_needed = 0, uses_anonymous_args = 0
 1438              		@ link register save eliminated.
 1439 0000 024A     		ldr	r2, .L441
 1440 0002 1368     		ldr	r3, [r2]
 1441 0004 43F08003 		orr	r3, r3, #128
 1442 0008 1360     		str	r3, [r2]
 1443 000a 7047     		bx	lr
 1444              	.L442:
 1445              		.align	2
 1446              	.L441:
 1447 000c 00600040 		.word	1073766400
 1449              		.section	.text.HAL_RCCEx_CRSGetSynchronizationInfo,"ax",%progbits
 1450              		.align	1
 1451              		.global	HAL_RCCEx_CRSGetSynchronizationInfo
 1452              		.syntax unified
 1453              		.thumb
 1454              		.thumb_func
 1456              	HAL_RCCEx_CRSGetSynchronizationInfo:
 1457              		@ args = 0, pretend = 0, frame = 0
 1458              		@ frame_needed = 0, uses_anonymous_args = 0
 1459              		@ link register save eliminated.
 1460 0000 074B     		ldr	r3, .L444
 1461 0002 5A68     		ldr	r2, [r3, #4]
 1462 0004 92B2     		uxth	r2, r2
 1463 0006 0260     		str	r2, [r0]
 1464 0008 1A68     		ldr	r2, [r3]
ARM GAS  C:\Users\CL\AppData\Local\Temp\cccEtuyk.s 			page 26


 1465 000a C2F30522 		ubfx	r2, r2, #8, #6
 1466 000e 4260     		str	r2, [r0, #4]
 1467 0010 9A68     		ldr	r2, [r3, #8]
 1468 0012 120C     		lsrs	r2, r2, #16
 1469 0014 8260     		str	r2, [r0, #8]
 1470 0016 9B68     		ldr	r3, [r3, #8]
 1471 0018 03F40043 		and	r3, r3, #32768
 1472 001c C360     		str	r3, [r0, #12]
 1473 001e 7047     		bx	lr
 1474              	.L445:
 1475              		.align	2
 1476              	.L444:
 1477 0020 00600040 		.word	1073766400
 1479              		.section	.text.HAL_RCCEx_CRSWaitSynchronization,"ax",%progbits
 1480              		.align	1
 1481              		.global	HAL_RCCEx_CRSWaitSynchronization
 1482              		.syntax unified
 1483              		.thumb
 1484              		.thumb_func
 1486              	HAL_RCCEx_CRSWaitSynchronization:
 1487              		@ args = 0, pretend = 0, frame = 0
 1488              		@ frame_needed = 0, uses_anonymous_args = 0
 1489 0000 F8B5     		push	{r3, r4, r5, r6, r7, lr}
 1490 0002 0546     		mov	r5, r0
 1491 0004 FFF7FEFF 		bl	HAL_GetTick
 1492 0008 1E4C     		ldr	r4, .L478
 1493 000a 0646     		mov	r6, r0
 1494 000c 0127     		movs	r7, #1
 1495              	.L456:
 1496 000e 681C     		adds	r0, r5, #1
 1497 0010 2FD1     		bne	.L447
 1498              	.L449:
 1499 0012 0020     		movs	r0, #0
 1500              	.L448:
 1501 0014 A268     		ldr	r2, [r4, #8]
 1502 0016 D107     		lsls	r1, r2, #31
 1503 0018 48BF     		it	mi
 1504 001a E760     		strmi	r7, [r4, #12]
 1505 001c A268     		ldr	r2, [r4, #8]
 1506 001e 48BF     		it	mi
 1507 0020 40F00200 		orrmi	r0, r0, #2
 1508 0024 9207     		lsls	r2, r2, #30
 1509 0026 44BF     		itt	mi
 1510 0028 0222     		movmi	r2, #2
 1511 002a E260     		strmi	r2, [r4, #12]
 1512 002c A268     		ldr	r2, [r4, #8]
 1513 002e 48BF     		it	mi
 1514 0030 40F00400 		orrmi	r0, r0, #4
 1515 0034 5305     		lsls	r3, r2, #21
 1516 0036 44BF     		itt	mi
 1517 0038 0422     		movmi	r2, #4
 1518 003a E260     		strmi	r2, [r4, #12]
 1519 003c A268     		ldr	r2, [r4, #8]
 1520 003e 48BF     		it	mi
 1521 0040 40F02000 		orrmi	r0, r0, #32
 1522 0044 D105     		lsls	r1, r2, #23
 1523 0046 44BF     		itt	mi
ARM GAS  C:\Users\CL\AppData\Local\Temp\cccEtuyk.s 			page 27


 1524 0048 0422     		movmi	r2, #4
 1525 004a E260     		strmi	r2, [r4, #12]
 1526 004c A268     		ldr	r2, [r4, #8]
 1527 004e 48BF     		it	mi
 1528 0050 40F00800 		orrmi	r0, r0, #8
 1529 0054 9205     		lsls	r2, r2, #22
 1530 0056 44BF     		itt	mi
 1531 0058 0422     		movmi	r2, #4
 1532 005a E260     		strmi	r2, [r4, #12]
 1533 005c A268     		ldr	r2, [r4, #8]
 1534 005e 48BF     		it	mi
 1535 0060 40F01000 		orrmi	r0, r0, #16
 1536 0064 1307     		lsls	r3, r2, #28
 1537 0066 44BF     		itt	mi
 1538 0068 0822     		movmi	r2, #8
 1539 006a E260     		strmi	r2, [r4, #12]
 1540 006c 0028     		cmp	r0, #0
 1541 006e CED0     		beq	.L456
 1542 0070 F8BD     		pop	{r3, r4, r5, r6, r7, pc}
 1543              	.L447:
 1544 0072 FFF7FEFF 		bl	HAL_GetTick
 1545 0076 801B     		subs	r0, r0, r6
 1546 0078 A842     		cmp	r0, r5
 1547 007a 01D8     		bhi	.L457
 1548 007c 002D     		cmp	r5, #0
 1549 007e C8D1     		bne	.L449
 1550              	.L457:
 1551 0080 0120     		movs	r0, #1
 1552 0082 C7E7     		b	.L448
 1553              	.L479:
 1554              		.align	2
 1555              	.L478:
 1556 0084 00600040 		.word	1073766400
 1558              		.section	.text.HAL_RCCEx_CRS_SyncOkCallback,"ax",%progbits
 1559              		.align	1
 1560              		.weak	HAL_RCCEx_CRS_SyncOkCallback
 1561              		.syntax unified
 1562              		.thumb
 1563              		.thumb_func
 1565              	HAL_RCCEx_CRS_SyncOkCallback:
 1566              		@ args = 0, pretend = 0, frame = 0
 1567              		@ frame_needed = 0, uses_anonymous_args = 0
 1568              		@ link register save eliminated.
 1569 0000 7047     		bx	lr
 1571              		.section	.text.HAL_RCCEx_CRS_SyncWarnCallback,"ax",%progbits
 1572              		.align	1
 1573              		.weak	HAL_RCCEx_CRS_SyncWarnCallback
 1574              		.syntax unified
 1575              		.thumb
 1576              		.thumb_func
 1578              	HAL_RCCEx_CRS_SyncWarnCallback:
 1579              		@ args = 0, pretend = 0, frame = 0
 1580              		@ frame_needed = 0, uses_anonymous_args = 0
 1581              		@ link register save eliminated.
 1582 0000 7047     		bx	lr
 1584              		.section	.text.HAL_RCCEx_CRS_ExpectedSyncCallback,"ax",%progbits
 1585              		.align	1
ARM GAS  C:\Users\CL\AppData\Local\Temp\cccEtuyk.s 			page 28


 1586              		.weak	HAL_RCCEx_CRS_ExpectedSyncCallback
 1587              		.syntax unified
 1588              		.thumb
 1589              		.thumb_func
 1591              	HAL_RCCEx_CRS_ExpectedSyncCallback:
 1592              		@ args = 0, pretend = 0, frame = 0
 1593              		@ frame_needed = 0, uses_anonymous_args = 0
 1594              		@ link register save eliminated.
 1595 0000 7047     		bx	lr
 1597              		.section	.text.HAL_RCCEx_CRS_ErrorCallback,"ax",%progbits
 1598              		.align	1
 1599              		.weak	HAL_RCCEx_CRS_ErrorCallback
 1600              		.syntax unified
 1601              		.thumb
 1602              		.thumb_func
 1604              	HAL_RCCEx_CRS_ErrorCallback:
 1605              		@ args = 0, pretend = 0, frame = 0
 1606              		@ frame_needed = 0, uses_anonymous_args = 0
 1607              		@ link register save eliminated.
 1608 0000 7047     		bx	lr
 1610              		.section	.text.HAL_RCCEx_CRS_IRQHandler,"ax",%progbits
 1611              		.align	1
 1612              		.global	HAL_RCCEx_CRS_IRQHandler
 1613              		.syntax unified
 1614              		.thumb
 1615              		.thumb_func
 1617              	HAL_RCCEx_CRS_IRQHandler:
 1618              		@ args = 0, pretend = 0, frame = 0
 1619              		@ frame_needed = 0, uses_anonymous_args = 0
 1620 0000 1B49     		ldr	r1, .L524
 1621 0002 08B5     		push	{r3, lr}
 1622 0004 8B68     		ldr	r3, [r1, #8]
 1623 0006 0A68     		ldr	r2, [r1]
 1624 0008 D807     		lsls	r0, r3, #31
 1625 000a 06D5     		bpl	.L485
 1626 000c D007     		lsls	r0, r2, #31
 1627 000e 04D5     		bpl	.L485
 1628 0010 0123     		movs	r3, #1
 1629 0012 CB60     		str	r3, [r1, #12]
 1630 0014 FFF7FEFF 		bl	HAL_RCCEx_CRS_SyncOkCallback
 1631              	.L484:
 1632 0018 08BD     		pop	{r3, pc}
 1633              	.L485:
 1634 001a 9807     		lsls	r0, r3, #30
 1635 001c 07D5     		bpl	.L487
 1636 001e 9107     		lsls	r1, r2, #30
 1637 0020 05D5     		bpl	.L487
 1638 0022 134B     		ldr	r3, .L524
 1639 0024 0222     		movs	r2, #2
 1640 0026 DA60     		str	r2, [r3, #12]
 1641 0028 FFF7FEFF 		bl	HAL_RCCEx_CRS_SyncWarnCallback
 1642 002c F4E7     		b	.L484
 1643              	.L487:
 1644 002e 1807     		lsls	r0, r3, #28
 1645 0030 07D5     		bpl	.L488
 1646 0032 1107     		lsls	r1, r2, #28
 1647 0034 05D5     		bpl	.L488
ARM GAS  C:\Users\CL\AppData\Local\Temp\cccEtuyk.s 			page 29


 1648 0036 0E4B     		ldr	r3, .L524
 1649 0038 0822     		movs	r2, #8
 1650 003a DA60     		str	r2, [r3, #12]
 1651 003c FFF7FEFF 		bl	HAL_RCCEx_CRS_ExpectedSyncCallback
 1652 0040 EAE7     		b	.L484
 1653              	.L488:
 1654 0042 5807     		lsls	r0, r3, #29
 1655 0044 E8D5     		bpl	.L484
 1656 0046 5107     		lsls	r1, r2, #29
 1657 0048 E6D5     		bpl	.L484
 1658 004a 13F48070 		ands	r0, r3, #256
 1659 004e 18BF     		it	ne
 1660 0050 0820     		movne	r0, #8
 1661 0052 9A05     		lsls	r2, r3, #22
 1662 0054 48BF     		it	mi
 1663 0056 40F01000 		orrmi	r0, r0, #16
 1664 005a 5B05     		lsls	r3, r3, #21
 1665 005c 044B     		ldr	r3, .L524
 1666 005e 4FF00402 		mov	r2, #4
 1667 0062 48BF     		it	mi
 1668 0064 40F02000 		orrmi	r0, r0, #32
 1669 0068 DA60     		str	r2, [r3, #12]
 1670 006a FFF7FEFF 		bl	HAL_RCCEx_CRS_ErrorCallback
 1671 006e D3E7     		b	.L484
 1672              	.L525:
 1673              		.align	2
 1674              	.L524:
 1675 0070 00600040 		.word	1073766400
 1677              		.ident	"GCC: (GNU Arm Embedded Toolchain 10.3-2021.10) 10.3.1 20210824 (release)"
ARM GAS  C:\Users\CL\AppData\Local\Temp\cccEtuyk.s 			page 30

