ARM GAS  C:\Users\CL\AppData\Local\Temp\ccWE1krf.s 			page 1


   1              		.cpu cortex-m4
   2              		.arch armv7e-m
   3              		.fpu fpv4-sp-d16
   4              		.eabi_attribute 27, 1
   5              		.eabi_attribute 28, 1
   6              		.eabi_attribute 20, 1
   7              		.eabi_attribute 21, 1
   8              		.eabi_attribute 23, 3
   9              		.eabi_attribute 24, 1
  10              		.eabi_attribute 25, 1
  11              		.eabi_attribute 26, 1
  12              		.eabi_attribute 30, 4
  13              		.eabi_attribute 34, 1
  14              		.eabi_attribute 18, 4
  15              		.file	"stm32l4xx_hal_flash_ex.c"
  16              		.text
  17              		.section	.text.FLASH_MassErase,"ax",%progbits
  18              		.align	1
  19              		.syntax unified
  20              		.thumb
  21              		.thumb_func
  23              	FLASH_MassErase:
  24              		@ args = 0, pretend = 0, frame = 0
  25              		@ frame_needed = 0, uses_anonymous_args = 0
  26              		@ link register save eliminated.
  27 0000 064B     		ldr	r3, .L6
  28 0002 10F0010F 		tst	r0, #1
  29 0006 1EBF     		ittt	ne
  30 0008 5A69     		ldrne	r2, [r3, #20]
  31 000a 42F00402 		orrne	r2, r2, #4
  32 000e 5A61     		strne	r2, [r3, #20]
  33 0010 5A69     		ldr	r2, [r3, #20]
  34 0012 42F48032 		orr	r2, r2, #65536
  35 0016 5A61     		str	r2, [r3, #20]
  36 0018 7047     		bx	lr
  37              	.L7:
  38 001a 00BF     		.align	2
  39              	.L6:
  40 001c 00200240 		.word	1073881088
  42              		.section	.text.HAL_FLASHEx_OBProgram,"ax",%progbits
  43              		.align	1
  44              		.global	HAL_FLASHEx_OBProgram
  45              		.syntax unified
  46              		.thumb
  47              		.thumb_func
  49              	HAL_FLASHEx_OBProgram:
  50              		@ args = 0, pretend = 0, frame = 0
  51              		@ frame_needed = 0, uses_anonymous_args = 0
  52 0000 2DE9F843 		push	{r3, r4, r5, r6, r7, r8, r9, lr}
  53 0004 DFF83882 		ldr	r8, .L94+4
  54 0008 98F80030 		ldrb	r3, [r8]	@ zero_extendqisi2
  55 000c 012B     		cmp	r3, #1
  56 000e 0446     		mov	r4, r0
  57 0010 00F01181 		beq	.L33
  58 0014 0127     		movs	r7, #1
  59 0016 88F80070 		strb	r7, [r8]
  60 001a 0068     		ldr	r0, [r0]
ARM GAS  C:\Users\CL\AppData\Local\Temp\ccWE1krf.s 			page 2


  61 001c 0023     		movs	r3, #0
  62 001e 3840     		ands	r0, r0, r7
  63 0020 C8F80430 		str	r3, [r8, #4]
  64 0024 00F00581 		beq	.L34
  65 0028 4CF25030 		movw	r0, #50000
  66 002c D4E90196 		ldrd	r9, r6, [r4, #4]
  67 0030 E568     		ldr	r5, [r4, #12]
  68 0032 FFF7FEFF 		bl	FLASH_WaitForLastOperation
  69 0036 D8B9     		cbnz	r0, .L10
  70 0038 804A     		ldr	r2, .L94
  71 003a B9F1000F 		cmp	r9, #0
  72 003e 40F0EC80 		bne	.L11
  73 0042 D36A     		ldr	r3, [r2, #44]
  74 0044 23F07F13 		bic	r3, r3, #8323199
  75 0048 3343     		orrs	r3, r3, r6
  76 004a 43EA0543 		orr	r3, r3, r5, lsl #16
  77 004e D362     		str	r3, [r2, #44]
  78              	.L12:
  79 0050 7A4D     		ldr	r5, .L94
  80 0052 6B69     		ldr	r3, [r5, #20]
  81 0054 43F40033 		orr	r3, r3, #131072
  82 0058 6B61     		str	r3, [r5, #20]
  83 005a 4CF25030 		movw	r0, #50000
  84 005e FFF7FEFF 		bl	FLASH_WaitForLastOperation
  85 0062 6B69     		ldr	r3, [r5, #20]
  86 0064 071E     		subs	r7, r0, #0
  87 0066 23F40033 		bic	r3, r3, #131072
  88 006a 6B61     		str	r3, [r5, #20]
  89 006c 18BF     		it	ne
  90 006e 0127     		movne	r7, #1
  91              	.L10:
  92 0070 2368     		ldr	r3, [r4]
  93 0072 9E07     		lsls	r6, r3, #30
  94 0074 19D5     		bpl	.L13
  95 0076 4CF25030 		movw	r0, #50000
  96 007a 2669     		ldr	r6, [r4, #16]
  97 007c FFF7FEFF 		bl	FLASH_WaitForLastOperation
  98 0080 90B9     		cbnz	r0, .L14
  99 0082 6E4D     		ldr	r5, .L94
 100 0084 2B6A     		ldr	r3, [r5, #32]
 101 0086 23F0FF03 		bic	r3, r3, #255
 102 008a 3343     		orrs	r3, r3, r6
 103 008c 2B62     		str	r3, [r5, #32]
 104 008e 6B69     		ldr	r3, [r5, #20]
 105 0090 43F40033 		orr	r3, r3, #131072
 106 0094 6B61     		str	r3, [r5, #20]
 107 0096 4CF25030 		movw	r0, #50000
 108 009a FFF7FEFF 		bl	FLASH_WaitForLastOperation
 109 009e 6B69     		ldr	r3, [r5, #20]
 110 00a0 23F40033 		bic	r3, r3, #131072
 111 00a4 6B61     		str	r3, [r5, #20]
 112 00a6 00B1     		cbz	r0, .L13
 113              	.L14:
 114 00a8 0127     		movs	r7, #1
 115              	.L13:
 116 00aa 2368     		ldr	r3, [r4]
 117 00ac 5D07     		lsls	r5, r3, #29
ARM GAS  C:\Users\CL\AppData\Local\Temp\ccWE1krf.s 			page 3


 118 00ae 78D5     		bpl	.L15
 119 00b0 4CF25030 		movw	r0, #50000
 120 00b4 D4E90565 		ldrd	r6, r5, [r4, #20]
 121 00b8 FFF7FEFF 		bl	FLASH_WaitForLastOperation
 122 00bc 0028     		cmp	r0, #0
 123 00be 6FD1     		bne	.L16
 124 00c0 16F00103 		ands	r3, r6, #1
 125 00c4 0EBF     		itee	eq
 126 00c6 1A46     		moveq	r2, r3
 127 00c8 05F4E063 		andne	r3, r5, #1792
 128 00cc 4FF4E062 		movne	r2, #1792
 129 00d0 B007     		lsls	r0, r6, #30
 130 00d2 42BF     		ittt	mi
 131 00d4 05F48051 		andmi	r1, r5, #4096
 132 00d8 0B43     		orrmi	r3, r3, r1
 133 00da 42F48052 		orrmi	r2, r2, #4096
 134 00de 7107     		lsls	r1, r6, #29
 135 00e0 42BF     		ittt	mi
 136 00e2 05F40051 		andmi	r1, r5, #8192
 137 00e6 0B43     		orrmi	r3, r3, r1
 138 00e8 42F40052 		orrmi	r2, r2, #8192
 139 00ec F004     		lsls	r0, r6, #19
 140 00ee 42BF     		ittt	mi
 141 00f0 05F48041 		andmi	r1, r5, #16384
 142 00f4 0B43     		orrmi	r3, r3, r1
 143 00f6 42F48042 		orrmi	r2, r2, #16384
 144 00fa 3107     		lsls	r1, r6, #28
 145 00fc 42BF     		ittt	mi
 146 00fe 05F48031 		andmi	r1, r5, #65536
 147 0102 0B43     		orrmi	r3, r3, r1
 148 0104 42F48032 		orrmi	r2, r2, #65536
 149 0108 F006     		lsls	r0, r6, #27
 150 010a 42BF     		ittt	mi
 151 010c 05F40031 		andmi	r1, r5, #131072
 152 0110 0B43     		orrmi	r3, r3, r1
 153 0112 42F40032 		orrmi	r2, r2, #131072
 154 0116 B106     		lsls	r1, r6, #26
 155 0118 42BF     		ittt	mi
 156 011a 05F48021 		andmi	r1, r5, #262144
 157 011e 0B43     		orrmi	r3, r3, r1
 158 0120 42F48022 		orrmi	r2, r2, #262144
 159 0124 7006     		lsls	r0, r6, #25
 160 0126 42BF     		ittt	mi
 161 0128 05F40021 		andmi	r1, r5, #524288
 162 012c 0B43     		orrmi	r3, r3, r1
 163 012e 42F40022 		orrmi	r2, r2, #524288
 164 0132 B105     		lsls	r1, r6, #22
 165 0134 42BF     		ittt	mi
 166 0136 05F40001 		andmi	r1, r5, #8388608
 167 013a 0B43     		orrmi	r3, r3, r1
 168 013c 42F40002 		orrmi	r2, r2, #8388608
 169 0140 7005     		lsls	r0, r6, #21
 170 0142 42BF     		ittt	mi
 171 0144 05F08071 		andmi	r1, r5, #16777216
 172 0148 0B43     		orrmi	r3, r3, r1
 173 014a 42F08072 		orrmi	r2, r2, #16777216
 174 014e 3105     		lsls	r1, r6, #20
ARM GAS  C:\Users\CL\AppData\Local\Temp\ccWE1krf.s 			page 4


 175 0150 42BF     		ittt	mi
 176 0152 05F00071 		andmi	r1, r5, #33554432
 177 0156 0B43     		orrmi	r3, r3, r1
 178 0158 42F00072 		orrmi	r2, r2, #33554432
 179 015c B004     		lsls	r0, r6, #18
 180 015e 42BF     		ittt	mi
 181 0160 05F08061 		andmi	r1, r5, #67108864
 182 0164 0B43     		orrmi	r3, r3, r1
 183 0166 42F08062 		orrmi	r2, r2, #67108864
 184 016a 7104     		lsls	r1, r6, #17
 185 016c 44BF     		itt	mi
 186 016e 05F00065 		andmi	r5, r5, #134217728
 187 0172 2B43     		orrmi	r3, r3, r5
 188 0174 314D     		ldr	r5, .L94
 189 0176 296A     		ldr	r1, [r5, #32]
 190 0178 48BF     		it	mi
 191 017a 42F00062 		orrmi	r2, r2, #134217728
 192 017e 21EA0202 		bic	r2, r1, r2
 193 0182 1343     		orrs	r3, r3, r2
 194 0184 2B62     		str	r3, [r5, #32]
 195 0186 6B69     		ldr	r3, [r5, #20]
 196 0188 43F40033 		orr	r3, r3, #131072
 197 018c 6B61     		str	r3, [r5, #20]
 198 018e 4CF25030 		movw	r0, #50000
 199 0192 FFF7FEFF 		bl	FLASH_WaitForLastOperation
 200 0196 6B69     		ldr	r3, [r5, #20]
 201 0198 23F40033 		bic	r3, r3, #131072
 202 019c 6B61     		str	r3, [r5, #20]
 203 019e 00B1     		cbz	r0, .L15
 204              	.L16:
 205 01a0 0127     		movs	r7, #1
 206              	.L15:
 207 01a2 2368     		ldr	r3, [r4]
 208 01a4 1A07     		lsls	r2, r3, #28
 209 01a6 32D5     		bpl	.L30
 210 01a8 D4E90896 		ldrd	r9, r6, [r4, #32]
 211 01ac B145     		cmp	r9, r6
 212 01ae 2ED0     		beq	.L30
 213 01b0 4CF25030 		movw	r0, #50000
 214 01b4 E569     		ldr	r5, [r4, #28]
 215 01b6 FFF7FEFF 		bl	FLASH_WaitForLastOperation
 216 01ba 38BB     		cbnz	r0, .L31
 217 01bc EB07     		lsls	r3, r5, #31
 218 01be 10D5     		bpl	.L32
 219 01c0 1E4B     		ldr	r3, .L94
 220 01c2 596A     		ldr	r1, [r3, #36]
 221 01c4 A0F50040 		sub	r0, r0, #32768
 222 01c8 09F17849 		add	r9, r9, #-134217728
 223 01cc 0140     		ands	r1, r1, r0
 224 01ce 41EAD901 		orr	r1, r1, r9, lsr #3
 225 01d2 5962     		str	r1, [r3, #36]
 226 01d4 9A6A     		ldr	r2, [r3, #40]
 227 01d6 06F17846 		add	r6, r6, #-134217728
 228 01da 0240     		ands	r2, r2, r0
 229 01dc 42EAD602 		orr	r2, r2, r6, lsr #3
 230 01e0 9A62     		str	r2, [r3, #40]
 231              	.L32:
ARM GAS  C:\Users\CL\AppData\Local\Temp\ccWE1krf.s 			page 5


 232 01e2 164C     		ldr	r4, .L94
 233 01e4 A36A     		ldr	r3, [r4, #40]
 234 01e6 05F00045 		and	r5, r5, #-2147483648
 235 01ea 23F00043 		bic	r3, r3, #-2147483648
 236 01ee 2B43     		orrs	r3, r3, r5
 237 01f0 A362     		str	r3, [r4, #40]
 238 01f2 6369     		ldr	r3, [r4, #20]
 239 01f4 43F40033 		orr	r3, r3, #131072
 240 01f8 6361     		str	r3, [r4, #20]
 241 01fa 4CF25030 		movw	r0, #50000
 242 01fe FFF7FEFF 		bl	FLASH_WaitForLastOperation
 243 0202 6369     		ldr	r3, [r4, #20]
 244 0204 23F40033 		bic	r3, r3, #131072
 245 0208 6361     		str	r3, [r4, #20]
 246 020a 00B1     		cbz	r0, .L30
 247              	.L31:
 248 020c 0127     		movs	r7, #1
 249              	.L30:
 250 020e 0023     		movs	r3, #0
 251 0210 88F80030 		strb	r3, [r8]
 252              	.L9:
 253 0214 3846     		mov	r0, r7
 254 0216 BDE8F883 		pop	{r3, r4, r5, r6, r7, r8, r9, pc}
 255              	.L11:
 256 021a B9F1010F 		cmp	r9, #1
 257 021e 7FF417AF 		bne	.L12
 258 0222 136B     		ldr	r3, [r2, #48]
 259 0224 23F07F13 		bic	r3, r3, #8323199
 260 0228 3343     		orrs	r3, r3, r6
 261 022a 43EA0543 		orr	r3, r3, r5, lsl #16
 262 022e 1363     		str	r3, [r2, #48]
 263 0230 0EE7     		b	.L12
 264              	.L34:
 265 0232 0746     		mov	r7, r0
 266 0234 1CE7     		b	.L10
 267              	.L33:
 268 0236 0227     		movs	r7, #2
 269 0238 ECE7     		b	.L9
 270              	.L95:
 271 023a 00BF     		.align	2
 272              	.L94:
 273 023c 00200240 		.word	1073881088
 274 0240 00000000 		.word	pFlash
 276              		.section	.text.HAL_FLASHEx_OBGetConfig,"ax",%progbits
 277              		.align	1
 278              		.global	HAL_FLASHEx_OBGetConfig
 279              		.syntax unified
 280              		.thumb
 281              		.thumb_func
 283              	HAL_FLASHEx_OBGetConfig:
 284              		@ args = 0, pretend = 0, frame = 0
 285              		@ frame_needed = 0, uses_anonymous_args = 0
 286              		@ link register save eliminated.
 287 0000 4268     		ldr	r2, [r0, #4]
 288 0002 0623     		movs	r3, #6
 289 0004 012A     		cmp	r2, #1
 290 0006 0360     		str	r3, [r0]
ARM GAS  C:\Users\CL\AppData\Local\Temp\ccWE1krf.s 			page 6


 291 0008 0CD8     		bhi	.L97
 292 000a 0723     		movs	r3, #7
 293 000c 0360     		str	r3, [r0]
 294 000e 1E4B     		ldr	r3, .L107
 295 0010 002A     		cmp	r2, #0
 296 0012 31D1     		bne	.L98
 297 0014 DA6A     		ldr	r2, [r3, #44]
 298 0016 02F07F02 		and	r2, r2, #127
 299 001a 8260     		str	r2, [r0, #8]
 300 001c DB6A     		ldr	r3, [r3, #44]
 301              	.L106:
 302 001e C3F30643 		ubfx	r3, r3, #16, #7
 303 0022 C360     		str	r3, [r0, #12]
 304              	.L97:
 305 0024 184A     		ldr	r2, .L107
 306 0026 136A     		ldr	r3, [r2, #32]
 307 0028 DBB2     		uxtb	r3, r3
 308 002a AA2B     		cmp	r3, #170
 309 002c 01D0     		beq	.L99
 310 002e CC2B     		cmp	r3, #204
 311 0030 28D1     		bne	.L102
 312              	.L99:
 313 0032 136A     		ldr	r3, [r2, #32]
 314 0034 DBB2     		uxtb	r3, r3
 315              	.L100:
 316 0036 0361     		str	r3, [r0, #16]
 317 0038 136A     		ldr	r3, [r2, #32]
 318 003a 23F0FF03 		bic	r3, r3, #255
 319 003e 8361     		str	r3, [r0, #24]
 320 0040 C369     		ldr	r3, [r0, #28]
 321 0042 012B     		cmp	r3, #1
 322 0044 17D1     		bne	.L96
 323 0046 0368     		ldr	r3, [r0]
 324 0048 43F00803 		orr	r3, r3, #8
 325 004c 0360     		str	r3, [r0]
 326 004e 516A     		ldr	r1, [r2, #36]
 327 0050 0E4B     		ldr	r3, .L107+4
 328 0052 03EAC101 		and	r1, r3, r1, lsl #3
 329 0056 01F10061 		add	r1, r1, #134217728
 330 005a 0162     		str	r1, [r0, #32]
 331 005c 916A     		ldr	r1, [r2, #40]
 332 005e 03EAC103 		and	r3, r3, r1, lsl #3
 333 0062 03F10063 		add	r3, r3, #134217728
 334 0066 0733     		adds	r3, r3, #7
 335 0068 4362     		str	r3, [r0, #36]
 336 006a 936A     		ldr	r3, [r2, #40]
 337 006c 03F00043 		and	r3, r3, #-2147483648
 338 0070 43F00103 		orr	r3, r3, #1
 339 0074 C361     		str	r3, [r0, #28]
 340              	.L96:
 341 0076 7047     		bx	lr
 342              	.L98:
 343 0078 1A6B     		ldr	r2, [r3, #48]
 344 007a 02F07F02 		and	r2, r2, #127
 345 007e 8260     		str	r2, [r0, #8]
 346 0080 1B6B     		ldr	r3, [r3, #48]
 347 0082 CCE7     		b	.L106
ARM GAS  C:\Users\CL\AppData\Local\Temp\ccWE1krf.s 			page 7


 348              	.L102:
 349 0084 BB23     		movs	r3, #187
 350 0086 D6E7     		b	.L100
 351              	.L108:
 352              		.align	2
 353              	.L107:
 354 0088 00200240 		.word	1073881088
 355 008c F8FF0300 		.word	262136
 357              		.section	.text.FLASH_PageErase,"ax",%progbits
 358              		.align	1
 359              		.global	FLASH_PageErase
 360              		.syntax unified
 361              		.thumb
 362              		.thumb_func
 364              	FLASH_PageErase:
 365              		@ args = 0, pretend = 0, frame = 0
 366              		@ frame_needed = 0, uses_anonymous_args = 0
 367              		@ link register save eliminated.
 368 0000 084B     		ldr	r3, .L110
 369 0002 5A69     		ldr	r2, [r3, #20]
 370 0004 C000     		lsls	r0, r0, #3
 371 0006 22F47E72 		bic	r2, r2, #1016
 372 000a 00F4FF60 		and	r0, r0, #2040
 373 000e 1043     		orrs	r0, r0, r2
 374 0010 5861     		str	r0, [r3, #20]
 375 0012 5A69     		ldr	r2, [r3, #20]
 376 0014 42F00202 		orr	r2, r2, #2
 377 0018 5A61     		str	r2, [r3, #20]
 378 001a 5A69     		ldr	r2, [r3, #20]
 379 001c 42F48032 		orr	r2, r2, #65536
 380 0020 5A61     		str	r2, [r3, #20]
 381 0022 7047     		bx	lr
 382              	.L111:
 383              		.align	2
 384              	.L110:
 385 0024 00200240 		.word	1073881088
 387              		.section	.text.HAL_FLASHEx_Erase_IT,"ax",%progbits
 388              		.align	1
 389              		.global	HAL_FLASHEx_Erase_IT
 390              		.syntax unified
 391              		.thumb
 392              		.thumb_func
 394              	HAL_FLASHEx_Erase_IT:
 395              		@ args = 0, pretend = 0, frame = 0
 396              		@ frame_needed = 0, uses_anonymous_args = 0
 397 0000 10B5     		push	{r4, lr}
 398 0002 1F4B     		ldr	r3, .L122
 399 0004 1A78     		ldrb	r2, [r3]	@ zero_extendqisi2
 400 0006 012A     		cmp	r2, #1
 401 0008 0446     		mov	r4, r0
 402 000a 36D0     		beq	.L119
 403 000c 0022     		movs	r2, #0
 404 000e 5A60     		str	r2, [r3, #4]
 405 0010 0121     		movs	r1, #1
 406 0012 1C4A     		ldr	r2, .L122+4
 407 0014 1970     		strb	r1, [r3]
 408 0016 1068     		ldr	r0, [r2]
ARM GAS  C:\Users\CL\AppData\Local\Temp\ccWE1krf.s 			page 8


 409 0018 8005     		lsls	r0, r0, #22
 410 001a 19D5     		bpl	.L114
 411 001c 1068     		ldr	r0, [r2]
 412 001e 4005     		lsls	r0, r0, #21
 413 0020 20D5     		bpl	.L117
 414 0022 1168     		ldr	r1, [r2]
 415 0024 21F48061 		bic	r1, r1, #1024
 416 0028 1160     		str	r1, [r2]
 417 002a 0322     		movs	r2, #3
 418              	.L120:
 419 002c 1A77     		strb	r2, [r3, #28]
 420              	.L116:
 421 002e 1549     		ldr	r1, .L122+4
 422 0030 4A69     		ldr	r2, [r1, #20]
 423 0032 42F04072 		orr	r2, r2, #50331648
 424 0036 4A61     		str	r2, [r1, #20]
 425 0038 2268     		ldr	r2, [r4]
 426 003a 6168     		ldr	r1, [r4, #4]
 427 003c 1961     		str	r1, [r3, #16]
 428 003e 012A     		cmp	r2, #1
 429 0040 12D1     		bne	.L118
 430 0042 0222     		movs	r2, #2
 431 0044 0846     		mov	r0, r1
 432 0046 1A72     		strb	r2, [r3, #8]
 433 0048 FFF7FEFF 		bl	FLASH_MassErase
 434              	.L121:
 435 004c 0020     		movs	r0, #0
 436              	.L113:
 437 004e 10BD     		pop	{r4, pc}
 438              	.L114:
 439 0050 1168     		ldr	r1, [r2]
 440 0052 11F48061 		ands	r1, r1, #1024
 441 0056 05D0     		beq	.L117
 442 0058 1168     		ldr	r1, [r2]
 443 005a 21F48061 		bic	r1, r1, #1024
 444 005e 1160     		str	r1, [r2]
 445 0060 0222     		movs	r2, #2
 446 0062 E3E7     		b	.L120
 447              	.L117:
 448 0064 1977     		strb	r1, [r3, #28]
 449 0066 E2E7     		b	.L116
 450              	.L118:
 451 0068 0122     		movs	r2, #1
 452 006a 1A72     		strb	r2, [r3, #8]
 453 006c A068     		ldr	r0, [r4, #8]
 454 006e E268     		ldr	r2, [r4, #12]
 455 0070 9A61     		str	r2, [r3, #24]
 456 0072 5861     		str	r0, [r3, #20]
 457 0074 FFF7FEFF 		bl	FLASH_PageErase
 458 0078 E8E7     		b	.L121
 459              	.L119:
 460 007a 0220     		movs	r0, #2
 461 007c E7E7     		b	.L113
 462              	.L123:
 463 007e 00BF     		.align	2
 464              	.L122:
 465 0080 00000000 		.word	pFlash
ARM GAS  C:\Users\CL\AppData\Local\Temp\ccWE1krf.s 			page 9


 466 0084 00200240 		.word	1073881088
 468              		.section	.text.FLASH_FlushCaches,"ax",%progbits
 469              		.align	1
 470              		.global	FLASH_FlushCaches
 471              		.syntax unified
 472              		.thumb
 473              		.thumb_func
 475              	FLASH_FlushCaches:
 476              		@ args = 0, pretend = 0, frame = 0
 477              		@ frame_needed = 0, uses_anonymous_args = 0
 478              		@ link register save eliminated.
 479 0000 1548     		ldr	r0, .L127
 480 0002 037F     		ldrb	r3, [r0, #28]	@ zero_extendqisi2
 481 0004 DAB2     		uxtb	r2, r3
 482 0006 03F0FD03 		and	r3, r3, #253
 483 000a 012B     		cmp	r3, #1
 484 000c 10D1     		bne	.L125
 485 000e 134B     		ldr	r3, .L127+4
 486 0010 1968     		ldr	r1, [r3]
 487 0012 21F40071 		bic	r1, r1, #512
 488 0016 1960     		str	r1, [r3]
 489 0018 1968     		ldr	r1, [r3]
 490 001a 41F40061 		orr	r1, r1, #2048
 491 001e 1960     		str	r1, [r3]
 492 0020 1968     		ldr	r1, [r3]
 493 0022 21F40061 		bic	r1, r1, #2048
 494 0026 1960     		str	r1, [r3]
 495 0028 1968     		ldr	r1, [r3]
 496 002a 41F40071 		orr	r1, r1, #512
 497 002e 1960     		str	r1, [r3]
 498              	.L125:
 499 0030 931E     		subs	r3, r2, #2
 500 0032 012B     		cmp	r3, #1
 501 0034 0CD8     		bhi	.L126
 502 0036 094B     		ldr	r3, .L127+4
 503 0038 1A68     		ldr	r2, [r3]
 504 003a 42F48052 		orr	r2, r2, #4096
 505 003e 1A60     		str	r2, [r3]
 506 0040 1A68     		ldr	r2, [r3]
 507 0042 22F48052 		bic	r2, r2, #4096
 508 0046 1A60     		str	r2, [r3]
 509 0048 1A68     		ldr	r2, [r3]
 510 004a 42F48062 		orr	r2, r2, #1024
 511 004e 1A60     		str	r2, [r3]
 512              	.L126:
 513 0050 0023     		movs	r3, #0
 514 0052 0377     		strb	r3, [r0, #28]
 515 0054 7047     		bx	lr
 516              	.L128:
 517 0056 00BF     		.align	2
 518              	.L127:
 519 0058 00000000 		.word	pFlash
 520 005c 00200240 		.word	1073881088
 522              		.section	.text.HAL_FLASHEx_Erase,"ax",%progbits
 523              		.align	1
 524              		.global	HAL_FLASHEx_Erase
 525              		.syntax unified
ARM GAS  C:\Users\CL\AppData\Local\Temp\ccWE1krf.s 			page 10


 526              		.thumb
 527              		.thumb_func
 529              	HAL_FLASHEx_Erase:
 530              		@ args = 0, pretend = 0, frame = 0
 531              		@ frame_needed = 0, uses_anonymous_args = 0
 532 0000 2DE9F047 		push	{r4, r5, r6, r7, r8, r9, r10, lr}
 533 0004 324D     		ldr	r5, .L143
 534 0006 2B78     		ldrb	r3, [r5]	@ zero_extendqisi2
 535 0008 012B     		cmp	r3, #1
 536 000a 0646     		mov	r6, r0
 537 000c 8846     		mov	r8, r1
 538 000e 5CD0     		beq	.L141
 539 0010 0127     		movs	r7, #1
 540 0012 4CF25030 		movw	r0, #50000
 541 0016 2F70     		strb	r7, [r5]
 542 0018 FFF7FEFF 		bl	FLASH_WaitForLastOperation
 543 001c 0446     		mov	r4, r0
 544 001e 10BB     		cbnz	r0, .L131
 545 0020 2C4B     		ldr	r3, .L143+4
 546 0022 6860     		str	r0, [r5, #4]
 547 0024 1A68     		ldr	r2, [r3]
 548 0026 12F4007F 		tst	r2, #512
 549 002a 1A68     		ldr	r2, [r3]
 550 002c 20D0     		beq	.L132
 551 002e 5105     		lsls	r1, r2, #21
 552 0030 06D5     		bpl	.L133
 553 0032 1A68     		ldr	r2, [r3]
 554 0034 22F48062 		bic	r2, r2, #1024
 555 0038 1A60     		str	r2, [r3]
 556 003a 0323     		movs	r3, #3
 557              	.L142:
 558 003c 2B77     		strb	r3, [r5, #28]
 559 003e 00E0     		b	.L134
 560              	.L133:
 561 0040 2F77     		strb	r7, [r5, #28]
 562              	.L134:
 563 0042 3368     		ldr	r3, [r6]
 564 0044 012B     		cmp	r3, #1
 565 0046 1DD1     		bne	.L136
 566 0048 7068     		ldr	r0, [r6, #4]
 567 004a FFF7FEFF 		bl	FLASH_MassErase
 568 004e 4CF25030 		movw	r0, #50000
 569 0052 FFF7FEFF 		bl	FLASH_WaitForLastOperation
 570 0056 1F4A     		ldr	r2, .L143+4
 571 0058 5369     		ldr	r3, [r2, #20]
 572 005a 23F00403 		bic	r3, r3, #4
 573 005e 0446     		mov	r4, r0
 574 0060 5361     		str	r3, [r2, #20]
 575              	.L137:
 576 0062 FFF7FEFF 		bl	FLASH_FlushCaches
 577              	.L131:
 578 0066 0023     		movs	r3, #0
 579 0068 2B70     		strb	r3, [r5]
 580              	.L130:
 581 006a 2046     		mov	r0, r4
 582 006c BDE8F087 		pop	{r4, r5, r6, r7, r8, r9, r10, pc}
 583              	.L132:
ARM GAS  C:\Users\CL\AppData\Local\Temp\ccWE1krf.s 			page 11


 584 0070 5205     		lsls	r2, r2, #21
 585 0072 05D5     		bpl	.L135
 586 0074 1A68     		ldr	r2, [r3]
 587 0076 22F48062 		bic	r2, r2, #1024
 588 007a 1A60     		str	r2, [r3]
 589 007c 0223     		movs	r3, #2
 590 007e DDE7     		b	.L142
 591              	.L135:
 592 0080 2877     		strb	r0, [r5, #28]
 593 0082 DEE7     		b	.L134
 594              	.L136:
 595 0084 4FF0FF33 		mov	r3, #-1
 596 0088 C8F80030 		str	r3, [r8]
 597 008c B768     		ldr	r7, [r6, #8]
 598 008e DFF84490 		ldr	r9, .L143+4
 599 0092 DFF844A0 		ldr	r10, .L143+8
 600              	.L138:
 601 0096 D6E90232 		ldrd	r3, r2, [r6, #8]
 602 009a 1344     		add	r3, r3, r2
 603 009c BB42     		cmp	r3, r7
 604 009e E0D9     		bls	.L137
 605 00a0 7168     		ldr	r1, [r6, #4]
 606 00a2 3846     		mov	r0, r7
 607 00a4 FFF7FEFF 		bl	FLASH_PageErase
 608 00a8 4CF25030 		movw	r0, #50000
 609 00ac FFF7FEFF 		bl	FLASH_WaitForLastOperation
 610 00b0 D9F81430 		ldr	r3, [r9, #20]
 611 00b4 03EA0A03 		and	r3, r3, r10
 612 00b8 C9F81430 		str	r3, [r9, #20]
 613 00bc 18B1     		cbz	r0, .L139
 614 00be C8F80070 		str	r7, [r8]
 615 00c2 0446     		mov	r4, r0
 616 00c4 CDE7     		b	.L137
 617              	.L139:
 618 00c6 0137     		adds	r7, r7, #1
 619 00c8 E5E7     		b	.L138
 620              	.L141:
 621 00ca 0224     		movs	r4, #2
 622 00cc CDE7     		b	.L130
 623              	.L144:
 624 00ce 00BF     		.align	2
 625              	.L143:
 626 00d0 00000000 		.word	pFlash
 627 00d4 00200240 		.word	1073881088
 628 00d8 05FCFFFF 		.word	-1019
 630              		.ident	"GCC: (GNU Arm Embedded Toolchain 10.3-2021.10) 10.3.1 20210824 (release)"
ARM GAS  C:\Users\CL\AppData\Local\Temp\ccWE1krf.s 			page 12

