ARM GAS  C:\Users\CL\AppData\Local\Temp\ccS6Dqkb.s 			page 1


   1              		.cpu cortex-m4
   2              		.arch armv7e-m
   3              		.fpu fpv4-sp-d16
   4              		.eabi_attribute 27, 1
   5              		.eabi_attribute 28, 1
   6              		.eabi_attribute 20, 1
   7              		.eabi_attribute 21, 1
   8              		.eabi_attribute 23, 3
   9              		.eabi_attribute 24, 1
  10              		.eabi_attribute 25, 1
  11              		.eabi_attribute 26, 1
  12              		.eabi_attribute 30, 4
  13              		.eabi_attribute 34, 1
  14              		.eabi_attribute 18, 4
  15              		.file	"stm32l4xx_hal_gpio.c"
  16              		.text
  17              		.section	.text.HAL_GPIO_Init,"ax",%progbits
  18              		.align	1
  19              		.global	HAL_GPIO_Init
  20              		.syntax unified
  21              		.thumb
  22              		.thumb_func
  24              	HAL_GPIO_Init:
  25              		@ args = 0, pretend = 0, frame = 8
  26              		@ frame_needed = 0, uses_anonymous_args = 0
  27 0000 2DE9F74F 		push	{r0, r1, r2, r4, r5, r6, r7, r8, r9, r10, fp, lr}
  28 0004 DFF87C91 		ldr	r9, .L28+8
  29 0008 5C4C     		ldr	r4, .L28
  30 000a 0023     		movs	r3, #0
  31              	.L2:
  32 000c 0A68     		ldr	r2, [r1]
  33 000e 32FA03F5 		lsrs	r5, r2, r3
  34 0012 02D1     		bne	.L19
  35 0014 03B0     		add	sp, sp, #12
  36              		@ sp needed
  37 0016 BDE8F08F 		pop	{r4, r5, r6, r7, r8, r9, r10, fp, pc}
  38              	.L19:
  39 001a 0125     		movs	r5, #1
  40 001c 05FA03FE 		lsl	lr, r5, r3
  41 0020 1EEA0202 		ands	r2, lr, r2
  42 0024 00F0A080 		beq	.L4
  43 0028 4E68     		ldr	r6, [r1, #4]
  44 002a 0327     		movs	r7, #3
  45 002c 06F00305 		and	r5, r6, #3
  46 0030 4FEA4308 		lsl	r8, r3, #1
  47 0034 07FA08FC 		lsl	ip, r7, r8
  48 0038 6F1E     		subs	r7, r5, #1
  49 003a 012F     		cmp	r7, #1
  50 003c 6FEA0C0C 		mvn	ip, ip
  51 0040 34D8     		bhi	.L5
  52 0042 8768     		ldr	r7, [r0, #8]
  53 0044 07EA0C0A 		and	r10, r7, ip
  54 0048 CF68     		ldr	r7, [r1, #12]
  55 004a 07FA08F7 		lsl	r7, r7, r8
  56 004e 47EA0A07 		orr	r7, r7, r10
  57 0052 8760     		str	r7, [r0, #8]
  58 0054 4768     		ldr	r7, [r0, #4]
ARM GAS  C:\Users\CL\AppData\Local\Temp\ccS6Dqkb.s 			page 2


  59 0056 27EA0E0E 		bic	lr, r7, lr
  60 005a C6F30017 		ubfx	r7, r6, #4, #1
  61 005e 9F40     		lsls	r7, r7, r3
  62 0060 47EA0E07 		orr	r7, r7, lr
  63 0064 4760     		str	r7, [r0, #4]
  64              	.L6:
  65 0066 C768     		ldr	r7, [r0, #12]
  66 0068 07EA0C0E 		and	lr, r7, ip
  67 006c 8F68     		ldr	r7, [r1, #8]
  68 006e 07FA08F7 		lsl	r7, r7, r8
  69 0072 47EA0E07 		orr	r7, r7, lr
  70 0076 022D     		cmp	r5, #2
  71 0078 C760     		str	r7, [r0, #12]
  72 007a 19D1     		bne	.L7
  73 007c 4FEAD30A 		lsr	r10, r3, #3
  74 0080 00EB8A0A 		add	r10, r0, r10, lsl #2
  75 0084 03F0070B 		and	fp, r3, #7
  76 0088 DAF82070 		ldr	r7, [r10, #32]
  77 008c 4FEA8B0B 		lsl	fp, fp, #2
  78 0090 4FF00F0E 		mov	lr, #15
  79 0094 0EFA0BFE 		lsl	lr, lr, fp
  80 0098 27EA0E0E 		bic	lr, r7, lr
  81 009c 0F69     		ldr	r7, [r1, #16]
  82 009e 07FA0BF7 		lsl	r7, r7, fp
  83 00a2 47EA0E07 		orr	r7, r7, lr
  84 00a6 CAF82070 		str	r7, [r10, #32]
  85 00aa 01E0     		b	.L7
  86              	.L5:
  87 00ac 032D     		cmp	r5, #3
  88 00ae DAD1     		bne	.L6
  89              	.L7:
  90 00b0 0768     		ldr	r7, [r0]
  91 00b2 05FA08F5 		lsl	r5, r5, r8
  92 00b6 07EA0C07 		and	r7, r7, ip
  93 00ba 2F43     		orrs	r7, r7, r5
  94 00bc 16F4403F 		tst	r6, #196608
  95 00c0 0760     		str	r7, [r0]
  96 00c2 51D0     		beq	.L4
  97 00c4 D9F86050 		ldr	r5, [r9, #96]
  98 00c8 45F00105 		orr	r5, r5, #1
  99 00cc C9F86050 		str	r5, [r9, #96]
 100 00d0 D9F86050 		ldr	r5, [r9, #96]
 101 00d4 23F00307 		bic	r7, r3, #3
 102 00d8 07F18047 		add	r7, r7, #1073741824
 103 00dc 05F00105 		and	r5, r5, #1
 104 00e0 07F58037 		add	r7, r7, #65536
 105 00e4 0195     		str	r5, [sp, #4]
 106 00e6 03F0030E 		and	lr, r3, #3
 107 00ea 019D     		ldr	r5, [sp, #4]
 108 00ec BD68     		ldr	r5, [r7, #8]
 109 00ee 4FEA8E0E 		lsl	lr, lr, #2
 110 00f2 4FF00F0C 		mov	ip, #15
 111 00f6 0CFA0EFC 		lsl	ip, ip, lr
 112 00fa B0F1904F 		cmp	r0, #1207959552
 113 00fe 25EA0C0C 		bic	ip, r5, ip
 114 0102 33D0     		beq	.L20
 115 0104 1E4D     		ldr	r5, .L28+4
ARM GAS  C:\Users\CL\AppData\Local\Temp\ccS6Dqkb.s 			page 3


 116 0106 A842     		cmp	r0, r5
 117 0108 32D0     		beq	.L21
 118 010a 05F58065 		add	r5, r5, #1024
 119 010e A842     		cmp	r0, r5
 120 0110 30D0     		beq	.L22
 121 0112 05F58065 		add	r5, r5, #1024
 122 0116 A842     		cmp	r0, r5
 123 0118 2ED0     		beq	.L23
 124 011a 05F58065 		add	r5, r5, #1024
 125 011e A842     		cmp	r0, r5
 126 0120 0CBF     		ite	eq
 127 0122 0425     		moveq	r5, #4
 128 0124 0725     		movne	r5, #7
 129              	.L10:
 130 0126 05FA0EF5 		lsl	r5, r5, lr
 131 012a 45EA0C05 		orr	r5, r5, ip
 132 012e BD60     		str	r5, [r7, #8]
 133 0130 A568     		ldr	r5, [r4, #8]
 134 0132 D743     		mvns	r7, r2
 135 0134 16F4801F 		tst	r6, #1048576
 136 0138 0CBF     		ite	eq
 137 013a 3D40     		andeq	r5, r5, r7
 138 013c 1543     		orrne	r5, r5, r2
 139 013e A560     		str	r5, [r4, #8]
 140 0140 E568     		ldr	r5, [r4, #12]
 141 0142 16F4001F 		tst	r6, #2097152
 142 0146 0CBF     		ite	eq
 143 0148 3D40     		andeq	r5, r5, r7
 144 014a 1543     		orrne	r5, r5, r2
 145 014c E560     		str	r5, [r4, #12]
 146 014e 6568     		ldr	r5, [r4, #4]
 147 0150 16F4003F 		tst	r6, #131072
 148 0154 0CBF     		ite	eq
 149 0156 3D40     		andeq	r5, r5, r7
 150 0158 1543     		orrne	r5, r5, r2
 151 015a 6560     		str	r5, [r4, #4]
 152 015c 2568     		ldr	r5, [r4]
 153 015e F603     		lsls	r6, r6, #15
 154 0160 54BF     		ite	pl
 155 0162 3D40     		andpl	r5, r5, r7
 156 0164 1543     		orrmi	r5, r5, r2
 157 0166 2560     		str	r5, [r4]
 158              	.L4:
 159 0168 0133     		adds	r3, r3, #1
 160 016a 4FE7     		b	.L2
 161              	.L20:
 162 016c 0025     		movs	r5, #0
 163 016e DAE7     		b	.L10
 164              	.L21:
 165 0170 0125     		movs	r5, #1
 166 0172 D8E7     		b	.L10
 167              	.L22:
 168 0174 0225     		movs	r5, #2
 169 0176 D6E7     		b	.L10
 170              	.L23:
 171 0178 0325     		movs	r5, #3
 172 017a D4E7     		b	.L10
ARM GAS  C:\Users\CL\AppData\Local\Temp\ccS6Dqkb.s 			page 4


 173              	.L29:
 174              		.align	2
 175              	.L28:
 176 017c 00040140 		.word	1073808384
 177 0180 00040048 		.word	1207960576
 178 0184 00100240 		.word	1073876992
 180              		.section	.text.HAL_GPIO_DeInit,"ax",%progbits
 181              		.align	1
 182              		.global	HAL_GPIO_DeInit
 183              		.syntax unified
 184              		.thumb
 185              		.thumb_func
 187              	HAL_GPIO_DeInit:
 188              		@ args = 0, pretend = 0, frame = 0
 189              		@ frame_needed = 0, uses_anonymous_args = 0
 190 0000 3A4A     		ldr	r2, .L44
 191 0002 2DE9F04F 		push	{r4, r5, r6, r7, r8, r9, r10, fp, lr}
 192 0006 0023     		movs	r3, #0
 193 0008 4FF0010A 		mov	r10, #1
 194 000c 4FF00F08 		mov	r8, #15
 195 0010 4FF0030B 		mov	fp, #3
 196              	.L31:
 197 0014 31FA03F4 		lsrs	r4, r1, r3
 198 0018 01D1     		bne	.L35
 199 001a BDE8F08F 		pop	{r4, r5, r6, r7, r8, r9, r10, fp, pc}
 200              	.L35:
 201 001e 0AFA03FC 		lsl	ip, r10, r3
 202 0022 1CEA0106 		ands	r6, ip, r1
 203 0026 56D0     		beq	.L32
 204 0028 23F00304 		bic	r4, r3, #3
 205 002c 04F18044 		add	r4, r4, #1073741824
 206 0030 04F58034 		add	r4, r4, #65536
 207 0034 03F00307 		and	r7, r3, #3
 208 0038 A568     		ldr	r5, [r4, #8]
 209 003a BF00     		lsls	r7, r7, #2
 210 003c 08FA07F9 		lsl	r9, r8, r7
 211 0040 B0F1904F 		cmp	r0, #1207959552
 212 0044 09EA050E 		and	lr, r9, r5
 213 0048 47D0     		beq	.L36
 214 004a 294D     		ldr	r5, .L44+4
 215 004c A842     		cmp	r0, r5
 216 004e 46D0     		beq	.L37
 217 0050 05F58065 		add	r5, r5, #1024
 218 0054 A842     		cmp	r0, r5
 219 0056 44D0     		beq	.L38
 220 0058 05F58065 		add	r5, r5, #1024
 221 005c A842     		cmp	r0, r5
 222 005e 42D0     		beq	.L39
 223 0060 05F58065 		add	r5, r5, #1024
 224 0064 A842     		cmp	r0, r5
 225 0066 0CBF     		ite	eq
 226 0068 0425     		moveq	r5, #4
 227 006a 0725     		movne	r5, #7
 228              	.L33:
 229 006c BD40     		lsls	r5, r5, r7
 230 006e 7545     		cmp	r5, lr
 231 0070 13D1     		bne	.L34
ARM GAS  C:\Users\CL\AppData\Local\Temp\ccS6Dqkb.s 			page 5


 232 0072 1568     		ldr	r5, [r2]
 233 0074 25EA0605 		bic	r5, r5, r6
 234 0078 1560     		str	r5, [r2]
 235 007a 5568     		ldr	r5, [r2, #4]
 236 007c 25EA0605 		bic	r5, r5, r6
 237 0080 5560     		str	r5, [r2, #4]
 238 0082 D568     		ldr	r5, [r2, #12]
 239 0084 25EA0605 		bic	r5, r5, r6
 240 0088 D560     		str	r5, [r2, #12]
 241 008a 9568     		ldr	r5, [r2, #8]
 242 008c 25EA0605 		bic	r5, r5, r6
 243 0090 9560     		str	r5, [r2, #8]
 244 0092 A568     		ldr	r5, [r4, #8]
 245 0094 25EA0905 		bic	r5, r5, r9
 246 0098 A560     		str	r5, [r4, #8]
 247              	.L34:
 248 009a 0568     		ldr	r5, [r0]
 249 009c 5C00     		lsls	r4, r3, #1
 250 009e 0BFA04F4 		lsl	r4, fp, r4
 251 00a2 DE08     		lsrs	r6, r3, #3
 252 00a4 2543     		orrs	r5, r5, r4
 253 00a6 00EB8606 		add	r6, r0, r6, lsl #2
 254 00aa 0560     		str	r5, [r0]
 255 00ac 03F00705 		and	r5, r3, #7
 256 00b0 376A     		ldr	r7, [r6, #32]
 257 00b2 AD00     		lsls	r5, r5, #2
 258 00b4 08FA05F5 		lsl	r5, r8, r5
 259 00b8 27EA0505 		bic	r5, r7, r5
 260 00bc 3562     		str	r5, [r6, #32]
 261 00be 8568     		ldr	r5, [r0, #8]
 262 00c0 25EA0405 		bic	r5, r5, r4
 263 00c4 8560     		str	r5, [r0, #8]
 264 00c6 4568     		ldr	r5, [r0, #4]
 265 00c8 25EA0C05 		bic	r5, r5, ip
 266 00cc 4560     		str	r5, [r0, #4]
 267 00ce C568     		ldr	r5, [r0, #12]
 268 00d0 25EA0404 		bic	r4, r5, r4
 269 00d4 C460     		str	r4, [r0, #12]
 270              	.L32:
 271 00d6 0133     		adds	r3, r3, #1
 272 00d8 9CE7     		b	.L31
 273              	.L36:
 274 00da 0025     		movs	r5, #0
 275 00dc C6E7     		b	.L33
 276              	.L37:
 277 00de 0125     		movs	r5, #1
 278 00e0 C4E7     		b	.L33
 279              	.L38:
 280 00e2 0225     		movs	r5, #2
 281 00e4 C2E7     		b	.L33
 282              	.L39:
 283 00e6 0325     		movs	r5, #3
 284 00e8 C0E7     		b	.L33
 285              	.L45:
 286 00ea 00BF     		.align	2
 287              	.L44:
 288 00ec 00040140 		.word	1073808384
ARM GAS  C:\Users\CL\AppData\Local\Temp\ccS6Dqkb.s 			page 6


 289 00f0 00040048 		.word	1207960576
 291              		.section	.text.HAL_GPIO_ReadPin,"ax",%progbits
 292              		.align	1
 293              		.global	HAL_GPIO_ReadPin
 294              		.syntax unified
 295              		.thumb
 296              		.thumb_func
 298              	HAL_GPIO_ReadPin:
 299              		@ args = 0, pretend = 0, frame = 0
 300              		@ frame_needed = 0, uses_anonymous_args = 0
 301              		@ link register save eliminated.
 302 0000 0369     		ldr	r3, [r0, #16]
 303 0002 1942     		tst	r1, r3
 304 0004 14BF     		ite	ne
 305 0006 0120     		movne	r0, #1
 306 0008 0020     		moveq	r0, #0
 307 000a 7047     		bx	lr
 309              		.section	.text.HAL_GPIO_WritePin,"ax",%progbits
 310              		.align	1
 311              		.global	HAL_GPIO_WritePin
 312              		.syntax unified
 313              		.thumb
 314              		.thumb_func
 316              	HAL_GPIO_WritePin:
 317              		@ args = 0, pretend = 0, frame = 0
 318              		@ frame_needed = 0, uses_anonymous_args = 0
 319              		@ link register save eliminated.
 320 0000 0AB1     		cbz	r2, .L48
 321 0002 8161     		str	r1, [r0, #24]
 322 0004 7047     		bx	lr
 323              	.L48:
 324 0006 8162     		str	r1, [r0, #40]
 325 0008 7047     		bx	lr
 327              		.section	.text.HAL_GPIO_TogglePin,"ax",%progbits
 328              		.align	1
 329              		.global	HAL_GPIO_TogglePin
 330              		.syntax unified
 331              		.thumb
 332              		.thumb_func
 334              	HAL_GPIO_TogglePin:
 335              		@ args = 0, pretend = 0, frame = 0
 336              		@ frame_needed = 0, uses_anonymous_args = 0
 337              		@ link register save eliminated.
 338 0000 4369     		ldr	r3, [r0, #20]
 339 0002 01EA0302 		and	r2, r1, r3
 340 0006 21EA0301 		bic	r1, r1, r3
 341 000a 41EA0241 		orr	r1, r1, r2, lsl #16
 342 000e 8161     		str	r1, [r0, #24]
 343 0010 7047     		bx	lr
 345              		.section	.text.HAL_GPIO_LockPin,"ax",%progbits
 346              		.align	1
 347              		.global	HAL_GPIO_LockPin
 348              		.syntax unified
 349              		.thumb
 350              		.thumb_func
 352              	HAL_GPIO_LockPin:
 353              		@ args = 0, pretend = 0, frame = 8
ARM GAS  C:\Users\CL\AppData\Local\Temp\ccS6Dqkb.s 			page 7


 354              		@ frame_needed = 0, uses_anonymous_args = 0
 355              		@ link register save eliminated.
 356 0000 82B0     		sub	sp, sp, #8
 357 0002 4FF48033 		mov	r3, #65536
 358 0006 0193     		str	r3, [sp, #4]
 359 0008 019B     		ldr	r3, [sp, #4]
 360 000a 0B43     		orrs	r3, r3, r1
 361 000c 0193     		str	r3, [sp, #4]
 362 000e 019B     		ldr	r3, [sp, #4]
 363 0010 C361     		str	r3, [r0, #28]
 364 0012 C161     		str	r1, [r0, #28]
 365 0014 019B     		ldr	r3, [sp, #4]
 366 0016 C361     		str	r3, [r0, #28]
 367 0018 C369     		ldr	r3, [r0, #28]
 368 001a 0193     		str	r3, [sp, #4]
 369 001c C069     		ldr	r0, [r0, #28]
 370 001e 80F48030 		eor	r0, r0, #65536
 371 0022 C0F30040 		ubfx	r0, r0, #16, #1
 372 0026 02B0     		add	sp, sp, #8
 373              		@ sp needed
 374 0028 7047     		bx	lr
 376              		.section	.text.HAL_GPIO_EXTI_Callback,"ax",%progbits
 377              		.align	1
 378              		.weak	HAL_GPIO_EXTI_Callback
 379              		.syntax unified
 380              		.thumb
 381              		.thumb_func
 383              	HAL_GPIO_EXTI_Callback:
 384              		@ args = 0, pretend = 0, frame = 0
 385              		@ frame_needed = 0, uses_anonymous_args = 0
 386              		@ link register save eliminated.
 387 0000 7047     		bx	lr
 389              		.section	.text.HAL_GPIO_EXTI_IRQHandler,"ax",%progbits
 390              		.align	1
 391              		.global	HAL_GPIO_EXTI_IRQHandler
 392              		.syntax unified
 393              		.thumb
 394              		.thumb_func
 396              	HAL_GPIO_EXTI_IRQHandler:
 397              		@ args = 0, pretend = 0, frame = 0
 398              		@ frame_needed = 0, uses_anonymous_args = 0
 399 0000 044A     		ldr	r2, .L58
 400 0002 5169     		ldr	r1, [r2, #20]
 401 0004 0142     		tst	r1, r0
 402 0006 08B5     		push	{r3, lr}
 403 0008 02D0     		beq	.L53
 404 000a 5061     		str	r0, [r2, #20]
 405 000c FFF7FEFF 		bl	HAL_GPIO_EXTI_Callback
 406              	.L53:
 407 0010 08BD     		pop	{r3, pc}
 408              	.L59:
 409 0012 00BF     		.align	2
 410              	.L58:
 411 0014 00040140 		.word	1073808384
 413              		.ident	"GCC: (GNU Arm Embedded Toolchain 10.3-2021.10) 10.3.1 20210824 (release)"
ARM GAS  C:\Users\CL\AppData\Local\Temp\ccS6Dqkb.s 			page 8

