ARM GAS  C:\Users\CL\AppData\Local\Temp\cceqbIfk.s 			page 1


   1              		.cpu cortex-m4
   2              		.arch armv7e-m
   3              		.fpu fpv4-sp-d16
   4              		.eabi_attribute 27, 1
   5              		.eabi_attribute 28, 1
   6              		.eabi_attribute 20, 1
   7              		.eabi_attribute 21, 1
   8              		.eabi_attribute 23, 3
   9              		.eabi_attribute 24, 1
  10              		.eabi_attribute 25, 1
  11              		.eabi_attribute 26, 1
  12              		.eabi_attribute 30, 6
  13              		.eabi_attribute 34, 1
  14              		.eabi_attribute 18, 4
  15              		.file	"stm32l4xx_hal.c"
  16              		.text
  17              	.Ltext0:
  18              		.cfi_sections	.debug_frame
  19              		.global	uwTick
  20              		.section	.bss.uwTick,"aw",%nobits
  21              		.align	2
  24              	uwTick:
  25 0000 00000000 		.space	4
  26              		.global	uwTickPrio
  27              		.section	.data.uwTickPrio,"aw"
  28              		.align	2
  31              	uwTickPrio:
  32 0000 10000000 		.word	16
  33              		.global	uwTickFreq
  34              		.section	.data.uwTickFreq,"aw"
  37              	uwTickFreq:
  38 0000 01       		.byte	1
  39              		.section	.text.HAL_Init,"ax",%progbits
  40              		.align	1
  41              		.global	HAL_Init
  42              		.syntax unified
  43              		.thumb
  44              		.thumb_func
  46              	HAL_Init:
  47              	.LFB288:
  48              		.file 1 "Drivers/STM32L4xx_HAL_Driver/Src/stm32l4xx_hal.c"
   1:Drivers/STM32L4xx_HAL_Driver/Src/stm32l4xx_hal.c **** /**
   2:Drivers/STM32L4xx_HAL_Driver/Src/stm32l4xx_hal.c ****   ******************************************************************************
   3:Drivers/STM32L4xx_HAL_Driver/Src/stm32l4xx_hal.c ****   * @file    stm32l4xx_hal.c
   4:Drivers/STM32L4xx_HAL_Driver/Src/stm32l4xx_hal.c ****   * @author  MCD Application Team
   5:Drivers/STM32L4xx_HAL_Driver/Src/stm32l4xx_hal.c ****   * @brief   HAL module driver.
   6:Drivers/STM32L4xx_HAL_Driver/Src/stm32l4xx_hal.c ****   *          This is the common part of the HAL initialization
   7:Drivers/STM32L4xx_HAL_Driver/Src/stm32l4xx_hal.c ****   *
   8:Drivers/STM32L4xx_HAL_Driver/Src/stm32l4xx_hal.c ****   ******************************************************************************
   9:Drivers/STM32L4xx_HAL_Driver/Src/stm32l4xx_hal.c ****   * @attention
  10:Drivers/STM32L4xx_HAL_Driver/Src/stm32l4xx_hal.c ****   *
  11:Drivers/STM32L4xx_HAL_Driver/Src/stm32l4xx_hal.c ****   * Copyright (c) 2017 STMicroelectronics.
  12:Drivers/STM32L4xx_HAL_Driver/Src/stm32l4xx_hal.c ****   * All rights reserved.
  13:Drivers/STM32L4xx_HAL_Driver/Src/stm32l4xx_hal.c ****   *
  14:Drivers/STM32L4xx_HAL_Driver/Src/stm32l4xx_hal.c ****   * This software is licensed under terms that can be found in the LICENSE file
  15:Drivers/STM32L4xx_HAL_Driver/Src/stm32l4xx_hal.c ****   * in the root directory of this software component.
  16:Drivers/STM32L4xx_HAL_Driver/Src/stm32l4xx_hal.c ****   * If no LICENSE file comes with this software, it is provided AS-IS.
ARM GAS  C:\Users\CL\AppData\Local\Temp\cceqbIfk.s 			page 2


  17:Drivers/STM32L4xx_HAL_Driver/Src/stm32l4xx_hal.c ****   *
  18:Drivers/STM32L4xx_HAL_Driver/Src/stm32l4xx_hal.c ****   ******************************************************************************
  19:Drivers/STM32L4xx_HAL_Driver/Src/stm32l4xx_hal.c ****   @verbatim
  20:Drivers/STM32L4xx_HAL_Driver/Src/stm32l4xx_hal.c ****   ==============================================================================
  21:Drivers/STM32L4xx_HAL_Driver/Src/stm32l4xx_hal.c ****                      ##### How to use this driver #####
  22:Drivers/STM32L4xx_HAL_Driver/Src/stm32l4xx_hal.c ****   ==============================================================================
  23:Drivers/STM32L4xx_HAL_Driver/Src/stm32l4xx_hal.c ****     [..]
  24:Drivers/STM32L4xx_HAL_Driver/Src/stm32l4xx_hal.c ****     The common HAL driver contains a set of generic and common APIs that can be
  25:Drivers/STM32L4xx_HAL_Driver/Src/stm32l4xx_hal.c ****     used by the PPP peripheral drivers and the user to start using the HAL.
  26:Drivers/STM32L4xx_HAL_Driver/Src/stm32l4xx_hal.c ****     [..]
  27:Drivers/STM32L4xx_HAL_Driver/Src/stm32l4xx_hal.c ****     The HAL contains two APIs' categories:
  28:Drivers/STM32L4xx_HAL_Driver/Src/stm32l4xx_hal.c ****          (+) Common HAL APIs
  29:Drivers/STM32L4xx_HAL_Driver/Src/stm32l4xx_hal.c ****          (+) Services HAL APIs
  30:Drivers/STM32L4xx_HAL_Driver/Src/stm32l4xx_hal.c **** 
  31:Drivers/STM32L4xx_HAL_Driver/Src/stm32l4xx_hal.c ****   @endverbatim
  32:Drivers/STM32L4xx_HAL_Driver/Src/stm32l4xx_hal.c ****   ******************************************************************************
  33:Drivers/STM32L4xx_HAL_Driver/Src/stm32l4xx_hal.c ****   */
  34:Drivers/STM32L4xx_HAL_Driver/Src/stm32l4xx_hal.c **** 
  35:Drivers/STM32L4xx_HAL_Driver/Src/stm32l4xx_hal.c **** /* Includes ------------------------------------------------------------------*/
  36:Drivers/STM32L4xx_HAL_Driver/Src/stm32l4xx_hal.c **** #include "stm32l4xx_hal.h"
  37:Drivers/STM32L4xx_HAL_Driver/Src/stm32l4xx_hal.c **** 
  38:Drivers/STM32L4xx_HAL_Driver/Src/stm32l4xx_hal.c **** /** @addtogroup STM32L4xx_HAL_Driver
  39:Drivers/STM32L4xx_HAL_Driver/Src/stm32l4xx_hal.c ****   * @{
  40:Drivers/STM32L4xx_HAL_Driver/Src/stm32l4xx_hal.c ****   */
  41:Drivers/STM32L4xx_HAL_Driver/Src/stm32l4xx_hal.c **** 
  42:Drivers/STM32L4xx_HAL_Driver/Src/stm32l4xx_hal.c **** /** @defgroup HAL HAL
  43:Drivers/STM32L4xx_HAL_Driver/Src/stm32l4xx_hal.c ****   * @brief HAL module driver
  44:Drivers/STM32L4xx_HAL_Driver/Src/stm32l4xx_hal.c ****   * @{
  45:Drivers/STM32L4xx_HAL_Driver/Src/stm32l4xx_hal.c ****   */
  46:Drivers/STM32L4xx_HAL_Driver/Src/stm32l4xx_hal.c **** 
  47:Drivers/STM32L4xx_HAL_Driver/Src/stm32l4xx_hal.c **** #ifdef HAL_MODULE_ENABLED
  48:Drivers/STM32L4xx_HAL_Driver/Src/stm32l4xx_hal.c **** 
  49:Drivers/STM32L4xx_HAL_Driver/Src/stm32l4xx_hal.c **** /* Private typedef -----------------------------------------------------------*/
  50:Drivers/STM32L4xx_HAL_Driver/Src/stm32l4xx_hal.c **** /* Private define ------------------------------------------------------------*/
  51:Drivers/STM32L4xx_HAL_Driver/Src/stm32l4xx_hal.c **** /**
  52:Drivers/STM32L4xx_HAL_Driver/Src/stm32l4xx_hal.c ****  * @brief STM32L4xx HAL Driver version number
  53:Drivers/STM32L4xx_HAL_Driver/Src/stm32l4xx_hal.c ****    */
  54:Drivers/STM32L4xx_HAL_Driver/Src/stm32l4xx_hal.c **** #define STM32L4XX_HAL_VERSION_MAIN   (0x01U) /*!< [31:24] main version */
  55:Drivers/STM32L4xx_HAL_Driver/Src/stm32l4xx_hal.c **** #define STM32L4XX_HAL_VERSION_SUB1   (0x0DU) /*!< [23:16] sub1 version */
  56:Drivers/STM32L4xx_HAL_Driver/Src/stm32l4xx_hal.c **** #define STM32L4XX_HAL_VERSION_SUB2   (0x03U) /*!< [15:8]  sub2 version */
  57:Drivers/STM32L4xx_HAL_Driver/Src/stm32l4xx_hal.c **** #define STM32L4XX_HAL_VERSION_RC     (0x00U) /*!< [7:0]  release candidate */
  58:Drivers/STM32L4xx_HAL_Driver/Src/stm32l4xx_hal.c **** #define STM32L4XX_HAL_VERSION        ((STM32L4XX_HAL_VERSION_MAIN  << 24U)\
  59:Drivers/STM32L4xx_HAL_Driver/Src/stm32l4xx_hal.c ****                                       |(STM32L4XX_HAL_VERSION_SUB1 << 16U)\
  60:Drivers/STM32L4xx_HAL_Driver/Src/stm32l4xx_hal.c ****                                       |(STM32L4XX_HAL_VERSION_SUB2 << 8U)\
  61:Drivers/STM32L4xx_HAL_Driver/Src/stm32l4xx_hal.c ****                                       |(STM32L4XX_HAL_VERSION_RC))
  62:Drivers/STM32L4xx_HAL_Driver/Src/stm32l4xx_hal.c **** 
  63:Drivers/STM32L4xx_HAL_Driver/Src/stm32l4xx_hal.c **** #if defined(VREFBUF)
  64:Drivers/STM32L4xx_HAL_Driver/Src/stm32l4xx_hal.c **** #define VREFBUF_TIMEOUT_VALUE     10U   /* 10 ms (to be confirmed) */
  65:Drivers/STM32L4xx_HAL_Driver/Src/stm32l4xx_hal.c **** #endif /* VREFBUF */
  66:Drivers/STM32L4xx_HAL_Driver/Src/stm32l4xx_hal.c **** 
  67:Drivers/STM32L4xx_HAL_Driver/Src/stm32l4xx_hal.c **** /* ------------ SYSCFG registers bit address in the alias region ------------ */
  68:Drivers/STM32L4xx_HAL_Driver/Src/stm32l4xx_hal.c **** #define SYSCFG_OFFSET             (SYSCFG_BASE - PERIPH_BASE)
  69:Drivers/STM32L4xx_HAL_Driver/Src/stm32l4xx_hal.c **** /* ---  MEMRMP Register ---*/
  70:Drivers/STM32L4xx_HAL_Driver/Src/stm32l4xx_hal.c **** /* Alias word address of FB_MODE bit */
  71:Drivers/STM32L4xx_HAL_Driver/Src/stm32l4xx_hal.c **** #define MEMRMP_OFFSET             SYSCFG_OFFSET
  72:Drivers/STM32L4xx_HAL_Driver/Src/stm32l4xx_hal.c **** #define FB_MODE_BitNumber         8U
  73:Drivers/STM32L4xx_HAL_Driver/Src/stm32l4xx_hal.c **** #define FB_MODE_BB                (PERIPH_BB_BASE + (MEMRMP_OFFSET * 32U) + (FB_MODE_BitNumber * 4U
ARM GAS  C:\Users\CL\AppData\Local\Temp\cceqbIfk.s 			page 3


  74:Drivers/STM32L4xx_HAL_Driver/Src/stm32l4xx_hal.c **** 
  75:Drivers/STM32L4xx_HAL_Driver/Src/stm32l4xx_hal.c **** /* --- SCSR Register ---*/
  76:Drivers/STM32L4xx_HAL_Driver/Src/stm32l4xx_hal.c **** /* Alias word address of SRAM2ER bit */
  77:Drivers/STM32L4xx_HAL_Driver/Src/stm32l4xx_hal.c **** #define SCSR_OFFSET               (SYSCFG_OFFSET + 0x18U)
  78:Drivers/STM32L4xx_HAL_Driver/Src/stm32l4xx_hal.c **** #define BRER_BitNumber            0U
  79:Drivers/STM32L4xx_HAL_Driver/Src/stm32l4xx_hal.c **** #define SCSR_SRAM2ER_BB           (PERIPH_BB_BASE + (SCSR_OFFSET * 32U) + (BRER_BitNumber * 4U))
  80:Drivers/STM32L4xx_HAL_Driver/Src/stm32l4xx_hal.c **** 
  81:Drivers/STM32L4xx_HAL_Driver/Src/stm32l4xx_hal.c **** /* Private macro -------------------------------------------------------------*/
  82:Drivers/STM32L4xx_HAL_Driver/Src/stm32l4xx_hal.c **** /* Private variables ---------------------------------------------------------*/
  83:Drivers/STM32L4xx_HAL_Driver/Src/stm32l4xx_hal.c **** /* Private function prototypes -----------------------------------------------*/
  84:Drivers/STM32L4xx_HAL_Driver/Src/stm32l4xx_hal.c **** 
  85:Drivers/STM32L4xx_HAL_Driver/Src/stm32l4xx_hal.c **** /* Exported variables --------------------------------------------------------*/
  86:Drivers/STM32L4xx_HAL_Driver/Src/stm32l4xx_hal.c **** 
  87:Drivers/STM32L4xx_HAL_Driver/Src/stm32l4xx_hal.c **** /** @defgroup HAL_Exported_Variables HAL Exported Variables
  88:Drivers/STM32L4xx_HAL_Driver/Src/stm32l4xx_hal.c ****   * @{
  89:Drivers/STM32L4xx_HAL_Driver/Src/stm32l4xx_hal.c ****   */
  90:Drivers/STM32L4xx_HAL_Driver/Src/stm32l4xx_hal.c **** __IO uint32_t uwTick;
  91:Drivers/STM32L4xx_HAL_Driver/Src/stm32l4xx_hal.c **** uint32_t uwTickPrio = (1UL << __NVIC_PRIO_BITS); /* Invalid priority */
  92:Drivers/STM32L4xx_HAL_Driver/Src/stm32l4xx_hal.c **** HAL_TickFreqTypeDef uwTickFreq = HAL_TICK_FREQ_DEFAULT;  /* 1KHz */
  93:Drivers/STM32L4xx_HAL_Driver/Src/stm32l4xx_hal.c **** /**
  94:Drivers/STM32L4xx_HAL_Driver/Src/stm32l4xx_hal.c ****   * @}
  95:Drivers/STM32L4xx_HAL_Driver/Src/stm32l4xx_hal.c ****   */
  96:Drivers/STM32L4xx_HAL_Driver/Src/stm32l4xx_hal.c **** 
  97:Drivers/STM32L4xx_HAL_Driver/Src/stm32l4xx_hal.c **** /* Exported functions --------------------------------------------------------*/
  98:Drivers/STM32L4xx_HAL_Driver/Src/stm32l4xx_hal.c **** 
  99:Drivers/STM32L4xx_HAL_Driver/Src/stm32l4xx_hal.c **** /** @defgroup HAL_Exported_Functions HAL Exported Functions
 100:Drivers/STM32L4xx_HAL_Driver/Src/stm32l4xx_hal.c ****   * @{
 101:Drivers/STM32L4xx_HAL_Driver/Src/stm32l4xx_hal.c ****   */
 102:Drivers/STM32L4xx_HAL_Driver/Src/stm32l4xx_hal.c **** 
 103:Drivers/STM32L4xx_HAL_Driver/Src/stm32l4xx_hal.c **** /** @defgroup HAL_Exported_Functions_Group1 Initialization and de-initialization Functions
 104:Drivers/STM32L4xx_HAL_Driver/Src/stm32l4xx_hal.c ****  *  @brief    Initialization and de-initialization functions
 105:Drivers/STM32L4xx_HAL_Driver/Src/stm32l4xx_hal.c ****  *
 106:Drivers/STM32L4xx_HAL_Driver/Src/stm32l4xx_hal.c **** @verbatim
 107:Drivers/STM32L4xx_HAL_Driver/Src/stm32l4xx_hal.c ****  ===============================================================================
 108:Drivers/STM32L4xx_HAL_Driver/Src/stm32l4xx_hal.c ****               ##### Initialization and de-initialization functions #####
 109:Drivers/STM32L4xx_HAL_Driver/Src/stm32l4xx_hal.c ****  ===============================================================================
 110:Drivers/STM32L4xx_HAL_Driver/Src/stm32l4xx_hal.c ****     [..]  This section provides functions allowing to:
 111:Drivers/STM32L4xx_HAL_Driver/Src/stm32l4xx_hal.c ****       (+) Initialize the Flash interface, the NVIC allocation and initial time base
 112:Drivers/STM32L4xx_HAL_Driver/Src/stm32l4xx_hal.c ****           clock configuration.
 113:Drivers/STM32L4xx_HAL_Driver/Src/stm32l4xx_hal.c ****       (+) De-initialize common part of the HAL.
 114:Drivers/STM32L4xx_HAL_Driver/Src/stm32l4xx_hal.c ****       (+) Configure the time base source to have 1ms time base with a dedicated
 115:Drivers/STM32L4xx_HAL_Driver/Src/stm32l4xx_hal.c ****           Tick interrupt priority.
 116:Drivers/STM32L4xx_HAL_Driver/Src/stm32l4xx_hal.c ****         (++) SysTick timer is used by default as source of time base, but user
 117:Drivers/STM32L4xx_HAL_Driver/Src/stm32l4xx_hal.c ****              can eventually implement his proper time base source (a general purpose
 118:Drivers/STM32L4xx_HAL_Driver/Src/stm32l4xx_hal.c ****              timer for example or other time source), keeping in mind that Time base
 119:Drivers/STM32L4xx_HAL_Driver/Src/stm32l4xx_hal.c ****              duration should be kept 1ms since PPP_TIMEOUT_VALUEs are defined and
 120:Drivers/STM32L4xx_HAL_Driver/Src/stm32l4xx_hal.c ****              handled in milliseconds basis.
 121:Drivers/STM32L4xx_HAL_Driver/Src/stm32l4xx_hal.c ****         (++) Time base configuration function (HAL_InitTick ()) is called automatically
 122:Drivers/STM32L4xx_HAL_Driver/Src/stm32l4xx_hal.c ****              at the beginning of the program after reset by HAL_Init() or at any time
 123:Drivers/STM32L4xx_HAL_Driver/Src/stm32l4xx_hal.c ****              when clock is configured, by HAL_RCC_ClockConfig().
 124:Drivers/STM32L4xx_HAL_Driver/Src/stm32l4xx_hal.c ****         (++) Source of time base is configured  to generate interrupts at regular
 125:Drivers/STM32L4xx_HAL_Driver/Src/stm32l4xx_hal.c ****              time intervals. Care must be taken if HAL_Delay() is called from a
 126:Drivers/STM32L4xx_HAL_Driver/Src/stm32l4xx_hal.c ****              peripheral ISR process, the Tick interrupt line must have higher priority
 127:Drivers/STM32L4xx_HAL_Driver/Src/stm32l4xx_hal.c ****             (numerically lower) than the peripheral interrupt. Otherwise the caller
 128:Drivers/STM32L4xx_HAL_Driver/Src/stm32l4xx_hal.c ****             ISR process will be blocked.
 129:Drivers/STM32L4xx_HAL_Driver/Src/stm32l4xx_hal.c ****        (++) functions affecting time base configurations are declared as __weak
 130:Drivers/STM32L4xx_HAL_Driver/Src/stm32l4xx_hal.c ****              to make  override possible  in case of other  implementations in user file.
ARM GAS  C:\Users\CL\AppData\Local\Temp\cceqbIfk.s 			page 4


 131:Drivers/STM32L4xx_HAL_Driver/Src/stm32l4xx_hal.c **** @endverbatim
 132:Drivers/STM32L4xx_HAL_Driver/Src/stm32l4xx_hal.c ****   * @{
 133:Drivers/STM32L4xx_HAL_Driver/Src/stm32l4xx_hal.c ****   */
 134:Drivers/STM32L4xx_HAL_Driver/Src/stm32l4xx_hal.c **** 
 135:Drivers/STM32L4xx_HAL_Driver/Src/stm32l4xx_hal.c **** /**
 136:Drivers/STM32L4xx_HAL_Driver/Src/stm32l4xx_hal.c ****   * @brief  Configure the Flash prefetch, the Instruction and Data caches,
 137:Drivers/STM32L4xx_HAL_Driver/Src/stm32l4xx_hal.c ****   *         the time base source, NVIC and any required global low level hardware
 138:Drivers/STM32L4xx_HAL_Driver/Src/stm32l4xx_hal.c ****   *         by calling the HAL_MspInit() callback function to be optionally defined in user file
 139:Drivers/STM32L4xx_HAL_Driver/Src/stm32l4xx_hal.c ****   *         stm32l4xx_hal_msp.c.
 140:Drivers/STM32L4xx_HAL_Driver/Src/stm32l4xx_hal.c ****   *
 141:Drivers/STM32L4xx_HAL_Driver/Src/stm32l4xx_hal.c ****   * @note   HAL_Init() function is called at the beginning of program after reset and before
 142:Drivers/STM32L4xx_HAL_Driver/Src/stm32l4xx_hal.c ****   *         the clock configuration.
 143:Drivers/STM32L4xx_HAL_Driver/Src/stm32l4xx_hal.c ****   *
 144:Drivers/STM32L4xx_HAL_Driver/Src/stm32l4xx_hal.c ****   * @note   In the default implementation the System Timer (Systick) is used as source of time base
 145:Drivers/STM32L4xx_HAL_Driver/Src/stm32l4xx_hal.c ****   *         The Systick configuration is based on MSI clock, as MSI is the clock
 146:Drivers/STM32L4xx_HAL_Driver/Src/stm32l4xx_hal.c ****   *         used after a system Reset and the NVIC configuration is set to Priority group 4.
 147:Drivers/STM32L4xx_HAL_Driver/Src/stm32l4xx_hal.c ****   *         Once done, time base tick starts incrementing: the tick variable counter is incremented
 148:Drivers/STM32L4xx_HAL_Driver/Src/stm32l4xx_hal.c ****   *         each 1ms in the SysTick_Handler() interrupt handler.
 149:Drivers/STM32L4xx_HAL_Driver/Src/stm32l4xx_hal.c ****   *
 150:Drivers/STM32L4xx_HAL_Driver/Src/stm32l4xx_hal.c ****   * @retval HAL status
 151:Drivers/STM32L4xx_HAL_Driver/Src/stm32l4xx_hal.c ****   */
 152:Drivers/STM32L4xx_HAL_Driver/Src/stm32l4xx_hal.c **** HAL_StatusTypeDef HAL_Init(void)
 153:Drivers/STM32L4xx_HAL_Driver/Src/stm32l4xx_hal.c **** {
  49              		.loc 1 153 1
  50              		.cfi_startproc
  51              		@ args = 0, pretend = 0, frame = 8
  52              		@ frame_needed = 1, uses_anonymous_args = 0
  53 0000 80B5     		push	{r7, lr}
  54              	.LCFI0:
  55              		.cfi_def_cfa_offset 8
  56              		.cfi_offset 7, -8
  57              		.cfi_offset 14, -4
  58 0002 82B0     		sub	sp, sp, #8
  59              	.LCFI1:
  60              		.cfi_def_cfa_offset 16
  61 0004 00AF     		add	r7, sp, #0
  62              	.LCFI2:
  63              		.cfi_def_cfa_register 7
 154:Drivers/STM32L4xx_HAL_Driver/Src/stm32l4xx_hal.c ****   HAL_StatusTypeDef  status = HAL_OK;
  64              		.loc 1 154 22
  65 0006 0023     		movs	r3, #0
  66 0008 FB71     		strb	r3, [r7, #7]
 155:Drivers/STM32L4xx_HAL_Driver/Src/stm32l4xx_hal.c **** 
 156:Drivers/STM32L4xx_HAL_Driver/Src/stm32l4xx_hal.c ****   /* Configure Flash prefetch, Instruction cache, Data cache */
 157:Drivers/STM32L4xx_HAL_Driver/Src/stm32l4xx_hal.c ****   /* Default configuration at reset is:                      */
 158:Drivers/STM32L4xx_HAL_Driver/Src/stm32l4xx_hal.c ****   /* - Prefetch disabled                                     */
 159:Drivers/STM32L4xx_HAL_Driver/Src/stm32l4xx_hal.c ****   /* - Instruction cache enabled                             */
 160:Drivers/STM32L4xx_HAL_Driver/Src/stm32l4xx_hal.c ****   /* - Data cache enabled                                    */
 161:Drivers/STM32L4xx_HAL_Driver/Src/stm32l4xx_hal.c **** #if (INSTRUCTION_CACHE_ENABLE == 0)
 162:Drivers/STM32L4xx_HAL_Driver/Src/stm32l4xx_hal.c ****    __HAL_FLASH_INSTRUCTION_CACHE_DISABLE();
 163:Drivers/STM32L4xx_HAL_Driver/Src/stm32l4xx_hal.c **** #endif /* INSTRUCTION_CACHE_ENABLE */
 164:Drivers/STM32L4xx_HAL_Driver/Src/stm32l4xx_hal.c **** 
 165:Drivers/STM32L4xx_HAL_Driver/Src/stm32l4xx_hal.c **** #if (DATA_CACHE_ENABLE == 0)
 166:Drivers/STM32L4xx_HAL_Driver/Src/stm32l4xx_hal.c ****    __HAL_FLASH_DATA_CACHE_DISABLE();
 167:Drivers/STM32L4xx_HAL_Driver/Src/stm32l4xx_hal.c **** #endif /* DATA_CACHE_ENABLE */
 168:Drivers/STM32L4xx_HAL_Driver/Src/stm32l4xx_hal.c **** 
 169:Drivers/STM32L4xx_HAL_Driver/Src/stm32l4xx_hal.c **** #if (PREFETCH_ENABLE != 0)
ARM GAS  C:\Users\CL\AppData\Local\Temp\cceqbIfk.s 			page 5


 170:Drivers/STM32L4xx_HAL_Driver/Src/stm32l4xx_hal.c ****   __HAL_FLASH_PREFETCH_BUFFER_ENABLE();
 171:Drivers/STM32L4xx_HAL_Driver/Src/stm32l4xx_hal.c **** #endif /* PREFETCH_ENABLE */
 172:Drivers/STM32L4xx_HAL_Driver/Src/stm32l4xx_hal.c **** 
 173:Drivers/STM32L4xx_HAL_Driver/Src/stm32l4xx_hal.c ****   /* Set Interrupt Group Priority */
 174:Drivers/STM32L4xx_HAL_Driver/Src/stm32l4xx_hal.c ****   HAL_NVIC_SetPriorityGrouping(NVIC_PRIORITYGROUP_4);
  67              		.loc 1 174 3
  68 000a 0320     		movs	r0, #3
  69 000c FFF7FEFF 		bl	HAL_NVIC_SetPriorityGrouping
 175:Drivers/STM32L4xx_HAL_Driver/Src/stm32l4xx_hal.c **** 
 176:Drivers/STM32L4xx_HAL_Driver/Src/stm32l4xx_hal.c ****   /* Use SysTick as time base source and configure 1ms tick (default clock after Reset is MSI) */
 177:Drivers/STM32L4xx_HAL_Driver/Src/stm32l4xx_hal.c ****   if (HAL_InitTick(TICK_INT_PRIORITY) != HAL_OK)
  70              		.loc 1 177 7
  71 0010 0320     		movs	r0, #3
  72 0012 FFF7FEFF 		bl	HAL_InitTick
  73 0016 0346     		mov	r3, r0
  74              		.loc 1 177 6
  75 0018 002B     		cmp	r3, #0
  76 001a 02D0     		beq	.L2
 178:Drivers/STM32L4xx_HAL_Driver/Src/stm32l4xx_hal.c ****   {
 179:Drivers/STM32L4xx_HAL_Driver/Src/stm32l4xx_hal.c ****     status = HAL_ERROR;
  77              		.loc 1 179 12
  78 001c 0123     		movs	r3, #1
  79 001e FB71     		strb	r3, [r7, #7]
  80 0020 01E0     		b	.L3
  81              	.L2:
 180:Drivers/STM32L4xx_HAL_Driver/Src/stm32l4xx_hal.c ****   }
 181:Drivers/STM32L4xx_HAL_Driver/Src/stm32l4xx_hal.c ****   else
 182:Drivers/STM32L4xx_HAL_Driver/Src/stm32l4xx_hal.c ****   {
 183:Drivers/STM32L4xx_HAL_Driver/Src/stm32l4xx_hal.c ****     /* Init the low level hardware */
 184:Drivers/STM32L4xx_HAL_Driver/Src/stm32l4xx_hal.c ****     HAL_MspInit();
  82              		.loc 1 184 5
  83 0022 FFF7FEFF 		bl	HAL_MspInit
  84              	.L3:
 185:Drivers/STM32L4xx_HAL_Driver/Src/stm32l4xx_hal.c ****   }
 186:Drivers/STM32L4xx_HAL_Driver/Src/stm32l4xx_hal.c **** 
 187:Drivers/STM32L4xx_HAL_Driver/Src/stm32l4xx_hal.c ****   /* Return function status */
 188:Drivers/STM32L4xx_HAL_Driver/Src/stm32l4xx_hal.c ****   return status;
  85              		.loc 1 188 10
  86 0026 FB79     		ldrb	r3, [r7, #7]	@ zero_extendqisi2
 189:Drivers/STM32L4xx_HAL_Driver/Src/stm32l4xx_hal.c **** }
  87              		.loc 1 189 1
  88 0028 1846     		mov	r0, r3
  89 002a 0837     		adds	r7, r7, #8
  90              	.LCFI3:
  91              		.cfi_def_cfa_offset 8
  92 002c BD46     		mov	sp, r7
  93              	.LCFI4:
  94              		.cfi_def_cfa_register 13
  95              		@ sp needed
  96 002e 80BD     		pop	{r7, pc}
  97              		.cfi_endproc
  98              	.LFE288:
 100              		.section	.text.HAL_DeInit,"ax",%progbits
 101              		.align	1
 102              		.global	HAL_DeInit
 103              		.syntax unified
 104              		.thumb
ARM GAS  C:\Users\CL\AppData\Local\Temp\cceqbIfk.s 			page 6


 105              		.thumb_func
 107              	HAL_DeInit:
 108              	.LFB289:
 190:Drivers/STM32L4xx_HAL_Driver/Src/stm32l4xx_hal.c **** 
 191:Drivers/STM32L4xx_HAL_Driver/Src/stm32l4xx_hal.c **** /**
 192:Drivers/STM32L4xx_HAL_Driver/Src/stm32l4xx_hal.c ****   * @brief De-initialize common part of the HAL and stop the source of time base.
 193:Drivers/STM32L4xx_HAL_Driver/Src/stm32l4xx_hal.c ****   * @note This function is optional.
 194:Drivers/STM32L4xx_HAL_Driver/Src/stm32l4xx_hal.c ****   * @retval HAL status
 195:Drivers/STM32L4xx_HAL_Driver/Src/stm32l4xx_hal.c ****   */
 196:Drivers/STM32L4xx_HAL_Driver/Src/stm32l4xx_hal.c **** HAL_StatusTypeDef HAL_DeInit(void)
 197:Drivers/STM32L4xx_HAL_Driver/Src/stm32l4xx_hal.c **** {
 109              		.loc 1 197 1
 110              		.cfi_startproc
 111              		@ args = 0, pretend = 0, frame = 0
 112              		@ frame_needed = 1, uses_anonymous_args = 0
 113 0000 80B5     		push	{r7, lr}
 114              	.LCFI5:
 115              		.cfi_def_cfa_offset 8
 116              		.cfi_offset 7, -8
 117              		.cfi_offset 14, -4
 118 0002 00AF     		add	r7, sp, #0
 119              	.LCFI6:
 120              		.cfi_def_cfa_register 7
 198:Drivers/STM32L4xx_HAL_Driver/Src/stm32l4xx_hal.c ****   /* Reset of all peripherals */
 199:Drivers/STM32L4xx_HAL_Driver/Src/stm32l4xx_hal.c ****   __HAL_RCC_APB1_FORCE_RESET();
 121              		.loc 1 199 3
 122 0004 174B     		ldr	r3, .L7
 123 0006 4FF0FF32 		mov	r2, #-1
 124 000a 9A63     		str	r2, [r3, #56]
 125 000c 154B     		ldr	r3, .L7
 126 000e 4FF0FF32 		mov	r2, #-1
 127 0012 DA63     		str	r2, [r3, #60]
 200:Drivers/STM32L4xx_HAL_Driver/Src/stm32l4xx_hal.c ****   __HAL_RCC_APB1_RELEASE_RESET();
 128              		.loc 1 200 3
 129 0014 134B     		ldr	r3, .L7
 130 0016 0022     		movs	r2, #0
 131 0018 9A63     		str	r2, [r3, #56]
 132 001a 124B     		ldr	r3, .L7
 133 001c 0022     		movs	r2, #0
 134 001e DA63     		str	r2, [r3, #60]
 201:Drivers/STM32L4xx_HAL_Driver/Src/stm32l4xx_hal.c **** 
 202:Drivers/STM32L4xx_HAL_Driver/Src/stm32l4xx_hal.c ****   __HAL_RCC_APB2_FORCE_RESET();
 135              		.loc 1 202 3
 136 0020 104B     		ldr	r3, .L7
 137 0022 4FF0FF32 		mov	r2, #-1
 138 0026 1A64     		str	r2, [r3, #64]
 203:Drivers/STM32L4xx_HAL_Driver/Src/stm32l4xx_hal.c ****   __HAL_RCC_APB2_RELEASE_RESET();
 139              		.loc 1 203 3
 140 0028 0E4B     		ldr	r3, .L7
 141 002a 0022     		movs	r2, #0
 142 002c 1A64     		str	r2, [r3, #64]
 204:Drivers/STM32L4xx_HAL_Driver/Src/stm32l4xx_hal.c **** 
 205:Drivers/STM32L4xx_HAL_Driver/Src/stm32l4xx_hal.c ****   __HAL_RCC_AHB1_FORCE_RESET();
 143              		.loc 1 205 3
 144 002e 0D4B     		ldr	r3, .L7
 145 0030 4FF0FF32 		mov	r2, #-1
 146 0034 9A62     		str	r2, [r3, #40]
ARM GAS  C:\Users\CL\AppData\Local\Temp\cceqbIfk.s 			page 7


 206:Drivers/STM32L4xx_HAL_Driver/Src/stm32l4xx_hal.c ****   __HAL_RCC_AHB1_RELEASE_RESET();
 147              		.loc 1 206 3
 148 0036 0B4B     		ldr	r3, .L7
 149 0038 0022     		movs	r2, #0
 150 003a 9A62     		str	r2, [r3, #40]
 207:Drivers/STM32L4xx_HAL_Driver/Src/stm32l4xx_hal.c **** 
 208:Drivers/STM32L4xx_HAL_Driver/Src/stm32l4xx_hal.c ****   __HAL_RCC_AHB2_FORCE_RESET();
 151              		.loc 1 208 3
 152 003c 094B     		ldr	r3, .L7
 153 003e 4FF0FF32 		mov	r2, #-1
 154 0042 DA62     		str	r2, [r3, #44]
 209:Drivers/STM32L4xx_HAL_Driver/Src/stm32l4xx_hal.c ****   __HAL_RCC_AHB2_RELEASE_RESET();
 155              		.loc 1 209 3
 156 0044 074B     		ldr	r3, .L7
 157 0046 0022     		movs	r2, #0
 158 0048 DA62     		str	r2, [r3, #44]
 210:Drivers/STM32L4xx_HAL_Driver/Src/stm32l4xx_hal.c **** 
 211:Drivers/STM32L4xx_HAL_Driver/Src/stm32l4xx_hal.c ****   __HAL_RCC_AHB3_FORCE_RESET();
 159              		.loc 1 211 3
 160 004a 064B     		ldr	r3, .L7
 161 004c 4FF0FF32 		mov	r2, #-1
 162 0050 1A63     		str	r2, [r3, #48]
 212:Drivers/STM32L4xx_HAL_Driver/Src/stm32l4xx_hal.c ****   __HAL_RCC_AHB3_RELEASE_RESET();
 163              		.loc 1 212 3
 164 0052 044B     		ldr	r3, .L7
 165 0054 0022     		movs	r2, #0
 166 0056 1A63     		str	r2, [r3, #48]
 213:Drivers/STM32L4xx_HAL_Driver/Src/stm32l4xx_hal.c **** 
 214:Drivers/STM32L4xx_HAL_Driver/Src/stm32l4xx_hal.c ****   /* De-Init the low level hardware */
 215:Drivers/STM32L4xx_HAL_Driver/Src/stm32l4xx_hal.c ****   HAL_MspDeInit();
 167              		.loc 1 215 3
 168 0058 FFF7FEFF 		bl	HAL_MspDeInit
 216:Drivers/STM32L4xx_HAL_Driver/Src/stm32l4xx_hal.c **** 
 217:Drivers/STM32L4xx_HAL_Driver/Src/stm32l4xx_hal.c ****   /* Return function status */
 218:Drivers/STM32L4xx_HAL_Driver/Src/stm32l4xx_hal.c ****   return HAL_OK;
 169              		.loc 1 218 10
 170 005c 0023     		movs	r3, #0
 219:Drivers/STM32L4xx_HAL_Driver/Src/stm32l4xx_hal.c **** }
 171              		.loc 1 219 1
 172 005e 1846     		mov	r0, r3
 173 0060 80BD     		pop	{r7, pc}
 174              	.L8:
 175 0062 00BF     		.align	2
 176              	.L7:
 177 0064 00100240 		.word	1073876992
 178              		.cfi_endproc
 179              	.LFE289:
 181              		.section	.text.HAL_MspInit,"ax",%progbits
 182              		.align	1
 183              		.weak	HAL_MspInit
 184              		.syntax unified
 185              		.thumb
 186              		.thumb_func
 188              	HAL_MspInit:
 189              	.LFB290:
 220:Drivers/STM32L4xx_HAL_Driver/Src/stm32l4xx_hal.c **** 
 221:Drivers/STM32L4xx_HAL_Driver/Src/stm32l4xx_hal.c **** /**
ARM GAS  C:\Users\CL\AppData\Local\Temp\cceqbIfk.s 			page 8


 222:Drivers/STM32L4xx_HAL_Driver/Src/stm32l4xx_hal.c ****   * @brief  Initialize the MSP.
 223:Drivers/STM32L4xx_HAL_Driver/Src/stm32l4xx_hal.c ****   * @retval None
 224:Drivers/STM32L4xx_HAL_Driver/Src/stm32l4xx_hal.c ****   */
 225:Drivers/STM32L4xx_HAL_Driver/Src/stm32l4xx_hal.c **** __weak void HAL_MspInit(void)
 226:Drivers/STM32L4xx_HAL_Driver/Src/stm32l4xx_hal.c **** {
 190              		.loc 1 226 1
 191              		.cfi_startproc
 192              		@ args = 0, pretend = 0, frame = 0
 193              		@ frame_needed = 1, uses_anonymous_args = 0
 194              		@ link register save eliminated.
 195 0000 80B4     		push	{r7}
 196              	.LCFI7:
 197              		.cfi_def_cfa_offset 4
 198              		.cfi_offset 7, -4
 199 0002 00AF     		add	r7, sp, #0
 200              	.LCFI8:
 201              		.cfi_def_cfa_register 7
 227:Drivers/STM32L4xx_HAL_Driver/Src/stm32l4xx_hal.c ****   /* NOTE : This function should not be modified, when the callback is needed,
 228:Drivers/STM32L4xx_HAL_Driver/Src/stm32l4xx_hal.c ****             the HAL_MspInit could be implemented in the user file
 229:Drivers/STM32L4xx_HAL_Driver/Src/stm32l4xx_hal.c ****    */
 230:Drivers/STM32L4xx_HAL_Driver/Src/stm32l4xx_hal.c **** }
 202              		.loc 1 230 1
 203 0004 00BF     		nop
 204 0006 BD46     		mov	sp, r7
 205              	.LCFI9:
 206              		.cfi_def_cfa_register 13
 207              		@ sp needed
 208 0008 5DF8047B 		ldr	r7, [sp], #4
 209              	.LCFI10:
 210              		.cfi_restore 7
 211              		.cfi_def_cfa_offset 0
 212 000c 7047     		bx	lr
 213              		.cfi_endproc
 214              	.LFE290:
 216              		.section	.text.HAL_MspDeInit,"ax",%progbits
 217              		.align	1
 218              		.weak	HAL_MspDeInit
 219              		.syntax unified
 220              		.thumb
 221              		.thumb_func
 223              	HAL_MspDeInit:
 224              	.LFB291:
 231:Drivers/STM32L4xx_HAL_Driver/Src/stm32l4xx_hal.c **** 
 232:Drivers/STM32L4xx_HAL_Driver/Src/stm32l4xx_hal.c **** /**
 233:Drivers/STM32L4xx_HAL_Driver/Src/stm32l4xx_hal.c ****   * @brief  DeInitialize the MSP.
 234:Drivers/STM32L4xx_HAL_Driver/Src/stm32l4xx_hal.c ****   * @retval None
 235:Drivers/STM32L4xx_HAL_Driver/Src/stm32l4xx_hal.c ****   */
 236:Drivers/STM32L4xx_HAL_Driver/Src/stm32l4xx_hal.c **** __weak void HAL_MspDeInit(void)
 237:Drivers/STM32L4xx_HAL_Driver/Src/stm32l4xx_hal.c **** {
 225              		.loc 1 237 1
 226              		.cfi_startproc
 227              		@ args = 0, pretend = 0, frame = 0
 228              		@ frame_needed = 1, uses_anonymous_args = 0
 229              		@ link register save eliminated.
 230 0000 80B4     		push	{r7}
 231              	.LCFI11:
 232              		.cfi_def_cfa_offset 4
ARM GAS  C:\Users\CL\AppData\Local\Temp\cceqbIfk.s 			page 9


 233              		.cfi_offset 7, -4
 234 0002 00AF     		add	r7, sp, #0
 235              	.LCFI12:
 236              		.cfi_def_cfa_register 7
 238:Drivers/STM32L4xx_HAL_Driver/Src/stm32l4xx_hal.c ****   /* NOTE : This function should not be modified, when the callback is needed,
 239:Drivers/STM32L4xx_HAL_Driver/Src/stm32l4xx_hal.c ****             the HAL_MspDeInit could be implemented in the user file
 240:Drivers/STM32L4xx_HAL_Driver/Src/stm32l4xx_hal.c ****    */
 241:Drivers/STM32L4xx_HAL_Driver/Src/stm32l4xx_hal.c **** }
 237              		.loc 1 241 1
 238 0004 00BF     		nop
 239 0006 BD46     		mov	sp, r7
 240              	.LCFI13:
 241              		.cfi_def_cfa_register 13
 242              		@ sp needed
 243 0008 5DF8047B 		ldr	r7, [sp], #4
 244              	.LCFI14:
 245              		.cfi_restore 7
 246              		.cfi_def_cfa_offset 0
 247 000c 7047     		bx	lr
 248              		.cfi_endproc
 249              	.LFE291:
 251              		.section	.text.HAL_InitTick,"ax",%progbits
 252              		.align	1
 253              		.weak	HAL_InitTick
 254              		.syntax unified
 255              		.thumb
 256              		.thumb_func
 258              	HAL_InitTick:
 259              	.LFB292:
 242:Drivers/STM32L4xx_HAL_Driver/Src/stm32l4xx_hal.c **** 
 243:Drivers/STM32L4xx_HAL_Driver/Src/stm32l4xx_hal.c **** /**
 244:Drivers/STM32L4xx_HAL_Driver/Src/stm32l4xx_hal.c ****   * @brief This function configures the source of the time base:
 245:Drivers/STM32L4xx_HAL_Driver/Src/stm32l4xx_hal.c ****   *        The time source is configured to have 1ms time base with a dedicated
 246:Drivers/STM32L4xx_HAL_Driver/Src/stm32l4xx_hal.c ****   *        Tick interrupt priority.
 247:Drivers/STM32L4xx_HAL_Driver/Src/stm32l4xx_hal.c ****   * @note This function is called  automatically at the beginning of program after
 248:Drivers/STM32L4xx_HAL_Driver/Src/stm32l4xx_hal.c ****   *       reset by HAL_Init() or at any time when clock is reconfigured  by HAL_RCC_ClockConfig().
 249:Drivers/STM32L4xx_HAL_Driver/Src/stm32l4xx_hal.c ****   * @note In the default implementation, SysTick timer is the source of time base.
 250:Drivers/STM32L4xx_HAL_Driver/Src/stm32l4xx_hal.c ****   *       It is used to generate interrupts at regular time intervals.
 251:Drivers/STM32L4xx_HAL_Driver/Src/stm32l4xx_hal.c ****   *       Care must be taken if HAL_Delay() is called from a peripheral ISR process,
 252:Drivers/STM32L4xx_HAL_Driver/Src/stm32l4xx_hal.c ****   *       The SysTick interrupt must have higher priority (numerically lower)
 253:Drivers/STM32L4xx_HAL_Driver/Src/stm32l4xx_hal.c ****   *       than the peripheral interrupt. Otherwise the caller ISR process will be blocked.
 254:Drivers/STM32L4xx_HAL_Driver/Src/stm32l4xx_hal.c ****   *       The function is declared as __weak  to be overwritten  in case of other
 255:Drivers/STM32L4xx_HAL_Driver/Src/stm32l4xx_hal.c ****   *       implementation  in user file.
 256:Drivers/STM32L4xx_HAL_Driver/Src/stm32l4xx_hal.c ****   * @param TickPriority  Tick interrupt priority.
 257:Drivers/STM32L4xx_HAL_Driver/Src/stm32l4xx_hal.c ****   * @retval HAL status
 258:Drivers/STM32L4xx_HAL_Driver/Src/stm32l4xx_hal.c ****   */
 259:Drivers/STM32L4xx_HAL_Driver/Src/stm32l4xx_hal.c **** __weak HAL_StatusTypeDef HAL_InitTick(uint32_t TickPriority)
 260:Drivers/STM32L4xx_HAL_Driver/Src/stm32l4xx_hal.c **** {
 260              		.loc 1 260 1
 261              		.cfi_startproc
 262              		@ args = 0, pretend = 0, frame = 16
 263              		@ frame_needed = 1, uses_anonymous_args = 0
 264 0000 80B5     		push	{r7, lr}
 265              	.LCFI15:
 266              		.cfi_def_cfa_offset 8
 267              		.cfi_offset 7, -8
 268              		.cfi_offset 14, -4
ARM GAS  C:\Users\CL\AppData\Local\Temp\cceqbIfk.s 			page 10


 269 0002 84B0     		sub	sp, sp, #16
 270              	.LCFI16:
 271              		.cfi_def_cfa_offset 24
 272 0004 00AF     		add	r7, sp, #0
 273              	.LCFI17:
 274              		.cfi_def_cfa_register 7
 275 0006 7860     		str	r0, [r7, #4]
 261:Drivers/STM32L4xx_HAL_Driver/Src/stm32l4xx_hal.c ****   HAL_StatusTypeDef  status = HAL_OK;
 276              		.loc 1 261 22
 277 0008 0023     		movs	r3, #0
 278 000a FB73     		strb	r3, [r7, #15]
 262:Drivers/STM32L4xx_HAL_Driver/Src/stm32l4xx_hal.c **** 
 263:Drivers/STM32L4xx_HAL_Driver/Src/stm32l4xx_hal.c ****   /* Check uwTickFreq for MisraC 2012 (even if uwTickFreq is a enum type that doesn't take the valu
 264:Drivers/STM32L4xx_HAL_Driver/Src/stm32l4xx_hal.c ****   if ((uint32_t)uwTickFreq != 0U)
 279              		.loc 1 264 28
 280 000c 174B     		ldr	r3, .L17
 281 000e 1B78     		ldrb	r3, [r3]	@ zero_extendqisi2
 282              		.loc 1 264 6
 283 0010 002B     		cmp	r3, #0
 284 0012 23D0     		beq	.L12
 265:Drivers/STM32L4xx_HAL_Driver/Src/stm32l4xx_hal.c ****   {
 266:Drivers/STM32L4xx_HAL_Driver/Src/stm32l4xx_hal.c ****     /*Configure the SysTick to have interrupt in 1ms time basis*/
 267:Drivers/STM32L4xx_HAL_Driver/Src/stm32l4xx_hal.c ****     if (HAL_SYSTICK_Config(SystemCoreClock / (1000U / (uint32_t)uwTickFreq)) == 0U)
 285              		.loc 1 267 9
 286 0014 164B     		ldr	r3, .L17+4
 287 0016 1A68     		ldr	r2, [r3]
 288              		.loc 1 267 55
 289 0018 144B     		ldr	r3, .L17
 290 001a 1B78     		ldrb	r3, [r3]	@ zero_extendqisi2
 291 001c 1946     		mov	r1, r3
 292              		.loc 1 267 53
 293 001e 4FF47A73 		mov	r3, #1000
 294 0022 B3FBF1F3 		udiv	r3, r3, r1
 295              		.loc 1 267 9
 296 0026 B2FBF3F3 		udiv	r3, r2, r3
 297 002a 1846     		mov	r0, r3
 298 002c FFF7FEFF 		bl	HAL_SYSTICK_Config
 299 0030 0346     		mov	r3, r0
 300              		.loc 1 267 8
 301 0032 002B     		cmp	r3, #0
 302 0034 0FD1     		bne	.L13
 268:Drivers/STM32L4xx_HAL_Driver/Src/stm32l4xx_hal.c ****     {
 269:Drivers/STM32L4xx_HAL_Driver/Src/stm32l4xx_hal.c ****       /* Configure the SysTick IRQ priority */
 270:Drivers/STM32L4xx_HAL_Driver/Src/stm32l4xx_hal.c ****       if (TickPriority < (1UL << __NVIC_PRIO_BITS))
 303              		.loc 1 270 10
 304 0036 7B68     		ldr	r3, [r7, #4]
 305 0038 0F2B     		cmp	r3, #15
 306 003a 09D8     		bhi	.L14
 271:Drivers/STM32L4xx_HAL_Driver/Src/stm32l4xx_hal.c ****       {
 272:Drivers/STM32L4xx_HAL_Driver/Src/stm32l4xx_hal.c ****         HAL_NVIC_SetPriority(SysTick_IRQn, TickPriority, 0U);
 307              		.loc 1 272 9
 308 003c 0022     		movs	r2, #0
 309 003e 7968     		ldr	r1, [r7, #4]
 310 0040 4FF0FF30 		mov	r0, #-1
 311 0044 FFF7FEFF 		bl	HAL_NVIC_SetPriority
 273:Drivers/STM32L4xx_HAL_Driver/Src/stm32l4xx_hal.c ****         uwTickPrio = TickPriority;
 312              		.loc 1 273 20
ARM GAS  C:\Users\CL\AppData\Local\Temp\cceqbIfk.s 			page 11


 313 0048 0A4A     		ldr	r2, .L17+8
 314 004a 7B68     		ldr	r3, [r7, #4]
 315 004c 1360     		str	r3, [r2]
 316 004e 07E0     		b	.L15
 317              	.L14:
 274:Drivers/STM32L4xx_HAL_Driver/Src/stm32l4xx_hal.c ****       }
 275:Drivers/STM32L4xx_HAL_Driver/Src/stm32l4xx_hal.c ****       else
 276:Drivers/STM32L4xx_HAL_Driver/Src/stm32l4xx_hal.c ****       {
 277:Drivers/STM32L4xx_HAL_Driver/Src/stm32l4xx_hal.c ****         status = HAL_ERROR;
 318              		.loc 1 277 16
 319 0050 0123     		movs	r3, #1
 320 0052 FB73     		strb	r3, [r7, #15]
 321 0054 04E0     		b	.L15
 322              	.L13:
 278:Drivers/STM32L4xx_HAL_Driver/Src/stm32l4xx_hal.c ****       }
 279:Drivers/STM32L4xx_HAL_Driver/Src/stm32l4xx_hal.c ****     }
 280:Drivers/STM32L4xx_HAL_Driver/Src/stm32l4xx_hal.c ****     else
 281:Drivers/STM32L4xx_HAL_Driver/Src/stm32l4xx_hal.c ****     {
 282:Drivers/STM32L4xx_HAL_Driver/Src/stm32l4xx_hal.c ****       status = HAL_ERROR;
 323              		.loc 1 282 14
 324 0056 0123     		movs	r3, #1
 325 0058 FB73     		strb	r3, [r7, #15]
 326 005a 01E0     		b	.L15
 327              	.L12:
 283:Drivers/STM32L4xx_HAL_Driver/Src/stm32l4xx_hal.c ****     }
 284:Drivers/STM32L4xx_HAL_Driver/Src/stm32l4xx_hal.c ****   }
 285:Drivers/STM32L4xx_HAL_Driver/Src/stm32l4xx_hal.c ****   else
 286:Drivers/STM32L4xx_HAL_Driver/Src/stm32l4xx_hal.c ****   {
 287:Drivers/STM32L4xx_HAL_Driver/Src/stm32l4xx_hal.c ****     status = HAL_ERROR;
 328              		.loc 1 287 12
 329 005c 0123     		movs	r3, #1
 330 005e FB73     		strb	r3, [r7, #15]
 331              	.L15:
 288:Drivers/STM32L4xx_HAL_Driver/Src/stm32l4xx_hal.c ****   }
 289:Drivers/STM32L4xx_HAL_Driver/Src/stm32l4xx_hal.c **** 
 290:Drivers/STM32L4xx_HAL_Driver/Src/stm32l4xx_hal.c ****   /* Return function status */
 291:Drivers/STM32L4xx_HAL_Driver/Src/stm32l4xx_hal.c ****   return status;
 332              		.loc 1 291 10
 333 0060 FB7B     		ldrb	r3, [r7, #15]	@ zero_extendqisi2
 292:Drivers/STM32L4xx_HAL_Driver/Src/stm32l4xx_hal.c **** }
 334              		.loc 1 292 1
 335 0062 1846     		mov	r0, r3
 336 0064 1037     		adds	r7, r7, #16
 337              	.LCFI18:
 338              		.cfi_def_cfa_offset 8
 339 0066 BD46     		mov	sp, r7
 340              	.LCFI19:
 341              		.cfi_def_cfa_register 13
 342              		@ sp needed
 343 0068 80BD     		pop	{r7, pc}
 344              	.L18:
 345 006a 00BF     		.align	2
 346              	.L17:
 347 006c 00000000 		.word	uwTickFreq
 348 0070 00000000 		.word	SystemCoreClock
 349 0074 00000000 		.word	uwTickPrio
 350              		.cfi_endproc
ARM GAS  C:\Users\CL\AppData\Local\Temp\cceqbIfk.s 			page 12


 351              	.LFE292:
 353              		.section	.text.HAL_IncTick,"ax",%progbits
 354              		.align	1
 355              		.weak	HAL_IncTick
 356              		.syntax unified
 357              		.thumb
 358              		.thumb_func
 360              	HAL_IncTick:
 361              	.LFB293:
 293:Drivers/STM32L4xx_HAL_Driver/Src/stm32l4xx_hal.c **** 
 294:Drivers/STM32L4xx_HAL_Driver/Src/stm32l4xx_hal.c **** /**
 295:Drivers/STM32L4xx_HAL_Driver/Src/stm32l4xx_hal.c ****   * @}
 296:Drivers/STM32L4xx_HAL_Driver/Src/stm32l4xx_hal.c ****   */
 297:Drivers/STM32L4xx_HAL_Driver/Src/stm32l4xx_hal.c **** 
 298:Drivers/STM32L4xx_HAL_Driver/Src/stm32l4xx_hal.c **** /** @defgroup HAL_Exported_Functions_Group2 HAL Control functions
 299:Drivers/STM32L4xx_HAL_Driver/Src/stm32l4xx_hal.c ****  *  @brief    HAL Control functions
 300:Drivers/STM32L4xx_HAL_Driver/Src/stm32l4xx_hal.c ****  *
 301:Drivers/STM32L4xx_HAL_Driver/Src/stm32l4xx_hal.c **** @verbatim
 302:Drivers/STM32L4xx_HAL_Driver/Src/stm32l4xx_hal.c ****  ===============================================================================
 303:Drivers/STM32L4xx_HAL_Driver/Src/stm32l4xx_hal.c ****                       ##### HAL Control functions #####
 304:Drivers/STM32L4xx_HAL_Driver/Src/stm32l4xx_hal.c ****  ===============================================================================
 305:Drivers/STM32L4xx_HAL_Driver/Src/stm32l4xx_hal.c ****     [..]  This section provides functions allowing to:
 306:Drivers/STM32L4xx_HAL_Driver/Src/stm32l4xx_hal.c ****       (+) Provide a tick value in millisecond
 307:Drivers/STM32L4xx_HAL_Driver/Src/stm32l4xx_hal.c ****       (+) Provide a blocking delay in millisecond
 308:Drivers/STM32L4xx_HAL_Driver/Src/stm32l4xx_hal.c ****       (+) Suspend the time base source interrupt
 309:Drivers/STM32L4xx_HAL_Driver/Src/stm32l4xx_hal.c ****       (+) Resume the time base source interrupt
 310:Drivers/STM32L4xx_HAL_Driver/Src/stm32l4xx_hal.c ****       (+) Get the HAL API driver version
 311:Drivers/STM32L4xx_HAL_Driver/Src/stm32l4xx_hal.c ****       (+) Get the device identifier
 312:Drivers/STM32L4xx_HAL_Driver/Src/stm32l4xx_hal.c ****       (+) Get the device revision identifier
 313:Drivers/STM32L4xx_HAL_Driver/Src/stm32l4xx_hal.c **** 
 314:Drivers/STM32L4xx_HAL_Driver/Src/stm32l4xx_hal.c **** @endverbatim
 315:Drivers/STM32L4xx_HAL_Driver/Src/stm32l4xx_hal.c ****   * @{
 316:Drivers/STM32L4xx_HAL_Driver/Src/stm32l4xx_hal.c ****   */
 317:Drivers/STM32L4xx_HAL_Driver/Src/stm32l4xx_hal.c **** 
 318:Drivers/STM32L4xx_HAL_Driver/Src/stm32l4xx_hal.c **** /**
 319:Drivers/STM32L4xx_HAL_Driver/Src/stm32l4xx_hal.c ****   * @brief This function is called to increment a global variable "uwTick"
 320:Drivers/STM32L4xx_HAL_Driver/Src/stm32l4xx_hal.c ****   *        used as application time base.
 321:Drivers/STM32L4xx_HAL_Driver/Src/stm32l4xx_hal.c ****   * @note In the default implementation, this variable is incremented each 1ms
 322:Drivers/STM32L4xx_HAL_Driver/Src/stm32l4xx_hal.c ****   *       in SysTick ISR.
 323:Drivers/STM32L4xx_HAL_Driver/Src/stm32l4xx_hal.c ****  * @note This function is declared as __weak to be overwritten in case of other
 324:Drivers/STM32L4xx_HAL_Driver/Src/stm32l4xx_hal.c ****   *      implementations in user file.
 325:Drivers/STM32L4xx_HAL_Driver/Src/stm32l4xx_hal.c ****   * @retval None
 326:Drivers/STM32L4xx_HAL_Driver/Src/stm32l4xx_hal.c ****   */
 327:Drivers/STM32L4xx_HAL_Driver/Src/stm32l4xx_hal.c **** __weak void HAL_IncTick(void)
 328:Drivers/STM32L4xx_HAL_Driver/Src/stm32l4xx_hal.c **** {
 362              		.loc 1 328 1
 363              		.cfi_startproc
 364              		@ args = 0, pretend = 0, frame = 0
 365              		@ frame_needed = 1, uses_anonymous_args = 0
 366              		@ link register save eliminated.
 367 0000 80B4     		push	{r7}
 368              	.LCFI20:
 369              		.cfi_def_cfa_offset 4
 370              		.cfi_offset 7, -4
 371 0002 00AF     		add	r7, sp, #0
 372              	.LCFI21:
 373              		.cfi_def_cfa_register 7
ARM GAS  C:\Users\CL\AppData\Local\Temp\cceqbIfk.s 			page 13


 329:Drivers/STM32L4xx_HAL_Driver/Src/stm32l4xx_hal.c ****   uwTick += (uint32_t)uwTickFreq;
 374              		.loc 1 329 13
 375 0004 064B     		ldr	r3, .L20
 376 0006 1B78     		ldrb	r3, [r3]	@ zero_extendqisi2
 377 0008 1A46     		mov	r2, r3
 378              		.loc 1 329 10
 379 000a 064B     		ldr	r3, .L20+4
 380 000c 1B68     		ldr	r3, [r3]
 381 000e 1344     		add	r3, r3, r2
 382 0010 044A     		ldr	r2, .L20+4
 383 0012 1360     		str	r3, [r2]
 330:Drivers/STM32L4xx_HAL_Driver/Src/stm32l4xx_hal.c **** }
 384              		.loc 1 330 1
 385 0014 00BF     		nop
 386 0016 BD46     		mov	sp, r7
 387              	.LCFI22:
 388              		.cfi_def_cfa_register 13
 389              		@ sp needed
 390 0018 5DF8047B 		ldr	r7, [sp], #4
 391              	.LCFI23:
 392              		.cfi_restore 7
 393              		.cfi_def_cfa_offset 0
 394 001c 7047     		bx	lr
 395              	.L21:
 396 001e 00BF     		.align	2
 397              	.L20:
 398 0020 00000000 		.word	uwTickFreq
 399 0024 00000000 		.word	uwTick
 400              		.cfi_endproc
 401              	.LFE293:
 403              		.section	.text.HAL_GetTick,"ax",%progbits
 404              		.align	1
 405              		.weak	HAL_GetTick
 406              		.syntax unified
 407              		.thumb
 408              		.thumb_func
 410              	HAL_GetTick:
 411              	.LFB294:
 331:Drivers/STM32L4xx_HAL_Driver/Src/stm32l4xx_hal.c **** 
 332:Drivers/STM32L4xx_HAL_Driver/Src/stm32l4xx_hal.c **** /**
 333:Drivers/STM32L4xx_HAL_Driver/Src/stm32l4xx_hal.c ****   * @brief Provide a tick value in millisecond.
 334:Drivers/STM32L4xx_HAL_Driver/Src/stm32l4xx_hal.c ****   * @note This function is declared as __weak to be overwritten in case of other
 335:Drivers/STM32L4xx_HAL_Driver/Src/stm32l4xx_hal.c ****   *       implementations in user file.
 336:Drivers/STM32L4xx_HAL_Driver/Src/stm32l4xx_hal.c ****   * @retval tick value
 337:Drivers/STM32L4xx_HAL_Driver/Src/stm32l4xx_hal.c ****   */
 338:Drivers/STM32L4xx_HAL_Driver/Src/stm32l4xx_hal.c **** __weak uint32_t HAL_GetTick(void)
 339:Drivers/STM32L4xx_HAL_Driver/Src/stm32l4xx_hal.c **** {
 412              		.loc 1 339 1
 413              		.cfi_startproc
 414              		@ args = 0, pretend = 0, frame = 0
 415              		@ frame_needed = 1, uses_anonymous_args = 0
 416              		@ link register save eliminated.
 417 0000 80B4     		push	{r7}
 418              	.LCFI24:
 419              		.cfi_def_cfa_offset 4
 420              		.cfi_offset 7, -4
 421 0002 00AF     		add	r7, sp, #0
ARM GAS  C:\Users\CL\AppData\Local\Temp\cceqbIfk.s 			page 14


 422              	.LCFI25:
 423              		.cfi_def_cfa_register 7
 340:Drivers/STM32L4xx_HAL_Driver/Src/stm32l4xx_hal.c ****   return uwTick;
 424              		.loc 1 340 10
 425 0004 034B     		ldr	r3, .L24
 426 0006 1B68     		ldr	r3, [r3]
 341:Drivers/STM32L4xx_HAL_Driver/Src/stm32l4xx_hal.c **** }
 427              		.loc 1 341 1
 428 0008 1846     		mov	r0, r3
 429 000a BD46     		mov	sp, r7
 430              	.LCFI26:
 431              		.cfi_def_cfa_register 13
 432              		@ sp needed
 433 000c 5DF8047B 		ldr	r7, [sp], #4
 434              	.LCFI27:
 435              		.cfi_restore 7
 436              		.cfi_def_cfa_offset 0
 437 0010 7047     		bx	lr
 438              	.L25:
 439 0012 00BF     		.align	2
 440              	.L24:
 441 0014 00000000 		.word	uwTick
 442              		.cfi_endproc
 443              	.LFE294:
 445              		.section	.text.HAL_GetTickPrio,"ax",%progbits
 446              		.align	1
 447              		.global	HAL_GetTickPrio
 448              		.syntax unified
 449              		.thumb
 450              		.thumb_func
 452              	HAL_GetTickPrio:
 453              	.LFB295:
 342:Drivers/STM32L4xx_HAL_Driver/Src/stm32l4xx_hal.c **** 
 343:Drivers/STM32L4xx_HAL_Driver/Src/stm32l4xx_hal.c **** /**
 344:Drivers/STM32L4xx_HAL_Driver/Src/stm32l4xx_hal.c ****   * @brief This function returns a tick priority.
 345:Drivers/STM32L4xx_HAL_Driver/Src/stm32l4xx_hal.c ****   * @retval tick priority
 346:Drivers/STM32L4xx_HAL_Driver/Src/stm32l4xx_hal.c ****   */
 347:Drivers/STM32L4xx_HAL_Driver/Src/stm32l4xx_hal.c **** uint32_t HAL_GetTickPrio(void)
 348:Drivers/STM32L4xx_HAL_Driver/Src/stm32l4xx_hal.c **** {
 454              		.loc 1 348 1
 455              		.cfi_startproc
 456              		@ args = 0, pretend = 0, frame = 0
 457              		@ frame_needed = 1, uses_anonymous_args = 0
 458              		@ link register save eliminated.
 459 0000 80B4     		push	{r7}
 460              	.LCFI28:
 461              		.cfi_def_cfa_offset 4
 462              		.cfi_offset 7, -4
 463 0002 00AF     		add	r7, sp, #0
 464              	.LCFI29:
 465              		.cfi_def_cfa_register 7
 349:Drivers/STM32L4xx_HAL_Driver/Src/stm32l4xx_hal.c ****   return uwTickPrio;
 466              		.loc 1 349 10
 467 0004 034B     		ldr	r3, .L28
 468 0006 1B68     		ldr	r3, [r3]
 350:Drivers/STM32L4xx_HAL_Driver/Src/stm32l4xx_hal.c **** }
 469              		.loc 1 350 1
ARM GAS  C:\Users\CL\AppData\Local\Temp\cceqbIfk.s 			page 15


 470 0008 1846     		mov	r0, r3
 471 000a BD46     		mov	sp, r7
 472              	.LCFI30:
 473              		.cfi_def_cfa_register 13
 474              		@ sp needed
 475 000c 5DF8047B 		ldr	r7, [sp], #4
 476              	.LCFI31:
 477              		.cfi_restore 7
 478              		.cfi_def_cfa_offset 0
 479 0010 7047     		bx	lr
 480              	.L29:
 481 0012 00BF     		.align	2
 482              	.L28:
 483 0014 00000000 		.word	uwTickPrio
 484              		.cfi_endproc
 485              	.LFE295:
 487              		.section	.text.HAL_SetTickFreq,"ax",%progbits
 488              		.align	1
 489              		.global	HAL_SetTickFreq
 490              		.syntax unified
 491              		.thumb
 492              		.thumb_func
 494              	HAL_SetTickFreq:
 495              	.LFB296:
 351:Drivers/STM32L4xx_HAL_Driver/Src/stm32l4xx_hal.c **** 
 352:Drivers/STM32L4xx_HAL_Driver/Src/stm32l4xx_hal.c **** /**
 353:Drivers/STM32L4xx_HAL_Driver/Src/stm32l4xx_hal.c ****   * @brief Set new tick Freq.
 354:Drivers/STM32L4xx_HAL_Driver/Src/stm32l4xx_hal.c ****   * @param Freq tick frequency
 355:Drivers/STM32L4xx_HAL_Driver/Src/stm32l4xx_hal.c ****   * @retval HAL status
 356:Drivers/STM32L4xx_HAL_Driver/Src/stm32l4xx_hal.c ****   */
 357:Drivers/STM32L4xx_HAL_Driver/Src/stm32l4xx_hal.c **** HAL_StatusTypeDef HAL_SetTickFreq(HAL_TickFreqTypeDef Freq)
 358:Drivers/STM32L4xx_HAL_Driver/Src/stm32l4xx_hal.c **** {
 496              		.loc 1 358 1
 497              		.cfi_startproc
 498              		@ args = 0, pretend = 0, frame = 16
 499              		@ frame_needed = 1, uses_anonymous_args = 0
 500 0000 80B5     		push	{r7, lr}
 501              	.LCFI32:
 502              		.cfi_def_cfa_offset 8
 503              		.cfi_offset 7, -8
 504              		.cfi_offset 14, -4
 505 0002 84B0     		sub	sp, sp, #16
 506              	.LCFI33:
 507              		.cfi_def_cfa_offset 24
 508 0004 00AF     		add	r7, sp, #0
 509              	.LCFI34:
 510              		.cfi_def_cfa_register 7
 511 0006 0346     		mov	r3, r0
 512 0008 FB71     		strb	r3, [r7, #7]
 359:Drivers/STM32L4xx_HAL_Driver/Src/stm32l4xx_hal.c ****   HAL_StatusTypeDef status  = HAL_OK;
 513              		.loc 1 359 21
 514 000a 0023     		movs	r3, #0
 515 000c FB73     		strb	r3, [r7, #15]
 360:Drivers/STM32L4xx_HAL_Driver/Src/stm32l4xx_hal.c ****   HAL_TickFreqTypeDef prevTickFreq;
 361:Drivers/STM32L4xx_HAL_Driver/Src/stm32l4xx_hal.c **** 
 362:Drivers/STM32L4xx_HAL_Driver/Src/stm32l4xx_hal.c ****   if (uwTickFreq != Freq)
 516              		.loc 1 362 18
ARM GAS  C:\Users\CL\AppData\Local\Temp\cceqbIfk.s 			page 16


 517 000e 0E4B     		ldr	r3, .L33
 518 0010 1B78     		ldrb	r3, [r3]	@ zero_extendqisi2
 519              		.loc 1 362 6
 520 0012 FA79     		ldrb	r2, [r7, #7]	@ zero_extendqisi2
 521 0014 9A42     		cmp	r2, r3
 522 0016 12D0     		beq	.L31
 363:Drivers/STM32L4xx_HAL_Driver/Src/stm32l4xx_hal.c ****   {
 364:Drivers/STM32L4xx_HAL_Driver/Src/stm32l4xx_hal.c ****     /* Back up uwTickFreq frequency */
 365:Drivers/STM32L4xx_HAL_Driver/Src/stm32l4xx_hal.c ****     prevTickFreq = uwTickFreq;
 523              		.loc 1 365 18
 524 0018 0B4B     		ldr	r3, .L33
 525 001a 1B78     		ldrb	r3, [r3]
 526 001c BB73     		strb	r3, [r7, #14]
 366:Drivers/STM32L4xx_HAL_Driver/Src/stm32l4xx_hal.c **** 
 367:Drivers/STM32L4xx_HAL_Driver/Src/stm32l4xx_hal.c ****     /* Update uwTickFreq global variable used by HAL_InitTick() */
 368:Drivers/STM32L4xx_HAL_Driver/Src/stm32l4xx_hal.c ****     uwTickFreq = Freq;
 527              		.loc 1 368 16
 528 001e 0A4A     		ldr	r2, .L33
 529 0020 FB79     		ldrb	r3, [r7, #7]
 530 0022 1370     		strb	r3, [r2]
 369:Drivers/STM32L4xx_HAL_Driver/Src/stm32l4xx_hal.c **** 
 370:Drivers/STM32L4xx_HAL_Driver/Src/stm32l4xx_hal.c ****     /* Apply the new tick Freq  */
 371:Drivers/STM32L4xx_HAL_Driver/Src/stm32l4xx_hal.c ****     status = HAL_InitTick(uwTickPrio);
 531              		.loc 1 371 14
 532 0024 094B     		ldr	r3, .L33+4
 533 0026 1B68     		ldr	r3, [r3]
 534 0028 1846     		mov	r0, r3
 535 002a FFF7FEFF 		bl	HAL_InitTick
 536 002e 0346     		mov	r3, r0
 537 0030 FB73     		strb	r3, [r7, #15]
 372:Drivers/STM32L4xx_HAL_Driver/Src/stm32l4xx_hal.c ****     if (status != HAL_OK)
 538              		.loc 1 372 8
 539 0032 FB7B     		ldrb	r3, [r7, #15]	@ zero_extendqisi2
 540 0034 002B     		cmp	r3, #0
 541 0036 02D0     		beq	.L31
 373:Drivers/STM32L4xx_HAL_Driver/Src/stm32l4xx_hal.c ****     {
 374:Drivers/STM32L4xx_HAL_Driver/Src/stm32l4xx_hal.c ****       /* Restore previous tick frequency */
 375:Drivers/STM32L4xx_HAL_Driver/Src/stm32l4xx_hal.c ****       uwTickFreq = prevTickFreq;
 542              		.loc 1 375 18
 543 0038 034A     		ldr	r2, .L33
 544 003a BB7B     		ldrb	r3, [r7, #14]
 545 003c 1370     		strb	r3, [r2]
 546              	.L31:
 376:Drivers/STM32L4xx_HAL_Driver/Src/stm32l4xx_hal.c ****     }
 377:Drivers/STM32L4xx_HAL_Driver/Src/stm32l4xx_hal.c ****   }
 378:Drivers/STM32L4xx_HAL_Driver/Src/stm32l4xx_hal.c **** 
 379:Drivers/STM32L4xx_HAL_Driver/Src/stm32l4xx_hal.c ****   return status;
 547              		.loc 1 379 10
 548 003e FB7B     		ldrb	r3, [r7, #15]	@ zero_extendqisi2
 380:Drivers/STM32L4xx_HAL_Driver/Src/stm32l4xx_hal.c **** }
 549              		.loc 1 380 1
 550 0040 1846     		mov	r0, r3
 551 0042 1037     		adds	r7, r7, #16
 552              	.LCFI35:
 553              		.cfi_def_cfa_offset 8
 554 0044 BD46     		mov	sp, r7
 555              	.LCFI36:
ARM GAS  C:\Users\CL\AppData\Local\Temp\cceqbIfk.s 			page 17


 556              		.cfi_def_cfa_register 13
 557              		@ sp needed
 558 0046 80BD     		pop	{r7, pc}
 559              	.L34:
 560              		.align	2
 561              	.L33:
 562 0048 00000000 		.word	uwTickFreq
 563 004c 00000000 		.word	uwTickPrio
 564              		.cfi_endproc
 565              	.LFE296:
 567              		.section	.text.HAL_GetTickFreq,"ax",%progbits
 568              		.align	1
 569              		.global	HAL_GetTickFreq
 570              		.syntax unified
 571              		.thumb
 572              		.thumb_func
 574              	HAL_GetTickFreq:
 575              	.LFB297:
 381:Drivers/STM32L4xx_HAL_Driver/Src/stm32l4xx_hal.c **** 
 382:Drivers/STM32L4xx_HAL_Driver/Src/stm32l4xx_hal.c **** /**
 383:Drivers/STM32L4xx_HAL_Driver/Src/stm32l4xx_hal.c ****   * @brief Return tick frequency.
 384:Drivers/STM32L4xx_HAL_Driver/Src/stm32l4xx_hal.c ****   * @retval tick period in Hz
 385:Drivers/STM32L4xx_HAL_Driver/Src/stm32l4xx_hal.c ****   */
 386:Drivers/STM32L4xx_HAL_Driver/Src/stm32l4xx_hal.c **** HAL_TickFreqTypeDef HAL_GetTickFreq(void)
 387:Drivers/STM32L4xx_HAL_Driver/Src/stm32l4xx_hal.c **** {
 576              		.loc 1 387 1
 577              		.cfi_startproc
 578              		@ args = 0, pretend = 0, frame = 0
 579              		@ frame_needed = 1, uses_anonymous_args = 0
 580              		@ link register save eliminated.
 581 0000 80B4     		push	{r7}
 582              	.LCFI37:
 583              		.cfi_def_cfa_offset 4
 584              		.cfi_offset 7, -4
 585 0002 00AF     		add	r7, sp, #0
 586              	.LCFI38:
 587              		.cfi_def_cfa_register 7
 388:Drivers/STM32L4xx_HAL_Driver/Src/stm32l4xx_hal.c ****   return uwTickFreq;
 588              		.loc 1 388 10
 589 0004 034B     		ldr	r3, .L37
 590 0006 1B78     		ldrb	r3, [r3]	@ zero_extendqisi2
 389:Drivers/STM32L4xx_HAL_Driver/Src/stm32l4xx_hal.c **** }
 591              		.loc 1 389 1
 592 0008 1846     		mov	r0, r3
 593 000a BD46     		mov	sp, r7
 594              	.LCFI39:
 595              		.cfi_def_cfa_register 13
 596              		@ sp needed
 597 000c 5DF8047B 		ldr	r7, [sp], #4
 598              	.LCFI40:
 599              		.cfi_restore 7
 600              		.cfi_def_cfa_offset 0
 601 0010 7047     		bx	lr
 602              	.L38:
 603 0012 00BF     		.align	2
 604              	.L37:
 605 0014 00000000 		.word	uwTickFreq
ARM GAS  C:\Users\CL\AppData\Local\Temp\cceqbIfk.s 			page 18


 606              		.cfi_endproc
 607              	.LFE297:
 609              		.section	.text.HAL_Delay,"ax",%progbits
 610              		.align	1
 611              		.global	HAL_Delay
 612              		.syntax unified
 613              		.thumb
 614              		.thumb_func
 616              	HAL_Delay:
 617              	.LFB298:
 390:Drivers/STM32L4xx_HAL_Driver/Src/stm32l4xx_hal.c **** 
 391:Drivers/STM32L4xx_HAL_Driver/Src/stm32l4xx_hal.c **** /**
 392:Drivers/STM32L4xx_HAL_Driver/Src/stm32l4xx_hal.c ****   * @brief This function provides minimum delay (in milliseconds) based
 393:Drivers/STM32L4xx_HAL_Driver/Src/stm32l4xx_hal.c ****   *        on variable incremented.
 394:Drivers/STM32L4xx_HAL_Driver/Src/stm32l4xx_hal.c ****   * @note In the default implementation , SysTick timer is the source of time base.
 395:Drivers/STM32L4xx_HAL_Driver/Src/stm32l4xx_hal.c ****   *       It is used to generate interrupts at regular time intervals where uwTick
 396:Drivers/STM32L4xx_HAL_Driver/Src/stm32l4xx_hal.c ****   *       is incremented.
 397:Drivers/STM32L4xx_HAL_Driver/Src/stm32l4xx_hal.c ****   * @note This function is declared as __weak to be overwritten in case of other
 398:Drivers/STM32L4xx_HAL_Driver/Src/stm32l4xx_hal.c ****   *       implementations in user file.
 399:Drivers/STM32L4xx_HAL_Driver/Src/stm32l4xx_hal.c ****   * @param Delay  specifies the delay time length, in milliseconds.
 400:Drivers/STM32L4xx_HAL_Driver/Src/stm32l4xx_hal.c ****   * @retval None
 401:Drivers/STM32L4xx_HAL_Driver/Src/stm32l4xx_hal.c ****   */
 402:Drivers/STM32L4xx_HAL_Driver/Src/stm32l4xx_hal.c **** // __weak void HAL_Delay(uint32_t Delay)
 403:Drivers/STM32L4xx_HAL_Driver/Src/stm32l4xx_hal.c **** // {
 404:Drivers/STM32L4xx_HAL_Driver/Src/stm32l4xx_hal.c **** //   uint32_t tickstart = HAL_GetTick();
 405:Drivers/STM32L4xx_HAL_Driver/Src/stm32l4xx_hal.c **** //   uint32_t wait = Delay;
 406:Drivers/STM32L4xx_HAL_Driver/Src/stm32l4xx_hal.c **** 
 407:Drivers/STM32L4xx_HAL_Driver/Src/stm32l4xx_hal.c **** //   /* Add a period to guaranty minimum wait */
 408:Drivers/STM32L4xx_HAL_Driver/Src/stm32l4xx_hal.c **** //   if (wait < HAL_MAX_DELAY)
 409:Drivers/STM32L4xx_HAL_Driver/Src/stm32l4xx_hal.c **** //   {
 410:Drivers/STM32L4xx_HAL_Driver/Src/stm32l4xx_hal.c **** //     wait += (uint32_t)uwTickFreq;
 411:Drivers/STM32L4xx_HAL_Driver/Src/stm32l4xx_hal.c **** //   }
 412:Drivers/STM32L4xx_HAL_Driver/Src/stm32l4xx_hal.c **** 
 413:Drivers/STM32L4xx_HAL_Driver/Src/stm32l4xx_hal.c **** //   while ((HAL_GetTick() - tickstart) < wait)
 414:Drivers/STM32L4xx_HAL_Driver/Src/stm32l4xx_hal.c **** //   {
 415:Drivers/STM32L4xx_HAL_Driver/Src/stm32l4xx_hal.c **** //   }
 416:Drivers/STM32L4xx_HAL_Driver/Src/stm32l4xx_hal.c **** // }
 417:Drivers/STM32L4xx_HAL_Driver/Src/stm32l4xx_hal.c **** 
 418:Drivers/STM32L4xx_HAL_Driver/Src/stm32l4xx_hal.c **** void HAL_Delay(uint32_t Delay){
 618              		.loc 1 418 31
 619              		.cfi_startproc
 620              		@ args = 0, pretend = 0, frame = 8
 621              		@ frame_needed = 1, uses_anonymous_args = 0
 622 0000 80B5     		push	{r7, lr}
 623              	.LCFI41:
 624              		.cfi_def_cfa_offset 8
 625              		.cfi_offset 7, -8
 626              		.cfi_offset 14, -4
 627 0002 82B0     		sub	sp, sp, #8
 628              	.LCFI42:
 629              		.cfi_def_cfa_offset 16
 630 0004 00AF     		add	r7, sp, #0
 631              	.LCFI43:
 632              		.cfi_def_cfa_register 7
 633 0006 7860     		str	r0, [r7, #4]
 419:Drivers/STM32L4xx_HAL_Driver/Src/stm32l4xx_hal.c ****   Delay_ms(Delay);
 634              		.loc 1 419 3
ARM GAS  C:\Users\CL\AppData\Local\Temp\cceqbIfk.s 			page 19


 635 0008 7868     		ldr	r0, [r7, #4]
 636 000a FFF7FEFF 		bl	Delay_ms
 420:Drivers/STM32L4xx_HAL_Driver/Src/stm32l4xx_hal.c **** }
 637              		.loc 1 420 1
 638 000e 00BF     		nop
 639 0010 0837     		adds	r7, r7, #8
 640              	.LCFI44:
 641              		.cfi_def_cfa_offset 8
 642 0012 BD46     		mov	sp, r7
 643              	.LCFI45:
 644              		.cfi_def_cfa_register 13
 645              		@ sp needed
 646 0014 80BD     		pop	{r7, pc}
 647              		.cfi_endproc
 648              	.LFE298:
 650              		.section	.text.Delay_us,"ax",%progbits
 651              		.align	1
 652              		.global	Delay_us
 653              		.syntax unified
 654              		.thumb
 655              		.thumb_func
 657              	Delay_us:
 658              	.LFB299:
 421:Drivers/STM32L4xx_HAL_Driver/Src/stm32l4xx_hal.c **** void Delay_us( uint32_t cnt)
 422:Drivers/STM32L4xx_HAL_Driver/Src/stm32l4xx_hal.c **** {
 659              		.loc 1 422 1
 660              		.cfi_startproc
 661              		@ args = 0, pretend = 0, frame = 16
 662              		@ frame_needed = 1, uses_anonymous_args = 0
 663              		@ link register save eliminated.
 664 0000 80B4     		push	{r7}
 665              	.LCFI46:
 666              		.cfi_def_cfa_offset 4
 667              		.cfi_offset 7, -4
 668 0002 85B0     		sub	sp, sp, #20
 669              	.LCFI47:
 670              		.cfi_def_cfa_offset 24
 671 0004 00AF     		add	r7, sp, #0
 672              	.LCFI48:
 673              		.cfi_def_cfa_register 7
 674 0006 7860     		str	r0, [r7, #4]
 423:Drivers/STM32L4xx_HAL_Driver/Src/stm32l4xx_hal.c ****   uint32_t temp;
 424:Drivers/STM32L4xx_HAL_Driver/Src/stm32l4xx_hal.c ****   SysTick->LOAD = 10*cnt;
 675              		.loc 1 424 10
 676 0008 1249     		ldr	r1, .L43
 677              		.loc 1 424 21
 678 000a 7A68     		ldr	r2, [r7, #4]
 679 000c 1346     		mov	r3, r2
 680 000e 9B00     		lsls	r3, r3, #2
 681 0010 1344     		add	r3, r3, r2
 682 0012 5B00     		lsls	r3, r3, #1
 683              		.loc 1 424 17
 684 0014 4B60     		str	r3, [r1, #4]
 425:Drivers/STM32L4xx_HAL_Driver/Src/stm32l4xx_hal.c ****   SysTick->VAL=0X00;//
 685              		.loc 1 425 10
 686 0016 0F4B     		ldr	r3, .L43
 687              		.loc 1 425 15
ARM GAS  C:\Users\CL\AppData\Local\Temp\cceqbIfk.s 			page 20


 688 0018 0022     		movs	r2, #0
 689 001a 9A60     		str	r2, [r3, #8]
 426:Drivers/STM32L4xx_HAL_Driver/Src/stm32l4xx_hal.c ****   SysTick->CTRL=0X01;//
 690              		.loc 1 426 10
 691 001c 0D4B     		ldr	r3, .L43
 692              		.loc 1 426 16
 693 001e 0122     		movs	r2, #1
 694 0020 1A60     		str	r2, [r3]
 695              	.L42:
 427:Drivers/STM32L4xx_HAL_Driver/Src/stm32l4xx_hal.c ****   do
 428:Drivers/STM32L4xx_HAL_Driver/Src/stm32l4xx_hal.c ****   {
 429:Drivers/STM32L4xx_HAL_Driver/Src/stm32l4xx_hal.c ****     temp=SysTick->CTRL;//
 696              		.loc 1 429 17 discriminator 2
 697 0022 0C4B     		ldr	r3, .L43
 698              		.loc 1 429 9 discriminator 2
 699 0024 1B68     		ldr	r3, [r3]
 700 0026 FB60     		str	r3, [r7, #12]
 430:Drivers/STM32L4xx_HAL_Driver/Src/stm32l4xx_hal.c ****   }while((temp&0x01)&&(!(temp&(1<<16))));//
 701              		.loc 1 430 15 discriminator 2
 702 0028 FB68     		ldr	r3, [r7, #12]
 703 002a 03F00103 		and	r3, r3, #1
 704              		.loc 1 430 3 discriminator 2
 705 002e 002B     		cmp	r3, #0
 706 0030 04D0     		beq	.L41
 707              		.loc 1 430 30 discriminator 1
 708 0032 FB68     		ldr	r3, [r7, #12]
 709 0034 03F48033 		and	r3, r3, #65536
 710              		.loc 1 430 21 discriminator 1
 711 0038 002B     		cmp	r3, #0
 712 003a F2D0     		beq	.L42
 713              	.L41:
 431:Drivers/STM32L4xx_HAL_Driver/Src/stm32l4xx_hal.c ****       SysTick->CTRL=0x00; //
 714              		.loc 1 431 14
 715 003c 054B     		ldr	r3, .L43
 716              		.loc 1 431 20
 717 003e 0022     		movs	r2, #0
 718 0040 1A60     		str	r2, [r3]
 432:Drivers/STM32L4xx_HAL_Driver/Src/stm32l4xx_hal.c ****       SysTick->VAL =0X00; //
 719              		.loc 1 432 14
 720 0042 044B     		ldr	r3, .L43
 721              		.loc 1 432 20
 722 0044 0022     		movs	r2, #0
 723 0046 9A60     		str	r2, [r3, #8]
 433:Drivers/STM32L4xx_HAL_Driver/Src/stm32l4xx_hal.c **** }
 724              		.loc 1 433 1
 725 0048 00BF     		nop
 726 004a 1437     		adds	r7, r7, #20
 727              	.LCFI49:
 728              		.cfi_def_cfa_offset 4
 729 004c BD46     		mov	sp, r7
 730              	.LCFI50:
 731              		.cfi_def_cfa_register 13
 732              		@ sp needed
 733 004e 5DF8047B 		ldr	r7, [sp], #4
 734              	.LCFI51:
 735              		.cfi_restore 7
 736              		.cfi_def_cfa_offset 0
ARM GAS  C:\Users\CL\AppData\Local\Temp\cceqbIfk.s 			page 21


 737 0052 7047     		bx	lr
 738              	.L44:
 739              		.align	2
 740              	.L43:
 741 0054 10E000E0 		.word	-536813552
 742              		.cfi_endproc
 743              	.LFE299:
 745              		.section	.text.Delay_ms,"ax",%progbits
 746              		.align	1
 747              		.global	Delay_ms
 748              		.syntax unified
 749              		.thumb
 750              		.thumb_func
 752              	Delay_ms:
 753              	.LFB300:
 434:Drivers/STM32L4xx_HAL_Driver/Src/stm32l4xx_hal.c **** 
 435:Drivers/STM32L4xx_HAL_Driver/Src/stm32l4xx_hal.c **** void Delay_ms( uint32_t cnt)
 436:Drivers/STM32L4xx_HAL_Driver/Src/stm32l4xx_hal.c **** {  
 754              		.loc 1 436 1
 755              		.cfi_startproc
 756              		@ args = 0, pretend = 0, frame = 16
 757              		@ frame_needed = 1, uses_anonymous_args = 0
 758 0000 80B5     		push	{r7, lr}
 759              	.LCFI52:
 760              		.cfi_def_cfa_offset 8
 761              		.cfi_offset 7, -8
 762              		.cfi_offset 14, -4
 763 0002 84B0     		sub	sp, sp, #16
 764              	.LCFI53:
 765              		.cfi_def_cfa_offset 24
 766 0004 00AF     		add	r7, sp, #0
 767              	.LCFI54:
 768              		.cfi_def_cfa_register 7
 769 0006 7860     		str	r0, [r7, #4]
 437:Drivers/STM32L4xx_HAL_Driver/Src/stm32l4xx_hal.c ****     uint32_t i=0; 
 770              		.loc 1 437 14
 771 0008 0023     		movs	r3, #0
 772 000a FB60     		str	r3, [r7, #12]
 438:Drivers/STM32L4xx_HAL_Driver/Src/stm32l4xx_hal.c ****     for(i=0;i<cnt;i++)
 773              		.loc 1 438 10
 774 000c 0023     		movs	r3, #0
 775 000e FB60     		str	r3, [r7, #12]
 776              		.loc 1 438 5
 777 0010 06E0     		b	.L46
 778              	.L47:
 439:Drivers/STM32L4xx_HAL_Driver/Src/stm32l4xx_hal.c **** 	    Delay_us(1000);
 779              		.loc 1 439 6 discriminator 3
 780 0012 4FF47A70 		mov	r0, #1000
 781 0016 FFF7FEFF 		bl	Delay_us
 438:Drivers/STM32L4xx_HAL_Driver/Src/stm32l4xx_hal.c ****     for(i=0;i<cnt;i++)
 782              		.loc 1 438 20 discriminator 3
 783 001a FB68     		ldr	r3, [r7, #12]
 784 001c 0133     		adds	r3, r3, #1
 785 001e FB60     		str	r3, [r7, #12]
 786              	.L46:
 438:Drivers/STM32L4xx_HAL_Driver/Src/stm32l4xx_hal.c ****     for(i=0;i<cnt;i++)
 787              		.loc 1 438 5 discriminator 1
ARM GAS  C:\Users\CL\AppData\Local\Temp\cceqbIfk.s 			page 22


 788 0020 FA68     		ldr	r2, [r7, #12]
 789 0022 7B68     		ldr	r3, [r7, #4]
 790 0024 9A42     		cmp	r2, r3
 791 0026 F4D3     		bcc	.L47
 440:Drivers/STM32L4xx_HAL_Driver/Src/stm32l4xx_hal.c **** }
 792              		.loc 1 440 1
 793 0028 00BF     		nop
 794 002a 00BF     		nop
 795 002c 1037     		adds	r7, r7, #16
 796              	.LCFI55:
 797              		.cfi_def_cfa_offset 8
 798 002e BD46     		mov	sp, r7
 799              	.LCFI56:
 800              		.cfi_def_cfa_register 13
 801              		@ sp needed
 802 0030 80BD     		pop	{r7, pc}
 803              		.cfi_endproc
 804              	.LFE300:
 806              		.section	.text.HAL_SuspendTick,"ax",%progbits
 807              		.align	1
 808              		.weak	HAL_SuspendTick
 809              		.syntax unified
 810              		.thumb
 811              		.thumb_func
 813              	HAL_SuspendTick:
 814              	.LFB301:
 441:Drivers/STM32L4xx_HAL_Driver/Src/stm32l4xx_hal.c **** 
 442:Drivers/STM32L4xx_HAL_Driver/Src/stm32l4xx_hal.c **** /**
 443:Drivers/STM32L4xx_HAL_Driver/Src/stm32l4xx_hal.c ****   * @brief Suspend Tick increment.
 444:Drivers/STM32L4xx_HAL_Driver/Src/stm32l4xx_hal.c ****   * @note In the default implementation , SysTick timer is the source of time base. It is
 445:Drivers/STM32L4xx_HAL_Driver/Src/stm32l4xx_hal.c ****   *       used to generate interrupts at regular time intervals. Once HAL_SuspendTick()
 446:Drivers/STM32L4xx_HAL_Driver/Src/stm32l4xx_hal.c ****   *       is called, the SysTick interrupt will be disabled and so Tick increment
 447:Drivers/STM32L4xx_HAL_Driver/Src/stm32l4xx_hal.c ****   *       is suspended.
 448:Drivers/STM32L4xx_HAL_Driver/Src/stm32l4xx_hal.c ****   * @note This function is declared as __weak to be overwritten in case of other
 449:Drivers/STM32L4xx_HAL_Driver/Src/stm32l4xx_hal.c ****   *       implementations in user file.
 450:Drivers/STM32L4xx_HAL_Driver/Src/stm32l4xx_hal.c ****   * @retval None
 451:Drivers/STM32L4xx_HAL_Driver/Src/stm32l4xx_hal.c ****   */
 452:Drivers/STM32L4xx_HAL_Driver/Src/stm32l4xx_hal.c **** __weak void HAL_SuspendTick(void)
 453:Drivers/STM32L4xx_HAL_Driver/Src/stm32l4xx_hal.c **** {
 815              		.loc 1 453 1
 816              		.cfi_startproc
 817              		@ args = 0, pretend = 0, frame = 0
 818              		@ frame_needed = 1, uses_anonymous_args = 0
 819              		@ link register save eliminated.
 820 0000 80B4     		push	{r7}
 821              	.LCFI57:
 822              		.cfi_def_cfa_offset 4
 823              		.cfi_offset 7, -4
 824 0002 00AF     		add	r7, sp, #0
 825              	.LCFI58:
 826              		.cfi_def_cfa_register 7
 454:Drivers/STM32L4xx_HAL_Driver/Src/stm32l4xx_hal.c ****   /* Disable SysTick Interrupt */
 455:Drivers/STM32L4xx_HAL_Driver/Src/stm32l4xx_hal.c ****   SysTick->CTRL &= ~SysTick_CTRL_TICKINT_Msk;
 827              		.loc 1 455 17
 828 0004 054B     		ldr	r3, .L49
 829 0006 1B68     		ldr	r3, [r3]
 830 0008 044A     		ldr	r2, .L49
ARM GAS  C:\Users\CL\AppData\Local\Temp\cceqbIfk.s 			page 23


 831 000a 23F00203 		bic	r3, r3, #2
 832 000e 1360     		str	r3, [r2]
 456:Drivers/STM32L4xx_HAL_Driver/Src/stm32l4xx_hal.c **** }
 833              		.loc 1 456 1
 834 0010 00BF     		nop
 835 0012 BD46     		mov	sp, r7
 836              	.LCFI59:
 837              		.cfi_def_cfa_register 13
 838              		@ sp needed
 839 0014 5DF8047B 		ldr	r7, [sp], #4
 840              	.LCFI60:
 841              		.cfi_restore 7
 842              		.cfi_def_cfa_offset 0
 843 0018 7047     		bx	lr
 844              	.L50:
 845 001a 00BF     		.align	2
 846              	.L49:
 847 001c 10E000E0 		.word	-536813552
 848              		.cfi_endproc
 849              	.LFE301:
 851              		.section	.text.HAL_ResumeTick,"ax",%progbits
 852              		.align	1
 853              		.weak	HAL_ResumeTick
 854              		.syntax unified
 855              		.thumb
 856              		.thumb_func
 858              	HAL_ResumeTick:
 859              	.LFB302:
 457:Drivers/STM32L4xx_HAL_Driver/Src/stm32l4xx_hal.c **** 
 458:Drivers/STM32L4xx_HAL_Driver/Src/stm32l4xx_hal.c **** /**
 459:Drivers/STM32L4xx_HAL_Driver/Src/stm32l4xx_hal.c ****   * @brief Resume Tick increment.
 460:Drivers/STM32L4xx_HAL_Driver/Src/stm32l4xx_hal.c ****   * @note In the default implementation , SysTick timer is the source of time base. It is
 461:Drivers/STM32L4xx_HAL_Driver/Src/stm32l4xx_hal.c ****   *       used to generate interrupts at regular time intervals. Once HAL_ResumeTick()
 462:Drivers/STM32L4xx_HAL_Driver/Src/stm32l4xx_hal.c ****   *       is called, the SysTick interrupt will be enabled and so Tick increment
 463:Drivers/STM32L4xx_HAL_Driver/Src/stm32l4xx_hal.c ****   *       is resumed.
 464:Drivers/STM32L4xx_HAL_Driver/Src/stm32l4xx_hal.c ****   * @note This function is declared as __weak to be overwritten in case of other
 465:Drivers/STM32L4xx_HAL_Driver/Src/stm32l4xx_hal.c ****   *       implementations in user file.
 466:Drivers/STM32L4xx_HAL_Driver/Src/stm32l4xx_hal.c ****   * @retval None
 467:Drivers/STM32L4xx_HAL_Driver/Src/stm32l4xx_hal.c ****   */
 468:Drivers/STM32L4xx_HAL_Driver/Src/stm32l4xx_hal.c **** __weak void HAL_ResumeTick(void)
 469:Drivers/STM32L4xx_HAL_Driver/Src/stm32l4xx_hal.c **** {
 860              		.loc 1 469 1
 861              		.cfi_startproc
 862              		@ args = 0, pretend = 0, frame = 0
 863              		@ frame_needed = 1, uses_anonymous_args = 0
 864              		@ link register save eliminated.
 865 0000 80B4     		push	{r7}
 866              	.LCFI61:
 867              		.cfi_def_cfa_offset 4
 868              		.cfi_offset 7, -4
 869 0002 00AF     		add	r7, sp, #0
 870              	.LCFI62:
 871              		.cfi_def_cfa_register 7
 470:Drivers/STM32L4xx_HAL_Driver/Src/stm32l4xx_hal.c ****   /* Enable SysTick Interrupt */
 471:Drivers/STM32L4xx_HAL_Driver/Src/stm32l4xx_hal.c ****   SysTick->CTRL  |= SysTick_CTRL_TICKINT_Msk;
 872              		.loc 1 471 18
 873 0004 054B     		ldr	r3, .L52
ARM GAS  C:\Users\CL\AppData\Local\Temp\cceqbIfk.s 			page 24


 874 0006 1B68     		ldr	r3, [r3]
 875 0008 044A     		ldr	r2, .L52
 876 000a 43F00203 		orr	r3, r3, #2
 877 000e 1360     		str	r3, [r2]
 472:Drivers/STM32L4xx_HAL_Driver/Src/stm32l4xx_hal.c **** }
 878              		.loc 1 472 1
 879 0010 00BF     		nop
 880 0012 BD46     		mov	sp, r7
 881              	.LCFI63:
 882              		.cfi_def_cfa_register 13
 883              		@ sp needed
 884 0014 5DF8047B 		ldr	r7, [sp], #4
 885              	.LCFI64:
 886              		.cfi_restore 7
 887              		.cfi_def_cfa_offset 0
 888 0018 7047     		bx	lr
 889              	.L53:
 890 001a 00BF     		.align	2
 891              	.L52:
 892 001c 10E000E0 		.word	-536813552
 893              		.cfi_endproc
 894              	.LFE302:
 896              		.section	.text.HAL_GetHalVersion,"ax",%progbits
 897              		.align	1
 898              		.global	HAL_GetHalVersion
 899              		.syntax unified
 900              		.thumb
 901              		.thumb_func
 903              	HAL_GetHalVersion:
 904              	.LFB303:
 473:Drivers/STM32L4xx_HAL_Driver/Src/stm32l4xx_hal.c **** 
 474:Drivers/STM32L4xx_HAL_Driver/Src/stm32l4xx_hal.c **** /**
 475:Drivers/STM32L4xx_HAL_Driver/Src/stm32l4xx_hal.c ****   * @brief  Return the HAL revision.
 476:Drivers/STM32L4xx_HAL_Driver/Src/stm32l4xx_hal.c ****   * @retval version : 0xXYZR (8bits for each decimal, R for RC)
 477:Drivers/STM32L4xx_HAL_Driver/Src/stm32l4xx_hal.c ****   */
 478:Drivers/STM32L4xx_HAL_Driver/Src/stm32l4xx_hal.c **** uint32_t HAL_GetHalVersion(void)
 479:Drivers/STM32L4xx_HAL_Driver/Src/stm32l4xx_hal.c **** {
 905              		.loc 1 479 1
 906              		.cfi_startproc
 907              		@ args = 0, pretend = 0, frame = 0
 908              		@ frame_needed = 1, uses_anonymous_args = 0
 909              		@ link register save eliminated.
 910 0000 80B4     		push	{r7}
 911              	.LCFI65:
 912              		.cfi_def_cfa_offset 4
 913              		.cfi_offset 7, -4
 914 0002 00AF     		add	r7, sp, #0
 915              	.LCFI66:
 916              		.cfi_def_cfa_register 7
 480:Drivers/STM32L4xx_HAL_Driver/Src/stm32l4xx_hal.c ****   return STM32L4XX_HAL_VERSION;
 917              		.loc 1 480 10
 918 0004 024B     		ldr	r3, .L56
 481:Drivers/STM32L4xx_HAL_Driver/Src/stm32l4xx_hal.c **** }
 919              		.loc 1 481 1
 920 0006 1846     		mov	r0, r3
 921 0008 BD46     		mov	sp, r7
 922              	.LCFI67:
ARM GAS  C:\Users\CL\AppData\Local\Temp\cceqbIfk.s 			page 25


 923              		.cfi_def_cfa_register 13
 924              		@ sp needed
 925 000a 5DF8047B 		ldr	r7, [sp], #4
 926              	.LCFI68:
 927              		.cfi_restore 7
 928              		.cfi_def_cfa_offset 0
 929 000e 7047     		bx	lr
 930              	.L57:
 931              		.align	2
 932              	.L56:
 933 0010 00030D01 		.word	17629952
 934              		.cfi_endproc
 935              	.LFE303:
 937              		.section	.text.HAL_GetREVID,"ax",%progbits
 938              		.align	1
 939              		.global	HAL_GetREVID
 940              		.syntax unified
 941              		.thumb
 942              		.thumb_func
 944              	HAL_GetREVID:
 945              	.LFB304:
 482:Drivers/STM32L4xx_HAL_Driver/Src/stm32l4xx_hal.c **** 
 483:Drivers/STM32L4xx_HAL_Driver/Src/stm32l4xx_hal.c **** /**
 484:Drivers/STM32L4xx_HAL_Driver/Src/stm32l4xx_hal.c ****   * @brief  Return the device revision identifier.
 485:Drivers/STM32L4xx_HAL_Driver/Src/stm32l4xx_hal.c ****   * @retval Device revision identifier
 486:Drivers/STM32L4xx_HAL_Driver/Src/stm32l4xx_hal.c ****   */
 487:Drivers/STM32L4xx_HAL_Driver/Src/stm32l4xx_hal.c **** uint32_t HAL_GetREVID(void)
 488:Drivers/STM32L4xx_HAL_Driver/Src/stm32l4xx_hal.c **** {
 946              		.loc 1 488 1
 947              		.cfi_startproc
 948              		@ args = 0, pretend = 0, frame = 0
 949              		@ frame_needed = 1, uses_anonymous_args = 0
 950              		@ link register save eliminated.
 951 0000 80B4     		push	{r7}
 952              	.LCFI69:
 953              		.cfi_def_cfa_offset 4
 954              		.cfi_offset 7, -4
 955 0002 00AF     		add	r7, sp, #0
 956              	.LCFI70:
 957              		.cfi_def_cfa_register 7
 489:Drivers/STM32L4xx_HAL_Driver/Src/stm32l4xx_hal.c ****   return((DBGMCU->IDCODE & DBGMCU_IDCODE_REV_ID) >> 16);
 958              		.loc 1 489 17
 959 0004 044B     		ldr	r3, .L60
 960 0006 1B68     		ldr	r3, [r3]
 961              		.loc 1 489 50
 962 0008 1B0C     		lsrs	r3, r3, #16
 963 000a 9BB2     		uxth	r3, r3
 490:Drivers/STM32L4xx_HAL_Driver/Src/stm32l4xx_hal.c **** }
 964              		.loc 1 490 1
 965 000c 1846     		mov	r0, r3
 966 000e BD46     		mov	sp, r7
 967              	.LCFI71:
 968              		.cfi_def_cfa_register 13
 969              		@ sp needed
 970 0010 5DF8047B 		ldr	r7, [sp], #4
 971              	.LCFI72:
 972              		.cfi_restore 7
ARM GAS  C:\Users\CL\AppData\Local\Temp\cceqbIfk.s 			page 26


 973              		.cfi_def_cfa_offset 0
 974 0014 7047     		bx	lr
 975              	.L61:
 976 0016 00BF     		.align	2
 977              	.L60:
 978 0018 002004E0 		.word	-536600576
 979              		.cfi_endproc
 980              	.LFE304:
 982              		.section	.text.HAL_GetDEVID,"ax",%progbits
 983              		.align	1
 984              		.global	HAL_GetDEVID
 985              		.syntax unified
 986              		.thumb
 987              		.thumb_func
 989              	HAL_GetDEVID:
 990              	.LFB305:
 491:Drivers/STM32L4xx_HAL_Driver/Src/stm32l4xx_hal.c **** 
 492:Drivers/STM32L4xx_HAL_Driver/Src/stm32l4xx_hal.c **** /**
 493:Drivers/STM32L4xx_HAL_Driver/Src/stm32l4xx_hal.c ****   * @brief  Return the device identifier.
 494:Drivers/STM32L4xx_HAL_Driver/Src/stm32l4xx_hal.c ****   * @retval Device identifier
 495:Drivers/STM32L4xx_HAL_Driver/Src/stm32l4xx_hal.c ****   */
 496:Drivers/STM32L4xx_HAL_Driver/Src/stm32l4xx_hal.c **** uint32_t HAL_GetDEVID(void)
 497:Drivers/STM32L4xx_HAL_Driver/Src/stm32l4xx_hal.c **** {
 991              		.loc 1 497 1
 992              		.cfi_startproc
 993              		@ args = 0, pretend = 0, frame = 0
 994              		@ frame_needed = 1, uses_anonymous_args = 0
 995              		@ link register save eliminated.
 996 0000 80B4     		push	{r7}
 997              	.LCFI73:
 998              		.cfi_def_cfa_offset 4
 999              		.cfi_offset 7, -4
 1000 0002 00AF     		add	r7, sp, #0
 1001              	.LCFI74:
 1002              		.cfi_def_cfa_register 7
 498:Drivers/STM32L4xx_HAL_Driver/Src/stm32l4xx_hal.c ****   return(DBGMCU->IDCODE & DBGMCU_IDCODE_DEV_ID);
 1003              		.loc 1 498 16
 1004 0004 044B     		ldr	r3, .L64
 1005 0006 1B68     		ldr	r3, [r3]
 1006              		.loc 1 498 25
 1007 0008 C3F30B03 		ubfx	r3, r3, #0, #12
 499:Drivers/STM32L4xx_HAL_Driver/Src/stm32l4xx_hal.c **** }
 1008              		.loc 1 499 1
 1009 000c 1846     		mov	r0, r3
 1010 000e BD46     		mov	sp, r7
 1011              	.LCFI75:
 1012              		.cfi_def_cfa_register 13
 1013              		@ sp needed
 1014 0010 5DF8047B 		ldr	r7, [sp], #4
 1015              	.LCFI76:
 1016              		.cfi_restore 7
 1017              		.cfi_def_cfa_offset 0
 1018 0014 7047     		bx	lr
 1019              	.L65:
 1020 0016 00BF     		.align	2
 1021              	.L64:
 1022 0018 002004E0 		.word	-536600576
ARM GAS  C:\Users\CL\AppData\Local\Temp\cceqbIfk.s 			page 27


 1023              		.cfi_endproc
 1024              	.LFE305:
 1026              		.section	.text.HAL_GetUIDw0,"ax",%progbits
 1027              		.align	1
 1028              		.global	HAL_GetUIDw0
 1029              		.syntax unified
 1030              		.thumb
 1031              		.thumb_func
 1033              	HAL_GetUIDw0:
 1034              	.LFB306:
 500:Drivers/STM32L4xx_HAL_Driver/Src/stm32l4xx_hal.c **** 
 501:Drivers/STM32L4xx_HAL_Driver/Src/stm32l4xx_hal.c **** /**
 502:Drivers/STM32L4xx_HAL_Driver/Src/stm32l4xx_hal.c ****   * @brief  Return the first word of the unique device identifier (UID based on 96 bits)
 503:Drivers/STM32L4xx_HAL_Driver/Src/stm32l4xx_hal.c ****   * @retval Device identifier
 504:Drivers/STM32L4xx_HAL_Driver/Src/stm32l4xx_hal.c ****   */
 505:Drivers/STM32L4xx_HAL_Driver/Src/stm32l4xx_hal.c **** uint32_t HAL_GetUIDw0(void)
 506:Drivers/STM32L4xx_HAL_Driver/Src/stm32l4xx_hal.c **** {
 1035              		.loc 1 506 1
 1036              		.cfi_startproc
 1037              		@ args = 0, pretend = 0, frame = 0
 1038              		@ frame_needed = 1, uses_anonymous_args = 0
 1039              		@ link register save eliminated.
 1040 0000 80B4     		push	{r7}
 1041              	.LCFI77:
 1042              		.cfi_def_cfa_offset 4
 1043              		.cfi_offset 7, -4
 1044 0002 00AF     		add	r7, sp, #0
 1045              	.LCFI78:
 1046              		.cfi_def_cfa_register 7
 507:Drivers/STM32L4xx_HAL_Driver/Src/stm32l4xx_hal.c ****   return(READ_REG(*((uint32_t *)UID_BASE)));
 1047              		.loc 1 507 10
 1048 0004 034B     		ldr	r3, .L68
 1049 0006 1B68     		ldr	r3, [r3]
 508:Drivers/STM32L4xx_HAL_Driver/Src/stm32l4xx_hal.c **** }
 1050              		.loc 1 508 1
 1051 0008 1846     		mov	r0, r3
 1052 000a BD46     		mov	sp, r7
 1053              	.LCFI79:
 1054              		.cfi_def_cfa_register 13
 1055              		@ sp needed
 1056 000c 5DF8047B 		ldr	r7, [sp], #4
 1057              	.LCFI80:
 1058              		.cfi_restore 7
 1059              		.cfi_def_cfa_offset 0
 1060 0010 7047     		bx	lr
 1061              	.L69:
 1062 0012 00BF     		.align	2
 1063              	.L68:
 1064 0014 9075FF1F 		.word	536835472
 1065              		.cfi_endproc
 1066              	.LFE306:
 1068              		.section	.text.HAL_GetUIDw1,"ax",%progbits
 1069              		.align	1
 1070              		.global	HAL_GetUIDw1
 1071              		.syntax unified
 1072              		.thumb
 1073              		.thumb_func
ARM GAS  C:\Users\CL\AppData\Local\Temp\cceqbIfk.s 			page 28


 1075              	HAL_GetUIDw1:
 1076              	.LFB307:
 509:Drivers/STM32L4xx_HAL_Driver/Src/stm32l4xx_hal.c **** 
 510:Drivers/STM32L4xx_HAL_Driver/Src/stm32l4xx_hal.c **** /**
 511:Drivers/STM32L4xx_HAL_Driver/Src/stm32l4xx_hal.c ****   * @brief  Return the second word of the unique device identifier (UID based on 96 bits)
 512:Drivers/STM32L4xx_HAL_Driver/Src/stm32l4xx_hal.c ****   * @retval Device identifier
 513:Drivers/STM32L4xx_HAL_Driver/Src/stm32l4xx_hal.c ****   */
 514:Drivers/STM32L4xx_HAL_Driver/Src/stm32l4xx_hal.c **** uint32_t HAL_GetUIDw1(void)
 515:Drivers/STM32L4xx_HAL_Driver/Src/stm32l4xx_hal.c **** {
 1077              		.loc 1 515 1
 1078              		.cfi_startproc
 1079              		@ args = 0, pretend = 0, frame = 0
 1080              		@ frame_needed = 1, uses_anonymous_args = 0
 1081              		@ link register save eliminated.
 1082 0000 80B4     		push	{r7}
 1083              	.LCFI81:
 1084              		.cfi_def_cfa_offset 4
 1085              		.cfi_offset 7, -4
 1086 0002 00AF     		add	r7, sp, #0
 1087              	.LCFI82:
 1088              		.cfi_def_cfa_register 7
 516:Drivers/STM32L4xx_HAL_Driver/Src/stm32l4xx_hal.c ****   return(READ_REG(*((uint32_t *)(UID_BASE + 4U))));
 1089              		.loc 1 516 10
 1090 0004 034B     		ldr	r3, .L72
 1091 0006 1B68     		ldr	r3, [r3]
 517:Drivers/STM32L4xx_HAL_Driver/Src/stm32l4xx_hal.c **** }
 1092              		.loc 1 517 1
 1093 0008 1846     		mov	r0, r3
 1094 000a BD46     		mov	sp, r7
 1095              	.LCFI83:
 1096              		.cfi_def_cfa_register 13
 1097              		@ sp needed
 1098 000c 5DF8047B 		ldr	r7, [sp], #4
 1099              	.LCFI84:
 1100              		.cfi_restore 7
 1101              		.cfi_def_cfa_offset 0
 1102 0010 7047     		bx	lr
 1103              	.L73:
 1104 0012 00BF     		.align	2
 1105              	.L72:
 1106 0014 9475FF1F 		.word	536835476
 1107              		.cfi_endproc
 1108              	.LFE307:
 1110              		.section	.text.HAL_GetUIDw2,"ax",%progbits
 1111              		.align	1
 1112              		.global	HAL_GetUIDw2
 1113              		.syntax unified
 1114              		.thumb
 1115              		.thumb_func
 1117              	HAL_GetUIDw2:
 1118              	.LFB308:
 518:Drivers/STM32L4xx_HAL_Driver/Src/stm32l4xx_hal.c **** 
 519:Drivers/STM32L4xx_HAL_Driver/Src/stm32l4xx_hal.c **** /**
 520:Drivers/STM32L4xx_HAL_Driver/Src/stm32l4xx_hal.c ****   * @brief  Return the third word of the unique device identifier (UID based on 96 bits)
 521:Drivers/STM32L4xx_HAL_Driver/Src/stm32l4xx_hal.c ****   * @retval Device identifier
 522:Drivers/STM32L4xx_HAL_Driver/Src/stm32l4xx_hal.c ****   */
 523:Drivers/STM32L4xx_HAL_Driver/Src/stm32l4xx_hal.c **** uint32_t HAL_GetUIDw2(void)
ARM GAS  C:\Users\CL\AppData\Local\Temp\cceqbIfk.s 			page 29


 524:Drivers/STM32L4xx_HAL_Driver/Src/stm32l4xx_hal.c **** {
 1119              		.loc 1 524 1
 1120              		.cfi_startproc
 1121              		@ args = 0, pretend = 0, frame = 0
 1122              		@ frame_needed = 1, uses_anonymous_args = 0
 1123              		@ link register save eliminated.
 1124 0000 80B4     		push	{r7}
 1125              	.LCFI85:
 1126              		.cfi_def_cfa_offset 4
 1127              		.cfi_offset 7, -4
 1128 0002 00AF     		add	r7, sp, #0
 1129              	.LCFI86:
 1130              		.cfi_def_cfa_register 7
 525:Drivers/STM32L4xx_HAL_Driver/Src/stm32l4xx_hal.c ****   return(READ_REG(*((uint32_t *)(UID_BASE + 8U))));
 1131              		.loc 1 525 10
 1132 0004 034B     		ldr	r3, .L76
 1133 0006 1B68     		ldr	r3, [r3]
 526:Drivers/STM32L4xx_HAL_Driver/Src/stm32l4xx_hal.c **** }
 1134              		.loc 1 526 1
 1135 0008 1846     		mov	r0, r3
 1136 000a BD46     		mov	sp, r7
 1137              	.LCFI87:
 1138              		.cfi_def_cfa_register 13
 1139              		@ sp needed
 1140 000c 5DF8047B 		ldr	r7, [sp], #4
 1141              	.LCFI88:
 1142              		.cfi_restore 7
 1143              		.cfi_def_cfa_offset 0
 1144 0010 7047     		bx	lr
 1145              	.L77:
 1146 0012 00BF     		.align	2
 1147              	.L76:
 1148 0014 9875FF1F 		.word	536835480
 1149              		.cfi_endproc
 1150              	.LFE308:
 1152              		.section	.text.HAL_DBGMCU_EnableDBGSleepMode,"ax",%progbits
 1153              		.align	1
 1154              		.global	HAL_DBGMCU_EnableDBGSleepMode
 1155              		.syntax unified
 1156              		.thumb
 1157              		.thumb_func
 1159              	HAL_DBGMCU_EnableDBGSleepMode:
 1160              	.LFB309:
 527:Drivers/STM32L4xx_HAL_Driver/Src/stm32l4xx_hal.c **** 
 528:Drivers/STM32L4xx_HAL_Driver/Src/stm32l4xx_hal.c **** /**
 529:Drivers/STM32L4xx_HAL_Driver/Src/stm32l4xx_hal.c ****   * @}
 530:Drivers/STM32L4xx_HAL_Driver/Src/stm32l4xx_hal.c ****   */
 531:Drivers/STM32L4xx_HAL_Driver/Src/stm32l4xx_hal.c **** 
 532:Drivers/STM32L4xx_HAL_Driver/Src/stm32l4xx_hal.c **** /** @defgroup HAL_Exported_Functions_Group3 HAL Debug functions
 533:Drivers/STM32L4xx_HAL_Driver/Src/stm32l4xx_hal.c ****  *  @brief    HAL Debug functions
 534:Drivers/STM32L4xx_HAL_Driver/Src/stm32l4xx_hal.c ****  *
 535:Drivers/STM32L4xx_HAL_Driver/Src/stm32l4xx_hal.c **** @verbatim
 536:Drivers/STM32L4xx_HAL_Driver/Src/stm32l4xx_hal.c ****  ===============================================================================
 537:Drivers/STM32L4xx_HAL_Driver/Src/stm32l4xx_hal.c ****                       ##### HAL Debug functions #####
 538:Drivers/STM32L4xx_HAL_Driver/Src/stm32l4xx_hal.c ****  ===============================================================================
 539:Drivers/STM32L4xx_HAL_Driver/Src/stm32l4xx_hal.c ****     [..]  This section provides functions allowing to:
 540:Drivers/STM32L4xx_HAL_Driver/Src/stm32l4xx_hal.c ****       (+) Enable/Disable Debug module during SLEEP mode
ARM GAS  C:\Users\CL\AppData\Local\Temp\cceqbIfk.s 			page 30


 541:Drivers/STM32L4xx_HAL_Driver/Src/stm32l4xx_hal.c ****       (+) Enable/Disable Debug module during STOP0/STOP1/STOP2 modes
 542:Drivers/STM32L4xx_HAL_Driver/Src/stm32l4xx_hal.c ****       (+) Enable/Disable Debug module during STANDBY mode
 543:Drivers/STM32L4xx_HAL_Driver/Src/stm32l4xx_hal.c **** 
 544:Drivers/STM32L4xx_HAL_Driver/Src/stm32l4xx_hal.c **** @endverbatim
 545:Drivers/STM32L4xx_HAL_Driver/Src/stm32l4xx_hal.c ****   * @{
 546:Drivers/STM32L4xx_HAL_Driver/Src/stm32l4xx_hal.c ****   */
 547:Drivers/STM32L4xx_HAL_Driver/Src/stm32l4xx_hal.c **** 
 548:Drivers/STM32L4xx_HAL_Driver/Src/stm32l4xx_hal.c **** /**
 549:Drivers/STM32L4xx_HAL_Driver/Src/stm32l4xx_hal.c ****   * @brief  Enable the Debug Module during SLEEP mode.
 550:Drivers/STM32L4xx_HAL_Driver/Src/stm32l4xx_hal.c ****   * @retval None
 551:Drivers/STM32L4xx_HAL_Driver/Src/stm32l4xx_hal.c ****   */
 552:Drivers/STM32L4xx_HAL_Driver/Src/stm32l4xx_hal.c **** void HAL_DBGMCU_EnableDBGSleepMode(void)
 553:Drivers/STM32L4xx_HAL_Driver/Src/stm32l4xx_hal.c **** {
 1161              		.loc 1 553 1
 1162              		.cfi_startproc
 1163              		@ args = 0, pretend = 0, frame = 0
 1164              		@ frame_needed = 1, uses_anonymous_args = 0
 1165              		@ link register save eliminated.
 1166 0000 80B4     		push	{r7}
 1167              	.LCFI89:
 1168              		.cfi_def_cfa_offset 4
 1169              		.cfi_offset 7, -4
 1170 0002 00AF     		add	r7, sp, #0
 1171              	.LCFI90:
 1172              		.cfi_def_cfa_register 7
 554:Drivers/STM32L4xx_HAL_Driver/Src/stm32l4xx_hal.c ****   SET_BIT(DBGMCU->CR, DBGMCU_CR_DBG_SLEEP);
 1173              		.loc 1 554 3
 1174 0004 054B     		ldr	r3, .L79
 1175 0006 5B68     		ldr	r3, [r3, #4]
 1176 0008 044A     		ldr	r2, .L79
 1177 000a 43F00103 		orr	r3, r3, #1
 1178 000e 5360     		str	r3, [r2, #4]
 555:Drivers/STM32L4xx_HAL_Driver/Src/stm32l4xx_hal.c **** }
 1179              		.loc 1 555 1
 1180 0010 00BF     		nop
 1181 0012 BD46     		mov	sp, r7
 1182              	.LCFI91:
 1183              		.cfi_def_cfa_register 13
 1184              		@ sp needed
 1185 0014 5DF8047B 		ldr	r7, [sp], #4
 1186              	.LCFI92:
 1187              		.cfi_restore 7
 1188              		.cfi_def_cfa_offset 0
 1189 0018 7047     		bx	lr
 1190              	.L80:
 1191 001a 00BF     		.align	2
 1192              	.L79:
 1193 001c 002004E0 		.word	-536600576
 1194              		.cfi_endproc
 1195              	.LFE309:
 1197              		.section	.text.HAL_DBGMCU_DisableDBGSleepMode,"ax",%progbits
 1198              		.align	1
 1199              		.global	HAL_DBGMCU_DisableDBGSleepMode
 1200              		.syntax unified
 1201              		.thumb
 1202              		.thumb_func
 1204              	HAL_DBGMCU_DisableDBGSleepMode:
ARM GAS  C:\Users\CL\AppData\Local\Temp\cceqbIfk.s 			page 31


 1205              	.LFB310:
 556:Drivers/STM32L4xx_HAL_Driver/Src/stm32l4xx_hal.c **** 
 557:Drivers/STM32L4xx_HAL_Driver/Src/stm32l4xx_hal.c **** /**
 558:Drivers/STM32L4xx_HAL_Driver/Src/stm32l4xx_hal.c ****   * @brief  Disable the Debug Module during SLEEP mode.
 559:Drivers/STM32L4xx_HAL_Driver/Src/stm32l4xx_hal.c ****   * @retval None
 560:Drivers/STM32L4xx_HAL_Driver/Src/stm32l4xx_hal.c ****   */
 561:Drivers/STM32L4xx_HAL_Driver/Src/stm32l4xx_hal.c **** void HAL_DBGMCU_DisableDBGSleepMode(void)
 562:Drivers/STM32L4xx_HAL_Driver/Src/stm32l4xx_hal.c **** {
 1206              		.loc 1 562 1
 1207              		.cfi_startproc
 1208              		@ args = 0, pretend = 0, frame = 0
 1209              		@ frame_needed = 1, uses_anonymous_args = 0
 1210              		@ link register save eliminated.
 1211 0000 80B4     		push	{r7}
 1212              	.LCFI93:
 1213              		.cfi_def_cfa_offset 4
 1214              		.cfi_offset 7, -4
 1215 0002 00AF     		add	r7, sp, #0
 1216              	.LCFI94:
 1217              		.cfi_def_cfa_register 7
 563:Drivers/STM32L4xx_HAL_Driver/Src/stm32l4xx_hal.c ****   CLEAR_BIT(DBGMCU->CR, DBGMCU_CR_DBG_SLEEP);
 1218              		.loc 1 563 3
 1219 0004 054B     		ldr	r3, .L82
 1220 0006 5B68     		ldr	r3, [r3, #4]
 1221 0008 044A     		ldr	r2, .L82
 1222 000a 23F00103 		bic	r3, r3, #1
 1223 000e 5360     		str	r3, [r2, #4]
 564:Drivers/STM32L4xx_HAL_Driver/Src/stm32l4xx_hal.c **** }
 1224              		.loc 1 564 1
 1225 0010 00BF     		nop
 1226 0012 BD46     		mov	sp, r7
 1227              	.LCFI95:
 1228              		.cfi_def_cfa_register 13
 1229              		@ sp needed
 1230 0014 5DF8047B 		ldr	r7, [sp], #4
 1231              	.LCFI96:
 1232              		.cfi_restore 7
 1233              		.cfi_def_cfa_offset 0
 1234 0018 7047     		bx	lr
 1235              	.L83:
 1236 001a 00BF     		.align	2
 1237              	.L82:
 1238 001c 002004E0 		.word	-536600576
 1239              		.cfi_endproc
 1240              	.LFE310:
 1242              		.section	.text.HAL_DBGMCU_EnableDBGStopMode,"ax",%progbits
 1243              		.align	1
 1244              		.global	HAL_DBGMCU_EnableDBGStopMode
 1245              		.syntax unified
 1246              		.thumb
 1247              		.thumb_func
 1249              	HAL_DBGMCU_EnableDBGStopMode:
 1250              	.LFB311:
 565:Drivers/STM32L4xx_HAL_Driver/Src/stm32l4xx_hal.c **** 
 566:Drivers/STM32L4xx_HAL_Driver/Src/stm32l4xx_hal.c **** /**
 567:Drivers/STM32L4xx_HAL_Driver/Src/stm32l4xx_hal.c ****   * @brief  Enable the Debug Module during STOP0/STOP1/STOP2 modes.
 568:Drivers/STM32L4xx_HAL_Driver/Src/stm32l4xx_hal.c ****   * @retval None
ARM GAS  C:\Users\CL\AppData\Local\Temp\cceqbIfk.s 			page 32


 569:Drivers/STM32L4xx_HAL_Driver/Src/stm32l4xx_hal.c ****   */
 570:Drivers/STM32L4xx_HAL_Driver/Src/stm32l4xx_hal.c **** void HAL_DBGMCU_EnableDBGStopMode(void)
 571:Drivers/STM32L4xx_HAL_Driver/Src/stm32l4xx_hal.c **** {
 1251              		.loc 1 571 1
 1252              		.cfi_startproc
 1253              		@ args = 0, pretend = 0, frame = 0
 1254              		@ frame_needed = 1, uses_anonymous_args = 0
 1255              		@ link register save eliminated.
 1256 0000 80B4     		push	{r7}
 1257              	.LCFI97:
 1258              		.cfi_def_cfa_offset 4
 1259              		.cfi_offset 7, -4
 1260 0002 00AF     		add	r7, sp, #0
 1261              	.LCFI98:
 1262              		.cfi_def_cfa_register 7
 572:Drivers/STM32L4xx_HAL_Driver/Src/stm32l4xx_hal.c ****   SET_BIT(DBGMCU->CR, DBGMCU_CR_DBG_STOP);
 1263              		.loc 1 572 3
 1264 0004 054B     		ldr	r3, .L85
 1265 0006 5B68     		ldr	r3, [r3, #4]
 1266 0008 044A     		ldr	r2, .L85
 1267 000a 43F00203 		orr	r3, r3, #2
 1268 000e 5360     		str	r3, [r2, #4]
 573:Drivers/STM32L4xx_HAL_Driver/Src/stm32l4xx_hal.c **** }
 1269              		.loc 1 573 1
 1270 0010 00BF     		nop
 1271 0012 BD46     		mov	sp, r7
 1272              	.LCFI99:
 1273              		.cfi_def_cfa_register 13
 1274              		@ sp needed
 1275 0014 5DF8047B 		ldr	r7, [sp], #4
 1276              	.LCFI100:
 1277              		.cfi_restore 7
 1278              		.cfi_def_cfa_offset 0
 1279 0018 7047     		bx	lr
 1280              	.L86:
 1281 001a 00BF     		.align	2
 1282              	.L85:
 1283 001c 002004E0 		.word	-536600576
 1284              		.cfi_endproc
 1285              	.LFE311:
 1287              		.section	.text.HAL_DBGMCU_DisableDBGStopMode,"ax",%progbits
 1288              		.align	1
 1289              		.global	HAL_DBGMCU_DisableDBGStopMode
 1290              		.syntax unified
 1291              		.thumb
 1292              		.thumb_func
 1294              	HAL_DBGMCU_DisableDBGStopMode:
 1295              	.LFB312:
 574:Drivers/STM32L4xx_HAL_Driver/Src/stm32l4xx_hal.c **** 
 575:Drivers/STM32L4xx_HAL_Driver/Src/stm32l4xx_hal.c **** /**
 576:Drivers/STM32L4xx_HAL_Driver/Src/stm32l4xx_hal.c ****   * @brief  Disable the Debug Module during STOP0/STOP1/STOP2 modes.
 577:Drivers/STM32L4xx_HAL_Driver/Src/stm32l4xx_hal.c ****   * @retval None
 578:Drivers/STM32L4xx_HAL_Driver/Src/stm32l4xx_hal.c ****   */
 579:Drivers/STM32L4xx_HAL_Driver/Src/stm32l4xx_hal.c **** void HAL_DBGMCU_DisableDBGStopMode(void)
 580:Drivers/STM32L4xx_HAL_Driver/Src/stm32l4xx_hal.c **** {
 1296              		.loc 1 580 1
 1297              		.cfi_startproc
ARM GAS  C:\Users\CL\AppData\Local\Temp\cceqbIfk.s 			page 33


 1298              		@ args = 0, pretend = 0, frame = 0
 1299              		@ frame_needed = 1, uses_anonymous_args = 0
 1300              		@ link register save eliminated.
 1301 0000 80B4     		push	{r7}
 1302              	.LCFI101:
 1303              		.cfi_def_cfa_offset 4
 1304              		.cfi_offset 7, -4
 1305 0002 00AF     		add	r7, sp, #0
 1306              	.LCFI102:
 1307              		.cfi_def_cfa_register 7
 581:Drivers/STM32L4xx_HAL_Driver/Src/stm32l4xx_hal.c ****   CLEAR_BIT(DBGMCU->CR, DBGMCU_CR_DBG_STOP);
 1308              		.loc 1 581 3
 1309 0004 054B     		ldr	r3, .L88
 1310 0006 5B68     		ldr	r3, [r3, #4]
 1311 0008 044A     		ldr	r2, .L88
 1312 000a 23F00203 		bic	r3, r3, #2
 1313 000e 5360     		str	r3, [r2, #4]
 582:Drivers/STM32L4xx_HAL_Driver/Src/stm32l4xx_hal.c **** }
 1314              		.loc 1 582 1
 1315 0010 00BF     		nop
 1316 0012 BD46     		mov	sp, r7
 1317              	.LCFI103:
 1318              		.cfi_def_cfa_register 13
 1319              		@ sp needed
 1320 0014 5DF8047B 		ldr	r7, [sp], #4
 1321              	.LCFI104:
 1322              		.cfi_restore 7
 1323              		.cfi_def_cfa_offset 0
 1324 0018 7047     		bx	lr
 1325              	.L89:
 1326 001a 00BF     		.align	2
 1327              	.L88:
 1328 001c 002004E0 		.word	-536600576
 1329              		.cfi_endproc
 1330              	.LFE312:
 1332              		.section	.text.HAL_DBGMCU_EnableDBGStandbyMode,"ax",%progbits
 1333              		.align	1
 1334              		.global	HAL_DBGMCU_EnableDBGStandbyMode
 1335              		.syntax unified
 1336              		.thumb
 1337              		.thumb_func
 1339              	HAL_DBGMCU_EnableDBGStandbyMode:
 1340              	.LFB313:
 583:Drivers/STM32L4xx_HAL_Driver/Src/stm32l4xx_hal.c **** 
 584:Drivers/STM32L4xx_HAL_Driver/Src/stm32l4xx_hal.c **** /**
 585:Drivers/STM32L4xx_HAL_Driver/Src/stm32l4xx_hal.c ****   * @brief  Enable the Debug Module during STANDBY mode.
 586:Drivers/STM32L4xx_HAL_Driver/Src/stm32l4xx_hal.c ****   * @retval None
 587:Drivers/STM32L4xx_HAL_Driver/Src/stm32l4xx_hal.c ****   */
 588:Drivers/STM32L4xx_HAL_Driver/Src/stm32l4xx_hal.c **** void HAL_DBGMCU_EnableDBGStandbyMode(void)
 589:Drivers/STM32L4xx_HAL_Driver/Src/stm32l4xx_hal.c **** {
 1341              		.loc 1 589 1
 1342              		.cfi_startproc
 1343              		@ args = 0, pretend = 0, frame = 0
 1344              		@ frame_needed = 1, uses_anonymous_args = 0
 1345              		@ link register save eliminated.
 1346 0000 80B4     		push	{r7}
 1347              	.LCFI105:
ARM GAS  C:\Users\CL\AppData\Local\Temp\cceqbIfk.s 			page 34


 1348              		.cfi_def_cfa_offset 4
 1349              		.cfi_offset 7, -4
 1350 0002 00AF     		add	r7, sp, #0
 1351              	.LCFI106:
 1352              		.cfi_def_cfa_register 7
 590:Drivers/STM32L4xx_HAL_Driver/Src/stm32l4xx_hal.c ****   SET_BIT(DBGMCU->CR, DBGMCU_CR_DBG_STANDBY);
 1353              		.loc 1 590 3
 1354 0004 054B     		ldr	r3, .L91
 1355 0006 5B68     		ldr	r3, [r3, #4]
 1356 0008 044A     		ldr	r2, .L91
 1357 000a 43F00403 		orr	r3, r3, #4
 1358 000e 5360     		str	r3, [r2, #4]
 591:Drivers/STM32L4xx_HAL_Driver/Src/stm32l4xx_hal.c **** }
 1359              		.loc 1 591 1
 1360 0010 00BF     		nop
 1361 0012 BD46     		mov	sp, r7
 1362              	.LCFI107:
 1363              		.cfi_def_cfa_register 13
 1364              		@ sp needed
 1365 0014 5DF8047B 		ldr	r7, [sp], #4
 1366              	.LCFI108:
 1367              		.cfi_restore 7
 1368              		.cfi_def_cfa_offset 0
 1369 0018 7047     		bx	lr
 1370              	.L92:
 1371 001a 00BF     		.align	2
 1372              	.L91:
 1373 001c 002004E0 		.word	-536600576
 1374              		.cfi_endproc
 1375              	.LFE313:
 1377              		.section	.text.HAL_DBGMCU_DisableDBGStandbyMode,"ax",%progbits
 1378              		.align	1
 1379              		.global	HAL_DBGMCU_DisableDBGStandbyMode
 1380              		.syntax unified
 1381              		.thumb
 1382              		.thumb_func
 1384              	HAL_DBGMCU_DisableDBGStandbyMode:
 1385              	.LFB314:
 592:Drivers/STM32L4xx_HAL_Driver/Src/stm32l4xx_hal.c **** 
 593:Drivers/STM32L4xx_HAL_Driver/Src/stm32l4xx_hal.c **** /**
 594:Drivers/STM32L4xx_HAL_Driver/Src/stm32l4xx_hal.c ****   * @brief  Disable the Debug Module during STANDBY mode.
 595:Drivers/STM32L4xx_HAL_Driver/Src/stm32l4xx_hal.c ****   * @retval None
 596:Drivers/STM32L4xx_HAL_Driver/Src/stm32l4xx_hal.c ****   */
 597:Drivers/STM32L4xx_HAL_Driver/Src/stm32l4xx_hal.c **** void HAL_DBGMCU_DisableDBGStandbyMode(void)
 598:Drivers/STM32L4xx_HAL_Driver/Src/stm32l4xx_hal.c **** {
 1386              		.loc 1 598 1
 1387              		.cfi_startproc
 1388              		@ args = 0, pretend = 0, frame = 0
 1389              		@ frame_needed = 1, uses_anonymous_args = 0
 1390              		@ link register save eliminated.
 1391 0000 80B4     		push	{r7}
 1392              	.LCFI109:
 1393              		.cfi_def_cfa_offset 4
 1394              		.cfi_offset 7, -4
 1395 0002 00AF     		add	r7, sp, #0
 1396              	.LCFI110:
 1397              		.cfi_def_cfa_register 7
ARM GAS  C:\Users\CL\AppData\Local\Temp\cceqbIfk.s 			page 35


 599:Drivers/STM32L4xx_HAL_Driver/Src/stm32l4xx_hal.c ****   CLEAR_BIT(DBGMCU->CR, DBGMCU_CR_DBG_STANDBY);
 1398              		.loc 1 599 3
 1399 0004 054B     		ldr	r3, .L94
 1400 0006 5B68     		ldr	r3, [r3, #4]
 1401 0008 044A     		ldr	r2, .L94
 1402 000a 23F00403 		bic	r3, r3, #4
 1403 000e 5360     		str	r3, [r2, #4]
 600:Drivers/STM32L4xx_HAL_Driver/Src/stm32l4xx_hal.c **** }
 1404              		.loc 1 600 1
 1405 0010 00BF     		nop
 1406 0012 BD46     		mov	sp, r7
 1407              	.LCFI111:
 1408              		.cfi_def_cfa_register 13
 1409              		@ sp needed
 1410 0014 5DF8047B 		ldr	r7, [sp], #4
 1411              	.LCFI112:
 1412              		.cfi_restore 7
 1413              		.cfi_def_cfa_offset 0
 1414 0018 7047     		bx	lr
 1415              	.L95:
 1416 001a 00BF     		.align	2
 1417              	.L94:
 1418 001c 002004E0 		.word	-536600576
 1419              		.cfi_endproc
 1420              	.LFE314:
 1422              		.section	.text.HAL_SYSCFG_SRAM2Erase,"ax",%progbits
 1423              		.align	1
 1424              		.global	HAL_SYSCFG_SRAM2Erase
 1425              		.syntax unified
 1426              		.thumb
 1427              		.thumb_func
 1429              	HAL_SYSCFG_SRAM2Erase:
 1430              	.LFB315:
 601:Drivers/STM32L4xx_HAL_Driver/Src/stm32l4xx_hal.c **** 
 602:Drivers/STM32L4xx_HAL_Driver/Src/stm32l4xx_hal.c **** /**
 603:Drivers/STM32L4xx_HAL_Driver/Src/stm32l4xx_hal.c ****   * @}
 604:Drivers/STM32L4xx_HAL_Driver/Src/stm32l4xx_hal.c ****   */
 605:Drivers/STM32L4xx_HAL_Driver/Src/stm32l4xx_hal.c **** 
 606:Drivers/STM32L4xx_HAL_Driver/Src/stm32l4xx_hal.c **** /** @defgroup HAL_Exported_Functions_Group4 HAL SYSCFG configuration functions
 607:Drivers/STM32L4xx_HAL_Driver/Src/stm32l4xx_hal.c ****  *  @brief    HAL SYSCFG configuration functions
 608:Drivers/STM32L4xx_HAL_Driver/Src/stm32l4xx_hal.c ****  *
 609:Drivers/STM32L4xx_HAL_Driver/Src/stm32l4xx_hal.c **** @verbatim
 610:Drivers/STM32L4xx_HAL_Driver/Src/stm32l4xx_hal.c ****  ===============================================================================
 611:Drivers/STM32L4xx_HAL_Driver/Src/stm32l4xx_hal.c ****                       ##### HAL SYSCFG configuration functions #####
 612:Drivers/STM32L4xx_HAL_Driver/Src/stm32l4xx_hal.c ****  ===============================================================================
 613:Drivers/STM32L4xx_HAL_Driver/Src/stm32l4xx_hal.c ****     [..]  This section provides functions allowing to:
 614:Drivers/STM32L4xx_HAL_Driver/Src/stm32l4xx_hal.c ****       (+) Start a hardware SRAM2 erase operation
 615:Drivers/STM32L4xx_HAL_Driver/Src/stm32l4xx_hal.c ****       (+) Enable/Disable the Internal FLASH Bank Swapping
 616:Drivers/STM32L4xx_HAL_Driver/Src/stm32l4xx_hal.c ****       (+) Configure the Voltage reference buffer
 617:Drivers/STM32L4xx_HAL_Driver/Src/stm32l4xx_hal.c ****       (+) Enable/Disable the Voltage reference buffer
 618:Drivers/STM32L4xx_HAL_Driver/Src/stm32l4xx_hal.c ****       (+) Enable/Disable the I/O analog switch voltage booster
 619:Drivers/STM32L4xx_HAL_Driver/Src/stm32l4xx_hal.c **** 
 620:Drivers/STM32L4xx_HAL_Driver/Src/stm32l4xx_hal.c **** @endverbatim
 621:Drivers/STM32L4xx_HAL_Driver/Src/stm32l4xx_hal.c ****   * @{
 622:Drivers/STM32L4xx_HAL_Driver/Src/stm32l4xx_hal.c ****   */
 623:Drivers/STM32L4xx_HAL_Driver/Src/stm32l4xx_hal.c **** 
 624:Drivers/STM32L4xx_HAL_Driver/Src/stm32l4xx_hal.c **** /**
ARM GAS  C:\Users\CL\AppData\Local\Temp\cceqbIfk.s 			page 36


 625:Drivers/STM32L4xx_HAL_Driver/Src/stm32l4xx_hal.c ****   * @brief  Start a hardware SRAM2 erase operation.
 626:Drivers/STM32L4xx_HAL_Driver/Src/stm32l4xx_hal.c ****   * @note   As long as SRAM2 is not erased the SRAM2ER bit will be set.
 627:Drivers/STM32L4xx_HAL_Driver/Src/stm32l4xx_hal.c ****   *         This bit is automatically reset at the end of the SRAM2 erase operation.
 628:Drivers/STM32L4xx_HAL_Driver/Src/stm32l4xx_hal.c ****   * @retval None
 629:Drivers/STM32L4xx_HAL_Driver/Src/stm32l4xx_hal.c ****   */
 630:Drivers/STM32L4xx_HAL_Driver/Src/stm32l4xx_hal.c **** void HAL_SYSCFG_SRAM2Erase(void)
 631:Drivers/STM32L4xx_HAL_Driver/Src/stm32l4xx_hal.c **** {
 1431              		.loc 1 631 1
 1432              		.cfi_startproc
 1433              		@ args = 0, pretend = 0, frame = 0
 1434              		@ frame_needed = 1, uses_anonymous_args = 0
 1435              		@ link register save eliminated.
 1436 0000 80B4     		push	{r7}
 1437              	.LCFI113:
 1438              		.cfi_def_cfa_offset 4
 1439              		.cfi_offset 7, -4
 1440 0002 00AF     		add	r7, sp, #0
 1441              	.LCFI114:
 1442              		.cfi_def_cfa_register 7
 632:Drivers/STM32L4xx_HAL_Driver/Src/stm32l4xx_hal.c ****   /* unlock the write protection of the SRAM2ER bit */
 633:Drivers/STM32L4xx_HAL_Driver/Src/stm32l4xx_hal.c ****   SYSCFG->SKR = 0xCA;
 1443              		.loc 1 633 9
 1444 0004 064B     		ldr	r3, .L97
 1445              		.loc 1 633 15
 1446 0006 CA22     		movs	r2, #202
 1447 0008 5A62     		str	r2, [r3, #36]
 634:Drivers/STM32L4xx_HAL_Driver/Src/stm32l4xx_hal.c ****   SYSCFG->SKR = 0x53;
 1448              		.loc 1 634 9
 1449 000a 054B     		ldr	r3, .L97
 1450              		.loc 1 634 15
 1451 000c 5322     		movs	r2, #83
 1452 000e 5A62     		str	r2, [r3, #36]
 635:Drivers/STM32L4xx_HAL_Driver/Src/stm32l4xx_hal.c ****   /* Starts a hardware SRAM2 erase operation*/
 636:Drivers/STM32L4xx_HAL_Driver/Src/stm32l4xx_hal.c ****   *(__IO uint32_t *) SCSR_SRAM2ER_BB = 0x00000001UL;
 1453              		.loc 1 636 3
 1454 0010 044B     		ldr	r3, .L97+4
 1455              		.loc 1 636 38
 1456 0012 0122     		movs	r2, #1
 1457 0014 1A60     		str	r2, [r3]
 637:Drivers/STM32L4xx_HAL_Driver/Src/stm32l4xx_hal.c **** }
 1458              		.loc 1 637 1
 1459 0016 00BF     		nop
 1460 0018 BD46     		mov	sp, r7
 1461              	.LCFI115:
 1462              		.cfi_def_cfa_register 13
 1463              		@ sp needed
 1464 001a 5DF8047B 		ldr	r7, [sp], #4
 1465              	.LCFI116:
 1466              		.cfi_restore 7
 1467              		.cfi_def_cfa_offset 0
 1468 001e 7047     		bx	lr
 1469              	.L98:
 1470              		.align	2
 1471              	.L97:
 1472 0020 00000140 		.word	1073807360
 1473 0024 00032042 		.word	1109394176
 1474              		.cfi_endproc
ARM GAS  C:\Users\CL\AppData\Local\Temp\cceqbIfk.s 			page 37


 1475              	.LFE315:
 1477              		.section	.text.HAL_SYSCFG_EnableMemorySwappingBank,"ax",%progbits
 1478              		.align	1
 1479              		.global	HAL_SYSCFG_EnableMemorySwappingBank
 1480              		.syntax unified
 1481              		.thumb
 1482              		.thumb_func
 1484              	HAL_SYSCFG_EnableMemorySwappingBank:
 1485              	.LFB316:
 638:Drivers/STM32L4xx_HAL_Driver/Src/stm32l4xx_hal.c **** 
 639:Drivers/STM32L4xx_HAL_Driver/Src/stm32l4xx_hal.c **** /**
 640:Drivers/STM32L4xx_HAL_Driver/Src/stm32l4xx_hal.c ****   * @brief  Enable the Internal FLASH Bank Swapping.
 641:Drivers/STM32L4xx_HAL_Driver/Src/stm32l4xx_hal.c ****   *
 642:Drivers/STM32L4xx_HAL_Driver/Src/stm32l4xx_hal.c ****   * @note   This function can be used only for STM32L4xx devices.
 643:Drivers/STM32L4xx_HAL_Driver/Src/stm32l4xx_hal.c ****   *
 644:Drivers/STM32L4xx_HAL_Driver/Src/stm32l4xx_hal.c ****   * @note   Flash Bank2 mapped at 0x08000000 (and aliased @0x00000000)
 645:Drivers/STM32L4xx_HAL_Driver/Src/stm32l4xx_hal.c ****   *         and Flash Bank1 mapped at 0x08100000 (and aliased at 0x00100000)
 646:Drivers/STM32L4xx_HAL_Driver/Src/stm32l4xx_hal.c ****   *
 647:Drivers/STM32L4xx_HAL_Driver/Src/stm32l4xx_hal.c ****   * @retval None
 648:Drivers/STM32L4xx_HAL_Driver/Src/stm32l4xx_hal.c ****   */
 649:Drivers/STM32L4xx_HAL_Driver/Src/stm32l4xx_hal.c **** void HAL_SYSCFG_EnableMemorySwappingBank(void)
 650:Drivers/STM32L4xx_HAL_Driver/Src/stm32l4xx_hal.c **** {
 1486              		.loc 1 650 1
 1487              		.cfi_startproc
 1488              		@ args = 0, pretend = 0, frame = 0
 1489              		@ frame_needed = 1, uses_anonymous_args = 0
 1490              		@ link register save eliminated.
 1491 0000 80B4     		push	{r7}
 1492              	.LCFI117:
 1493              		.cfi_def_cfa_offset 4
 1494              		.cfi_offset 7, -4
 1495 0002 00AF     		add	r7, sp, #0
 1496              	.LCFI118:
 1497              		.cfi_def_cfa_register 7
 651:Drivers/STM32L4xx_HAL_Driver/Src/stm32l4xx_hal.c ****   *(__IO uint32_t *)FB_MODE_BB = 0x00000001UL;
 1498              		.loc 1 651 3
 1499 0004 034B     		ldr	r3, .L100
 1500              		.loc 1 651 32
 1501 0006 0122     		movs	r2, #1
 1502 0008 1A60     		str	r2, [r3]
 652:Drivers/STM32L4xx_HAL_Driver/Src/stm32l4xx_hal.c **** }
 1503              		.loc 1 652 1
 1504 000a 00BF     		nop
 1505 000c BD46     		mov	sp, r7
 1506              	.LCFI119:
 1507              		.cfi_def_cfa_register 13
 1508              		@ sp needed
 1509 000e 5DF8047B 		ldr	r7, [sp], #4
 1510              	.LCFI120:
 1511              		.cfi_restore 7
 1512              		.cfi_def_cfa_offset 0
 1513 0012 7047     		bx	lr
 1514              	.L101:
 1515              		.align	2
 1516              	.L100:
 1517 0014 20002042 		.word	1109393440
 1518              		.cfi_endproc
ARM GAS  C:\Users\CL\AppData\Local\Temp\cceqbIfk.s 			page 38


 1519              	.LFE316:
 1521              		.section	.text.HAL_SYSCFG_DisableMemorySwappingBank,"ax",%progbits
 1522              		.align	1
 1523              		.global	HAL_SYSCFG_DisableMemorySwappingBank
 1524              		.syntax unified
 1525              		.thumb
 1526              		.thumb_func
 1528              	HAL_SYSCFG_DisableMemorySwappingBank:
 1529              	.LFB317:
 653:Drivers/STM32L4xx_HAL_Driver/Src/stm32l4xx_hal.c **** 
 654:Drivers/STM32L4xx_HAL_Driver/Src/stm32l4xx_hal.c **** /**
 655:Drivers/STM32L4xx_HAL_Driver/Src/stm32l4xx_hal.c ****   * @brief  Disable the Internal FLASH Bank Swapping.
 656:Drivers/STM32L4xx_HAL_Driver/Src/stm32l4xx_hal.c ****   *
 657:Drivers/STM32L4xx_HAL_Driver/Src/stm32l4xx_hal.c ****   * @note   This function can be used only for STM32L4xx devices.
 658:Drivers/STM32L4xx_HAL_Driver/Src/stm32l4xx_hal.c ****   *
 659:Drivers/STM32L4xx_HAL_Driver/Src/stm32l4xx_hal.c ****   * @note   The default state : Flash Bank1 mapped at 0x08000000 (and aliased @0x0000 0000)
 660:Drivers/STM32L4xx_HAL_Driver/Src/stm32l4xx_hal.c ****   *         and Flash Bank2 mapped at 0x08100000 (and aliased at 0x00100000)
 661:Drivers/STM32L4xx_HAL_Driver/Src/stm32l4xx_hal.c ****   *
 662:Drivers/STM32L4xx_HAL_Driver/Src/stm32l4xx_hal.c ****   * @retval None
 663:Drivers/STM32L4xx_HAL_Driver/Src/stm32l4xx_hal.c ****   */
 664:Drivers/STM32L4xx_HAL_Driver/Src/stm32l4xx_hal.c **** void HAL_SYSCFG_DisableMemorySwappingBank(void)
 665:Drivers/STM32L4xx_HAL_Driver/Src/stm32l4xx_hal.c **** {
 1530              		.loc 1 665 1
 1531              		.cfi_startproc
 1532              		@ args = 0, pretend = 0, frame = 0
 1533              		@ frame_needed = 1, uses_anonymous_args = 0
 1534              		@ link register save eliminated.
 1535 0000 80B4     		push	{r7}
 1536              	.LCFI121:
 1537              		.cfi_def_cfa_offset 4
 1538              		.cfi_offset 7, -4
 1539 0002 00AF     		add	r7, sp, #0
 1540              	.LCFI122:
 1541              		.cfi_def_cfa_register 7
 666:Drivers/STM32L4xx_HAL_Driver/Src/stm32l4xx_hal.c **** 
 667:Drivers/STM32L4xx_HAL_Driver/Src/stm32l4xx_hal.c ****   *(__IO uint32_t *)FB_MODE_BB = 0x00000000UL;
 1542              		.loc 1 667 3
 1543 0004 034B     		ldr	r3, .L103
 1544              		.loc 1 667 32
 1545 0006 0022     		movs	r2, #0
 1546 0008 1A60     		str	r2, [r3]
 668:Drivers/STM32L4xx_HAL_Driver/Src/stm32l4xx_hal.c **** }
 1547              		.loc 1 668 1
 1548 000a 00BF     		nop
 1549 000c BD46     		mov	sp, r7
 1550              	.LCFI123:
 1551              		.cfi_def_cfa_register 13
 1552              		@ sp needed
 1553 000e 5DF8047B 		ldr	r7, [sp], #4
 1554              	.LCFI124:
 1555              		.cfi_restore 7
 1556              		.cfi_def_cfa_offset 0
 1557 0012 7047     		bx	lr
 1558              	.L104:
 1559              		.align	2
 1560              	.L103:
 1561 0014 20002042 		.word	1109393440
ARM GAS  C:\Users\CL\AppData\Local\Temp\cceqbIfk.s 			page 39


 1562              		.cfi_endproc
 1563              	.LFE317:
 1565              		.section	.text.HAL_SYSCFG_VREFBUF_VoltageScalingConfig,"ax",%progbits
 1566              		.align	1
 1567              		.global	HAL_SYSCFG_VREFBUF_VoltageScalingConfig
 1568              		.syntax unified
 1569              		.thumb
 1570              		.thumb_func
 1572              	HAL_SYSCFG_VREFBUF_VoltageScalingConfig:
 1573              	.LFB318:
 669:Drivers/STM32L4xx_HAL_Driver/Src/stm32l4xx_hal.c **** 
 670:Drivers/STM32L4xx_HAL_Driver/Src/stm32l4xx_hal.c **** #if defined(VREFBUF)
 671:Drivers/STM32L4xx_HAL_Driver/Src/stm32l4xx_hal.c **** /**
 672:Drivers/STM32L4xx_HAL_Driver/Src/stm32l4xx_hal.c ****   * @brief Configure the internal voltage reference buffer voltage scale.
 673:Drivers/STM32L4xx_HAL_Driver/Src/stm32l4xx_hal.c ****   * @param VoltageScaling  specifies the output voltage to achieve
 674:Drivers/STM32L4xx_HAL_Driver/Src/stm32l4xx_hal.c ****   *          This parameter can be one of the following values:
 675:Drivers/STM32L4xx_HAL_Driver/Src/stm32l4xx_hal.c ****   *            @arg SYSCFG_VREFBUF_VOLTAGE_SCALE0: VREF_OUT1 around 2.048 V.
 676:Drivers/STM32L4xx_HAL_Driver/Src/stm32l4xx_hal.c ****   *                                                This requires VDDA equal to or higher than 2.4 V
 677:Drivers/STM32L4xx_HAL_Driver/Src/stm32l4xx_hal.c ****   *            @arg SYSCFG_VREFBUF_VOLTAGE_SCALE1: VREF_OUT2 around 2.5 V.
 678:Drivers/STM32L4xx_HAL_Driver/Src/stm32l4xx_hal.c ****   *                                                This requires VDDA equal to or higher than 2.8 V
 679:Drivers/STM32L4xx_HAL_Driver/Src/stm32l4xx_hal.c ****   * @retval None
 680:Drivers/STM32L4xx_HAL_Driver/Src/stm32l4xx_hal.c ****   */
 681:Drivers/STM32L4xx_HAL_Driver/Src/stm32l4xx_hal.c **** void HAL_SYSCFG_VREFBUF_VoltageScalingConfig(uint32_t VoltageScaling)
 682:Drivers/STM32L4xx_HAL_Driver/Src/stm32l4xx_hal.c **** {
 1574              		.loc 1 682 1
 1575              		.cfi_startproc
 1576              		@ args = 0, pretend = 0, frame = 8
 1577              		@ frame_needed = 1, uses_anonymous_args = 0
 1578              		@ link register save eliminated.
 1579 0000 80B4     		push	{r7}
 1580              	.LCFI125:
 1581              		.cfi_def_cfa_offset 4
 1582              		.cfi_offset 7, -4
 1583 0002 83B0     		sub	sp, sp, #12
 1584              	.LCFI126:
 1585              		.cfi_def_cfa_offset 16
 1586 0004 00AF     		add	r7, sp, #0
 1587              	.LCFI127:
 1588              		.cfi_def_cfa_register 7
 1589 0006 7860     		str	r0, [r7, #4]
 683:Drivers/STM32L4xx_HAL_Driver/Src/stm32l4xx_hal.c ****   /* Check the parameters */
 684:Drivers/STM32L4xx_HAL_Driver/Src/stm32l4xx_hal.c ****   assert_param(IS_SYSCFG_VREFBUF_VOLTAGE_SCALE(VoltageScaling));
 685:Drivers/STM32L4xx_HAL_Driver/Src/stm32l4xx_hal.c **** 
 686:Drivers/STM32L4xx_HAL_Driver/Src/stm32l4xx_hal.c ****   MODIFY_REG(VREFBUF->CSR, VREFBUF_CSR_VRS, VoltageScaling);
 1590              		.loc 1 686 3
 1591 0008 064B     		ldr	r3, .L106
 1592 000a 1B68     		ldr	r3, [r3]
 1593 000c 23F00402 		bic	r2, r3, #4
 1594 0010 0449     		ldr	r1, .L106
 1595 0012 7B68     		ldr	r3, [r7, #4]
 1596 0014 1343     		orrs	r3, r3, r2
 1597 0016 0B60     		str	r3, [r1]
 687:Drivers/STM32L4xx_HAL_Driver/Src/stm32l4xx_hal.c **** }
 1598              		.loc 1 687 1
 1599 0018 00BF     		nop
 1600 001a 0C37     		adds	r7, r7, #12
 1601              	.LCFI128:
ARM GAS  C:\Users\CL\AppData\Local\Temp\cceqbIfk.s 			page 40


 1602              		.cfi_def_cfa_offset 4
 1603 001c BD46     		mov	sp, r7
 1604              	.LCFI129:
 1605              		.cfi_def_cfa_register 13
 1606              		@ sp needed
 1607 001e 5DF8047B 		ldr	r7, [sp], #4
 1608              	.LCFI130:
 1609              		.cfi_restore 7
 1610              		.cfi_def_cfa_offset 0
 1611 0022 7047     		bx	lr
 1612              	.L107:
 1613              		.align	2
 1614              	.L106:
 1615 0024 30000140 		.word	1073807408
 1616              		.cfi_endproc
 1617              	.LFE318:
 1619              		.section	.text.HAL_SYSCFG_VREFBUF_HighImpedanceConfig,"ax",%progbits
 1620              		.align	1
 1621              		.global	HAL_SYSCFG_VREFBUF_HighImpedanceConfig
 1622              		.syntax unified
 1623              		.thumb
 1624              		.thumb_func
 1626              	HAL_SYSCFG_VREFBUF_HighImpedanceConfig:
 1627              	.LFB319:
 688:Drivers/STM32L4xx_HAL_Driver/Src/stm32l4xx_hal.c **** 
 689:Drivers/STM32L4xx_HAL_Driver/Src/stm32l4xx_hal.c **** /**
 690:Drivers/STM32L4xx_HAL_Driver/Src/stm32l4xx_hal.c ****   * @brief Configure the internal voltage reference buffer high impedance mode.
 691:Drivers/STM32L4xx_HAL_Driver/Src/stm32l4xx_hal.c ****   * @param Mode  specifies the high impedance mode
 692:Drivers/STM32L4xx_HAL_Driver/Src/stm32l4xx_hal.c ****   *          This parameter can be one of the following values:
 693:Drivers/STM32L4xx_HAL_Driver/Src/stm32l4xx_hal.c ****   *            @arg SYSCFG_VREFBUF_HIGH_IMPEDANCE_DISABLE: VREF+ pin is internally connect to VREFI
 694:Drivers/STM32L4xx_HAL_Driver/Src/stm32l4xx_hal.c ****   *            @arg SYSCFG_VREFBUF_HIGH_IMPEDANCE_ENABLE: VREF+ pin is high impedance.
 695:Drivers/STM32L4xx_HAL_Driver/Src/stm32l4xx_hal.c ****   * @retval None
 696:Drivers/STM32L4xx_HAL_Driver/Src/stm32l4xx_hal.c ****   */
 697:Drivers/STM32L4xx_HAL_Driver/Src/stm32l4xx_hal.c **** void HAL_SYSCFG_VREFBUF_HighImpedanceConfig(uint32_t Mode)
 698:Drivers/STM32L4xx_HAL_Driver/Src/stm32l4xx_hal.c **** {
 1628              		.loc 1 698 1
 1629              		.cfi_startproc
 1630              		@ args = 0, pretend = 0, frame = 8
 1631              		@ frame_needed = 1, uses_anonymous_args = 0
 1632              		@ link register save eliminated.
 1633 0000 80B4     		push	{r7}
 1634              	.LCFI131:
 1635              		.cfi_def_cfa_offset 4
 1636              		.cfi_offset 7, -4
 1637 0002 83B0     		sub	sp, sp, #12
 1638              	.LCFI132:
 1639              		.cfi_def_cfa_offset 16
 1640 0004 00AF     		add	r7, sp, #0
 1641              	.LCFI133:
 1642              		.cfi_def_cfa_register 7
 1643 0006 7860     		str	r0, [r7, #4]
 699:Drivers/STM32L4xx_HAL_Driver/Src/stm32l4xx_hal.c ****   /* Check the parameters */
 700:Drivers/STM32L4xx_HAL_Driver/Src/stm32l4xx_hal.c ****   assert_param(IS_SYSCFG_VREFBUF_HIGH_IMPEDANCE(Mode));
 701:Drivers/STM32L4xx_HAL_Driver/Src/stm32l4xx_hal.c **** 
 702:Drivers/STM32L4xx_HAL_Driver/Src/stm32l4xx_hal.c ****   MODIFY_REG(VREFBUF->CSR, VREFBUF_CSR_HIZ, Mode);
 1644              		.loc 1 702 3
 1645 0008 064B     		ldr	r3, .L109
ARM GAS  C:\Users\CL\AppData\Local\Temp\cceqbIfk.s 			page 41


 1646 000a 1B68     		ldr	r3, [r3]
 1647 000c 23F00202 		bic	r2, r3, #2
 1648 0010 0449     		ldr	r1, .L109
 1649 0012 7B68     		ldr	r3, [r7, #4]
 1650 0014 1343     		orrs	r3, r3, r2
 1651 0016 0B60     		str	r3, [r1]
 703:Drivers/STM32L4xx_HAL_Driver/Src/stm32l4xx_hal.c **** }
 1652              		.loc 1 703 1
 1653 0018 00BF     		nop
 1654 001a 0C37     		adds	r7, r7, #12
 1655              	.LCFI134:
 1656              		.cfi_def_cfa_offset 4
 1657 001c BD46     		mov	sp, r7
 1658              	.LCFI135:
 1659              		.cfi_def_cfa_register 13
 1660              		@ sp needed
 1661 001e 5DF8047B 		ldr	r7, [sp], #4
 1662              	.LCFI136:
 1663              		.cfi_restore 7
 1664              		.cfi_def_cfa_offset 0
 1665 0022 7047     		bx	lr
 1666              	.L110:
 1667              		.align	2
 1668              	.L109:
 1669 0024 30000140 		.word	1073807408
 1670              		.cfi_endproc
 1671              	.LFE319:
 1673              		.section	.text.HAL_SYSCFG_VREFBUF_TrimmingConfig,"ax",%progbits
 1674              		.align	1
 1675              		.global	HAL_SYSCFG_VREFBUF_TrimmingConfig
 1676              		.syntax unified
 1677              		.thumb
 1678              		.thumb_func
 1680              	HAL_SYSCFG_VREFBUF_TrimmingConfig:
 1681              	.LFB320:
 704:Drivers/STM32L4xx_HAL_Driver/Src/stm32l4xx_hal.c **** 
 705:Drivers/STM32L4xx_HAL_Driver/Src/stm32l4xx_hal.c **** /**
 706:Drivers/STM32L4xx_HAL_Driver/Src/stm32l4xx_hal.c ****   * @brief  Tune the Internal Voltage Reference buffer (VREFBUF).
 707:Drivers/STM32L4xx_HAL_Driver/Src/stm32l4xx_hal.c ****   * @retval None
 708:Drivers/STM32L4xx_HAL_Driver/Src/stm32l4xx_hal.c ****   */
 709:Drivers/STM32L4xx_HAL_Driver/Src/stm32l4xx_hal.c **** void HAL_SYSCFG_VREFBUF_TrimmingConfig(uint32_t TrimmingValue)
 710:Drivers/STM32L4xx_HAL_Driver/Src/stm32l4xx_hal.c **** {
 1682              		.loc 1 710 1
 1683              		.cfi_startproc
 1684              		@ args = 0, pretend = 0, frame = 8
 1685              		@ frame_needed = 1, uses_anonymous_args = 0
 1686              		@ link register save eliminated.
 1687 0000 80B4     		push	{r7}
 1688              	.LCFI137:
 1689              		.cfi_def_cfa_offset 4
 1690              		.cfi_offset 7, -4
 1691 0002 83B0     		sub	sp, sp, #12
 1692              	.LCFI138:
 1693              		.cfi_def_cfa_offset 16
 1694 0004 00AF     		add	r7, sp, #0
 1695              	.LCFI139:
 1696              		.cfi_def_cfa_register 7
ARM GAS  C:\Users\CL\AppData\Local\Temp\cceqbIfk.s 			page 42


 1697 0006 7860     		str	r0, [r7, #4]
 711:Drivers/STM32L4xx_HAL_Driver/Src/stm32l4xx_hal.c ****   /* Check the parameters */
 712:Drivers/STM32L4xx_HAL_Driver/Src/stm32l4xx_hal.c ****   assert_param(IS_SYSCFG_VREFBUF_TRIMMING(TrimmingValue));
 713:Drivers/STM32L4xx_HAL_Driver/Src/stm32l4xx_hal.c **** 
 714:Drivers/STM32L4xx_HAL_Driver/Src/stm32l4xx_hal.c ****   MODIFY_REG(VREFBUF->CCR, VREFBUF_CCR_TRIM, TrimmingValue);
 1698              		.loc 1 714 3
 1699 0008 064B     		ldr	r3, .L112
 1700 000a 5B68     		ldr	r3, [r3, #4]
 1701 000c 23F03F02 		bic	r2, r3, #63
 1702 0010 0449     		ldr	r1, .L112
 1703 0012 7B68     		ldr	r3, [r7, #4]
 1704 0014 1343     		orrs	r3, r3, r2
 1705 0016 4B60     		str	r3, [r1, #4]
 715:Drivers/STM32L4xx_HAL_Driver/Src/stm32l4xx_hal.c **** }
 1706              		.loc 1 715 1
 1707 0018 00BF     		nop
 1708 001a 0C37     		adds	r7, r7, #12
 1709              	.LCFI140:
 1710              		.cfi_def_cfa_offset 4
 1711 001c BD46     		mov	sp, r7
 1712              	.LCFI141:
 1713              		.cfi_def_cfa_register 13
 1714              		@ sp needed
 1715 001e 5DF8047B 		ldr	r7, [sp], #4
 1716              	.LCFI142:
 1717              		.cfi_restore 7
 1718              		.cfi_def_cfa_offset 0
 1719 0022 7047     		bx	lr
 1720              	.L113:
 1721              		.align	2
 1722              	.L112:
 1723 0024 30000140 		.word	1073807408
 1724              		.cfi_endproc
 1725              	.LFE320:
 1727              		.section	.text.HAL_SYSCFG_EnableVREFBUF,"ax",%progbits
 1728              		.align	1
 1729              		.global	HAL_SYSCFG_EnableVREFBUF
 1730              		.syntax unified
 1731              		.thumb
 1732              		.thumb_func
 1734              	HAL_SYSCFG_EnableVREFBUF:
 1735              	.LFB321:
 716:Drivers/STM32L4xx_HAL_Driver/Src/stm32l4xx_hal.c **** 
 717:Drivers/STM32L4xx_HAL_Driver/Src/stm32l4xx_hal.c **** /**
 718:Drivers/STM32L4xx_HAL_Driver/Src/stm32l4xx_hal.c ****   * @brief  Enable the Internal Voltage Reference buffer (VREFBUF).
 719:Drivers/STM32L4xx_HAL_Driver/Src/stm32l4xx_hal.c ****   * @retval HAL_OK/HAL_TIMEOUT
 720:Drivers/STM32L4xx_HAL_Driver/Src/stm32l4xx_hal.c ****   */
 721:Drivers/STM32L4xx_HAL_Driver/Src/stm32l4xx_hal.c **** HAL_StatusTypeDef HAL_SYSCFG_EnableVREFBUF(void)
 722:Drivers/STM32L4xx_HAL_Driver/Src/stm32l4xx_hal.c **** {
 1736              		.loc 1 722 1
 1737              		.cfi_startproc
 1738              		@ args = 0, pretend = 0, frame = 8
 1739              		@ frame_needed = 1, uses_anonymous_args = 0
 1740 0000 80B5     		push	{r7, lr}
 1741              	.LCFI143:
 1742              		.cfi_def_cfa_offset 8
 1743              		.cfi_offset 7, -8
ARM GAS  C:\Users\CL\AppData\Local\Temp\cceqbIfk.s 			page 43


 1744              		.cfi_offset 14, -4
 1745 0002 82B0     		sub	sp, sp, #8
 1746              	.LCFI144:
 1747              		.cfi_def_cfa_offset 16
 1748 0004 00AF     		add	r7, sp, #0
 1749              	.LCFI145:
 1750              		.cfi_def_cfa_register 7
 723:Drivers/STM32L4xx_HAL_Driver/Src/stm32l4xx_hal.c ****   uint32_t  tickstart;
 724:Drivers/STM32L4xx_HAL_Driver/Src/stm32l4xx_hal.c **** 
 725:Drivers/STM32L4xx_HAL_Driver/Src/stm32l4xx_hal.c ****   SET_BIT(VREFBUF->CSR, VREFBUF_CSR_ENVR);
 1751              		.loc 1 725 3
 1752 0006 0F4B     		ldr	r3, .L118
 1753 0008 1B68     		ldr	r3, [r3]
 1754 000a 0E4A     		ldr	r2, .L118
 1755 000c 43F00103 		orr	r3, r3, #1
 1756 0010 1360     		str	r3, [r2]
 726:Drivers/STM32L4xx_HAL_Driver/Src/stm32l4xx_hal.c **** 
 727:Drivers/STM32L4xx_HAL_Driver/Src/stm32l4xx_hal.c ****   /* Get Start Tick*/
 728:Drivers/STM32L4xx_HAL_Driver/Src/stm32l4xx_hal.c ****   tickstart = HAL_GetTick();
 1757              		.loc 1 728 15
 1758 0012 FFF7FEFF 		bl	HAL_GetTick
 1759 0016 7860     		str	r0, [r7, #4]
 729:Drivers/STM32L4xx_HAL_Driver/Src/stm32l4xx_hal.c **** 
 730:Drivers/STM32L4xx_HAL_Driver/Src/stm32l4xx_hal.c ****   /* Wait for VRR bit  */
 731:Drivers/STM32L4xx_HAL_Driver/Src/stm32l4xx_hal.c ****   while(READ_BIT(VREFBUF->CSR, VREFBUF_CSR_VRR) == 0U)
 1760              		.loc 1 731 8
 1761 0018 08E0     		b	.L115
 1762              	.L117:
 732:Drivers/STM32L4xx_HAL_Driver/Src/stm32l4xx_hal.c ****   {
 733:Drivers/STM32L4xx_HAL_Driver/Src/stm32l4xx_hal.c ****     if((HAL_GetTick() - tickstart) > VREFBUF_TIMEOUT_VALUE)
 1763              		.loc 1 733 9
 1764 001a FFF7FEFF 		bl	HAL_GetTick
 1765 001e 0246     		mov	r2, r0
 1766              		.loc 1 733 23
 1767 0020 7B68     		ldr	r3, [r7, #4]
 1768 0022 D31A     		subs	r3, r2, r3
 1769              		.loc 1 733 7
 1770 0024 0A2B     		cmp	r3, #10
 1771 0026 01D9     		bls	.L115
 734:Drivers/STM32L4xx_HAL_Driver/Src/stm32l4xx_hal.c ****     {
 735:Drivers/STM32L4xx_HAL_Driver/Src/stm32l4xx_hal.c ****       return HAL_TIMEOUT;
 1772              		.loc 1 735 14
 1773 0028 0323     		movs	r3, #3
 1774 002a 06E0     		b	.L116
 1775              	.L115:
 731:Drivers/STM32L4xx_HAL_Driver/Src/stm32l4xx_hal.c ****   {
 1776              		.loc 1 731 9
 1777 002c 054B     		ldr	r3, .L118
 1778 002e 1B68     		ldr	r3, [r3]
 1779 0030 03F00803 		and	r3, r3, #8
 731:Drivers/STM32L4xx_HAL_Driver/Src/stm32l4xx_hal.c ****   {
 1780              		.loc 1 731 8
 1781 0034 002B     		cmp	r3, #0
 1782 0036 F0D0     		beq	.L117
 736:Drivers/STM32L4xx_HAL_Driver/Src/stm32l4xx_hal.c ****     }
 737:Drivers/STM32L4xx_HAL_Driver/Src/stm32l4xx_hal.c ****   }
 738:Drivers/STM32L4xx_HAL_Driver/Src/stm32l4xx_hal.c **** 
ARM GAS  C:\Users\CL\AppData\Local\Temp\cceqbIfk.s 			page 44


 739:Drivers/STM32L4xx_HAL_Driver/Src/stm32l4xx_hal.c ****   return HAL_OK;
 1783              		.loc 1 739 10
 1784 0038 0023     		movs	r3, #0
 1785              	.L116:
 740:Drivers/STM32L4xx_HAL_Driver/Src/stm32l4xx_hal.c **** }
 1786              		.loc 1 740 1
 1787 003a 1846     		mov	r0, r3
 1788 003c 0837     		adds	r7, r7, #8
 1789              	.LCFI146:
 1790              		.cfi_def_cfa_offset 8
 1791 003e BD46     		mov	sp, r7
 1792              	.LCFI147:
 1793              		.cfi_def_cfa_register 13
 1794              		@ sp needed
 1795 0040 80BD     		pop	{r7, pc}
 1796              	.L119:
 1797 0042 00BF     		.align	2
 1798              	.L118:
 1799 0044 30000140 		.word	1073807408
 1800              		.cfi_endproc
 1801              	.LFE321:
 1803              		.section	.text.HAL_SYSCFG_DisableVREFBUF,"ax",%progbits
 1804              		.align	1
 1805              		.global	HAL_SYSCFG_DisableVREFBUF
 1806              		.syntax unified
 1807              		.thumb
 1808              		.thumb_func
 1810              	HAL_SYSCFG_DisableVREFBUF:
 1811              	.LFB322:
 741:Drivers/STM32L4xx_HAL_Driver/Src/stm32l4xx_hal.c **** 
 742:Drivers/STM32L4xx_HAL_Driver/Src/stm32l4xx_hal.c **** /**
 743:Drivers/STM32L4xx_HAL_Driver/Src/stm32l4xx_hal.c ****   * @brief  Disable the Internal Voltage Reference buffer (VREFBUF).
 744:Drivers/STM32L4xx_HAL_Driver/Src/stm32l4xx_hal.c ****   *
 745:Drivers/STM32L4xx_HAL_Driver/Src/stm32l4xx_hal.c ****   * @retval None
 746:Drivers/STM32L4xx_HAL_Driver/Src/stm32l4xx_hal.c ****   */
 747:Drivers/STM32L4xx_HAL_Driver/Src/stm32l4xx_hal.c **** void HAL_SYSCFG_DisableVREFBUF(void)
 748:Drivers/STM32L4xx_HAL_Driver/Src/stm32l4xx_hal.c **** {
 1812              		.loc 1 748 1
 1813              		.cfi_startproc
 1814              		@ args = 0, pretend = 0, frame = 0
 1815              		@ frame_needed = 1, uses_anonymous_args = 0
 1816              		@ link register save eliminated.
 1817 0000 80B4     		push	{r7}
 1818              	.LCFI148:
 1819              		.cfi_def_cfa_offset 4
 1820              		.cfi_offset 7, -4
 1821 0002 00AF     		add	r7, sp, #0
 1822              	.LCFI149:
 1823              		.cfi_def_cfa_register 7
 749:Drivers/STM32L4xx_HAL_Driver/Src/stm32l4xx_hal.c ****   CLEAR_BIT(VREFBUF->CSR, VREFBUF_CSR_ENVR);
 1824              		.loc 1 749 3
 1825 0004 054B     		ldr	r3, .L121
 1826 0006 1B68     		ldr	r3, [r3]
 1827 0008 044A     		ldr	r2, .L121
 1828 000a 23F00103 		bic	r3, r3, #1
 1829 000e 1360     		str	r3, [r2]
 750:Drivers/STM32L4xx_HAL_Driver/Src/stm32l4xx_hal.c **** }
ARM GAS  C:\Users\CL\AppData\Local\Temp\cceqbIfk.s 			page 45


 1830              		.loc 1 750 1
 1831 0010 00BF     		nop
 1832 0012 BD46     		mov	sp, r7
 1833              	.LCFI150:
 1834              		.cfi_def_cfa_register 13
 1835              		@ sp needed
 1836 0014 5DF8047B 		ldr	r7, [sp], #4
 1837              	.LCFI151:
 1838              		.cfi_restore 7
 1839              		.cfi_def_cfa_offset 0
 1840 0018 7047     		bx	lr
 1841              	.L122:
 1842 001a 00BF     		.align	2
 1843              	.L121:
 1844 001c 30000140 		.word	1073807408
 1845              		.cfi_endproc
 1846              	.LFE322:
 1848              		.section	.text.HAL_SYSCFG_EnableIOAnalogSwitchBooster,"ax",%progbits
 1849              		.align	1
 1850              		.global	HAL_SYSCFG_EnableIOAnalogSwitchBooster
 1851              		.syntax unified
 1852              		.thumb
 1853              		.thumb_func
 1855              	HAL_SYSCFG_EnableIOAnalogSwitchBooster:
 1856              	.LFB323:
 751:Drivers/STM32L4xx_HAL_Driver/Src/stm32l4xx_hal.c **** #endif /* VREFBUF */
 752:Drivers/STM32L4xx_HAL_Driver/Src/stm32l4xx_hal.c **** 
 753:Drivers/STM32L4xx_HAL_Driver/Src/stm32l4xx_hal.c **** /**
 754:Drivers/STM32L4xx_HAL_Driver/Src/stm32l4xx_hal.c ****   * @brief  Enable the I/O analog switch voltage booster
 755:Drivers/STM32L4xx_HAL_Driver/Src/stm32l4xx_hal.c ****   *
 756:Drivers/STM32L4xx_HAL_Driver/Src/stm32l4xx_hal.c ****   * @retval None
 757:Drivers/STM32L4xx_HAL_Driver/Src/stm32l4xx_hal.c ****   */
 758:Drivers/STM32L4xx_HAL_Driver/Src/stm32l4xx_hal.c **** void HAL_SYSCFG_EnableIOAnalogSwitchBooster(void)
 759:Drivers/STM32L4xx_HAL_Driver/Src/stm32l4xx_hal.c **** {
 1857              		.loc 1 759 1
 1858              		.cfi_startproc
 1859              		@ args = 0, pretend = 0, frame = 0
 1860              		@ frame_needed = 1, uses_anonymous_args = 0
 1861              		@ link register save eliminated.
 1862 0000 80B4     		push	{r7}
 1863              	.LCFI152:
 1864              		.cfi_def_cfa_offset 4
 1865              		.cfi_offset 7, -4
 1866 0002 00AF     		add	r7, sp, #0
 1867              	.LCFI153:
 1868              		.cfi_def_cfa_register 7
 760:Drivers/STM32L4xx_HAL_Driver/Src/stm32l4xx_hal.c ****   SET_BIT(SYSCFG->CFGR1, SYSCFG_CFGR1_BOOSTEN);
 1869              		.loc 1 760 3
 1870 0004 054B     		ldr	r3, .L124
 1871 0006 5B68     		ldr	r3, [r3, #4]
 1872 0008 044A     		ldr	r2, .L124
 1873 000a 43F48073 		orr	r3, r3, #256
 1874 000e 5360     		str	r3, [r2, #4]
 761:Drivers/STM32L4xx_HAL_Driver/Src/stm32l4xx_hal.c **** }
 1875              		.loc 1 761 1
 1876 0010 00BF     		nop
 1877 0012 BD46     		mov	sp, r7
ARM GAS  C:\Users\CL\AppData\Local\Temp\cceqbIfk.s 			page 46


 1878              	.LCFI154:
 1879              		.cfi_def_cfa_register 13
 1880              		@ sp needed
 1881 0014 5DF8047B 		ldr	r7, [sp], #4
 1882              	.LCFI155:
 1883              		.cfi_restore 7
 1884              		.cfi_def_cfa_offset 0
 1885 0018 7047     		bx	lr
 1886              	.L125:
 1887 001a 00BF     		.align	2
 1888              	.L124:
 1889 001c 00000140 		.word	1073807360
 1890              		.cfi_endproc
 1891              	.LFE323:
 1893              		.section	.text.HAL_SYSCFG_DisableIOAnalogSwitchBooster,"ax",%progbits
 1894              		.align	1
 1895              		.global	HAL_SYSCFG_DisableIOAnalogSwitchBooster
 1896              		.syntax unified
 1897              		.thumb
 1898              		.thumb_func
 1900              	HAL_SYSCFG_DisableIOAnalogSwitchBooster:
 1901              	.LFB324:
 762:Drivers/STM32L4xx_HAL_Driver/Src/stm32l4xx_hal.c **** 
 763:Drivers/STM32L4xx_HAL_Driver/Src/stm32l4xx_hal.c **** /**
 764:Drivers/STM32L4xx_HAL_Driver/Src/stm32l4xx_hal.c ****   * @brief  Disable the I/O analog switch voltage booster
 765:Drivers/STM32L4xx_HAL_Driver/Src/stm32l4xx_hal.c ****   *
 766:Drivers/STM32L4xx_HAL_Driver/Src/stm32l4xx_hal.c ****   * @retval None
 767:Drivers/STM32L4xx_HAL_Driver/Src/stm32l4xx_hal.c ****   */
 768:Drivers/STM32L4xx_HAL_Driver/Src/stm32l4xx_hal.c **** void HAL_SYSCFG_DisableIOAnalogSwitchBooster(void)
 769:Drivers/STM32L4xx_HAL_Driver/Src/stm32l4xx_hal.c **** {
 1902              		.loc 1 769 1
 1903              		.cfi_startproc
 1904              		@ args = 0, pretend = 0, frame = 0
 1905              		@ frame_needed = 1, uses_anonymous_args = 0
 1906              		@ link register save eliminated.
 1907 0000 80B4     		push	{r7}
 1908              	.LCFI156:
 1909              		.cfi_def_cfa_offset 4
 1910              		.cfi_offset 7, -4
 1911 0002 00AF     		add	r7, sp, #0
 1912              	.LCFI157:
 1913              		.cfi_def_cfa_register 7
 770:Drivers/STM32L4xx_HAL_Driver/Src/stm32l4xx_hal.c ****   CLEAR_BIT(SYSCFG->CFGR1, SYSCFG_CFGR1_BOOSTEN);
 1914              		.loc 1 770 3
 1915 0004 054B     		ldr	r3, .L127
 1916 0006 5B68     		ldr	r3, [r3, #4]
 1917 0008 044A     		ldr	r2, .L127
 1918 000a 23F48073 		bic	r3, r3, #256
 1919 000e 5360     		str	r3, [r2, #4]
 771:Drivers/STM32L4xx_HAL_Driver/Src/stm32l4xx_hal.c **** }
 1920              		.loc 1 771 1
 1921 0010 00BF     		nop
 1922 0012 BD46     		mov	sp, r7
 1923              	.LCFI158:
 1924              		.cfi_def_cfa_register 13
 1925              		@ sp needed
 1926 0014 5DF8047B 		ldr	r7, [sp], #4
ARM GAS  C:\Users\CL\AppData\Local\Temp\cceqbIfk.s 			page 47


 1927              	.LCFI159:
 1928              		.cfi_restore 7
 1929              		.cfi_def_cfa_offset 0
 1930 0018 7047     		bx	lr
 1931              	.L128:
 1932 001a 00BF     		.align	2
 1933              	.L127:
 1934 001c 00000140 		.word	1073807360
 1935              		.cfi_endproc
 1936              	.LFE324:
 1938              		.text
 1939              	.Letext0:
 1940              		.file 2 "e:\\gcc-arm-none-eabi-10.3-2021.10-win32\\gcc-arm-none-eabi-10.3-2021.10\\arm-none-eabi\\
 1941              		.file 3 "e:\\gcc-arm-none-eabi-10.3-2021.10-win32\\gcc-arm-none-eabi-10.3-2021.10\\arm-none-eabi\\
 1942              		.file 4 "Drivers/CMSIS/Include/core_cm4.h"
 1943              		.file 5 "Drivers/CMSIS/Device/ST/STM32L4xx/Include/stm32l431xx.h"
 1944              		.file 6 "Drivers/STM32L4xx_HAL_Driver/Inc/stm32l4xx_hal_def.h"
 1945              		.file 7 "Drivers/STM32L4xx_HAL_Driver/Inc/stm32l4xx_hal.h"
 1946              		.file 8 "Drivers/CMSIS/Device/ST/STM32L4xx/Include/system_stm32l4xx.h"
ARM GAS  C:\Users\CL\AppData\Local\Temp\cceqbIfk.s 			page 48


DEFINED SYMBOLS
                            *ABS*:00000000 stm32l4xx_hal.c
C:\Users\CL\AppData\Local\Temp\cceqbIfk.s:24     .bss.uwTick:00000000 uwTick
C:\Users\CL\AppData\Local\Temp\cceqbIfk.s:21     .bss.uwTick:00000000 $d
C:\Users\CL\AppData\Local\Temp\cceqbIfk.s:31     .data.uwTickPrio:00000000 uwTickPrio
C:\Users\CL\AppData\Local\Temp\cceqbIfk.s:28     .data.uwTickPrio:00000000 $d
C:\Users\CL\AppData\Local\Temp\cceqbIfk.s:37     .data.uwTickFreq:00000000 uwTickFreq
C:\Users\CL\AppData\Local\Temp\cceqbIfk.s:40     .text.HAL_Init:00000000 $t
C:\Users\CL\AppData\Local\Temp\cceqbIfk.s:46     .text.HAL_Init:00000000 HAL_Init
C:\Users\CL\AppData\Local\Temp\cceqbIfk.s:258    .text.HAL_InitTick:00000000 HAL_InitTick
C:\Users\CL\AppData\Local\Temp\cceqbIfk.s:188    .text.HAL_MspInit:00000000 HAL_MspInit
C:\Users\CL\AppData\Local\Temp\cceqbIfk.s:101    .text.HAL_DeInit:00000000 $t
C:\Users\CL\AppData\Local\Temp\cceqbIfk.s:107    .text.HAL_DeInit:00000000 HAL_DeInit
C:\Users\CL\AppData\Local\Temp\cceqbIfk.s:223    .text.HAL_MspDeInit:00000000 HAL_MspDeInit
C:\Users\CL\AppData\Local\Temp\cceqbIfk.s:177    .text.HAL_DeInit:00000064 $d
C:\Users\CL\AppData\Local\Temp\cceqbIfk.s:182    .text.HAL_MspInit:00000000 $t
C:\Users\CL\AppData\Local\Temp\cceqbIfk.s:217    .text.HAL_MspDeInit:00000000 $t
C:\Users\CL\AppData\Local\Temp\cceqbIfk.s:252    .text.HAL_InitTick:00000000 $t
C:\Users\CL\AppData\Local\Temp\cceqbIfk.s:347    .text.HAL_InitTick:0000006c $d
C:\Users\CL\AppData\Local\Temp\cceqbIfk.s:354    .text.HAL_IncTick:00000000 $t
C:\Users\CL\AppData\Local\Temp\cceqbIfk.s:360    .text.HAL_IncTick:00000000 HAL_IncTick
C:\Users\CL\AppData\Local\Temp\cceqbIfk.s:398    .text.HAL_IncTick:00000020 $d
C:\Users\CL\AppData\Local\Temp\cceqbIfk.s:404    .text.HAL_GetTick:00000000 $t
C:\Users\CL\AppData\Local\Temp\cceqbIfk.s:410    .text.HAL_GetTick:00000000 HAL_GetTick
C:\Users\CL\AppData\Local\Temp\cceqbIfk.s:441    .text.HAL_GetTick:00000014 $d
C:\Users\CL\AppData\Local\Temp\cceqbIfk.s:446    .text.HAL_GetTickPrio:00000000 $t
C:\Users\CL\AppData\Local\Temp\cceqbIfk.s:452    .text.HAL_GetTickPrio:00000000 HAL_GetTickPrio
C:\Users\CL\AppData\Local\Temp\cceqbIfk.s:483    .text.HAL_GetTickPrio:00000014 $d
C:\Users\CL\AppData\Local\Temp\cceqbIfk.s:488    .text.HAL_SetTickFreq:00000000 $t
C:\Users\CL\AppData\Local\Temp\cceqbIfk.s:494    .text.HAL_SetTickFreq:00000000 HAL_SetTickFreq
C:\Users\CL\AppData\Local\Temp\cceqbIfk.s:562    .text.HAL_SetTickFreq:00000048 $d
C:\Users\CL\AppData\Local\Temp\cceqbIfk.s:568    .text.HAL_GetTickFreq:00000000 $t
C:\Users\CL\AppData\Local\Temp\cceqbIfk.s:574    .text.HAL_GetTickFreq:00000000 HAL_GetTickFreq
C:\Users\CL\AppData\Local\Temp\cceqbIfk.s:605    .text.HAL_GetTickFreq:00000014 $d
C:\Users\CL\AppData\Local\Temp\cceqbIfk.s:610    .text.HAL_Delay:00000000 $t
C:\Users\CL\AppData\Local\Temp\cceqbIfk.s:616    .text.HAL_Delay:00000000 HAL_Delay
C:\Users\CL\AppData\Local\Temp\cceqbIfk.s:752    .text.Delay_ms:00000000 Delay_ms
C:\Users\CL\AppData\Local\Temp\cceqbIfk.s:651    .text.Delay_us:00000000 $t
C:\Users\CL\AppData\Local\Temp\cceqbIfk.s:657    .text.Delay_us:00000000 Delay_us
C:\Users\CL\AppData\Local\Temp\cceqbIfk.s:741    .text.Delay_us:00000054 $d
C:\Users\CL\AppData\Local\Temp\cceqbIfk.s:746    .text.Delay_ms:00000000 $t
C:\Users\CL\AppData\Local\Temp\cceqbIfk.s:807    .text.HAL_SuspendTick:00000000 $t
C:\Users\CL\AppData\Local\Temp\cceqbIfk.s:813    .text.HAL_SuspendTick:00000000 HAL_SuspendTick
C:\Users\CL\AppData\Local\Temp\cceqbIfk.s:847    .text.HAL_SuspendTick:0000001c $d
C:\Users\CL\AppData\Local\Temp\cceqbIfk.s:852    .text.HAL_ResumeTick:00000000 $t
C:\Users\CL\AppData\Local\Temp\cceqbIfk.s:858    .text.HAL_ResumeTick:00000000 HAL_ResumeTick
C:\Users\CL\AppData\Local\Temp\cceqbIfk.s:892    .text.HAL_ResumeTick:0000001c $d
C:\Users\CL\AppData\Local\Temp\cceqbIfk.s:897    .text.HAL_GetHalVersion:00000000 $t
C:\Users\CL\AppData\Local\Temp\cceqbIfk.s:903    .text.HAL_GetHalVersion:00000000 HAL_GetHalVersion
C:\Users\CL\AppData\Local\Temp\cceqbIfk.s:933    .text.HAL_GetHalVersion:00000010 $d
C:\Users\CL\AppData\Local\Temp\cceqbIfk.s:938    .text.HAL_GetREVID:00000000 $t
C:\Users\CL\AppData\Local\Temp\cceqbIfk.s:944    .text.HAL_GetREVID:00000000 HAL_GetREVID
C:\Users\CL\AppData\Local\Temp\cceqbIfk.s:978    .text.HAL_GetREVID:00000018 $d
C:\Users\CL\AppData\Local\Temp\cceqbIfk.s:983    .text.HAL_GetDEVID:00000000 $t
C:\Users\CL\AppData\Local\Temp\cceqbIfk.s:989    .text.HAL_GetDEVID:00000000 HAL_GetDEVID
C:\Users\CL\AppData\Local\Temp\cceqbIfk.s:1022   .text.HAL_GetDEVID:00000018 $d
C:\Users\CL\AppData\Local\Temp\cceqbIfk.s:1027   .text.HAL_GetUIDw0:00000000 $t
ARM GAS  C:\Users\CL\AppData\Local\Temp\cceqbIfk.s 			page 49


C:\Users\CL\AppData\Local\Temp\cceqbIfk.s:1033   .text.HAL_GetUIDw0:00000000 HAL_GetUIDw0
C:\Users\CL\AppData\Local\Temp\cceqbIfk.s:1064   .text.HAL_GetUIDw0:00000014 $d
C:\Users\CL\AppData\Local\Temp\cceqbIfk.s:1069   .text.HAL_GetUIDw1:00000000 $t
C:\Users\CL\AppData\Local\Temp\cceqbIfk.s:1075   .text.HAL_GetUIDw1:00000000 HAL_GetUIDw1
C:\Users\CL\AppData\Local\Temp\cceqbIfk.s:1106   .text.HAL_GetUIDw1:00000014 $d
C:\Users\CL\AppData\Local\Temp\cceqbIfk.s:1111   .text.HAL_GetUIDw2:00000000 $t
C:\Users\CL\AppData\Local\Temp\cceqbIfk.s:1117   .text.HAL_GetUIDw2:00000000 HAL_GetUIDw2
C:\Users\CL\AppData\Local\Temp\cceqbIfk.s:1148   .text.HAL_GetUIDw2:00000014 $d
C:\Users\CL\AppData\Local\Temp\cceqbIfk.s:1153   .text.HAL_DBGMCU_EnableDBGSleepMode:00000000 $t
C:\Users\CL\AppData\Local\Temp\cceqbIfk.s:1159   .text.HAL_DBGMCU_EnableDBGSleepMode:00000000 HAL_DBGMCU_EnableDBGSleepMode
C:\Users\CL\AppData\Local\Temp\cceqbIfk.s:1193   .text.HAL_DBGMCU_EnableDBGSleepMode:0000001c $d
C:\Users\CL\AppData\Local\Temp\cceqbIfk.s:1198   .text.HAL_DBGMCU_DisableDBGSleepMode:00000000 $t
C:\Users\CL\AppData\Local\Temp\cceqbIfk.s:1204   .text.HAL_DBGMCU_DisableDBGSleepMode:00000000 HAL_DBGMCU_DisableDBGSleepMode
C:\Users\CL\AppData\Local\Temp\cceqbIfk.s:1238   .text.HAL_DBGMCU_DisableDBGSleepMode:0000001c $d
C:\Users\CL\AppData\Local\Temp\cceqbIfk.s:1243   .text.HAL_DBGMCU_EnableDBGStopMode:00000000 $t
C:\Users\CL\AppData\Local\Temp\cceqbIfk.s:1249   .text.HAL_DBGMCU_EnableDBGStopMode:00000000 HAL_DBGMCU_EnableDBGStopMode
C:\Users\CL\AppData\Local\Temp\cceqbIfk.s:1283   .text.HAL_DBGMCU_EnableDBGStopMode:0000001c $d
C:\Users\CL\AppData\Local\Temp\cceqbIfk.s:1288   .text.HAL_DBGMCU_DisableDBGStopMode:00000000 $t
C:\Users\CL\AppData\Local\Temp\cceqbIfk.s:1294   .text.HAL_DBGMCU_DisableDBGStopMode:00000000 HAL_DBGMCU_DisableDBGStopMode
C:\Users\CL\AppData\Local\Temp\cceqbIfk.s:1328   .text.HAL_DBGMCU_DisableDBGStopMode:0000001c $d
C:\Users\CL\AppData\Local\Temp\cceqbIfk.s:1333   .text.HAL_DBGMCU_EnableDBGStandbyMode:00000000 $t
C:\Users\CL\AppData\Local\Temp\cceqbIfk.s:1339   .text.HAL_DBGMCU_EnableDBGStandbyMode:00000000 HAL_DBGMCU_EnableDBGStandbyMode
C:\Users\CL\AppData\Local\Temp\cceqbIfk.s:1373   .text.HAL_DBGMCU_EnableDBGStandbyMode:0000001c $d
C:\Users\CL\AppData\Local\Temp\cceqbIfk.s:1378   .text.HAL_DBGMCU_DisableDBGStandbyMode:00000000 $t
C:\Users\CL\AppData\Local\Temp\cceqbIfk.s:1384   .text.HAL_DBGMCU_DisableDBGStandbyMode:00000000 HAL_DBGMCU_DisableDBGStandbyMode
C:\Users\CL\AppData\Local\Temp\cceqbIfk.s:1418   .text.HAL_DBGMCU_DisableDBGStandbyMode:0000001c $d
C:\Users\CL\AppData\Local\Temp\cceqbIfk.s:1423   .text.HAL_SYSCFG_SRAM2Erase:00000000 $t
C:\Users\CL\AppData\Local\Temp\cceqbIfk.s:1429   .text.HAL_SYSCFG_SRAM2Erase:00000000 HAL_SYSCFG_SRAM2Erase
C:\Users\CL\AppData\Local\Temp\cceqbIfk.s:1472   .text.HAL_SYSCFG_SRAM2Erase:00000020 $d
C:\Users\CL\AppData\Local\Temp\cceqbIfk.s:1478   .text.HAL_SYSCFG_EnableMemorySwappingBank:00000000 $t
C:\Users\CL\AppData\Local\Temp\cceqbIfk.s:1484   .text.HAL_SYSCFG_EnableMemorySwappingBank:00000000 HAL_SYSCFG_EnableMemorySwappingBank
C:\Users\CL\AppData\Local\Temp\cceqbIfk.s:1517   .text.HAL_SYSCFG_EnableMemorySwappingBank:00000014 $d
C:\Users\CL\AppData\Local\Temp\cceqbIfk.s:1522   .text.HAL_SYSCFG_DisableMemorySwappingBank:00000000 $t
C:\Users\CL\AppData\Local\Temp\cceqbIfk.s:1528   .text.HAL_SYSCFG_DisableMemorySwappingBank:00000000 HAL_SYSCFG_DisableMemorySwappingBank
C:\Users\CL\AppData\Local\Temp\cceqbIfk.s:1561   .text.HAL_SYSCFG_DisableMemorySwappingBank:00000014 $d
C:\Users\CL\AppData\Local\Temp\cceqbIfk.s:1566   .text.HAL_SYSCFG_VREFBUF_VoltageScalingConfig:00000000 $t
C:\Users\CL\AppData\Local\Temp\cceqbIfk.s:1572   .text.HAL_SYSCFG_VREFBUF_VoltageScalingConfig:00000000 HAL_SYSCFG_VREFBUF_VoltageScalingConfig
C:\Users\CL\AppData\Local\Temp\cceqbIfk.s:1615   .text.HAL_SYSCFG_VREFBUF_VoltageScalingConfig:00000024 $d
C:\Users\CL\AppData\Local\Temp\cceqbIfk.s:1620   .text.HAL_SYSCFG_VREFBUF_HighImpedanceConfig:00000000 $t
C:\Users\CL\AppData\Local\Temp\cceqbIfk.s:1626   .text.HAL_SYSCFG_VREFBUF_HighImpedanceConfig:00000000 HAL_SYSCFG_VREFBUF_HighImpedanceConfig
C:\Users\CL\AppData\Local\Temp\cceqbIfk.s:1669   .text.HAL_SYSCFG_VREFBUF_HighImpedanceConfig:00000024 $d
C:\Users\CL\AppData\Local\Temp\cceqbIfk.s:1674   .text.HAL_SYSCFG_VREFBUF_TrimmingConfig:00000000 $t
C:\Users\CL\AppData\Local\Temp\cceqbIfk.s:1680   .text.HAL_SYSCFG_VREFBUF_TrimmingConfig:00000000 HAL_SYSCFG_VREFBUF_TrimmingConfig
C:\Users\CL\AppData\Local\Temp\cceqbIfk.s:1723   .text.HAL_SYSCFG_VREFBUF_TrimmingConfig:00000024 $d
C:\Users\CL\AppData\Local\Temp\cceqbIfk.s:1728   .text.HAL_SYSCFG_EnableVREFBUF:00000000 $t
C:\Users\CL\AppData\Local\Temp\cceqbIfk.s:1734   .text.HAL_SYSCFG_EnableVREFBUF:00000000 HAL_SYSCFG_EnableVREFBUF
C:\Users\CL\AppData\Local\Temp\cceqbIfk.s:1799   .text.HAL_SYSCFG_EnableVREFBUF:00000044 $d
C:\Users\CL\AppData\Local\Temp\cceqbIfk.s:1804   .text.HAL_SYSCFG_DisableVREFBUF:00000000 $t
C:\Users\CL\AppData\Local\Temp\cceqbIfk.s:1810   .text.HAL_SYSCFG_DisableVREFBUF:00000000 HAL_SYSCFG_DisableVREFBUF
C:\Users\CL\AppData\Local\Temp\cceqbIfk.s:1844   .text.HAL_SYSCFG_DisableVREFBUF:0000001c $d
C:\Users\CL\AppData\Local\Temp\cceqbIfk.s:1849   .text.HAL_SYSCFG_EnableIOAnalogSwitchBooster:00000000 $t
C:\Users\CL\AppData\Local\Temp\cceqbIfk.s:1855   .text.HAL_SYSCFG_EnableIOAnalogSwitchBooster:00000000 HAL_SYSCFG_EnableIOAnalogSwitchBooster
C:\Users\CL\AppData\Local\Temp\cceqbIfk.s:1889   .text.HAL_SYSCFG_EnableIOAnalogSwitchBooster:0000001c $d
C:\Users\CL\AppData\Local\Temp\cceqbIfk.s:1894   .text.HAL_SYSCFG_DisableIOAnalogSwitchBooster:00000000 $t
C:\Users\CL\AppData\Local\Temp\cceqbIfk.s:1900   .text.HAL_SYSCFG_DisableIOAnalogSwitchBooster:00000000 HAL_SYSCFG_DisableIOAnalogSwitchBooster
C:\Users\CL\AppData\Local\Temp\cceqbIfk.s:1934   .text.HAL_SYSCFG_DisableIOAnalogSwitchBooster:0000001c $d

ARM GAS  C:\Users\CL\AppData\Local\Temp\cceqbIfk.s 			page 50


UNDEFINED SYMBOLS
HAL_NVIC_SetPriorityGrouping
HAL_SYSTICK_Config
HAL_NVIC_SetPriority
SystemCoreClock
