ARM GAS  C:\Users\CL\AppData\Local\Temp\cckG60TC.s 			page 1


   1              		.cpu cortex-m4
   2              		.arch armv7e-m
   3              		.fpu fpv4-sp-d16
   4              		.eabi_attribute 27, 1
   5              		.eabi_attribute 28, 1
   6              		.eabi_attribute 20, 1
   7              		.eabi_attribute 21, 1
   8              		.eabi_attribute 23, 3
   9              		.eabi_attribute 24, 1
  10              		.eabi_attribute 25, 1
  11              		.eabi_attribute 26, 1
  12              		.eabi_attribute 30, 4
  13              		.eabi_attribute 34, 1
  14              		.eabi_attribute 18, 4
  15              		.file	"stm32l4xx_hal_rcc.c"
  16              		.text
  17              		.section	.text.RCC_SetFlashLatencyFromMSIRange,"ax",%progbits
  18              		.align	1
  19              		.syntax unified
  20              		.thumb
  21              		.thumb_func
  23              	RCC_SetFlashLatencyFromMSIRange:
  24              		@ args = 0, pretend = 0, frame = 8
  25              		@ frame_needed = 0, uses_anonymous_args = 0
  26 0000 37B5     		push	{r0, r1, r2, r4, r5, lr}
  27 0002 1E4D     		ldr	r5, .L10
  28 0004 AB6D     		ldr	r3, [r5, #88]
  29 0006 DA00     		lsls	r2, r3, #3
  30 0008 0446     		mov	r4, r0
  31 000a 18D5     		bpl	.L2
  32 000c FFF7FEFF 		bl	HAL_PWREx_GetVoltageRange
  33              	.L3:
  34 0010 B0F5007F 		cmp	r0, #512
  35 0014 23D1     		bne	.L4
  36 0016 802C     		cmp	r4, #128
  37 0018 29D9     		bls	.L6
  38 001a A02C     		cmp	r4, #160
  39 001c 8CBF     		ite	hi
  40 001e 0220     		movhi	r0, #2
  41 0020 0120     		movls	r0, #1
  42              	.L5:
  43 0022 174A     		ldr	r2, .L10+4
  44 0024 1368     		ldr	r3, [r2]
  45 0026 23F00703 		bic	r3, r3, #7
  46 002a 0343     		orrs	r3, r3, r0
  47 002c 1360     		str	r3, [r2]
  48 002e 1368     		ldr	r3, [r2]
  49 0030 03F00703 		and	r3, r3, #7
  50 0034 181A     		subs	r0, r3, r0
  51 0036 18BF     		it	ne
  52 0038 0120     		movne	r0, #1
  53 003a 03B0     		add	sp, sp, #12
  54              		@ sp needed
  55 003c 30BD     		pop	{r4, r5, pc}
  56              	.L2:
  57 003e AB6D     		ldr	r3, [r5, #88]
  58 0040 43F08053 		orr	r3, r3, #268435456
ARM GAS  C:\Users\CL\AppData\Local\Temp\cckG60TC.s 			page 2


  59 0044 AB65     		str	r3, [r5, #88]
  60 0046 AB6D     		ldr	r3, [r5, #88]
  61 0048 03F08053 		and	r3, r3, #268435456
  62 004c 0193     		str	r3, [sp, #4]
  63 004e 019B     		ldr	r3, [sp, #4]
  64 0050 FFF7FEFF 		bl	HAL_PWREx_GetVoltageRange
  65 0054 AB6D     		ldr	r3, [r5, #88]
  66 0056 23F08053 		bic	r3, r3, #268435456
  67 005a AB65     		str	r3, [r5, #88]
  68 005c D8E7     		b	.L3
  69              	.L4:
  70 005e 802C     		cmp	r4, #128
  71 0060 07D8     		bhi	.L8
  72 0062 08D0     		beq	.L9
  73 0064 A4F17003 		sub	r3, r4, #112
  74 0068 5842     		rsbs	r0, r3, #0
  75 006a 5841     		adcs	r0, r0, r3
  76 006c D9E7     		b	.L5
  77              	.L6:
  78 006e 0020     		movs	r0, #0
  79 0070 D7E7     		b	.L5
  80              	.L8:
  81 0072 0320     		movs	r0, #3
  82 0074 D5E7     		b	.L5
  83              	.L9:
  84 0076 0220     		movs	r0, #2
  85 0078 D3E7     		b	.L5
  86              	.L11:
  87 007a 00BF     		.align	2
  88              	.L10:
  89 007c 00100240 		.word	1073876992
  90 0080 00200240 		.word	1073881088
  92              		.section	.text.HAL_RCC_DeInit,"ax",%progbits
  93              		.align	1
  94              		.global	HAL_RCC_DeInit
  95              		.syntax unified
  96              		.thumb
  97              		.thumb_func
  99              	HAL_RCC_DeInit:
 100              		@ args = 0, pretend = 0, frame = 0
 101              		@ frame_needed = 0, uses_anonymous_args = 0
 102 0000 F8B5     		push	{r3, r4, r5, r6, r7, lr}
 103 0002 304C     		ldr	r4, .L23
 104 0004 2368     		ldr	r3, [r4]
 105 0006 43F00103 		orr	r3, r3, #1
 106 000a 2360     		str	r3, [r4]
 107 000c FFF7FEFF 		bl	HAL_GetTick
 108 0010 0546     		mov	r5, r0
 109              	.L13:
 110 0012 2368     		ldr	r3, [r4]
 111 0014 9B07     		lsls	r3, r3, #30
 112 0016 3ED5     		bpl	.L15
 113 0018 2368     		ldr	r3, [r4]
 114 001a 2B4A     		ldr	r2, .L23+4
 115 001c 23F0F003 		bic	r3, r3, #240
 116 0020 43F06003 		orr	r3, r3, #96
 117 0024 2360     		str	r3, [r4]
ARM GAS  C:\Users\CL\AppData\Local\Temp\cckG60TC.s 			page 3


 118 0026 0023     		movs	r3, #0
 119 0028 A360     		str	r3, [r4, #8]
 120 002a 284B     		ldr	r3, .L23+8
 121 002c 1A60     		str	r2, [r3]
 122 002e 284B     		ldr	r3, .L23+12
 123 0030 1868     		ldr	r0, [r3]
 124 0032 FFF7FEFF 		bl	HAL_InitTick
 125 0036 0546     		mov	r5, r0
 126 0038 0028     		cmp	r0, #0
 127 003a 40D1     		bne	.L21
 128 003c FFF7FEFF 		bl	HAL_GetTick
 129 0040 41F28837 		movw	r7, #5000
 130 0044 0646     		mov	r6, r0
 131              	.L16:
 132 0046 A368     		ldr	r3, [r4, #8]
 133 0048 13F00C0F 		tst	r3, #12
 134 004c 2BD1     		bne	.L18
 135 004e 2268     		ldr	r2, [r4]
 136 0050 204B     		ldr	r3, .L23+16
 137 0052 1340     		ands	r3, r3, r2
 138 0054 2360     		str	r3, [r4]
 139 0056 FFF7FEFF 		bl	HAL_GetTick
 140 005a 0646     		mov	r6, r0
 141              	.L19:
 142 005c 2368     		ldr	r3, [r4]
 143 005e 13F02063 		ands	r3, r3, #167772160
 144 0062 26D1     		bne	.L20
 145 0064 E360     		str	r3, [r4, #12]
 146 0066 E268     		ldr	r2, [r4, #12]
 147 0068 42F48052 		orr	r2, r2, #4096
 148 006c E260     		str	r2, [r4, #12]
 149 006e 2361     		str	r3, [r4, #16]
 150 0070 2269     		ldr	r2, [r4, #16]
 151 0072 42F48052 		orr	r2, r2, #4096
 152 0076 2261     		str	r2, [r4, #16]
 153 0078 2268     		ldr	r2, [r4]
 154 007a 22F48022 		bic	r2, r2, #262144
 155 007e 2260     		str	r2, [r4]
 156 0080 A361     		str	r3, [r4, #24]
 157 0082 4FF0FF33 		mov	r3, #-1
 158 0086 2362     		str	r3, [r4, #32]
 159 0088 D4F89430 		ldr	r3, [r4, #148]
 160 008c 43F40003 		orr	r3, r3, #8388608
 161 0090 C4F89430 		str	r3, [r4, #148]
 162 0094 05E0     		b	.L14
 163              	.L15:
 164 0096 FFF7FEFF 		bl	HAL_GetTick
 165 009a 401B     		subs	r0, r0, r5
 166 009c 0228     		cmp	r0, #2
 167 009e B8D9     		bls	.L13
 168              	.L17:
 169 00a0 0325     		movs	r5, #3
 170              	.L14:
 171 00a2 2846     		mov	r0, r5
 172 00a4 F8BD     		pop	{r3, r4, r5, r6, r7, pc}
 173              	.L18:
 174 00a6 FFF7FEFF 		bl	HAL_GetTick
ARM GAS  C:\Users\CL\AppData\Local\Temp\cckG60TC.s 			page 4


 175 00aa 801B     		subs	r0, r0, r6
 176 00ac B842     		cmp	r0, r7
 177 00ae CAD9     		bls	.L16
 178 00b0 F6E7     		b	.L17
 179              	.L20:
 180 00b2 FFF7FEFF 		bl	HAL_GetTick
 181 00b6 801B     		subs	r0, r0, r6
 182 00b8 0228     		cmp	r0, #2
 183 00ba CFD9     		bls	.L19
 184 00bc F0E7     		b	.L17
 185              	.L21:
 186 00be 0125     		movs	r5, #1
 187 00c0 EFE7     		b	.L14
 188              	.L24:
 189 00c2 00BF     		.align	2
 190              	.L23:
 191 00c4 00100240 		.word	1073876992
 192 00c8 00093D00 		.word	4000000
 193 00cc 00000000 		.word	SystemCoreClock
 194 00d0 00000000 		.word	uwTickPrio
 195 00d4 FFF4FEFA 		.word	-83954433
 197              		.section	.text.HAL_RCC_MCOConfig,"ax",%progbits
 198              		.align	1
 199              		.global	HAL_RCC_MCOConfig
 200              		.syntax unified
 201              		.thumb
 202              		.thumb_func
 204              	HAL_RCC_MCOConfig:
 205              		@ args = 0, pretend = 0, frame = 24
 206              		@ frame_needed = 0, uses_anonymous_args = 0
 207 0000 70B5     		push	{r4, r5, r6, lr}
 208 0002 124C     		ldr	r4, .L26
 209 0004 E36C     		ldr	r3, [r4, #76]
 210 0006 43F00103 		orr	r3, r3, #1
 211 000a E364     		str	r3, [r4, #76]
 212 000c E36C     		ldr	r3, [r4, #76]
 213 000e 86B0     		sub	sp, sp, #24
 214 0010 03F00103 		and	r3, r3, #1
 215 0014 0093     		str	r3, [sp]
 216 0016 009B     		ldr	r3, [sp]
 217 0018 1646     		mov	r6, r2
 218 001a 0223     		movs	r3, #2
 219 001c 4FF48072 		mov	r2, #256
 220 0020 CDE90123 		strd	r2, r3, [sp, #4]
 221 0024 0D46     		mov	r5, r1
 222 0026 0493     		str	r3, [sp, #16]
 223 0028 01A9     		add	r1, sp, #4
 224 002a 0023     		movs	r3, #0
 225 002c 4FF09040 		mov	r0, #1207959552
 226 0030 0393     		str	r3, [sp, #12]
 227 0032 0593     		str	r3, [sp, #20]
 228 0034 FFF7FEFF 		bl	HAL_GPIO_Init
 229 0038 A368     		ldr	r3, [r4, #8]
 230 003a 23F0FE43 		bic	r3, r3, #2130706432
 231 003e 43EA0602 		orr	r2, r3, r6
 232 0042 2A43     		orrs	r2, r2, r5
 233 0044 A260     		str	r2, [r4, #8]
ARM GAS  C:\Users\CL\AppData\Local\Temp\cckG60TC.s 			page 5


 234 0046 06B0     		add	sp, sp, #24
 235              		@ sp needed
 236 0048 70BD     		pop	{r4, r5, r6, pc}
 237              	.L27:
 238 004a 00BF     		.align	2
 239              	.L26:
 240 004c 00100240 		.word	1073876992
 242              		.section	.text.HAL_RCC_GetSysClockFreq,"ax",%progbits
 243              		.align	1
 244              		.global	HAL_RCC_GetSysClockFreq
 245              		.syntax unified
 246              		.thumb
 247              		.thumb_func
 249              	HAL_RCC_GetSysClockFreq:
 250              		@ args = 0, pretend = 0, frame = 0
 251              		@ frame_needed = 0, uses_anonymous_args = 0
 252              		@ link register save eliminated.
 253 0000 224B     		ldr	r3, .L50
 254 0002 9A68     		ldr	r2, [r3, #8]
 255 0004 D968     		ldr	r1, [r3, #12]
 256 0006 12F00C02 		ands	r2, r2, #12
 257 000a 05D0     		beq	.L29
 258 000c 0C2A     		cmp	r2, #12
 259 000e 15D1     		bne	.L30
 260 0010 01F00301 		and	r1, r1, #3
 261 0014 0129     		cmp	r1, #1
 262 0016 18D1     		bne	.L38
 263              	.L29:
 264 0018 1968     		ldr	r1, [r3]
 265 001a 1D48     		ldr	r0, .L50+4
 266 001c 0907     		lsls	r1, r1, #28
 267 001e 55BF     		itete	pl
 268 0020 D3F89410 		ldrpl	r1, [r3, #148]
 269 0024 1968     		ldrmi	r1, [r3]
 270 0026 C1F30321 		ubfxpl	r1, r1, #8, #4
 271 002a C1F30311 		ubfxmi	r1, r1, #4, #4
 272 002e 50F82100 		ldr	r0, [r0, r1, lsl #2]
 273 0032 4AB3     		cbz	r2, .L28
 274 0034 0C2A     		cmp	r2, #12
 275 0036 09D0     		beq	.L31
 276 0038 0020     		movs	r0, #0
 277 003a 7047     		bx	lr
 278              	.L30:
 279 003c 042A     		cmp	r2, #4
 280 003e 22D0     		beq	.L39
 281 0040 082A     		cmp	r2, #8
 282 0042 1448     		ldr	r0, .L50+8
 283 0044 18BF     		it	ne
 284 0046 0020     		movne	r0, #0
 285 0048 7047     		bx	lr
 286              	.L38:
 287 004a 0020     		movs	r0, #0
 288              	.L31:
 289 004c DA68     		ldr	r2, [r3, #12]
 290 004e 02F00302 		and	r2, r2, #3
 291 0052 022A     		cmp	r2, #2
 292 0054 15D0     		beq	.L42
ARM GAS  C:\Users\CL\AppData\Local\Temp\cckG60TC.s 			page 6


 293 0056 0F49     		ldr	r1, .L50+8
 294 0058 032A     		cmp	r2, #3
 295 005a 08BF     		it	eq
 296 005c 0846     		moveq	r0, r1
 297              	.L37:
 298 005e D968     		ldr	r1, [r3, #12]
 299 0060 DA68     		ldr	r2, [r3, #12]
 300 0062 C2F30622 		ubfx	r2, r2, #8, #7
 301 0066 4243     		muls	r2, r0, r2
 302 0068 D868     		ldr	r0, [r3, #12]
 303 006a C0F34160 		ubfx	r0, r0, #25, #2
 304 006e C1F30211 		ubfx	r1, r1, #4, #3
 305 0072 0130     		adds	r0, r0, #1
 306 0074 0131     		adds	r1, r1, #1
 307 0076 4000     		lsls	r0, r0, #1
 308 0078 B2FBF1F2 		udiv	r2, r2, r1
 309 007c B2FBF0F0 		udiv	r0, r2, r0
 310 0080 7047     		bx	lr
 311              	.L42:
 312 0082 0548     		ldr	r0, .L50+12
 313 0084 EBE7     		b	.L37
 314              	.L39:
 315 0086 0448     		ldr	r0, .L50+12
 316              	.L28:
 317 0088 7047     		bx	lr
 318              	.L51:
 319 008a 00BF     		.align	2
 320              	.L50:
 321 008c 00100240 		.word	1073876992
 322 0090 00000000 		.word	MSIRangeTable
 323 0094 00127A00 		.word	8000000
 324 0098 0024F400 		.word	16000000
 326              		.section	.text.HAL_RCC_OscConfig,"ax",%progbits
 327              		.align	1
 328              		.global	HAL_RCC_OscConfig
 329              		.syntax unified
 330              		.thumb
 331              		.thumb_func
 333              	HAL_RCC_OscConfig:
 334              		@ args = 0, pretend = 0, frame = 8
 335              		@ frame_needed = 0, uses_anonymous_args = 0
 336 0000 2DE9F743 		push	{r0, r1, r2, r4, r5, r6, r7, r8, r9, lr}
 337 0004 0546     		mov	r5, r0
 338 0006 08B9     		cbnz	r0, .L53
 339              	.L146:
 340 0008 0120     		movs	r0, #1
 341 000a 47E0     		b	.L54
 342              	.L53:
 343 000c 944C     		ldr	r4, .L180
 344 000e 0368     		ldr	r3, [r0]
 345 0010 A668     		ldr	r6, [r4, #8]
 346 0012 E768     		ldr	r7, [r4, #12]
 347 0014 DB06     		lsls	r3, r3, #27
 348 0016 06F00C06 		and	r6, r6, #12
 349 001a 07F00307 		and	r7, r7, #3
 350 001e 75D5     		bpl	.L56
 351 0020 1EB1     		cbz	r6, .L57
ARM GAS  C:\Users\CL\AppData\Local\Temp\cckG60TC.s 			page 7


 352 0022 0C2E     		cmp	r6, #12
 353 0024 54D1     		bne	.L58
 354 0026 012F     		cmp	r7, #1
 355 0028 52D1     		bne	.L58
 356              	.L57:
 357 002a 2368     		ldr	r3, [r4]
 358 002c 9807     		lsls	r0, r3, #30
 359 002e 02D5     		bpl	.L59
 360 0030 AB69     		ldr	r3, [r5, #24]
 361 0032 002B     		cmp	r3, #0
 362 0034 E8D0     		beq	.L146
 363              	.L59:
 364 0036 2368     		ldr	r3, [r4]
 365 0038 286A     		ldr	r0, [r5, #32]
 366 003a 1907     		lsls	r1, r3, #28
 367 003c 56BF     		itet	pl
 368 003e D4F89430 		ldrpl	r3, [r4, #148]
 369 0042 2368     		ldrmi	r3, [r4]
 370 0044 1B09     		lsrpl	r3, r3, #4
 371 0046 03F0F003 		and	r3, r3, #240
 372 004a 9842     		cmp	r0, r3
 373 004c 29D9     		bls	.L63
 374 004e FFF7FEFF 		bl	RCC_SetFlashLatencyFromMSIRange
 375 0052 0028     		cmp	r0, #0
 376 0054 D8D1     		bne	.L146
 377 0056 2368     		ldr	r3, [r4]
 378 0058 43F00803 		orr	r3, r3, #8
 379 005c 2360     		str	r3, [r4]
 380 005e 2368     		ldr	r3, [r4]
 381 0060 2A6A     		ldr	r2, [r5, #32]
 382 0062 23F0F003 		bic	r3, r3, #240
 383 0066 1343     		orrs	r3, r3, r2
 384 0068 2360     		str	r3, [r4]
 385 006a 6368     		ldr	r3, [r4, #4]
 386 006c EA69     		ldr	r2, [r5, #28]
 387 006e 23F47F43 		bic	r3, r3, #65280
 388 0072 43EA0223 		orr	r3, r3, r2, lsl #8
 389 0076 6360     		str	r3, [r4, #4]
 390              	.L64:
 391 0078 FFF7FEFF 		bl	HAL_RCC_GetSysClockFreq
 392 007c A368     		ldr	r3, [r4, #8]
 393 007e 794A     		ldr	r2, .L180+4
 394 0080 C3F30313 		ubfx	r3, r3, #4, #4
 395 0084 D35C     		ldrb	r3, [r2, r3]	@ zero_extendqisi2
 396 0086 03F01F03 		and	r3, r3, #31
 397 008a D840     		lsrs	r0, r0, r3
 398 008c 764B     		ldr	r3, .L180+8
 399 008e 1860     		str	r0, [r3]
 400 0090 764B     		ldr	r3, .L180+12
 401 0092 1868     		ldr	r0, [r3]
 402 0094 FFF7FEFF 		bl	HAL_InitTick
 403 0098 0028     		cmp	r0, #0
 404 009a 37D0     		beq	.L56
 405              	.L54:
 406 009c 03B0     		add	sp, sp, #12
 407              		@ sp needed
 408 009e BDE8F083 		pop	{r4, r5, r6, r7, r8, r9, pc}
ARM GAS  C:\Users\CL\AppData\Local\Temp\cckG60TC.s 			page 8


 409              	.L63:
 410 00a2 2368     		ldr	r3, [r4]
 411 00a4 43F00803 		orr	r3, r3, #8
 412 00a8 2360     		str	r3, [r4]
 413 00aa 2368     		ldr	r3, [r4]
 414 00ac 23F0F003 		bic	r3, r3, #240
 415 00b0 0343     		orrs	r3, r3, r0
 416 00b2 2360     		str	r3, [r4]
 417 00b4 6368     		ldr	r3, [r4, #4]
 418 00b6 EA69     		ldr	r2, [r5, #28]
 419 00b8 23F47F43 		bic	r3, r3, #65280
 420 00bc 43EA0223 		orr	r3, r3, r2, lsl #8
 421 00c0 6360     		str	r3, [r4, #4]
 422 00c2 002E     		cmp	r6, #0
 423 00c4 D8D1     		bne	.L64
 424 00c6 FFF7FEFF 		bl	RCC_SetFlashLatencyFromMSIRange
 425 00ca 0028     		cmp	r0, #0
 426 00cc D4D0     		beq	.L64
 427 00ce 9BE7     		b	.L146
 428              	.L58:
 429 00d0 AB69     		ldr	r3, [r5, #24]
 430 00d2 002B     		cmp	r3, #0
 431 00d4 3AD0     		beq	.L68
 432 00d6 2368     		ldr	r3, [r4]
 433 00d8 43F00103 		orr	r3, r3, #1
 434 00dc 2360     		str	r3, [r4]
 435 00de FFF7FEFF 		bl	HAL_GetTick
 436 00e2 8046     		mov	r8, r0
 437              	.L69:
 438 00e4 2368     		ldr	r3, [r4]
 439 00e6 9A07     		lsls	r2, r3, #30
 440 00e8 28D5     		bpl	.L70
 441 00ea 2368     		ldr	r3, [r4]
 442 00ec 43F00803 		orr	r3, r3, #8
 443 00f0 2360     		str	r3, [r4]
 444 00f2 2368     		ldr	r3, [r4]
 445 00f4 2A6A     		ldr	r2, [r5, #32]
 446 00f6 23F0F003 		bic	r3, r3, #240
 447 00fa 1343     		orrs	r3, r3, r2
 448 00fc 2360     		str	r3, [r4]
 449 00fe 6368     		ldr	r3, [r4, #4]
 450 0100 EA69     		ldr	r2, [r5, #28]
 451 0102 23F47F43 		bic	r3, r3, #65280
 452 0106 43EA0223 		orr	r3, r3, r2, lsl #8
 453 010a 6360     		str	r3, [r4, #4]
 454              	.L56:
 455 010c 2B68     		ldr	r3, [r5]
 456 010e D807     		lsls	r0, r3, #31
 457 0110 2DD4     		bmi	.L74
 458              	.L79:
 459 0112 2B68     		ldr	r3, [r5]
 460 0114 9907     		lsls	r1, r3, #30
 461 0116 6BD4     		bmi	.L75
 462              	.L88:
 463 0118 2B68     		ldr	r3, [r5]
 464 011a 1807     		lsls	r0, r3, #28
 465 011c 00F1A880 		bmi	.L97
ARM GAS  C:\Users\CL\AppData\Local\Temp\cckG60TC.s 			page 9


 466              	.L103:
 467 0120 2B68     		ldr	r3, [r5]
 468 0122 5907     		lsls	r1, r3, #29
 469 0124 00F1CE80 		bmi	.L98
 470              	.L106:
 471 0128 2B68     		ldr	r3, [r5]
 472 012a 9906     		lsls	r1, r3, #26
 473 012c 00F13781 		bmi	.L123
 474              	.L129:
 475 0130 AB6A     		ldr	r3, [r5, #40]
 476 0132 002B     		cmp	r3, #0
 477 0134 40F05D81 		bne	.L124
 478              	.L125:
 479 0138 0020     		movs	r0, #0
 480 013a AFE7     		b	.L54
 481              	.L70:
 482 013c FFF7FEFF 		bl	HAL_GetTick
 483 0140 A0EB0800 		sub	r0, r0, r8
 484 0144 0228     		cmp	r0, #2
 485 0146 CDD9     		bls	.L69
 486              	.L72:
 487 0148 0320     		movs	r0, #3
 488 014a A7E7     		b	.L54
 489              	.L68:
 490 014c 2368     		ldr	r3, [r4]
 491 014e 23F00103 		bic	r3, r3, #1
 492 0152 2360     		str	r3, [r4]
 493 0154 FFF7FEFF 		bl	HAL_GetTick
 494 0158 8046     		mov	r8, r0
 495              	.L71:
 496 015a 2368     		ldr	r3, [r4]
 497 015c 9B07     		lsls	r3, r3, #30
 498 015e D5D5     		bpl	.L56
 499 0160 FFF7FEFF 		bl	HAL_GetTick
 500 0164 A0EB0800 		sub	r0, r0, r8
 501 0168 0228     		cmp	r0, #2
 502 016a F6D9     		bls	.L71
 503 016c ECE7     		b	.L72
 504              	.L74:
 505 016e 082E     		cmp	r6, #8
 506 0170 03D0     		beq	.L77
 507 0172 0C2E     		cmp	r6, #12
 508 0174 08D1     		bne	.L78
 509 0176 032F     		cmp	r7, #3
 510 0178 06D1     		bne	.L78
 511              	.L77:
 512 017a 2368     		ldr	r3, [r4]
 513 017c 9A03     		lsls	r2, r3, #14
 514 017e C8D5     		bpl	.L79
 515 0180 6B68     		ldr	r3, [r5, #4]
 516 0182 002B     		cmp	r3, #0
 517 0184 C5D1     		bne	.L79
 518 0186 3FE7     		b	.L146
 519              	.L78:
 520 0188 6B68     		ldr	r3, [r5, #4]
 521 018a B3F5803F 		cmp	r3, #65536
 522 018e 10D1     		bne	.L80
ARM GAS  C:\Users\CL\AppData\Local\Temp\cckG60TC.s 			page 10


 523              	.L177:
 524 0190 2368     		ldr	r3, [r4]
 525 0192 43F48033 		orr	r3, r3, #65536
 526 0196 2360     		str	r3, [r4]
 527              	.L81:
 528 0198 FFF7FEFF 		bl	HAL_GetTick
 529 019c 8046     		mov	r8, r0
 530              	.L84:
 531 019e 2368     		ldr	r3, [r4]
 532 01a0 9B03     		lsls	r3, r3, #14
 533 01a2 B6D4     		bmi	.L79
 534 01a4 FFF7FEFF 		bl	HAL_GetTick
 535 01a8 A0EB0800 		sub	r0, r0, r8
 536 01ac 6428     		cmp	r0, #100
 537 01ae F6D9     		bls	.L84
 538 01b0 CAE7     		b	.L72
 539              	.L80:
 540 01b2 B3F5A02F 		cmp	r3, #327680
 541 01b6 04D1     		bne	.L82
 542 01b8 2368     		ldr	r3, [r4]
 543 01ba 43F48023 		orr	r3, r3, #262144
 544 01be 2360     		str	r3, [r4]
 545 01c0 E6E7     		b	.L177
 546              	.L82:
 547 01c2 2268     		ldr	r2, [r4]
 548 01c4 22F48032 		bic	r2, r2, #65536
 549 01c8 2260     		str	r2, [r4]
 550 01ca 2268     		ldr	r2, [r4]
 551 01cc 22F48022 		bic	r2, r2, #262144
 552 01d0 2260     		str	r2, [r4]
 553 01d2 002B     		cmp	r3, #0
 554 01d4 E0D1     		bne	.L81
 555 01d6 FFF7FEFF 		bl	HAL_GetTick
 556 01da 8046     		mov	r8, r0
 557              	.L86:
 558 01dc 2368     		ldr	r3, [r4]
 559 01de 9803     		lsls	r0, r3, #14
 560 01e0 97D5     		bpl	.L79
 561 01e2 FFF7FEFF 		bl	HAL_GetTick
 562 01e6 A0EB0800 		sub	r0, r0, r8
 563 01ea 6428     		cmp	r0, #100
 564 01ec F6D9     		bls	.L86
 565 01ee ABE7     		b	.L72
 566              	.L75:
 567 01f0 042E     		cmp	r6, #4
 568 01f2 03D0     		beq	.L89
 569 01f4 0C2E     		cmp	r6, #12
 570 01f6 10D1     		bne	.L90
 571 01f8 022F     		cmp	r7, #2
 572 01fa 0ED1     		bne	.L90
 573              	.L89:
 574 01fc 2368     		ldr	r3, [r4]
 575 01fe 5905     		lsls	r1, r3, #21
 576 0200 03D5     		bpl	.L178
 577 0202 EB68     		ldr	r3, [r5, #12]
 578 0204 002B     		cmp	r3, #0
 579 0206 3FF4FFAE 		beq	.L146
ARM GAS  C:\Users\CL\AppData\Local\Temp\cckG60TC.s 			page 11


 580              	.L178:
 581 020a 6368     		ldr	r3, [r4, #4]
 582 020c 2A69     		ldr	r2, [r5, #16]
 583 020e 23F0F853 		bic	r3, r3, #520093696
 584 0212 43EA0263 		orr	r3, r3, r2, lsl #24
 585 0216 6360     		str	r3, [r4, #4]
 586 0218 7EE7     		b	.L88
 587              	.L90:
 588 021a EB68     		ldr	r3, [r5, #12]
 589 021c 7BB1     		cbz	r3, .L92
 590 021e 2368     		ldr	r3, [r4]
 591 0220 43F48073 		orr	r3, r3, #256
 592 0224 2360     		str	r3, [r4]
 593 0226 FFF7FEFF 		bl	HAL_GetTick
 594 022a 0746     		mov	r7, r0
 595              	.L93:
 596 022c 2368     		ldr	r3, [r4]
 597 022e 5A05     		lsls	r2, r3, #21
 598 0230 EBD4     		bmi	.L178
 599 0232 FFF7FEFF 		bl	HAL_GetTick
 600 0236 C01B     		subs	r0, r0, r7
 601 0238 0228     		cmp	r0, #2
 602 023a F7D9     		bls	.L93
 603 023c 84E7     		b	.L72
 604              	.L92:
 605 023e 2368     		ldr	r3, [r4]
 606 0240 23F48073 		bic	r3, r3, #256
 607 0244 2360     		str	r3, [r4]
 608 0246 FFF7FEFF 		bl	HAL_GetTick
 609 024a 0746     		mov	r7, r0
 610              	.L95:
 611 024c 2368     		ldr	r3, [r4]
 612 024e 5B05     		lsls	r3, r3, #21
 613 0250 7FF562AF 		bpl	.L88
 614 0254 FFF7FEFF 		bl	HAL_GetTick
 615 0258 C01B     		subs	r0, r0, r7
 616 025a 0228     		cmp	r0, #2
 617 025c F6D9     		bls	.L95
 618 025e 73E7     		b	.L72
 619              	.L181:
 620              		.align	2
 621              	.L180:
 622 0260 00100240 		.word	1073876992
 623 0264 00000000 		.word	AHBPrescTable
 624 0268 00000000 		.word	SystemCoreClock
 625 026c 00000000 		.word	uwTickPrio
 626              	.L97:
 627 0270 6B69     		ldr	r3, [r5, #20]
 628 0272 9BB1     		cbz	r3, .L100
 629 0274 D4F89430 		ldr	r3, [r4, #148]
 630 0278 43F00103 		orr	r3, r3, #1
 631 027c C4F89430 		str	r3, [r4, #148]
 632 0280 FFF7FEFF 		bl	HAL_GetTick
 633 0284 0746     		mov	r7, r0
 634              	.L101:
 635 0286 D4F89430 		ldr	r3, [r4, #148]
 636 028a 9A07     		lsls	r2, r3, #30
ARM GAS  C:\Users\CL\AppData\Local\Temp\cckG60TC.s 			page 12


 637 028c 3FF548AF 		bmi	.L103
 638 0290 FFF7FEFF 		bl	HAL_GetTick
 639 0294 C01B     		subs	r0, r0, r7
 640 0296 0228     		cmp	r0, #2
 641 0298 F5D9     		bls	.L101
 642 029a 55E7     		b	.L72
 643              	.L100:
 644 029c D4F89430 		ldr	r3, [r4, #148]
 645 02a0 23F00103 		bic	r3, r3, #1
 646 02a4 C4F89430 		str	r3, [r4, #148]
 647 02a8 FFF7FEFF 		bl	HAL_GetTick
 648 02ac 0746     		mov	r7, r0
 649              	.L104:
 650 02ae D4F89430 		ldr	r3, [r4, #148]
 651 02b2 9B07     		lsls	r3, r3, #30
 652 02b4 7FF534AF 		bpl	.L103
 653 02b8 FFF7FEFF 		bl	HAL_GetTick
 654 02bc C01B     		subs	r0, r0, r7
 655 02be 0228     		cmp	r0, #2
 656 02c0 F5D9     		bls	.L104
 657 02c2 41E7     		b	.L72
 658              	.L98:
 659 02c4 A36D     		ldr	r3, [r4, #88]
 660 02c6 D800     		lsls	r0, r3, #3
 661 02c8 29D4     		bmi	.L143
 662 02ca A36D     		ldr	r3, [r4, #88]
 663 02cc 43F08053 		orr	r3, r3, #268435456
 664 02d0 A365     		str	r3, [r4, #88]
 665 02d2 A36D     		ldr	r3, [r4, #88]
 666 02d4 03F08053 		and	r3, r3, #268435456
 667 02d8 0193     		str	r3, [sp, #4]
 668 02da 019B     		ldr	r3, [sp, #4]
 669 02dc 4FF00108 		mov	r8, #1
 670              	.L107:
 671 02e0 964F     		ldr	r7, .L182
 672 02e2 3B68     		ldr	r3, [r7]
 673 02e4 D905     		lsls	r1, r3, #23
 674 02e6 1DD5     		bpl	.L108
 675              	.L113:
 676 02e8 AB68     		ldr	r3, [r5, #8]
 677 02ea 012B     		cmp	r3, #1
 678 02ec 2BD1     		bne	.L175
 679              	.L179:
 680 02ee D4F89030 		ldr	r3, [r4, #144]
 681 02f2 43F00103 		orr	r3, r3, #1
 682 02f6 C4F89030 		str	r3, [r4, #144]
 683              	.L114:
 684 02fa FFF7FEFF 		bl	HAL_GetTick
 685 02fe 41F28839 		movw	r9, #5000
 686 0302 0746     		mov	r7, r0
 687              	.L117:
 688 0304 D4F89030 		ldr	r3, [r4, #144]
 689 0308 9B07     		lsls	r3, r3, #30
 690 030a 42D5     		bpl	.L118
 691              	.L122:
 692 030c B8F1000F 		cmp	r8, #0
 693 0310 3FF40AAF 		beq	.L106
ARM GAS  C:\Users\CL\AppData\Local\Temp\cckG60TC.s 			page 13


 694 0314 A36D     		ldr	r3, [r4, #88]
 695 0316 23F08053 		bic	r3, r3, #268435456
 696 031a A365     		str	r3, [r4, #88]
 697 031c 04E7     		b	.L106
 698              	.L143:
 699 031e 4FF00008 		mov	r8, #0
 700 0322 DDE7     		b	.L107
 701              	.L108:
 702 0324 3B68     		ldr	r3, [r7]
 703 0326 43F48073 		orr	r3, r3, #256
 704 032a 3B60     		str	r3, [r7]
 705 032c FFF7FEFF 		bl	HAL_GetTick
 706 0330 8146     		mov	r9, r0
 707              	.L111:
 708 0332 3B68     		ldr	r3, [r7]
 709 0334 DA05     		lsls	r2, r3, #23
 710 0336 D7D4     		bmi	.L113
 711 0338 FFF7FEFF 		bl	HAL_GetTick
 712 033c A0EB0900 		sub	r0, r0, r9
 713 0340 0228     		cmp	r0, #2
 714 0342 F6D9     		bls	.L111
 715 0344 00E7     		b	.L72
 716              	.L175:
 717 0346 052B     		cmp	r3, #5
 718 0348 06D1     		bne	.L115
 719 034a D4F89030 		ldr	r3, [r4, #144]
 720 034e 43F00403 		orr	r3, r3, #4
 721 0352 C4F89030 		str	r3, [r4, #144]
 722 0356 CAE7     		b	.L179
 723              	.L115:
 724 0358 D4F89020 		ldr	r2, [r4, #144]
 725 035c 22F00102 		bic	r2, r2, #1
 726 0360 C4F89020 		str	r2, [r4, #144]
 727 0364 D4F89020 		ldr	r2, [r4, #144]
 728 0368 22F00402 		bic	r2, r2, #4
 729 036c C4F89020 		str	r2, [r4, #144]
 730 0370 002B     		cmp	r3, #0
 731 0372 C2D1     		bne	.L114
 732 0374 FFF7FEFF 		bl	HAL_GetTick
 733 0378 41F28839 		movw	r9, #5000
 734 037c 0746     		mov	r7, r0
 735              	.L120:
 736 037e D4F89030 		ldr	r3, [r4, #144]
 737 0382 9807     		lsls	r0, r3, #30
 738 0384 C2D5     		bpl	.L122
 739 0386 FFF7FEFF 		bl	HAL_GetTick
 740 038a C01B     		subs	r0, r0, r7
 741 038c 4845     		cmp	r0, r9
 742 038e F6D9     		bls	.L120
 743 0390 DAE6     		b	.L72
 744              	.L118:
 745 0392 FFF7FEFF 		bl	HAL_GetTick
 746 0396 C01B     		subs	r0, r0, r7
 747 0398 4845     		cmp	r0, r9
 748 039a B3D9     		bls	.L117
 749 039c D4E6     		b	.L72
 750              	.L123:
ARM GAS  C:\Users\CL\AppData\Local\Temp\cckG60TC.s 			page 14


 751 039e 6B6A     		ldr	r3, [r5, #36]
 752 03a0 9BB1     		cbz	r3, .L126
 753 03a2 D4F89830 		ldr	r3, [r4, #152]
 754 03a6 43F00103 		orr	r3, r3, #1
 755 03aa C4F89830 		str	r3, [r4, #152]
 756 03ae FFF7FEFF 		bl	HAL_GetTick
 757 03b2 0746     		mov	r7, r0
 758              	.L127:
 759 03b4 D4F89830 		ldr	r3, [r4, #152]
 760 03b8 9A07     		lsls	r2, r3, #30
 761 03ba 3FF5B9AE 		bmi	.L129
 762 03be FFF7FEFF 		bl	HAL_GetTick
 763 03c2 C01B     		subs	r0, r0, r7
 764 03c4 0228     		cmp	r0, #2
 765 03c6 F5D9     		bls	.L127
 766 03c8 BEE6     		b	.L72
 767              	.L126:
 768 03ca D4F89830 		ldr	r3, [r4, #152]
 769 03ce 23F00103 		bic	r3, r3, #1
 770 03d2 C4F89830 		str	r3, [r4, #152]
 771 03d6 FFF7FEFF 		bl	HAL_GetTick
 772 03da 0746     		mov	r7, r0
 773              	.L130:
 774 03dc D4F89830 		ldr	r3, [r4, #152]
 775 03e0 9B07     		lsls	r3, r3, #30
 776 03e2 7FF5A5AE 		bpl	.L129
 777 03e6 FFF7FEFF 		bl	HAL_GetTick
 778 03ea C01B     		subs	r0, r0, r7
 779 03ec 0228     		cmp	r0, #2
 780 03ee F5D9     		bls	.L130
 781 03f0 AAE6     		b	.L72
 782              	.L124:
 783 03f2 022B     		cmp	r3, #2
 784 03f4 40F08880 		bne	.L132
 785 03f8 E368     		ldr	r3, [r4, #12]
 786 03fa EA6A     		ldr	r2, [r5, #44]
 787 03fc 03F00301 		and	r1, r3, #3
 788 0400 9142     		cmp	r1, r2
 789 0402 22D1     		bne	.L133
 790 0404 296B     		ldr	r1, [r5, #48]
 791 0406 03F07002 		and	r2, r3, #112
 792 040a 0139     		subs	r1, r1, #1
 793 040c B2EB011F 		cmp	r2, r1, lsl #4
 794 0410 1BD1     		bne	.L133
 795 0412 696B     		ldr	r1, [r5, #52]
 796 0414 03F4FE42 		and	r2, r3, #32512
 797 0418 B2EB012F 		cmp	r2, r1, lsl #8
 798 041c 15D1     		bne	.L133
 799 041e A96B     		ldr	r1, [r5, #56]
 800 0420 03F07842 		and	r2, r3, #-134217728
 801 0424 B2EBC16F 		cmp	r2, r1, lsl #27
 802 0428 0FD1     		bne	.L133
 803 042a EA6B     		ldr	r2, [r5, #60]
 804 042c 5208     		lsrs	r2, r2, #1
 805 042e 03F4C001 		and	r1, r3, #6291456
 806 0432 013A     		subs	r2, r2, #1
 807 0434 B1EB425F 		cmp	r1, r2, lsl #21
ARM GAS  C:\Users\CL\AppData\Local\Temp\cckG60TC.s 			page 15


 808 0438 07D1     		bne	.L133
 809 043a 2A6C     		ldr	r2, [r5, #64]
 810 043c 5208     		lsrs	r2, r2, #1
 811 043e 03F0C063 		and	r3, r3, #100663296
 812 0442 013A     		subs	r2, r2, #1
 813 0444 B3EB426F 		cmp	r3, r2, lsl #25
 814 0448 45D0     		beq	.L134
 815              	.L133:
 816 044a 0C2E     		cmp	r6, #12
 817 044c 3FF4DCAD 		beq	.L146
 818 0450 2368     		ldr	r3, [r4]
 819 0452 5E01     		lsls	r6, r3, #5
 820 0454 3FF5D8AD 		bmi	.L146
 821 0458 2368     		ldr	r3, [r4]
 822 045a 23F08073 		bic	r3, r3, #16777216
 823 045e 2360     		str	r3, [r4]
 824 0460 FFF7FEFF 		bl	HAL_GetTick
 825 0464 0646     		mov	r6, r0
 826              	.L135:
 827 0466 2368     		ldr	r3, [r4]
 828 0468 9801     		lsls	r0, r3, #6
 829 046a 2ED4     		bmi	.L136
 830 046c E268     		ldr	r2, [r4, #12]
 831 046e 344B     		ldr	r3, .L182+4
 832 0470 1340     		ands	r3, r3, r2
 833 0472 EA6A     		ldr	r2, [r5, #44]
 834 0474 1343     		orrs	r3, r3, r2
 835 0476 6A6B     		ldr	r2, [r5, #52]
 836 0478 43EA0223 		orr	r3, r3, r2, lsl #8
 837 047c AA6B     		ldr	r2, [r5, #56]
 838 047e 43EAC263 		orr	r3, r3, r2, lsl #27
 839 0482 2A6B     		ldr	r2, [r5, #48]
 840 0484 013A     		subs	r2, r2, #1
 841 0486 43EA0213 		orr	r3, r3, r2, lsl #4
 842 048a EA6B     		ldr	r2, [r5, #60]
 843 048c 5208     		lsrs	r2, r2, #1
 844 048e 013A     		subs	r2, r2, #1
 845 0490 43EA4253 		orr	r3, r3, r2, lsl #21
 846 0494 2A6C     		ldr	r2, [r5, #64]
 847 0496 5208     		lsrs	r2, r2, #1
 848 0498 013A     		subs	r2, r2, #1
 849 049a 43EA4263 		orr	r3, r3, r2, lsl #25
 850 049e E360     		str	r3, [r4, #12]
 851 04a0 2368     		ldr	r3, [r4]
 852 04a2 43F08073 		orr	r3, r3, #16777216
 853 04a6 2360     		str	r3, [r4]
 854 04a8 E368     		ldr	r3, [r4, #12]
 855 04aa 43F08073 		orr	r3, r3, #16777216
 856 04ae E360     		str	r3, [r4, #12]
 857 04b0 FFF7FEFF 		bl	HAL_GetTick
 858 04b4 0546     		mov	r5, r0
 859              	.L137:
 860 04b6 2368     		ldr	r3, [r4]
 861 04b8 9901     		lsls	r1, r3, #6
 862 04ba 3FF53DAE 		bmi	.L125
 863 04be FFF7FEFF 		bl	HAL_GetTick
 864 04c2 401B     		subs	r0, r0, r5
ARM GAS  C:\Users\CL\AppData\Local\Temp\cckG60TC.s 			page 16


 865 04c4 0228     		cmp	r0, #2
 866 04c6 F6D9     		bls	.L137
 867 04c8 3EE6     		b	.L72
 868              	.L136:
 869 04ca FFF7FEFF 		bl	HAL_GetTick
 870 04ce 801B     		subs	r0, r0, r6
 871 04d0 0228     		cmp	r0, #2
 872 04d2 C8D9     		bls	.L135
 873 04d4 38E6     		b	.L72
 874              	.L134:
 875 04d6 2368     		ldr	r3, [r4]
 876 04d8 9A01     		lsls	r2, r3, #6
 877 04da 3FF52DAE 		bmi	.L125
 878 04de 2368     		ldr	r3, [r4]
 879 04e0 43F08073 		orr	r3, r3, #16777216
 880 04e4 2360     		str	r3, [r4]
 881 04e6 E368     		ldr	r3, [r4, #12]
 882 04e8 43F08073 		orr	r3, r3, #16777216
 883 04ec E360     		str	r3, [r4, #12]
 884 04ee FFF7FEFF 		bl	HAL_GetTick
 885 04f2 0546     		mov	r5, r0
 886              	.L139:
 887 04f4 2368     		ldr	r3, [r4]
 888 04f6 9B01     		lsls	r3, r3, #6
 889 04f8 3FF51EAE 		bmi	.L125
 890 04fc FFF7FEFF 		bl	HAL_GetTick
 891 0500 401B     		subs	r0, r0, r5
 892 0502 0228     		cmp	r0, #2
 893 0504 F6D9     		bls	.L139
 894 0506 1FE6     		b	.L72
 895              	.L132:
 896 0508 0C2E     		cmp	r6, #12
 897 050a 3FF47DAD 		beq	.L146
 898 050e 2368     		ldr	r3, [r4]
 899 0510 23F08073 		bic	r3, r3, #16777216
 900 0514 2360     		str	r3, [r4]
 901 0516 FFF7FEFF 		bl	HAL_GetTick
 902 051a 0546     		mov	r5, r0
 903              	.L141:
 904 051c 2368     		ldr	r3, [r4]
 905 051e 13F00073 		ands	r3, r3, #33554432
 906 0522 04D1     		bne	.L142
 907 0524 E168     		ldr	r1, [r4, #12]
 908 0526 074A     		ldr	r2, .L182+8
 909 0528 0A40     		ands	r2, r2, r1
 910 052a E260     		str	r2, [r4, #12]
 911 052c 04E6     		b	.L125
 912              	.L142:
 913 052e FFF7FEFF 		bl	HAL_GetTick
 914 0532 401B     		subs	r0, r0, r5
 915 0534 0228     		cmp	r0, #2
 916 0536 F1D9     		bls	.L141
 917 0538 06E6     		b	.L72
 918              	.L183:
 919 053a 00BF     		.align	2
 920              	.L182:
 921 053c 00700040 		.word	1073770496
ARM GAS  C:\Users\CL\AppData\Local\Temp\cckG60TC.s 			page 17


 922 0540 8C809D01 		.word	27099276
 923 0544 FCFFEEFE 		.word	-17891332
 925              		.section	.text.HAL_RCC_ClockConfig,"ax",%progbits
 926              		.align	1
 927              		.global	HAL_RCC_ClockConfig
 928              		.syntax unified
 929              		.thumb
 930              		.thumb_func
 932              	HAL_RCC_ClockConfig:
 933              		@ args = 0, pretend = 0, frame = 0
 934              		@ frame_needed = 0, uses_anonymous_args = 0
 935 0000 2DE9F041 		push	{r4, r5, r6, r7, r8, lr}
 936 0004 0D46     		mov	r5, r1
 937 0006 0446     		mov	r4, r0
 938 0008 10B9     		cbnz	r0, .L185
 939              	.L190:
 940 000a 0120     		movs	r0, #1
 941              	.L186:
 942 000c BDE8F081 		pop	{r4, r5, r6, r7, r8, pc}
 943              	.L185:
 944 0010 4A4A     		ldr	r2, .L227
 945 0012 1368     		ldr	r3, [r2]
 946 0014 03F00703 		and	r3, r3, #7
 947 0018 8B42     		cmp	r3, r1
 948 001a 2BD3     		bcc	.L187
 949              	.L191:
 950 001c 2068     		ldr	r0, [r4]
 951 001e 8607     		lsls	r6, r0, #30
 952 0020 33D4     		bmi	.L188
 953              	.L189:
 954 0022 C107     		lsls	r1, r0, #31
 955 0024 3ED4     		bmi	.L192
 956              	.L201:
 957 0026 2168     		ldr	r1, [r4]
 958 0028 8A07     		lsls	r2, r1, #30
 959 002a 67D4     		bmi	.L193
 960              	.L194:
 961 002c 434A     		ldr	r2, .L227
 962 002e 1368     		ldr	r3, [r2]
 963 0030 03F00703 		and	r3, r3, #7
 964 0034 AB42     		cmp	r3, r5
 965 0036 6ED8     		bhi	.L202
 966              	.L205:
 967 0038 11F0040F 		tst	r1, #4
 968 003c 404D     		ldr	r5, .L227+4
 969 003e 76D1     		bne	.L203
 970              	.L204:
 971 0040 0B07     		lsls	r3, r1, #28
 972 0042 06D5     		bpl	.L206
 973 0044 AB68     		ldr	r3, [r5, #8]
 974 0046 2269     		ldr	r2, [r4, #16]
 975 0048 23F46053 		bic	r3, r3, #14336
 976 004c 43EAC203 		orr	r3, r3, r2, lsl #3
 977 0050 AB60     		str	r3, [r5, #8]
 978              	.L206:
 979 0052 FFF7FEFF 		bl	HAL_RCC_GetSysClockFreq
 980 0056 AB68     		ldr	r3, [r5, #8]
ARM GAS  C:\Users\CL\AppData\Local\Temp\cckG60TC.s 			page 18


 981 0058 3A4A     		ldr	r2, .L227+8
 982 005a C3F30313 		ubfx	r3, r3, #4, #4
 983 005e BDE8F041 		pop	{r4, r5, r6, r7, r8, lr}
 984 0062 D35C     		ldrb	r3, [r2, r3]	@ zero_extendqisi2
 985 0064 03F01F03 		and	r3, r3, #31
 986 0068 D840     		lsrs	r0, r0, r3
 987 006a 374B     		ldr	r3, .L227+12
 988 006c 1860     		str	r0, [r3]
 989 006e 0020     		movs	r0, #0
 990 0070 FFF7FEBF 		b	HAL_InitTick
 991              	.L187:
 992 0074 1368     		ldr	r3, [r2]
 993 0076 23F00703 		bic	r3, r3, #7
 994 007a 0B43     		orrs	r3, r3, r1
 995 007c 1360     		str	r3, [r2]
 996 007e 1368     		ldr	r3, [r2]
 997 0080 03F00703 		and	r3, r3, #7
 998 0084 8B42     		cmp	r3, r1
 999 0086 C0D1     		bne	.L190
 1000 0088 C8E7     		b	.L191
 1001              	.L188:
 1002 008a 2D4A     		ldr	r2, .L227+4
 1003 008c A668     		ldr	r6, [r4, #8]
 1004 008e 9168     		ldr	r1, [r2, #8]
 1005 0090 01F0F001 		and	r1, r1, #240
 1006 0094 8E42     		cmp	r6, r1
 1007 0096 81BF     		itttt	hi
 1008 0098 9368     		ldrhi	r3, [r2, #8]
 1009 009a 23F0F003 		bichi	r3, r3, #240
 1010 009e 3343     		orrhi	r3, r3, r6
 1011 00a0 9360     		strhi	r3, [r2, #8]
 1012 00a2 BEE7     		b	.L189
 1013              	.L192:
 1014 00a4 6268     		ldr	r2, [r4, #4]
 1015 00a6 264E     		ldr	r6, .L227+4
 1016 00a8 032A     		cmp	r2, #3
 1017 00aa 3368     		ldr	r3, [r6]
 1018 00ac 1AD1     		bne	.L195
 1019 00ae 13F0007F 		tst	r3, #33554432
 1020              	.L224:
 1021 00b2 AAD0     		beq	.L190
 1022 00b4 B368     		ldr	r3, [r6, #8]
 1023 00b6 23F00303 		bic	r3, r3, #3
 1024 00ba 1343     		orrs	r3, r3, r2
 1025 00bc B360     		str	r3, [r6, #8]
 1026 00be FFF7FEFF 		bl	HAL_GetTick
 1027 00c2 41F28838 		movw	r8, #5000
 1028 00c6 0746     		mov	r7, r0
 1029              	.L199:
 1030 00c8 B368     		ldr	r3, [r6, #8]
 1031 00ca 6268     		ldr	r2, [r4, #4]
 1032 00cc 03F00C03 		and	r3, r3, #12
 1033 00d0 B3EB820F 		cmp	r3, r2, lsl #2
 1034 00d4 A7D0     		beq	.L201
 1035 00d6 FFF7FEFF 		bl	HAL_GetTick
 1036 00da C01B     		subs	r0, r0, r7
 1037 00dc 4045     		cmp	r0, r8
ARM GAS  C:\Users\CL\AppData\Local\Temp\cckG60TC.s 			page 19


 1038 00de F3D9     		bls	.L199
 1039 00e0 0320     		movs	r0, #3
 1040 00e2 93E7     		b	.L186
 1041              	.L195:
 1042 00e4 022A     		cmp	r2, #2
 1043 00e6 02D1     		bne	.L197
 1044 00e8 13F4003F 		tst	r3, #131072
 1045 00ec E1E7     		b	.L224
 1046              	.L197:
 1047 00ee 12B9     		cbnz	r2, .L198
 1048 00f0 13F0020F 		tst	r3, #2
 1049 00f4 DDE7     		b	.L224
 1050              	.L198:
 1051 00f6 13F4806F 		tst	r3, #1024
 1052 00fa DAE7     		b	.L224
 1053              	.L193:
 1054 00fc 104A     		ldr	r2, .L227+4
 1055 00fe A668     		ldr	r6, [r4, #8]
 1056 0100 9068     		ldr	r0, [r2, #8]
 1057 0102 00F0F000 		and	r0, r0, #240
 1058 0106 8642     		cmp	r6, r0
 1059 0108 3FBF     		itttt	cc
 1060 010a 9368     		ldrcc	r3, [r2, #8]
 1061 010c 23F0F003 		biccc	r3, r3, #240
 1062 0110 3343     		orrcc	r3, r3, r6
 1063 0112 9360     		strcc	r3, [r2, #8]
 1064 0114 8AE7     		b	.L194
 1065              	.L202:
 1066 0116 1368     		ldr	r3, [r2]
 1067 0118 23F00703 		bic	r3, r3, #7
 1068 011c 2B43     		orrs	r3, r3, r5
 1069 011e 1360     		str	r3, [r2]
 1070 0120 1368     		ldr	r3, [r2]
 1071 0122 03F00703 		and	r3, r3, #7
 1072 0126 AB42     		cmp	r3, r5
 1073 0128 7FF46FAF 		bne	.L190
 1074 012c 84E7     		b	.L205
 1075              	.L203:
 1076 012e AB68     		ldr	r3, [r5, #8]
 1077 0130 E268     		ldr	r2, [r4, #12]
 1078 0132 23F4E063 		bic	r3, r3, #1792
 1079 0136 1343     		orrs	r3, r3, r2
 1080 0138 AB60     		str	r3, [r5, #8]
 1081 013a 81E7     		b	.L204
 1082              	.L228:
 1083              		.align	2
 1084              	.L227:
 1085 013c 00200240 		.word	1073881088
 1086 0140 00100240 		.word	1073876992
 1087 0144 00000000 		.word	AHBPrescTable
 1088 0148 00000000 		.word	SystemCoreClock
 1090              		.section	.text.HAL_RCC_GetHCLKFreq,"ax",%progbits
 1091              		.align	1
 1092              		.global	HAL_RCC_GetHCLKFreq
 1093              		.syntax unified
 1094              		.thumb
 1095              		.thumb_func
ARM GAS  C:\Users\CL\AppData\Local\Temp\cckG60TC.s 			page 20


 1097              	HAL_RCC_GetHCLKFreq:
 1098              		@ args = 0, pretend = 0, frame = 0
 1099              		@ frame_needed = 0, uses_anonymous_args = 0
 1100              		@ link register save eliminated.
 1101 0000 014B     		ldr	r3, .L230
 1102 0002 1868     		ldr	r0, [r3]
 1103 0004 7047     		bx	lr
 1104              	.L231:
 1105 0006 00BF     		.align	2
 1106              	.L230:
 1107 0008 00000000 		.word	SystemCoreClock
 1109              		.section	.text.HAL_RCC_GetPCLK1Freq,"ax",%progbits
 1110              		.align	1
 1111              		.global	HAL_RCC_GetPCLK1Freq
 1112              		.syntax unified
 1113              		.thumb
 1114              		.thumb_func
 1116              	HAL_RCC_GetPCLK1Freq:
 1117              		@ args = 0, pretend = 0, frame = 0
 1118              		@ frame_needed = 0, uses_anonymous_args = 0
 1119              		@ link register save eliminated.
 1120 0000 054B     		ldr	r3, .L233
 1121 0002 064A     		ldr	r2, .L233+4
 1122 0004 9B68     		ldr	r3, [r3, #8]
 1123 0006 C3F30223 		ubfx	r3, r3, #8, #3
 1124 000a D35C     		ldrb	r3, [r2, r3]	@ zero_extendqisi2
 1125 000c 044A     		ldr	r2, .L233+8
 1126 000e 1068     		ldr	r0, [r2]
 1127 0010 03F01F03 		and	r3, r3, #31
 1128 0014 D840     		lsrs	r0, r0, r3
 1129 0016 7047     		bx	lr
 1130              	.L234:
 1131              		.align	2
 1132              	.L233:
 1133 0018 00100240 		.word	1073876992
 1134 001c 00000000 		.word	APBPrescTable
 1135 0020 00000000 		.word	SystemCoreClock
 1137              		.section	.text.HAL_RCC_GetPCLK2Freq,"ax",%progbits
 1138              		.align	1
 1139              		.global	HAL_RCC_GetPCLK2Freq
 1140              		.syntax unified
 1141              		.thumb
 1142              		.thumb_func
 1144              	HAL_RCC_GetPCLK2Freq:
 1145              		@ args = 0, pretend = 0, frame = 0
 1146              		@ frame_needed = 0, uses_anonymous_args = 0
 1147              		@ link register save eliminated.
 1148 0000 054B     		ldr	r3, .L236
 1149 0002 064A     		ldr	r2, .L236+4
 1150 0004 9B68     		ldr	r3, [r3, #8]
 1151 0006 C3F3C223 		ubfx	r3, r3, #11, #3
 1152 000a D35C     		ldrb	r3, [r2, r3]	@ zero_extendqisi2
 1153 000c 044A     		ldr	r2, .L236+8
 1154 000e 1068     		ldr	r0, [r2]
 1155 0010 03F01F03 		and	r3, r3, #31
 1156 0014 D840     		lsrs	r0, r0, r3
 1157 0016 7047     		bx	lr
ARM GAS  C:\Users\CL\AppData\Local\Temp\cckG60TC.s 			page 21


 1158              	.L237:
 1159              		.align	2
 1160              	.L236:
 1161 0018 00100240 		.word	1073876992
 1162 001c 00000000 		.word	APBPrescTable
 1163 0020 00000000 		.word	SystemCoreClock
 1165              		.section	.text.HAL_RCC_GetOscConfig,"ax",%progbits
 1166              		.align	1
 1167              		.global	HAL_RCC_GetOscConfig
 1168              		.syntax unified
 1169              		.thumb
 1170              		.thumb_func
 1172              	HAL_RCC_GetOscConfig:
 1173              		@ args = 0, pretend = 0, frame = 0
 1174              		@ frame_needed = 0, uses_anonymous_args = 0
 1175              		@ link register save eliminated.
 1176 0000 3F23     		movs	r3, #63
 1177 0002 0360     		str	r3, [r0]
 1178 0004 2E4B     		ldr	r3, .L249
 1179 0006 1A68     		ldr	r2, [r3]
 1180 0008 5103     		lsls	r1, r2, #13
 1181 000a 4AD5     		bpl	.L239
 1182 000c 4FF4A022 		mov	r2, #327680
 1183              	.L241:
 1184 0010 4260     		str	r2, [r0, #4]
 1185 0012 1A68     		ldr	r2, [r3]
 1186 0014 02F00102 		and	r2, r2, #1
 1187 0018 8261     		str	r2, [r0, #24]
 1188 001a 5A68     		ldr	r2, [r3, #4]
 1189 001c C2F30722 		ubfx	r2, r2, #8, #8
 1190 0020 C261     		str	r2, [r0, #28]
 1191 0022 1A68     		ldr	r2, [r3]
 1192 0024 02F0F002 		and	r2, r2, #240
 1193 0028 0262     		str	r2, [r0, #32]
 1194 002a 1A68     		ldr	r2, [r3]
 1195 002c 02F48072 		and	r2, r2, #256
 1196 0030 C260     		str	r2, [r0, #12]
 1197 0032 5A68     		ldr	r2, [r3, #4]
 1198 0034 C2F30462 		ubfx	r2, r2, #24, #5
 1199 0038 0261     		str	r2, [r0, #16]
 1200 003a D3F89020 		ldr	r2, [r3, #144]
 1201 003e 5207     		lsls	r2, r2, #29
 1202 0040 36D5     		bpl	.L243
 1203 0042 0522     		movs	r2, #5
 1204              	.L245:
 1205 0044 8260     		str	r2, [r0, #8]
 1206 0046 D3F89420 		ldr	r2, [r3, #148]
 1207 004a 02F00102 		and	r2, r2, #1
 1208 004e 4261     		str	r2, [r0, #20]
 1209 0050 D3F89820 		ldr	r2, [r3, #152]
 1210 0054 02F00102 		and	r2, r2, #1
 1211 0058 4262     		str	r2, [r0, #36]
 1212 005a 1A68     		ldr	r2, [r3]
 1213 005c 12F0807F 		tst	r2, #16777216
 1214 0060 14BF     		ite	ne
 1215 0062 0222     		movne	r2, #2
 1216 0064 0122     		moveq	r2, #1
ARM GAS  C:\Users\CL\AppData\Local\Temp\cckG60TC.s 			page 22


 1217 0066 8262     		str	r2, [r0, #40]
 1218 0068 DA68     		ldr	r2, [r3, #12]
 1219 006a 02F00302 		and	r2, r2, #3
 1220 006e C262     		str	r2, [r0, #44]
 1221 0070 DA68     		ldr	r2, [r3, #12]
 1222 0072 C2F30212 		ubfx	r2, r2, #4, #3
 1223 0076 0132     		adds	r2, r2, #1
 1224 0078 0263     		str	r2, [r0, #48]
 1225 007a DA68     		ldr	r2, [r3, #12]
 1226 007c C2F30622 		ubfx	r2, r2, #8, #7
 1227 0080 4263     		str	r2, [r0, #52]
 1228 0082 DA68     		ldr	r2, [r3, #12]
 1229 0084 C2F34152 		ubfx	r2, r2, #21, #2
 1230 0088 0132     		adds	r2, r2, #1
 1231 008a 5200     		lsls	r2, r2, #1
 1232 008c C263     		str	r2, [r0, #60]
 1233 008e DA68     		ldr	r2, [r3, #12]
 1234 0090 C2F34162 		ubfx	r2, r2, #25, #2
 1235 0094 0132     		adds	r2, r2, #1
 1236 0096 5200     		lsls	r2, r2, #1
 1237 0098 0264     		str	r2, [r0, #64]
 1238 009a DB68     		ldr	r3, [r3, #12]
 1239 009c DB0E     		lsrs	r3, r3, #27
 1240 009e 8363     		str	r3, [r0, #56]
 1241 00a0 7047     		bx	lr
 1242              	.L239:
 1243 00a2 1A68     		ldr	r2, [r3]
 1244 00a4 12F48032 		ands	r2, r2, #65536
 1245 00a8 18BF     		it	ne
 1246 00aa 4FF48032 		movne	r2, #65536
 1247 00ae AFE7     		b	.L241
 1248              	.L243:
 1249 00b0 D3F89020 		ldr	r2, [r3, #144]
 1250 00b4 12F00102 		ands	r2, r2, #1
 1251 00b8 18BF     		it	ne
 1252 00ba 0122     		movne	r2, #1
 1253 00bc C2E7     		b	.L245
 1254              	.L250:
 1255 00be 00BF     		.align	2
 1256              	.L249:
 1257 00c0 00100240 		.word	1073876992
 1259              		.section	.text.HAL_RCC_GetClockConfig,"ax",%progbits
 1260              		.align	1
 1261              		.global	HAL_RCC_GetClockConfig
 1262              		.syntax unified
 1263              		.thumb
 1264              		.thumb_func
 1266              	HAL_RCC_GetClockConfig:
 1267              		@ args = 0, pretend = 0, frame = 0
 1268              		@ frame_needed = 0, uses_anonymous_args = 0
 1269              		@ link register save eliminated.
 1270 0000 0F23     		movs	r3, #15
 1271 0002 0360     		str	r3, [r0]
 1272 0004 0B4B     		ldr	r3, .L252
 1273 0006 9A68     		ldr	r2, [r3, #8]
 1274 0008 02F00302 		and	r2, r2, #3
 1275 000c 4260     		str	r2, [r0, #4]
ARM GAS  C:\Users\CL\AppData\Local\Temp\cckG60TC.s 			page 23


 1276 000e 9A68     		ldr	r2, [r3, #8]
 1277 0010 02F0F002 		and	r2, r2, #240
 1278 0014 8260     		str	r2, [r0, #8]
 1279 0016 9A68     		ldr	r2, [r3, #8]
 1280 0018 02F4E062 		and	r2, r2, #1792
 1281 001c C260     		str	r2, [r0, #12]
 1282 001e 9B68     		ldr	r3, [r3, #8]
 1283 0020 DB08     		lsrs	r3, r3, #3
 1284 0022 03F4E063 		and	r3, r3, #1792
 1285 0026 0361     		str	r3, [r0, #16]
 1286 0028 034B     		ldr	r3, .L252+4
 1287 002a 1B68     		ldr	r3, [r3]
 1288 002c 03F00703 		and	r3, r3, #7
 1289 0030 0B60     		str	r3, [r1]
 1290 0032 7047     		bx	lr
 1291              	.L253:
 1292              		.align	2
 1293              	.L252:
 1294 0034 00100240 		.word	1073876992
 1295 0038 00200240 		.word	1073881088
 1297              		.section	.text.HAL_RCC_EnableCSS,"ax",%progbits
 1298              		.align	1
 1299              		.global	HAL_RCC_EnableCSS
 1300              		.syntax unified
 1301              		.thumb
 1302              		.thumb_func
 1304              	HAL_RCC_EnableCSS:
 1305              		@ args = 0, pretend = 0, frame = 0
 1306              		@ frame_needed = 0, uses_anonymous_args = 0
 1307              		@ link register save eliminated.
 1308 0000 024A     		ldr	r2, .L255
 1309 0002 1368     		ldr	r3, [r2]
 1310 0004 43F40023 		orr	r3, r3, #524288
 1311 0008 1360     		str	r3, [r2]
 1312 000a 7047     		bx	lr
 1313              	.L256:
 1314              		.align	2
 1315              	.L255:
 1316 000c 00100240 		.word	1073876992
 1318              		.section	.text.HAL_RCC_CSSCallback,"ax",%progbits
 1319              		.align	1
 1320              		.weak	HAL_RCC_CSSCallback
 1321              		.syntax unified
 1322              		.thumb
 1323              		.thumb_func
 1325              	HAL_RCC_CSSCallback:
 1326              		@ args = 0, pretend = 0, frame = 0
 1327              		@ frame_needed = 0, uses_anonymous_args = 0
 1328              		@ link register save eliminated.
 1329 0000 7047     		bx	lr
 1331              		.section	.text.HAL_RCC_NMI_IRQHandler,"ax",%progbits
 1332              		.align	1
 1333              		.global	HAL_RCC_NMI_IRQHandler
 1334              		.syntax unified
 1335              		.thumb
 1336              		.thumb_func
 1338              	HAL_RCC_NMI_IRQHandler:
ARM GAS  C:\Users\CL\AppData\Local\Temp\cckG60TC.s 			page 24


 1339              		@ args = 0, pretend = 0, frame = 0
 1340              		@ frame_needed = 0, uses_anonymous_args = 0
 1341 0000 10B5     		push	{r4, lr}
 1342 0002 054C     		ldr	r4, .L263
 1343 0004 E369     		ldr	r3, [r4, #28]
 1344 0006 DB05     		lsls	r3, r3, #23
 1345 0008 04D5     		bpl	.L258
 1346 000a FFF7FEFF 		bl	HAL_RCC_CSSCallback
 1347 000e 4FF48073 		mov	r3, #256
 1348 0012 2362     		str	r3, [r4, #32]
 1349              	.L258:
 1350 0014 10BD     		pop	{r4, pc}
 1351              	.L264:
 1352 0016 00BF     		.align	2
 1353              	.L263:
 1354 0018 00100240 		.word	1073876992
 1356              		.section	.text.HAL_RCC_GetResetSource,"ax",%progbits
 1357              		.align	1
 1358              		.global	HAL_RCC_GetResetSource
 1359              		.syntax unified
 1360              		.thumb
 1361              		.thumb_func
 1363              	HAL_RCC_GetResetSource:
 1364              		@ args = 0, pretend = 0, frame = 0
 1365              		@ frame_needed = 0, uses_anonymous_args = 0
 1366              		@ link register save eliminated.
 1367 0000 054B     		ldr	r3, .L266
 1368 0002 D3F89400 		ldr	r0, [r3, #148]
 1369 0006 D3F89420 		ldr	r2, [r3, #148]
 1370 000a 42F40002 		orr	r2, r2, #8388608
 1371 000e C3F89420 		str	r2, [r3, #148]
 1372 0012 00F07E40 		and	r0, r0, #-33554432
 1373 0016 7047     		bx	lr
 1374              	.L267:
 1375              		.align	2
 1376              	.L266:
 1377 0018 00100240 		.word	1073876992
 1379              		.ident	"GCC: (GNU Arm Embedded Toolchain 10.3-2021.10) 10.3.1 20210824 (release)"
ARM GAS  C:\Users\CL\AppData\Local\Temp\cckG60TC.s 			page 25

