ARM GAS  C:\Users\CL\AppData\Local\Temp\cc2IcYsR.s 			page 1


   1              		.cpu cortex-m4
   2              		.arch armv7e-m
   3              		.fpu fpv4-sp-d16
   4              		.eabi_attribute 27, 1
   5              		.eabi_attribute 28, 1
   6              		.eabi_attribute 20, 1
   7              		.eabi_attribute 21, 1
   8              		.eabi_attribute 23, 3
   9              		.eabi_attribute 24, 1
  10              		.eabi_attribute 25, 1
  11              		.eabi_attribute 26, 1
  12              		.eabi_attribute 30, 4
  13              		.eabi_attribute 34, 1
  14              		.eabi_attribute 18, 4
  15              		.file	"stm32l4xx_hal_uart_ex.c"
  16              		.text
  17              		.section	.text.HAL_RS485Ex_Init,"ax",%progbits
  18              		.align	1
  19              		.global	HAL_RS485Ex_Init
  20              		.syntax unified
  21              		.thumb
  22              		.thumb_func
  24              	HAL_RS485Ex_Init:
  25              		@ args = 0, pretend = 0, frame = 0
  26              		@ frame_needed = 0, uses_anonymous_args = 0
  27 0000 F8B5     		push	{r3, r4, r5, r6, r7, lr}
  28 0002 0F46     		mov	r7, r1
  29 0004 1646     		mov	r6, r2
  30 0006 1D46     		mov	r5, r3
  31 0008 0446     		mov	r4, r0
  32 000a 0028     		cmp	r0, #0
  33 000c 33D0     		beq	.L3
  34 000e 836F     		ldr	r3, [r0, #120]
  35 0010 1BB9     		cbnz	r3, .L4
  36 0012 80F87430 		strb	r3, [r0, #116]
  37 0016 FFF7FEFF 		bl	HAL_UART_MspInit
  38              	.L4:
  39 001a 2268     		ldr	r2, [r4]
  40 001c 2423     		movs	r3, #36
  41 001e A367     		str	r3, [r4, #120]
  42 0020 1368     		ldr	r3, [r2]
  43 0022 23F00103 		bic	r3, r3, #1
  44 0026 1360     		str	r3, [r2]
  45 0028 2046     		mov	r0, r4
  46 002a FFF7FEFF 		bl	UART_SetConfig
  47 002e 0128     		cmp	r0, #1
  48 0030 21D0     		beq	.L3
  49 0032 636A     		ldr	r3, [r4, #36]
  50 0034 13B1     		cbz	r3, .L6
  51 0036 2046     		mov	r0, r4
  52 0038 FFF7FEFF 		bl	UART_AdvFeatureConfig
  53              	.L6:
  54 003c 2068     		ldr	r0, [r4]
  55 003e 8368     		ldr	r3, [r0, #8]
  56 0040 43F48043 		orr	r3, r3, #16384
  57 0044 8360     		str	r3, [r0, #8]
  58 0046 8368     		ldr	r3, [r0, #8]
ARM GAS  C:\Users\CL\AppData\Local\Temp\cc2IcYsR.s 			page 2


  59 0048 23F40043 		bic	r3, r3, #32768
  60 004c 3B43     		orrs	r3, r3, r7
  61 004e 8360     		str	r3, [r0, #8]
  62 0050 0268     		ldr	r2, [r0]
  63 0052 2B04     		lsls	r3, r5, #16
  64 0054 22F07F72 		bic	r2, r2, #66846720
  65 0058 43EA4655 		orr	r5, r3, r6, lsl #21
  66 005c 22F44032 		bic	r2, r2, #196608
  67 0060 1543     		orrs	r5, r5, r2
  68 0062 0560     		str	r5, [r0]
  69 0064 0368     		ldr	r3, [r0]
  70 0066 43F00103 		orr	r3, r3, #1
  71 006a 0360     		str	r3, [r0]
  72 006c 2046     		mov	r0, r4
  73 006e BDE8F840 		pop	{r3, r4, r5, r6, r7, lr}
  74 0072 FFF7FEBF 		b	UART_CheckIdleState
  75              	.L3:
  76 0076 0120     		movs	r0, #1
  77 0078 F8BD     		pop	{r3, r4, r5, r6, r7, pc}
  79              		.section	.text.HAL_UARTEx_WakeupCallback,"ax",%progbits
  80              		.align	1
  81              		.weak	HAL_UARTEx_WakeupCallback
  82              		.syntax unified
  83              		.thumb
  84              		.thumb_func
  86              	HAL_UARTEx_WakeupCallback:
  87              		@ args = 0, pretend = 0, frame = 0
  88              		@ frame_needed = 0, uses_anonymous_args = 0
  89              		@ link register save eliminated.
  90 0000 7047     		bx	lr
  92              		.section	.text.HAL_UARTEx_EnableClockStopMode,"ax",%progbits
  93              		.align	1
  94              		.global	HAL_UARTEx_EnableClockStopMode
  95              		.syntax unified
  96              		.thumb
  97              		.thumb_func
  99              	HAL_UARTEx_EnableClockStopMode:
 100              		@ args = 0, pretend = 0, frame = 0
 101              		@ frame_needed = 0, uses_anonymous_args = 0
 102              		@ link register save eliminated.
 103 0000 90F87430 		ldrb	r3, [r0, #116]	@ zero_extendqisi2
 104 0004 012B     		cmp	r3, #1
 105 0006 12D0     		beq	.L17
 106 0008 0123     		movs	r3, #1
 107 000a 80F87430 		strb	r3, [r0, #116]
 108              	.L16:
 109 000e 0168     		ldr	r1, [r0]
 110 0010 01F10803 		add	r3, r1, #8
 111              		.syntax unified
 112              	@ 1155 "Drivers/CMSIS/Include/cmsis_gcc.h" 1
 113 0014 53E8002F 		ldrex r2, [r3]
 114              	@ 0 "" 2
 115              		.thumb
 116              		.syntax unified
 117 0018 42F40002 		orr	r2, r2, #8388608
 118 001c 1946     		mov	r1, r3
 119              		.syntax unified
ARM GAS  C:\Users\CL\AppData\Local\Temp\cc2IcYsR.s 			page 3


 120              	@ 1206 "Drivers/CMSIS/Include/cmsis_gcc.h" 1
 121 001e 41E80023 		strex r3, r2, [r1]
 122              	@ 0 "" 2
 123              		.thumb
 124              		.syntax unified
 125 0022 002B     		cmp	r3, #0
 126 0024 F3D1     		bne	.L16
 127 0026 80F87430 		strb	r3, [r0, #116]
 128 002a 1846     		mov	r0, r3
 129 002c 7047     		bx	lr
 130              	.L17:
 131 002e 0220     		movs	r0, #2
 132 0030 7047     		bx	lr
 134              		.section	.text.HAL_UARTEx_DisableClockStopMode,"ax",%progbits
 135              		.align	1
 136              		.global	HAL_UARTEx_DisableClockStopMode
 137              		.syntax unified
 138              		.thumb
 139              		.thumb_func
 141              	HAL_UARTEx_DisableClockStopMode:
 142              		@ args = 0, pretend = 0, frame = 0
 143              		@ frame_needed = 0, uses_anonymous_args = 0
 144              		@ link register save eliminated.
 145 0000 90F87430 		ldrb	r3, [r0, #116]	@ zero_extendqisi2
 146 0004 012B     		cmp	r3, #1
 147 0006 12D0     		beq	.L22
 148 0008 0123     		movs	r3, #1
 149 000a 80F87430 		strb	r3, [r0, #116]
 150              	.L21:
 151 000e 0168     		ldr	r1, [r0]
 152 0010 01F10803 		add	r3, r1, #8
 153              		.syntax unified
 154              	@ 1155 "Drivers/CMSIS/Include/cmsis_gcc.h" 1
 155 0014 53E8002F 		ldrex r2, [r3]
 156              	@ 0 "" 2
 157              		.thumb
 158              		.syntax unified
 159 0018 22F40002 		bic	r2, r2, #8388608
 160 001c 1946     		mov	r1, r3
 161              		.syntax unified
 162              	@ 1206 "Drivers/CMSIS/Include/cmsis_gcc.h" 1
 163 001e 41E80023 		strex r3, r2, [r1]
 164              	@ 0 "" 2
 165              		.thumb
 166              		.syntax unified
 167 0022 002B     		cmp	r3, #0
 168 0024 F3D1     		bne	.L21
 169 0026 80F87430 		strb	r3, [r0, #116]
 170 002a 1846     		mov	r0, r3
 171 002c 7047     		bx	lr
 172              	.L22:
 173 002e 0220     		movs	r0, #2
 174 0030 7047     		bx	lr
 176              		.section	.text.HAL_MultiProcessorEx_AddressLength_Set,"ax",%progbits
 177              		.align	1
 178              		.global	HAL_MultiProcessorEx_AddressLength_Set
 179              		.syntax unified
ARM GAS  C:\Users\CL\AppData\Local\Temp\cc2IcYsR.s 			page 4


 180              		.thumb
 181              		.thumb_func
 183              	HAL_MultiProcessorEx_AddressLength_Set:
 184              		@ args = 0, pretend = 0, frame = 0
 185              		@ frame_needed = 0, uses_anonymous_args = 0
 186              		@ link register save eliminated.
 187 0000 88B1     		cbz	r0, .L25
 188 0002 0368     		ldr	r3, [r0]
 189 0004 2422     		movs	r2, #36
 190 0006 8267     		str	r2, [r0, #120]
 191 0008 1A68     		ldr	r2, [r3]
 192 000a 22F00102 		bic	r2, r2, #1
 193 000e 1A60     		str	r2, [r3]
 194 0010 5A68     		ldr	r2, [r3, #4]
 195 0012 22F01002 		bic	r2, r2, #16
 196 0016 1143     		orrs	r1, r1, r2
 197 0018 5960     		str	r1, [r3, #4]
 198 001a 1A68     		ldr	r2, [r3]
 199 001c 42F00102 		orr	r2, r2, #1
 200 0020 1A60     		str	r2, [r3]
 201 0022 FFF7FEBF 		b	UART_CheckIdleState
 202              	.L25:
 203 0026 0120     		movs	r0, #1
 204 0028 7047     		bx	lr
 206              		.section	.text.HAL_UARTEx_StopModeWakeUpSourceConfig,"ax",%progbits
 207              		.align	1
 208              		.global	HAL_UARTEx_StopModeWakeUpSourceConfig
 209              		.syntax unified
 210              		.thumb
 211              		.thumb_func
 213              	HAL_UARTEx_StopModeWakeUpSourceConfig:
 214              		@ args = 0, pretend = 0, frame = 8
 215              		@ frame_needed = 0, uses_anonymous_args = 0
 216 0000 1FB5     		push	{r0, r1, r2, r3, r4, lr}
 217 0002 04AB     		add	r3, sp, #16
 218 0004 03E90600 		stmdb	r3, {r1, r2}
 219 0008 90F87430 		ldrb	r3, [r0, #116]	@ zero_extendqisi2
 220 000c 012B     		cmp	r3, #1
 221 000e 0446     		mov	r4, r0
 222 0010 38D0     		beq	.L30
 223 0012 0123     		movs	r3, #1
 224 0014 80F87430 		strb	r3, [r0, #116]
 225 0018 2423     		movs	r3, #36
 226 001a 8367     		str	r3, [r0, #120]
 227 001c 0368     		ldr	r3, [r0]
 228 001e 1A68     		ldr	r2, [r3]
 229 0020 22F00102 		bic	r2, r2, #1
 230 0024 1A60     		str	r2, [r3]
 231 0026 9A68     		ldr	r2, [r3, #8]
 232 0028 22F44012 		bic	r2, r2, #3145728
 233 002c 0A43     		orrs	r2, r2, r1
 234 002e 9A60     		str	r2, [r3, #8]
 235 0030 71B9     		cbnz	r1, .L28
 236 0032 5968     		ldr	r1, [r3, #4]
 237 0034 BDF80C20 		ldrh	r2, [sp, #12]
 238 0038 9DF80E00 		ldrb	r0, [sp, #14]	@ zero_extendqisi2
 239 003c 21F01001 		bic	r1, r1, #16
ARM GAS  C:\Users\CL\AppData\Local\Temp\cc2IcYsR.s 			page 5


 240 0040 1143     		orrs	r1, r1, r2
 241 0042 5960     		str	r1, [r3, #4]
 242 0044 5A68     		ldr	r2, [r3, #4]
 243 0046 22F07F42 		bic	r2, r2, #-16777216
 244 004a 42EA0062 		orr	r2, r2, r0, lsl #24
 245 004e 5A60     		str	r2, [r3, #4]
 246              	.L28:
 247 0050 1A68     		ldr	r2, [r3]
 248 0052 42F00102 		orr	r2, r2, #1
 249 0056 1A60     		str	r2, [r3]
 250 0058 FFF7FEFF 		bl	HAL_GetTick
 251 005c 6FF07E42 		mvn	r2, #-33554432
 252 0060 0346     		mov	r3, r0
 253 0062 0092     		str	r2, [sp]
 254 0064 4FF48001 		mov	r1, #4194304
 255 0068 0022     		movs	r2, #0
 256 006a 2046     		mov	r0, r4
 257 006c FFF7FEFF 		bl	UART_WaitOnFlagUntilTimeout
 258 0070 30B9     		cbnz	r0, .L31
 259 0072 2023     		movs	r3, #32
 260 0074 A367     		str	r3, [r4, #120]
 261              	.L29:
 262 0076 0023     		movs	r3, #0
 263 0078 84F87430 		strb	r3, [r4, #116]
 264              	.L27:
 265 007c 04B0     		add	sp, sp, #16
 266              		@ sp needed
 267 007e 10BD     		pop	{r4, pc}
 268              	.L31:
 269 0080 0320     		movs	r0, #3
 270 0082 F8E7     		b	.L29
 271              	.L30:
 272 0084 0220     		movs	r0, #2
 273 0086 F9E7     		b	.L27
 275              		.section	.text.HAL_UARTEx_EnableStopMode,"ax",%progbits
 276              		.align	1
 277              		.global	HAL_UARTEx_EnableStopMode
 278              		.syntax unified
 279              		.thumb
 280              		.thumb_func
 282              	HAL_UARTEx_EnableStopMode:
 283              		@ args = 0, pretend = 0, frame = 0
 284              		@ frame_needed = 0, uses_anonymous_args = 0
 285              		@ link register save eliminated.
 286 0000 90F87430 		ldrb	r3, [r0, #116]	@ zero_extendqisi2
 287 0004 012B     		cmp	r3, #1
 288 0006 0FD0     		beq	.L35
 289 0008 0123     		movs	r3, #1
 290 000a 80F87430 		strb	r3, [r0, #116]
 291              	.L34:
 292 000e 0168     		ldr	r1, [r0]
 293              		.syntax unified
 294              	@ 1155 "Drivers/CMSIS/Include/cmsis_gcc.h" 1
 295 0010 51E8002F 		ldrex r2, [r1]
 296              	@ 0 "" 2
 297              		.thumb
 298              		.syntax unified
ARM GAS  C:\Users\CL\AppData\Local\Temp\cc2IcYsR.s 			page 6


 299 0014 42F00202 		orr	r2, r2, #2
 300              		.syntax unified
 301              	@ 1206 "Drivers/CMSIS/Include/cmsis_gcc.h" 1
 302 0018 41E80023 		strex r3, r2, [r1]
 303              	@ 0 "" 2
 304              		.thumb
 305              		.syntax unified
 306 001c 002B     		cmp	r3, #0
 307 001e F6D1     		bne	.L34
 308 0020 80F87430 		strb	r3, [r0, #116]
 309 0024 1846     		mov	r0, r3
 310 0026 7047     		bx	lr
 311              	.L35:
 312 0028 0220     		movs	r0, #2
 313 002a 7047     		bx	lr
 315              		.section	.text.HAL_UARTEx_DisableStopMode,"ax",%progbits
 316              		.align	1
 317              		.global	HAL_UARTEx_DisableStopMode
 318              		.syntax unified
 319              		.thumb
 320              		.thumb_func
 322              	HAL_UARTEx_DisableStopMode:
 323              		@ args = 0, pretend = 0, frame = 0
 324              		@ frame_needed = 0, uses_anonymous_args = 0
 325              		@ link register save eliminated.
 326 0000 90F87430 		ldrb	r3, [r0, #116]	@ zero_extendqisi2
 327 0004 012B     		cmp	r3, #1
 328 0006 0FD0     		beq	.L40
 329 0008 0123     		movs	r3, #1
 330 000a 80F87430 		strb	r3, [r0, #116]
 331              	.L39:
 332 000e 0168     		ldr	r1, [r0]
 333              		.syntax unified
 334              	@ 1155 "Drivers/CMSIS/Include/cmsis_gcc.h" 1
 335 0010 51E8002F 		ldrex r2, [r1]
 336              	@ 0 "" 2
 337              		.thumb
 338              		.syntax unified
 339 0014 22F00202 		bic	r2, r2, #2
 340              		.syntax unified
 341              	@ 1206 "Drivers/CMSIS/Include/cmsis_gcc.h" 1
 342 0018 41E80023 		strex r3, r2, [r1]
 343              	@ 0 "" 2
 344              		.thumb
 345              		.syntax unified
 346 001c 002B     		cmp	r3, #0
 347 001e F6D1     		bne	.L39
 348 0020 80F87430 		strb	r3, [r0, #116]
 349 0024 1846     		mov	r0, r3
 350 0026 7047     		bx	lr
 351              	.L40:
 352 0028 0220     		movs	r0, #2
 353 002a 7047     		bx	lr
 355              		.section	.text.HAL_UARTEx_ReceiveToIdle,"ax",%progbits
 356              		.align	1
 357              		.global	HAL_UARTEx_ReceiveToIdle
 358              		.syntax unified
ARM GAS  C:\Users\CL\AppData\Local\Temp\cc2IcYsR.s 			page 7


 359              		.thumb
 360              		.thumb_func
 362              	HAL_UARTEx_ReceiveToIdle:
 363              		@ args = 4, pretend = 0, frame = 0
 364              		@ frame_needed = 0, uses_anonymous_args = 0
 365 0000 2DE9F84F 		push	{r3, r4, r5, r6, r7, r8, r9, r10, fp, lr}
 366 0004 1E46     		mov	r6, r3
 367 0006 C36F     		ldr	r3, [r0, #124]
 368 0008 DDF82880 		ldr	r8, [sp, #40]
 369 000c 202B     		cmp	r3, #32
 370 000e 0446     		mov	r4, r0
 371 0010 0D46     		mov	r5, r1
 372 0012 1746     		mov	r7, r2
 373 0014 40F08A80 		bne	.L62
 374 0018 0029     		cmp	r1, #0
 375 001a 00F08580 		beq	.L61
 376 001e 002A     		cmp	r2, #0
 377 0020 00F08280 		beq	.L61
 378 0024 90F87430 		ldrb	r3, [r0, #116]	@ zero_extendqisi2
 379 0028 012B     		cmp	r3, #1
 380 002a 7FD0     		beq	.L62
 381 002c 0123     		movs	r3, #1
 382 002e 2222     		movs	r2, #34
 383 0030 4FF0000A 		mov	r10, #0
 384 0034 C0F880A0 		str	r10, [r0, #128]
 385 0038 80F87430 		strb	r3, [r0, #116]
 386 003c C267     		str	r2, [r0, #124]
 387 003e 0366     		str	r3, [r0, #96]
 388 0040 FFF7FEFF 		bl	HAL_GetTick
 389 0044 A368     		ldr	r3, [r4, #8]
 390 0046 A4F85870 		strh	r7, [r4, #88]	@ movhi
 391 004a B3F5805F 		cmp	r3, #4096
 392 004e 8146     		mov	r9, r0
 393 0050 A4F85A70 		strh	r7, [r4, #90]	@ movhi
 394 0054 23D1     		bne	.L44
 395 0056 2269     		ldr	r2, [r4, #16]
 396 0058 FAB9     		cbnz	r2, .L45
 397 005a 40F2FF12 		movw	r2, #511
 398              	.L83:
 399 005e A4F85C20 		strh	r2, [r4, #92]	@ movhi
 400              	.L46:
 401 0062 B3F5805F 		cmp	r3, #4096
 402 0066 B4F85CA0 		ldrh	r10, [r4, #92]
 403 006a 29D1     		bne	.L64
 404 006c 2369     		ldr	r3, [r4, #16]
 405 006e 3BBB     		cbnz	r3, .L64
 406 0070 2F46     		mov	r7, r5
 407 0072 1D46     		mov	r5, r3
 408              	.L50:
 409 0074 0023     		movs	r3, #0
 410 0076 84F87430 		strb	r3, [r4, #116]
 411 007a 4FF0100B 		mov	fp, #16
 412 007e 3380     		strh	r3, [r6]	@ movhi
 413              	.L51:
 414 0080 B4F85A20 		ldrh	r2, [r4, #90]
 415 0084 90B2     		uxth	r0, r2
 416 0086 E8B9     		cbnz	r0, .L58
ARM GAS  C:\Users\CL\AppData\Local\Temp\cc2IcYsR.s 			page 8


 417 0088 B4F85A10 		ldrh	r1, [r4, #90]
 418 008c B4F85830 		ldrh	r3, [r4, #88]
 419 0090 5B1A     		subs	r3, r3, r1
 420 0092 3380     		strh	r3, [r6]	@ movhi
 421 0094 2023     		movs	r3, #32
 422 0096 E367     		str	r3, [r4, #124]
 423 0098 1FE0     		b	.L43
 424              	.L45:
 425 009a FF22     		movs	r2, #255
 426 009c DFE7     		b	.L83
 427              	.L44:
 428 009e 23B9     		cbnz	r3, .L47
 429 00a0 2269     		ldr	r2, [r4, #16]
 430 00a2 002A     		cmp	r2, #0
 431 00a4 F9D0     		beq	.L45
 432              	.L49:
 433 00a6 7F22     		movs	r2, #127
 434 00a8 D9E7     		b	.L83
 435              	.L47:
 436 00aa B3F1805F 		cmp	r3, #268435456
 437 00ae 04D1     		bne	.L48
 438 00b0 2269     		ldr	r2, [r4, #16]
 439 00b2 002A     		cmp	r2, #0
 440 00b4 F7D0     		beq	.L49
 441 00b6 3F22     		movs	r2, #63
 442 00b8 D1E7     		b	.L83
 443              	.L48:
 444 00ba A4F85CA0 		strh	r10, [r4, #92]	@ movhi
 445 00be D0E7     		b	.L46
 446              	.L64:
 447 00c0 0027     		movs	r7, #0
 448 00c2 D7E7     		b	.L50
 449              	.L58:
 450 00c4 2368     		ldr	r3, [r4]
 451 00c6 DA69     		ldr	r2, [r3, #28]
 452 00c8 D106     		lsls	r1, r2, #27
 453 00ca 08D5     		bpl	.L52
 454 00cc 3288     		ldrh	r2, [r6]
 455 00ce C3F820B0 		str	fp, [r3, #32]
 456 00d2 22B1     		cbz	r2, .L52
 457 00d4 2023     		movs	r3, #32
 458 00d6 E367     		str	r3, [r4, #124]
 459 00d8 0020     		movs	r0, #0
 460              	.L43:
 461 00da BDE8F88F 		pop	{r3, r4, r5, r6, r7, r8, r9, r10, fp, pc}
 462              	.L52:
 463 00de DA69     		ldr	r2, [r3, #28]
 464 00e0 9206     		lsls	r2, r2, #26
 465 00e2 0ED5     		bpl	.L53
 466 00e4 9B8C     		ldrh	r3, [r3, #36]
 467 00e6 0AEA0303 		and	r3, r10, r3
 468 00ea D5B9     		cbnz	r5, .L54
 469 00ec 27F8023B 		strh	r3, [r7], #2	@ movhi
 470              	.L55:
 471 00f0 3388     		ldrh	r3, [r6]
 472 00f2 0133     		adds	r3, r3, #1
 473 00f4 3380     		strh	r3, [r6]	@ movhi
ARM GAS  C:\Users\CL\AppData\Local\Temp\cc2IcYsR.s 			page 9


 474 00f6 B4F85A30 		ldrh	r3, [r4, #90]
 475 00fa 013B     		subs	r3, r3, #1
 476 00fc 9BB2     		uxth	r3, r3
 477 00fe A4F85A30 		strh	r3, [r4, #90]	@ movhi
 478              	.L53:
 479 0102 B8F1FF3F 		cmp	r8, #-1
 480 0106 BBD0     		beq	.L51
 481 0108 FFF7FEFF 		bl	HAL_GetTick
 482 010c A0EB0900 		sub	r0, r0, r9
 483 0110 4045     		cmp	r0, r8
 484 0112 02D8     		bhi	.L57
 485 0114 B8F1000F 		cmp	r8, #0
 486 0118 B2D1     		bne	.L51
 487              	.L57:
 488 011a 2023     		movs	r3, #32
 489 011c E367     		str	r3, [r4, #124]
 490 011e 0320     		movs	r0, #3
 491 0120 DBE7     		b	.L43
 492              	.L54:
 493 0122 05F8013B 		strb	r3, [r5], #1
 494 0126 E3E7     		b	.L55
 495              	.L61:
 496 0128 0120     		movs	r0, #1
 497 012a D6E7     		b	.L43
 498              	.L62:
 499 012c 0220     		movs	r0, #2
 500 012e D4E7     		b	.L43
 502              		.section	.text.HAL_UARTEx_ReceiveToIdle_IT,"ax",%progbits
 503              		.align	1
 504              		.global	HAL_UARTEx_ReceiveToIdle_IT
 505              		.syntax unified
 506              		.thumb
 507              		.thumb_func
 509              	HAL_UARTEx_ReceiveToIdle_IT:
 510              		@ args = 0, pretend = 0, frame = 0
 511              		@ frame_needed = 0, uses_anonymous_args = 0
 512 0000 70B5     		push	{r4, r5, r6, lr}
 513 0002 C66F     		ldr	r6, [r0, #124]
 514 0004 202E     		cmp	r6, #32
 515 0006 0446     		mov	r4, r0
 516 0008 20D1     		bne	.L90
 517 000a 09B9     		cbnz	r1, .L86
 518              	.L87:
 519 000c 0120     		movs	r0, #1
 520              	.L85:
 521 000e 70BD     		pop	{r4, r5, r6, pc}
 522              	.L86:
 523 0010 002A     		cmp	r2, #0
 524 0012 FBD0     		beq	.L87
 525 0014 90F87430 		ldrb	r3, [r0, #116]	@ zero_extendqisi2
 526 0018 012B     		cmp	r3, #1
 527 001a 17D0     		beq	.L90
 528 001c 0123     		movs	r3, #1
 529 001e 80F87430 		strb	r3, [r0, #116]
 530 0022 0366     		str	r3, [r0, #96]
 531 0024 FFF7FEFF 		bl	UART_Start_Receive_IT
 532 0028 0028     		cmp	r0, #0
ARM GAS  C:\Users\CL\AppData\Local\Temp\cc2IcYsR.s 			page 10


 533 002a F0D1     		bne	.L85
 534 002c 236E     		ldr	r3, [r4, #96]
 535 002e 012B     		cmp	r3, #1
 536 0030 ECD1     		bne	.L87
 537 0032 2368     		ldr	r3, [r4]
 538 0034 1022     		movs	r2, #16
 539 0036 1A62     		str	r2, [r3, #32]
 540 0038 2268     		ldr	r2, [r4]
 541              	.L88:
 542              		.syntax unified
 543              	@ 1155 "Drivers/CMSIS/Include/cmsis_gcc.h" 1
 544 003a 52E8003F 		ldrex r3, [r2]
 545              	@ 0 "" 2
 546              		.thumb
 547              		.syntax unified
 548 003e 43F01003 		orr	r3, r3, #16
 549              		.syntax unified
 550              	@ 1206 "Drivers/CMSIS/Include/cmsis_gcc.h" 1
 551 0042 42E80031 		strex r1, r3, [r2]
 552              	@ 0 "" 2
 553              		.thumb
 554              		.syntax unified
 555 0046 0029     		cmp	r1, #0
 556 0048 F7D1     		bne	.L88
 557 004a E0E7     		b	.L85
 558              	.L90:
 559 004c 0220     		movs	r0, #2
 560 004e DEE7     		b	.L85
 562              		.section	.text.HAL_UARTEx_ReceiveToIdle_DMA,"ax",%progbits
 563              		.align	1
 564              		.global	HAL_UARTEx_ReceiveToIdle_DMA
 565              		.syntax unified
 566              		.thumb
 567              		.thumb_func
 569              	HAL_UARTEx_ReceiveToIdle_DMA:
 570              		@ args = 0, pretend = 0, frame = 0
 571              		@ frame_needed = 0, uses_anonymous_args = 0
 572 0000 70B5     		push	{r4, r5, r6, lr}
 573 0002 C66F     		ldr	r6, [r0, #124]
 574 0004 202E     		cmp	r6, #32
 575 0006 0446     		mov	r4, r0
 576 0008 20D1     		bne	.L101
 577 000a 09B9     		cbnz	r1, .L97
 578              	.L98:
 579 000c 0120     		movs	r0, #1
 580              	.L96:
 581 000e 70BD     		pop	{r4, r5, r6, pc}
 582              	.L97:
 583 0010 002A     		cmp	r2, #0
 584 0012 FBD0     		beq	.L98
 585 0014 90F87430 		ldrb	r3, [r0, #116]	@ zero_extendqisi2
 586 0018 012B     		cmp	r3, #1
 587 001a 17D0     		beq	.L101
 588 001c 0123     		movs	r3, #1
 589 001e 80F87430 		strb	r3, [r0, #116]
 590 0022 0366     		str	r3, [r0, #96]
 591 0024 FFF7FEFF 		bl	UART_Start_Receive_DMA
ARM GAS  C:\Users\CL\AppData\Local\Temp\cc2IcYsR.s 			page 11


 592 0028 0028     		cmp	r0, #0
 593 002a F0D1     		bne	.L96
 594 002c 236E     		ldr	r3, [r4, #96]
 595 002e 012B     		cmp	r3, #1
 596 0030 ECD1     		bne	.L98
 597 0032 2368     		ldr	r3, [r4]
 598 0034 1022     		movs	r2, #16
 599 0036 1A62     		str	r2, [r3, #32]
 600 0038 2268     		ldr	r2, [r4]
 601              	.L99:
 602              		.syntax unified
 603              	@ 1155 "Drivers/CMSIS/Include/cmsis_gcc.h" 1
 604 003a 52E8003F 		ldrex r3, [r2]
 605              	@ 0 "" 2
 606              		.thumb
 607              		.syntax unified
 608 003e 43F01003 		orr	r3, r3, #16
 609              		.syntax unified
 610              	@ 1206 "Drivers/CMSIS/Include/cmsis_gcc.h" 1
 611 0042 42E80031 		strex r1, r3, [r2]
 612              	@ 0 "" 2
 613              		.thumb
 614              		.syntax unified
 615 0046 0029     		cmp	r1, #0
 616 0048 F7D1     		bne	.L99
 617 004a E0E7     		b	.L96
 618              	.L101:
 619 004c 0220     		movs	r0, #2
 620 004e DEE7     		b	.L96
 622              		.ident	"GCC: (GNU Arm Embedded Toolchain 10.3-2021.10) 10.3.1 20210824 (release)"
ARM GAS  C:\Users\CL\AppData\Local\Temp\cc2IcYsR.s 			page 12

