ARM GAS  C:\Users\CL\AppData\Local\Temp\ccvLgiZE.s 			page 1


   1              		.cpu cortex-m4
   2              		.arch armv7e-m
   3              		.fpu fpv4-sp-d16
   4              		.eabi_attribute 27, 1
   5              		.eabi_attribute 28, 1
   6              		.eabi_attribute 20, 1
   7              		.eabi_attribute 21, 1
   8              		.eabi_attribute 23, 3
   9              		.eabi_attribute 24, 1
  10              		.eabi_attribute 25, 1
  11              		.eabi_attribute 26, 1
  12              		.eabi_attribute 30, 4
  13              		.eabi_attribute 34, 1
  14              		.eabi_attribute 18, 4
  15              		.file	"stm32l4xx_hal_spi.c"
  16              		.text
  17              		.section	.text.SPI_WaitFifoStateUntilTimeout.constprop.0,"ax",%progbits
  18              		.align	1
  19              		.syntax unified
  20              		.thumb
  21              		.thumb_func
  23              	SPI_WaitFifoStateUntilTimeout.constprop.0:
  24              		@ args = 0, pretend = 0, frame = 8
  25              		@ frame_needed = 0, uses_anonymous_args = 0
  26 0000 2DE9F743 		push	{r0, r1, r2, r4, r5, r6, r7, r8, r9, lr}
  27 0004 9846     		mov	r8, r3
  28 0006 0023     		movs	r3, #0
  29 0008 1746     		mov	r7, r2
  30 000a 8DF80330 		strb	r3, [sp, #3]
  31 000e 0546     		mov	r5, r0
  32 0010 0E46     		mov	r6, r1
  33 0012 FFF7FEFF 		bl	HAL_GetTick
  34 0016 B844     		add	r8, r8, r7
  35 0018 A8EB0004 		sub	r4, r8, r0
  36 001c FFF7FEFF 		bl	HAL_GetTick
  37 0020 294B     		ldr	r3, .L18
  38 0022 D5F80090 		ldr	r9, [r5]
  39 0026 1B68     		ldr	r3, [r3]
  40 0028 2322     		movs	r2, #35
  41 002a 5343     		muls	r3, r2, r3
  42 002c 1B0D     		lsrs	r3, r3, #20
  43 002e 8046     		mov	r8, r0
  44 0030 6343     		muls	r3, r4, r3
  45              	.L17:
  46 0032 2A68     		ldr	r2, [r5]
  47 0034 0193     		str	r3, [sp, #4]
  48              	.L4:
  49 0036 9368     		ldr	r3, [r2, #8]
  50 0038 3340     		ands	r3, r6, r3
  51 003a 01D1     		bne	.L11
  52 003c 1846     		mov	r0, r3
  53 003e 38E0     		b	.L9
  54              	.L11:
  55 0040 B6F5C06F 		cmp	r6, #1536
  56 0044 01BF     		itttt	eq
  57 0046 99F80C30 		ldrbeq	r3, [r9, #12]	@ zero_extendqisi2
  58 004a DBB2     		uxtbeq	r3, r3
ARM GAS  C:\Users\CL\AppData\Local\Temp\ccvLgiZE.s 			page 2


  59 004c 8DF80330 		strbeq	r3, [sp, #3]
  60 0050 9DF80330 		ldrbeq	r3, [sp, #3]	@ zero_extendqisi2
  61 0054 7B1C     		adds	r3, r7, #1
  62 0056 EED0     		beq	.L4
  63 0058 FFF7FEFF 		bl	HAL_GetTick
  64 005c A0EB0800 		sub	r0, r0, r8
  65 0060 A042     		cmp	r0, r4
  66 0062 29D3     		bcc	.L5
  67 0064 2B68     		ldr	r3, [r5]
  68 0066 5A68     		ldr	r2, [r3, #4]
  69 0068 22F0E002 		bic	r2, r2, #224
  70 006c 5A60     		str	r2, [r3, #4]
  71 006e 6A68     		ldr	r2, [r5, #4]
  72 0070 B2F5827F 		cmp	r2, #260
  73 0074 0AD1     		bne	.L6
  74 0076 AA68     		ldr	r2, [r5, #8]
  75 0078 B2F5004F 		cmp	r2, #32768
  76 007c 02D0     		beq	.L7
  77 007e B2F5806F 		cmp	r2, #1024
  78 0082 03D1     		bne	.L6
  79              	.L7:
  80 0084 1A68     		ldr	r2, [r3]
  81 0086 22F04002 		bic	r2, r2, #64
  82 008a 1A60     		str	r2, [r3]
  83              	.L6:
  84 008c AA6A     		ldr	r2, [r5, #40]
  85 008e B2F5005F 		cmp	r2, #8192
  86 0092 07D1     		bne	.L8
  87 0094 1A68     		ldr	r2, [r3]
  88 0096 22F40052 		bic	r2, r2, #8192
  89 009a 1A60     		str	r2, [r3]
  90 009c 1A68     		ldr	r2, [r3]
  91 009e 42F40052 		orr	r2, r2, #8192
  92 00a2 1A60     		str	r2, [r3]
  93              	.L8:
  94 00a4 0123     		movs	r3, #1
  95 00a6 85F85D30 		strb	r3, [r5, #93]
  96 00aa 0023     		movs	r3, #0
  97 00ac 85F85C30 		strb	r3, [r5, #92]
  98 00b0 0320     		movs	r0, #3
  99              	.L9:
 100 00b2 03B0     		add	sp, sp, #12
 101              		@ sp needed
 102 00b4 BDE8F083 		pop	{r4, r5, r6, r7, r8, r9, pc}
 103              	.L5:
 104 00b8 019B     		ldr	r3, [sp, #4]
 105 00ba 002B     		cmp	r3, #0
 106 00bc 019B     		ldr	r3, [sp, #4]
 107 00be 08BF     		it	eq
 108 00c0 0024     		moveq	r4, #0
 109 00c2 013B     		subs	r3, r3, #1
 110 00c4 B5E7     		b	.L17
 111              	.L19:
 112 00c6 00BF     		.align	2
 113              	.L18:
 114 00c8 00000000 		.word	SystemCoreClock
 116              		.section	.text.SPI_WaitFlagStateUntilTimeout.constprop.0,"ax",%progbits
ARM GAS  C:\Users\CL\AppData\Local\Temp\ccvLgiZE.s 			page 3


 117              		.align	1
 118              		.syntax unified
 119              		.thumb
 120              		.thumb_func
 122              	SPI_WaitFlagStateUntilTimeout.constprop.0:
 123              		@ args = 0, pretend = 0, frame = 8
 124              		@ frame_needed = 0, uses_anonymous_args = 0
 125 0000 F7B5     		push	{r0, r1, r2, r4, r5, r6, r7, lr}
 126 0002 0E46     		mov	r6, r1
 127 0004 1746     		mov	r7, r2
 128 0006 0546     		mov	r5, r0
 129 0008 FFF7FEFF 		bl	HAL_GetTick
 130 000c 3744     		add	r7, r7, r6
 131 000e 3C1A     		subs	r4, r7, r0
 132 0010 FFF7FEFF 		bl	HAL_GetTick
 133 0014 224B     		ldr	r3, .L36
 134 0016 1B68     		ldr	r3, [r3]
 135 0018 C3F3CB33 		ubfx	r3, r3, #15, #12
 136 001c 0746     		mov	r7, r0
 137 001e 6343     		muls	r3, r4, r3
 138              	.L35:
 139 0020 2A68     		ldr	r2, [r5]
 140 0022 0193     		str	r3, [sp, #4]
 141              	.L22:
 142 0024 9368     		ldr	r3, [r2, #8]
 143 0026 13F08003 		ands	r3, r3, #128
 144 002a 01D1     		bne	.L29
 145 002c 1846     		mov	r0, r3
 146 002e 2DE0     		b	.L27
 147              	.L29:
 148 0030 731C     		adds	r3, r6, #1
 149 0032 F7D0     		beq	.L22
 150 0034 FFF7FEFF 		bl	HAL_GetTick
 151 0038 C01B     		subs	r0, r0, r7
 152 003a A042     		cmp	r0, r4
 153 003c 28D3     		bcc	.L23
 154 003e 2B68     		ldr	r3, [r5]
 155 0040 5A68     		ldr	r2, [r3, #4]
 156 0042 22F0E002 		bic	r2, r2, #224
 157 0046 5A60     		str	r2, [r3, #4]
 158 0048 6A68     		ldr	r2, [r5, #4]
 159 004a B2F5827F 		cmp	r2, #260
 160 004e 0AD1     		bne	.L24
 161 0050 AA68     		ldr	r2, [r5, #8]
 162 0052 B2F5004F 		cmp	r2, #32768
 163 0056 02D0     		beq	.L25
 164 0058 B2F5806F 		cmp	r2, #1024
 165 005c 03D1     		bne	.L24
 166              	.L25:
 167 005e 1A68     		ldr	r2, [r3]
 168 0060 22F04002 		bic	r2, r2, #64
 169 0064 1A60     		str	r2, [r3]
 170              	.L24:
 171 0066 AA6A     		ldr	r2, [r5, #40]
 172 0068 B2F5005F 		cmp	r2, #8192
 173 006c 07D1     		bne	.L26
 174 006e 1A68     		ldr	r2, [r3]
ARM GAS  C:\Users\CL\AppData\Local\Temp\ccvLgiZE.s 			page 4


 175 0070 22F40052 		bic	r2, r2, #8192
 176 0074 1A60     		str	r2, [r3]
 177 0076 1A68     		ldr	r2, [r3]
 178 0078 42F40052 		orr	r2, r2, #8192
 179 007c 1A60     		str	r2, [r3]
 180              	.L26:
 181 007e 0123     		movs	r3, #1
 182 0080 85F85D30 		strb	r3, [r5, #93]
 183 0084 0023     		movs	r3, #0
 184 0086 85F85C30 		strb	r3, [r5, #92]
 185 008a 0320     		movs	r0, #3
 186              	.L27:
 187 008c 03B0     		add	sp, sp, #12
 188              		@ sp needed
 189 008e F0BD     		pop	{r4, r5, r6, r7, pc}
 190              	.L23:
 191 0090 019B     		ldr	r3, [sp, #4]
 192 0092 002B     		cmp	r3, #0
 193 0094 019B     		ldr	r3, [sp, #4]
 194 0096 08BF     		it	eq
 195 0098 0024     		moveq	r4, #0
 196 009a 013B     		subs	r3, r3, #1
 197 009c C0E7     		b	.L35
 198              	.L37:
 199 009e 00BF     		.align	2
 200              	.L36:
 201 00a0 00000000 		.word	SystemCoreClock
 203              		.section	.text.SPI_AbortRx_ISR,"ax",%progbits
 204              		.align	1
 205              		.syntax unified
 206              		.thumb
 207              		.thumb_func
 209              	SPI_AbortRx_ISR:
 210              		@ args = 0, pretend = 0, frame = 8
 211              		@ frame_needed = 0, uses_anonymous_args = 0
 212 0000 0368     		ldr	r3, [r0]
 213 0002 1A68     		ldr	r2, [r3]
 214 0004 13B5     		push	{r0, r1, r4, lr}
 215 0006 22F04002 		bic	r2, r2, #64
 216 000a 1A60     		str	r2, [r3]
 217 000c 1A4A     		ldr	r2, .L51
 218 000e 45F6C051 		movw	r1, #24000
 219 0012 1268     		ldr	r2, [r2]
 220 0014 B2FBF1F2 		udiv	r2, r2, r1
 221 0018 6421     		movs	r1, #100
 222 001a 4A43     		muls	r2, r1, r2
 223 001c 0192     		str	r2, [sp, #4]
 224 001e 5A68     		ldr	r2, [r3, #4]
 225 0020 22F04002 		bic	r2, r2, #64
 226 0024 0446     		mov	r4, r0
 227 0026 5A60     		str	r2, [r3, #4]
 228              	.L41:
 229 0028 019A     		ldr	r2, [sp, #4]
 230 002a F2B9     		cbnz	r2, .L39
 231 002c 236E     		ldr	r3, [r4, #96]
 232 002e 43F04003 		orr	r3, r3, #64
 233 0032 2366     		str	r3, [r4, #96]
ARM GAS  C:\Users\CL\AppData\Local\Temp\ccvLgiZE.s 			page 5


 234              	.L40:
 235 0034 FFF7FEFF 		bl	HAL_GetTick
 236 0038 6421     		movs	r1, #100
 237 003a 0246     		mov	r2, r0
 238 003c 2046     		mov	r0, r4
 239 003e FFF7FEFF 		bl	SPI_WaitFlagStateUntilTimeout.constprop.0
 240 0042 08B1     		cbz	r0, .L42
 241 0044 4023     		movs	r3, #64
 242 0046 2366     		str	r3, [r4, #96]
 243              	.L42:
 244 0048 FFF7FEFF 		bl	HAL_GetTick
 245 004c 6422     		movs	r2, #100
 246 004e 0346     		mov	r3, r0
 247 0050 4FF4C061 		mov	r1, #1536
 248 0054 2046     		mov	r0, r4
 249 0056 FFF7FEFF 		bl	SPI_WaitFifoStateUntilTimeout.constprop.0
 250 005a 08B1     		cbz	r0, .L43
 251 005c 4023     		movs	r3, #64
 252 005e 2366     		str	r3, [r4, #96]
 253              	.L43:
 254 0060 0723     		movs	r3, #7
 255 0062 84F85D30 		strb	r3, [r4, #93]
 256 0066 02B0     		add	sp, sp, #8
 257              		@ sp needed
 258 0068 10BD     		pop	{r4, pc}
 259              	.L39:
 260 006a 019A     		ldr	r2, [sp, #4]
 261 006c 013A     		subs	r2, r2, #1
 262 006e 0192     		str	r2, [sp, #4]
 263 0070 5A68     		ldr	r2, [r3, #4]
 264 0072 5206     		lsls	r2, r2, #25
 265 0074 D8D4     		bmi	.L41
 266 0076 DDE7     		b	.L40
 267              	.L52:
 268              		.align	2
 269              	.L51:
 270 0078 00000000 		.word	SystemCoreClock
 272              		.section	.text.SPI_EndRxTransaction,"ax",%progbits
 273              		.align	1
 274              		.syntax unified
 275              		.thumb
 276              		.thumb_func
 278              	SPI_EndRxTransaction:
 279              		@ args = 0, pretend = 0, frame = 8
 280              		@ frame_needed = 0, uses_anonymous_args = 0
 281 0000 1346     		mov	r3, r2
 282 0002 4268     		ldr	r2, [r0, #4]
 283 0004 B2F5827F 		cmp	r2, #260
 284 0008 73B5     		push	{r0, r1, r4, r5, r6, lr}
 285 000a 0446     		mov	r4, r0
 286 000c 0E46     		mov	r6, r1
 287 000e 0BD1     		bne	.L54
 288 0010 8268     		ldr	r2, [r0, #8]
 289 0012 B2F5004F 		cmp	r2, #32768
 290 0016 02D0     		beq	.L55
 291 0018 B2F5806F 		cmp	r2, #1024
 292 001c 04D1     		bne	.L54
ARM GAS  C:\Users\CL\AppData\Local\Temp\ccvLgiZE.s 			page 6


 293              	.L55:
 294 001e 2068     		ldr	r0, [r4]
 295 0020 0268     		ldr	r2, [r0]
 296 0022 22F04002 		bic	r2, r2, #64
 297 0026 0260     		str	r2, [r0]
 298              	.L54:
 299 0028 1A46     		mov	r2, r3
 300 002a 3146     		mov	r1, r6
 301 002c 2046     		mov	r0, r4
 302 002e 0193     		str	r3, [sp, #4]
 303 0030 FFF7FEFF 		bl	SPI_WaitFlagStateUntilTimeout.constprop.0
 304 0034 019B     		ldr	r3, [sp, #4]
 305 0036 0546     		mov	r5, r0
 306 0038 28B1     		cbz	r0, .L56
 307              	.L70:
 308 003a 236E     		ldr	r3, [r4, #96]
 309 003c 43F02003 		orr	r3, r3, #32
 310 0040 2366     		str	r3, [r4, #96]
 311 0042 0325     		movs	r5, #3
 312 0044 12E0     		b	.L57
 313              	.L56:
 314 0046 6268     		ldr	r2, [r4, #4]
 315 0048 B2F5827F 		cmp	r2, #260
 316 004c 0ED1     		bne	.L57
 317 004e A268     		ldr	r2, [r4, #8]
 318 0050 B2F5004F 		cmp	r2, #32768
 319 0054 02D0     		beq	.L59
 320 0056 B2F5806F 		cmp	r2, #1024
 321 005a 07D1     		bne	.L57
 322              	.L59:
 323 005c 3246     		mov	r2, r6
 324 005e 4FF4C061 		mov	r1, #1536
 325 0062 2046     		mov	r0, r4
 326 0064 FFF7FEFF 		bl	SPI_WaitFifoStateUntilTimeout.constprop.0
 327 0068 0028     		cmp	r0, #0
 328 006a E6D1     		bne	.L70
 329              	.L57:
 330 006c 2846     		mov	r0, r5
 331 006e 02B0     		add	sp, sp, #8
 332              		@ sp needed
 333 0070 70BD     		pop	{r4, r5, r6, pc}
 335              		.section	.text.SPI_EndRxTxTransaction,"ax",%progbits
 336              		.align	1
 337              		.syntax unified
 338              		.thumb
 339              		.thumb_func
 341              	SPI_EndRxTxTransaction:
 342              		@ args = 0, pretend = 0, frame = 8
 343              		@ frame_needed = 0, uses_anonymous_args = 0
 344 0000 37B5     		push	{r0, r1, r2, r4, r5, lr}
 345 0002 1346     		mov	r3, r2
 346 0004 0192     		str	r2, [sp, #4]
 347 0006 0D46     		mov	r5, r1
 348 0008 0A46     		mov	r2, r1
 349 000a 4FF4C051 		mov	r1, #6144
 350 000e 0446     		mov	r4, r0
 351 0010 FFF7FEFF 		bl	SPI_WaitFifoStateUntilTimeout.constprop.0
ARM GAS  C:\Users\CL\AppData\Local\Temp\ccvLgiZE.s 			page 7


 352 0014 019B     		ldr	r3, [sp, #4]
 353 0016 28B1     		cbz	r0, .L72
 354              	.L78:
 355 0018 236E     		ldr	r3, [r4, #96]
 356 001a 43F02003 		orr	r3, r3, #32
 357 001e 2366     		str	r3, [r4, #96]
 358 0020 0320     		movs	r0, #3
 359 0022 10E0     		b	.L73
 360              	.L72:
 361 0024 1A46     		mov	r2, r3
 362 0026 2946     		mov	r1, r5
 363 0028 2046     		mov	r0, r4
 364 002a 0193     		str	r3, [sp, #4]
 365 002c FFF7FEFF 		bl	SPI_WaitFlagStateUntilTimeout.constprop.0
 366 0030 019B     		ldr	r3, [sp, #4]
 367 0032 0028     		cmp	r0, #0
 368 0034 F0D1     		bne	.L78
 369 0036 2A46     		mov	r2, r5
 370 0038 4FF4C061 		mov	r1, #1536
 371 003c 2046     		mov	r0, r4
 372 003e FFF7FEFF 		bl	SPI_WaitFifoStateUntilTimeout.constprop.0
 373 0042 0028     		cmp	r0, #0
 374 0044 E8D1     		bne	.L78
 375              	.L73:
 376 0046 03B0     		add	sp, sp, #12
 377              		@ sp needed
 378 0048 30BD     		pop	{r4, r5, pc}
 380              		.section	.text.SPI_AbortTx_ISR,"ax",%progbits
 381              		.align	1
 382              		.syntax unified
 383              		.thumb
 384              		.thumb_func
 386              	SPI_AbortTx_ISR:
 387              		@ args = 0, pretend = 0, frame = 8
 388              		@ frame_needed = 0, uses_anonymous_args = 0
 389 0000 13B5     		push	{r0, r1, r4, lr}
 390 0002 344B     		ldr	r3, .L106
 391 0004 45F6C052 		movw	r2, #24000
 392 0008 1B68     		ldr	r3, [r3]
 393 000a B3FBF2F3 		udiv	r3, r3, r2
 394 000e 6422     		movs	r2, #100
 395 0010 5343     		muls	r3, r2, r3
 396 0012 0193     		str	r3, [sp, #4]
 397 0014 0368     		ldr	r3, [r0]
 398 0016 5A68     		ldr	r2, [r3, #4]
 399 0018 22F08002 		bic	r2, r2, #128
 400 001c 0446     		mov	r4, r0
 401 001e 5A60     		str	r2, [r3, #4]
 402              	.L82:
 403 0020 019A     		ldr	r2, [sp, #4]
 404 0022 002A     		cmp	r2, #0
 405 0024 47D1     		bne	.L80
 406 0026 236E     		ldr	r3, [r4, #96]
 407 0028 43F04003 		orr	r3, r3, #64
 408 002c 2366     		str	r3, [r4, #96]
 409              	.L81:
 410 002e FFF7FEFF 		bl	HAL_GetTick
ARM GAS  C:\Users\CL\AppData\Local\Temp\ccvLgiZE.s 			page 8


 411 0032 6421     		movs	r1, #100
 412 0034 0246     		mov	r2, r0
 413 0036 2046     		mov	r0, r4
 414 0038 FFF7FEFF 		bl	SPI_EndRxTxTransaction
 415 003c 08B1     		cbz	r0, .L83
 416 003e 4023     		movs	r3, #64
 417 0040 2366     		str	r3, [r4, #96]
 418              	.L83:
 419 0042 2268     		ldr	r2, [r4]
 420 0044 1368     		ldr	r3, [r2]
 421 0046 23F04003 		bic	r3, r3, #64
 422 004a 1360     		str	r3, [r2]
 423 004c FFF7FEFF 		bl	HAL_GetTick
 424 0050 6422     		movs	r2, #100
 425 0052 0346     		mov	r3, r0
 426 0054 4FF4C061 		mov	r1, #1536
 427 0058 2046     		mov	r0, r4
 428 005a FFF7FEFF 		bl	SPI_WaitFifoStateUntilTimeout.constprop.0
 429 005e 08B1     		cbz	r0, .L84
 430 0060 4023     		movs	r3, #64
 431 0062 2366     		str	r3, [r4, #96]
 432              	.L84:
 433 0064 2368     		ldr	r3, [r4]
 434 0066 5A68     		ldr	r2, [r3, #4]
 435 0068 5106     		lsls	r1, r2, #25
 436 006a 1FD5     		bpl	.L86
 437 006c 5A68     		ldr	r2, [r3, #4]
 438 006e 22F04002 		bic	r2, r2, #64
 439 0072 5A60     		str	r2, [r3, #4]
 440              	.L89:
 441 0074 019A     		ldr	r2, [sp, #4]
 442 0076 2ABB     		cbnz	r2, .L87
 443 0078 236E     		ldr	r3, [r4, #96]
 444 007a 43F04003 		orr	r3, r3, #64
 445 007e 2366     		str	r3, [r4, #96]
 446              	.L88:
 447 0080 FFF7FEFF 		bl	HAL_GetTick
 448 0084 6421     		movs	r1, #100
 449 0086 0246     		mov	r2, r0
 450 0088 2046     		mov	r0, r4
 451 008a FFF7FEFF 		bl	SPI_WaitFlagStateUntilTimeout.constprop.0
 452 008e 08B1     		cbz	r0, .L90
 453 0090 4023     		movs	r3, #64
 454 0092 2366     		str	r3, [r4, #96]
 455              	.L90:
 456 0094 FFF7FEFF 		bl	HAL_GetTick
 457 0098 6422     		movs	r2, #100
 458 009a 0346     		mov	r3, r0
 459 009c 4FF4C061 		mov	r1, #1536
 460 00a0 2046     		mov	r0, r4
 461 00a2 FFF7FEFF 		bl	SPI_WaitFifoStateUntilTimeout.constprop.0
 462 00a6 08B1     		cbz	r0, .L86
 463 00a8 4023     		movs	r3, #64
 464 00aa 2366     		str	r3, [r4, #96]
 465              	.L86:
 466 00ac 0723     		movs	r3, #7
 467 00ae 84F85D30 		strb	r3, [r4, #93]
ARM GAS  C:\Users\CL\AppData\Local\Temp\ccvLgiZE.s 			page 9


 468 00b2 02B0     		add	sp, sp, #8
 469              		@ sp needed
 470 00b4 10BD     		pop	{r4, pc}
 471              	.L80:
 472 00b6 019A     		ldr	r2, [sp, #4]
 473 00b8 013A     		subs	r2, r2, #1
 474 00ba 0192     		str	r2, [sp, #4]
 475 00bc 5A68     		ldr	r2, [r3, #4]
 476 00be 1006     		lsls	r0, r2, #24
 477 00c0 AED4     		bmi	.L82
 478 00c2 B4E7     		b	.L81
 479              	.L87:
 480 00c4 019A     		ldr	r2, [sp, #4]
 481 00c6 013A     		subs	r2, r2, #1
 482 00c8 0192     		str	r2, [sp, #4]
 483 00ca 5A68     		ldr	r2, [r3, #4]
 484 00cc 5206     		lsls	r2, r2, #25
 485 00ce D1D4     		bmi	.L89
 486 00d0 D6E7     		b	.L88
 487              	.L107:
 488 00d2 00BF     		.align	2
 489              	.L106:
 490 00d4 00000000 		.word	SystemCoreClock
 492              		.section	.text.HAL_SPI_MspInit,"ax",%progbits
 493              		.align	1
 494              		.weak	HAL_SPI_MspInit
 495              		.syntax unified
 496              		.thumb
 497              		.thumb_func
 499              	HAL_SPI_MspInit:
 500              		@ args = 0, pretend = 0, frame = 0
 501              		@ frame_needed = 0, uses_anonymous_args = 0
 502              		@ link register save eliminated.
 503 0000 7047     		bx	lr
 505              		.section	.text.HAL_SPI_Init,"ax",%progbits
 506              		.align	1
 507              		.global	HAL_SPI_Init
 508              		.syntax unified
 509              		.thumb
 510              		.thumb_func
 512              	HAL_SPI_Init:
 513              		@ args = 0, pretend = 0, frame = 0
 514              		@ frame_needed = 0, uses_anonymous_args = 0
 515 0000 70B5     		push	{r4, r5, r6, lr}
 516 0002 0446     		mov	r4, r0
 517 0004 0028     		cmp	r0, #0
 518 0006 5FD0     		beq	.L118
 519 0008 436A     		ldr	r3, [r0, #36]
 520 000a 002B     		cmp	r3, #0
 521 000c 58D1     		bne	.L111
 522 000e 4268     		ldr	r2, [r0, #4]
 523 0010 B2F5827F 		cmp	r2, #260
 524 0014 00D0     		beq	.L112
 525 0016 C361     		str	r3, [r0, #28]
 526              	.L112:
 527 0018 0023     		movs	r3, #0
 528 001a A362     		str	r3, [r4, #40]
ARM GAS  C:\Users\CL\AppData\Local\Temp\ccvLgiZE.s 			page 10


 529 001c 94F85D30 		ldrb	r3, [r4, #93]	@ zero_extendqisi2
 530 0020 03F0FF02 		and	r2, r3, #255
 531 0024 23B9     		cbnz	r3, .L113
 532 0026 84F85C20 		strb	r2, [r4, #92]
 533 002a 2046     		mov	r0, r4
 534 002c FFF7FEFF 		bl	HAL_SPI_MspInit
 535              	.L113:
 536 0030 2568     		ldr	r5, [r4]
 537 0032 E168     		ldr	r1, [r4, #12]
 538 0034 0223     		movs	r3, #2
 539 0036 84F85D30 		strb	r3, [r4, #93]
 540 003a 2B68     		ldr	r3, [r5]
 541 003c B1F5E06F 		cmp	r1, #1792
 542 0040 23F04003 		bic	r3, r3, #64
 543 0044 2B60     		str	r3, [r5]
 544 0046 4FF00003 		mov	r3, #0
 545 004a 3FD8     		bhi	.L114
 546 004c 4FF48050 		mov	r0, #4096
 547              	.L126:
 548 0050 00D0     		beq	.L117
 549 0052 A362     		str	r3, [r4, #40]
 550              	.L117:
 551 0054 6368     		ldr	r3, [r4, #4]
 552 0056 A668     		ldr	r6, [r4, #8]
 553 0058 A269     		ldr	r2, [r4, #24]
 554 005a 06F40446 		and	r6, r6, #33792
 555 005e 03F48273 		and	r3, r3, #260
 556 0062 3343     		orrs	r3, r3, r6
 557 0064 2669     		ldr	r6, [r4, #16]
 558 0066 06F00206 		and	r6, r6, #2
 559 006a 3343     		orrs	r3, r3, r6
 560 006c 6669     		ldr	r6, [r4, #20]
 561 006e 06F00106 		and	r6, r6, #1
 562 0072 3343     		orrs	r3, r3, r6
 563 0074 02F40076 		and	r6, r2, #512
 564 0078 3343     		orrs	r3, r3, r6
 565 007a E669     		ldr	r6, [r4, #28]
 566 007c 06F03806 		and	r6, r6, #56
 567 0080 3343     		orrs	r3, r3, r6
 568 0082 266A     		ldr	r6, [r4, #32]
 569 0084 06F08006 		and	r6, r6, #128
 570 0088 3343     		orrs	r3, r3, r6
 571 008a A66A     		ldr	r6, [r4, #40]
 572 008c 06F40056 		and	r6, r6, #8192
 573 0090 3343     		orrs	r3, r3, r6
 574 0092 2B60     		str	r3, [r5]
 575 0094 666B     		ldr	r6, [r4, #52]
 576 0096 636A     		ldr	r3, [r4, #36]
 577 0098 06F00806 		and	r6, r6, #8
 578 009c 03F01003 		and	r3, r3, #16
 579 00a0 3343     		orrs	r3, r3, r6
 580 00a2 01F47061 		and	r1, r1, #3840
 581 00a6 120C     		lsrs	r2, r2, #16
 582 00a8 1943     		orrs	r1, r1, r3
 583 00aa 02F00402 		and	r2, r2, #4
 584 00ae 0A43     		orrs	r2, r2, r1
 585 00b0 1043     		orrs	r0, r0, r2
ARM GAS  C:\Users\CL\AppData\Local\Temp\ccvLgiZE.s 			page 11


 586 00b2 6860     		str	r0, [r5, #4]
 587 00b4 0123     		movs	r3, #1
 588 00b6 0020     		movs	r0, #0
 589 00b8 2066     		str	r0, [r4, #96]
 590 00ba 84F85D30 		strb	r3, [r4, #93]
 591              	.L125:
 592 00be 70BD     		pop	{r4, r5, r6, pc}
 593              	.L111:
 594 00c0 0023     		movs	r3, #0
 595 00c2 C0E90433 		strd	r3, r3, [r0, #16]
 596 00c6 A7E7     		b	.L112
 597              	.L118:
 598 00c8 0120     		movs	r0, #1
 599 00ca F8E7     		b	.L125
 600              	.L114:
 601 00cc 1846     		mov	r0, r3
 602 00ce B1F5706F 		cmp	r1, #3840
 603 00d2 BDE7     		b	.L126
 605              		.section	.text.HAL_SPI_MspDeInit,"ax",%progbits
 606              		.align	1
 607              		.weak	HAL_SPI_MspDeInit
 608              		.syntax unified
 609              		.thumb
 610              		.thumb_func
 612              	HAL_SPI_MspDeInit:
 613              		@ args = 0, pretend = 0, frame = 0
 614              		@ frame_needed = 0, uses_anonymous_args = 0
 615              		@ link register save eliminated.
 616 0000 7047     		bx	lr
 618              		.section	.text.HAL_SPI_DeInit,"ax",%progbits
 619              		.align	1
 620              		.global	HAL_SPI_DeInit
 621              		.syntax unified
 622              		.thumb
 623              		.thumb_func
 625              	HAL_SPI_DeInit:
 626              		@ args = 0, pretend = 0, frame = 0
 627              		@ frame_needed = 0, uses_anonymous_args = 0
 628 0000 10B5     		push	{r4, lr}
 629 0002 0446     		mov	r4, r0
 630 0004 80B1     		cbz	r0, .L130
 631 0006 0268     		ldr	r2, [r0]
 632 0008 0223     		movs	r3, #2
 633 000a 80F85D30 		strb	r3, [r0, #93]
 634 000e 1368     		ldr	r3, [r2]
 635 0010 23F04003 		bic	r3, r3, #64
 636 0014 1360     		str	r3, [r2]
 637 0016 FFF7FEFF 		bl	HAL_SPI_MspDeInit
 638 001a 0020     		movs	r0, #0
 639 001c 2066     		str	r0, [r4, #96]
 640 001e 84F85C00 		strb	r0, [r4, #92]
 641 0022 84F85D00 		strb	r0, [r4, #93]
 642              	.L129:
 643 0026 10BD     		pop	{r4, pc}
 644              	.L130:
 645 0028 0120     		movs	r0, #1
 646 002a FCE7     		b	.L129
ARM GAS  C:\Users\CL\AppData\Local\Temp\ccvLgiZE.s 			page 12


 648              		.section	.text.HAL_SPI_Transmit,"ax",%progbits
 649              		.align	1
 650              		.global	HAL_SPI_Transmit
 651              		.syntax unified
 652              		.thumb
 653              		.thumb_func
 655              	HAL_SPI_Transmit:
 656              		@ args = 0, pretend = 0, frame = 8
 657              		@ frame_needed = 0, uses_anonymous_args = 0
 658 0000 2DE9F743 		push	{r0, r1, r2, r4, r5, r6, r7, r8, r9, lr}
 659 0004 1F46     		mov	r7, r3
 660 0006 90F85C30 		ldrb	r3, [r0, #92]	@ zero_extendqisi2
 661 000a 012B     		cmp	r3, #1
 662 000c 0446     		mov	r4, r0
 663 000e 0D46     		mov	r5, r1
 664 0010 9046     		mov	r8, r2
 665 0012 00F0BC80 		beq	.L158
 666 0016 0123     		movs	r3, #1
 667 0018 80F85C30 		strb	r3, [r0, #92]
 668 001c FFF7FEFF 		bl	HAL_GetTick
 669 0020 94F85D30 		ldrb	r3, [r4, #93]	@ zero_extendqisi2
 670 0024 012B     		cmp	r3, #1
 671 0026 8146     		mov	r9, r0
 672 0028 D8B2     		uxtb	r0, r3
 673 002a 40F0AE80 		bne	.L159
 674 002e 002D     		cmp	r5, #0
 675 0030 63D0     		beq	.L133
 676 0032 B8F1000F 		cmp	r8, #0
 677 0036 60D0     		beq	.L133
 678 0038 0323     		movs	r3, #3
 679 003a 84F85D30 		strb	r3, [r4, #93]
 680 003e 0023     		movs	r3, #0
 681 0040 2366     		str	r3, [r4, #96]
 682 0042 C4E91333 		strd	r3, r3, [r4, #76]
 683 0046 A4F83E80 		strh	r8, [r4, #62]	@ movhi
 684 004a 2364     		str	r3, [r4, #64]
 685 004c A4F84430 		strh	r3, [r4, #68]	@ movhi
 686 0050 A4F84630 		strh	r3, [r4, #70]	@ movhi
 687 0054 A368     		ldr	r3, [r4, #8]
 688 0056 2668     		ldr	r6, [r4]
 689 0058 A563     		str	r5, [r4, #56]
 690 005a B3F5004F 		cmp	r3, #32768
 691 005e A4F83C80 		strh	r8, [r4, #60]	@ movhi
 692 0062 07D1     		bne	.L134
 693 0064 3368     		ldr	r3, [r6]
 694 0066 23F04003 		bic	r3, r3, #64
 695 006a 3360     		str	r3, [r6]
 696 006c 3368     		ldr	r3, [r6]
 697 006e 43F48043 		orr	r3, r3, #16384
 698 0072 3360     		str	r3, [r6]
 699              	.L134:
 700 0074 3368     		ldr	r3, [r6]
 701 0076 E268     		ldr	r2, [r4, #12]
 702 0078 5B06     		lsls	r3, r3, #25
 703 007a 5EBF     		ittt	pl
 704 007c 3368     		ldrpl	r3, [r6]
 705 007e 43F04003 		orrpl	r3, r3, #64
ARM GAS  C:\Users\CL\AppData\Local\Temp\ccvLgiZE.s 			page 13


 706 0082 3360     		strpl	r3, [r6]
 707 0084 B2F5E06F 		cmp	r2, #1792
 708 0088 6368     		ldr	r3, [r4, #4]
 709 008a 42D9     		bls	.L136
 710 008c 13B1     		cbz	r3, .L137
 711 008e B8F1010F 		cmp	r8, #1
 712 0092 07D1     		bne	.L143
 713              	.L137:
 714 0094 35F8023B 		ldrh	r3, [r5], #2
 715 0098 F360     		str	r3, [r6, #12]
 716 009a A563     		str	r5, [r4, #56]
 717              	.L181:
 718 009c E38F     		ldrh	r3, [r4, #62]
 719 009e 013B     		subs	r3, r3, #1
 720 00a0 9BB2     		uxth	r3, r3
 721 00a2 E387     		strh	r3, [r4, #62]	@ movhi
 722              	.L143:
 723 00a4 E38F     		ldrh	r3, [r4, #62]
 724 00a6 9BB2     		uxth	r3, r3
 725 00a8 A3B9     		cbnz	r3, .L144
 726              	.L156:
 727 00aa 4A46     		mov	r2, r9
 728 00ac 3946     		mov	r1, r7
 729 00ae 2046     		mov	r0, r4
 730 00b0 FFF7FEFF 		bl	SPI_EndRxTxTransaction
 731 00b4 0028     		cmp	r0, #0
 732 00b6 65D1     		bne	.L145
 733              	.L146:
 734 00b8 A368     		ldr	r3, [r4, #8]
 735 00ba 33B9     		cbnz	r3, .L157
 736 00bc 0193     		str	r3, [sp, #4]
 737 00be 2368     		ldr	r3, [r4]
 738 00c0 DA68     		ldr	r2, [r3, #12]
 739 00c2 0192     		str	r2, [sp, #4]
 740 00c4 9B68     		ldr	r3, [r3, #8]
 741 00c6 0193     		str	r3, [sp, #4]
 742 00c8 019B     		ldr	r3, [sp, #4]
 743              	.L157:
 744 00ca 206E     		ldr	r0, [r4, #96]
 745 00cc 0038     		subs	r0, r0, #0
 746 00ce 18BF     		it	ne
 747 00d0 0120     		movne	r0, #1
 748 00d2 12E0     		b	.L133
 749              	.L144:
 750 00d4 2268     		ldr	r2, [r4]
 751 00d6 9368     		ldr	r3, [r2, #8]
 752 00d8 9D07     		lsls	r5, r3, #30
 753 00da 05D5     		bpl	.L139
 754 00dc A36B     		ldr	r3, [r4, #56]
 755 00de 33F8021B 		ldrh	r1, [r3], #2
 756 00e2 D160     		str	r1, [r2, #12]
 757 00e4 A363     		str	r3, [r4, #56]
 758 00e6 D9E7     		b	.L181
 759              	.L139:
 760 00e8 FFF7FEFF 		bl	HAL_GetTick
 761 00ec A0EB0900 		sub	r0, r0, r9
 762 00f0 B842     		cmp	r0, r7
ARM GAS  C:\Users\CL\AppData\Local\Temp\ccvLgiZE.s 			page 14


 763 00f2 0BD3     		bcc	.L141
 764 00f4 781C     		adds	r0, r7, #1
 765 00f6 D5D0     		beq	.L143
 766              	.L142:
 767 00f8 0320     		movs	r0, #3
 768              	.L133:
 769 00fa 0123     		movs	r3, #1
 770 00fc 84F85D30 		strb	r3, [r4, #93]
 771 0100 0023     		movs	r3, #0
 772 0102 84F85C30 		strb	r3, [r4, #92]
 773              	.L132:
 774 0106 03B0     		add	sp, sp, #12
 775              		@ sp needed
 776 0108 BDE8F083 		pop	{r4, r5, r6, r7, r8, r9, pc}
 777              	.L141:
 778 010c 002F     		cmp	r7, #0
 779 010e C9D1     		bne	.L143
 780 0110 F2E7     		b	.L142
 781              	.L136:
 782 0112 13B1     		cbz	r3, .L147
 783 0114 B8F1010F 		cmp	r8, #1
 784 0118 13D1     		bne	.L154
 785              	.L147:
 786 011a E38F     		ldrh	r3, [r4, #62]
 787 011c 9BB2     		uxth	r3, r3
 788 011e 012B     		cmp	r3, #1
 789 0120 06D9     		bls	.L149
 790 0122 35F8023B 		ldrh	r3, [r5], #2
 791 0126 F360     		str	r3, [r6, #12]
 792 0128 A563     		str	r5, [r4, #56]
 793              	.L184:
 794 012a E38F     		ldrh	r3, [r4, #62]
 795 012c 023B     		subs	r3, r3, #2
 796 012e 06E0     		b	.L182
 797              	.L149:
 798 0130 2B78     		ldrb	r3, [r5]	@ zero_extendqisi2
 799 0132 3373     		strb	r3, [r6, #12]
 800              	.L183:
 801 0134 A36B     		ldr	r3, [r4, #56]
 802 0136 0133     		adds	r3, r3, #1
 803 0138 A363     		str	r3, [r4, #56]
 804 013a E38F     		ldrh	r3, [r4, #62]
 805 013c 013B     		subs	r3, r3, #1
 806              	.L182:
 807 013e 9BB2     		uxth	r3, r3
 808 0140 E387     		strh	r3, [r4, #62]	@ movhi
 809              	.L154:
 810 0142 E38F     		ldrh	r3, [r4, #62]
 811 0144 9BB2     		uxth	r3, r3
 812 0146 002B     		cmp	r3, #0
 813 0148 AFD0     		beq	.L156
 814 014a 2268     		ldr	r2, [r4]
 815 014c 9368     		ldr	r3, [r2, #8]
 816 014e 9907     		lsls	r1, r3, #30
 817 0150 0CD5     		bpl	.L150
 818 0152 E18F     		ldrh	r1, [r4, #62]
 819 0154 A36B     		ldr	r3, [r4, #56]
ARM GAS  C:\Users\CL\AppData\Local\Temp\ccvLgiZE.s 			page 15


 820 0156 89B2     		uxth	r1, r1
 821 0158 0129     		cmp	r1, #1
 822 015a 04D9     		bls	.L151
 823 015c 33F8021B 		ldrh	r1, [r3], #2
 824 0160 D160     		str	r1, [r2, #12]
 825 0162 A363     		str	r3, [r4, #56]
 826 0164 E1E7     		b	.L184
 827              	.L151:
 828 0166 1B78     		ldrb	r3, [r3]	@ zero_extendqisi2
 829 0168 1373     		strb	r3, [r2, #12]
 830 016a E3E7     		b	.L183
 831              	.L150:
 832 016c FFF7FEFF 		bl	HAL_GetTick
 833 0170 A0EB0900 		sub	r0, r0, r9
 834 0174 B842     		cmp	r0, r7
 835 0176 02D3     		bcc	.L153
 836 0178 7B1C     		adds	r3, r7, #1
 837 017a E2D0     		beq	.L154
 838 017c BCE7     		b	.L142
 839              	.L153:
 840 017e 002F     		cmp	r7, #0
 841 0180 DFD1     		bne	.L154
 842 0182 B9E7     		b	.L142
 843              	.L145:
 844 0184 2023     		movs	r3, #32
 845 0186 2366     		str	r3, [r4, #96]
 846 0188 96E7     		b	.L146
 847              	.L159:
 848 018a 0220     		movs	r0, #2
 849 018c B5E7     		b	.L133
 850              	.L158:
 851 018e 0220     		movs	r0, #2
 852 0190 B9E7     		b	.L132
 854              		.section	.text.HAL_SPI_TransmitReceive,"ax",%progbits
 855              		.align	1
 856              		.global	HAL_SPI_TransmitReceive
 857              		.syntax unified
 858              		.thumb
 859              		.thumb_func
 861              	HAL_SPI_TransmitReceive:
 862              		@ args = 4, pretend = 0, frame = 0
 863              		@ frame_needed = 0, uses_anonymous_args = 0
 864 0000 2DE9F843 		push	{r3, r4, r5, r6, r7, r8, r9, lr}
 865 0004 1F46     		mov	r7, r3
 866 0006 90F85C30 		ldrb	r3, [r0, #92]	@ zero_extendqisi2
 867 000a DDF82080 		ldr	r8, [sp, #32]
 868 000e 012B     		cmp	r3, #1
 869 0010 0446     		mov	r4, r0
 870 0012 0D46     		mov	r5, r1
 871 0014 1646     		mov	r6, r2
 872 0016 00F01D81 		beq	.L214
 873 001a 0123     		movs	r3, #1
 874 001c 80F85C30 		strb	r3, [r0, #92]
 875 0020 FFF7FEFF 		bl	HAL_GetTick
 876 0024 94F85D20 		ldrb	r2, [r4, #93]	@ zero_extendqisi2
 877 0028 6368     		ldr	r3, [r4, #4]
 878 002a 012A     		cmp	r2, #1
ARM GAS  C:\Users\CL\AppData\Local\Temp\ccvLgiZE.s 			page 16


 879 002c 8146     		mov	r9, r0
 880 002e D1B2     		uxtb	r1, r2
 881 0030 0AD0     		beq	.L187
 882 0032 B3F5827F 		cmp	r3, #260
 883 0036 40F00B81 		bne	.L217
 884 003a A268     		ldr	r2, [r4, #8]
 885 003c 002A     		cmp	r2, #0
 886 003e 40F00781 		bne	.L217
 887 0042 0429     		cmp	r1, #4
 888 0044 40F00481 		bne	.L217
 889              	.L187:
 890 0048 002D     		cmp	r5, #0
 891 004a 47D0     		beq	.L220
 892 004c 002E     		cmp	r6, #0
 893 004e 45D0     		beq	.L220
 894 0050 002F     		cmp	r7, #0
 895 0052 43D0     		beq	.L220
 896 0054 94F85D20 		ldrb	r2, [r4, #93]	@ zero_extendqisi2
 897 0058 E168     		ldr	r1, [r4, #12]
 898 005a 2664     		str	r6, [r4, #64]
 899 005c 042A     		cmp	r2, #4
 900 005e 1CBF     		itt	ne
 901 0060 0522     		movne	r2, #5
 902 0062 84F85D20 		strbne	r2, [r4, #93]
 903 0066 2668     		ldr	r6, [r4]
 904 0068 A4F84470 		strh	r7, [r4, #68]	@ movhi
 905 006c 0022     		movs	r2, #0
 906 006e 2266     		str	r2, [r4, #96]
 907 0070 B1F5E06F 		cmp	r1, #1792
 908 0074 A4F84670 		strh	r7, [r4, #70]	@ movhi
 909 0078 E787     		strh	r7, [r4, #62]	@ movhi
 910 007a C4E91322 		strd	r2, r2, [r4, #76]
 911 007e A563     		str	r5, [r4, #56]
 912 0080 7268     		ldr	r2, [r6, #4]
 913 0082 A787     		strh	r7, [r4, #60]	@ movhi
 914 0084 01D8     		bhi	.L190
 915 0086 012F     		cmp	r7, #1
 916 0088 2AD0     		beq	.L191
 917              	.L190:
 918 008a 22F48052 		bic	r2, r2, #4096
 919              	.L265:
 920 008e 7260     		str	r2, [r6, #4]
 921 0090 3268     		ldr	r2, [r6]
 922 0092 5006     		lsls	r0, r2, #25
 923 0094 5EBF     		ittt	pl
 924 0096 3268     		ldrpl	r2, [r6]
 925 0098 42F04002 		orrpl	r2, r2, #64
 926 009c 3260     		strpl	r2, [r6]
 927 009e B1F5E06F 		cmp	r1, #1792
 928 00a2 58D9     		bls	.L194
 929 00a4 0BB1     		cbz	r3, .L195
 930 00a6 012F     		cmp	r7, #1
 931 00a8 07D1     		bne	.L196
 932              	.L195:
 933 00aa 35F8023B 		ldrh	r3, [r5], #2
 934 00ae F360     		str	r3, [r6, #12]
 935 00b0 E38F     		ldrh	r3, [r4, #62]
ARM GAS  C:\Users\CL\AppData\Local\Temp\ccvLgiZE.s 			page 17


 936 00b2 A563     		str	r5, [r4, #56]
 937 00b4 013B     		subs	r3, r3, #1
 938 00b6 9BB2     		uxth	r3, r3
 939 00b8 E387     		strh	r3, [r4, #62]	@ movhi
 940              	.L196:
 941 00ba 0125     		movs	r5, #1
 942              	.L249:
 943 00bc E38F     		ldrh	r3, [r4, #62]
 944 00be 9BB2     		uxth	r3, r3
 945 00c0 8BB9     		cbnz	r3, .L200
 946 00c2 B4F84630 		ldrh	r3, [r4, #70]
 947 00c6 9BB2     		uxth	r3, r3
 948 00c8 6BB9     		cbnz	r3, .L200
 949              	.L213:
 950 00ca 4A46     		mov	r2, r9
 951 00cc 4146     		mov	r1, r8
 952 00ce 2046     		mov	r0, r4
 953 00d0 FFF7FEFF 		bl	SPI_EndRxTxTransaction
 954 00d4 0028     		cmp	r0, #0
 955 00d6 36D0     		beq	.L188
 956 00d8 2023     		movs	r3, #32
 957 00da 2366     		str	r3, [r4, #96]
 958              	.L220:
 959 00dc 0120     		movs	r0, #1
 960 00de 32E0     		b	.L188
 961              	.L191:
 962 00e0 42F48052 		orr	r2, r2, #4096
 963 00e4 D3E7     		b	.L265
 964              	.L200:
 965 00e6 2168     		ldr	r1, [r4]
 966 00e8 8B68     		ldr	r3, [r1, #8]
 967 00ea 9A07     		lsls	r2, r3, #30
 968 00ec 0DD5     		bpl	.L198
 969 00ee E38F     		ldrh	r3, [r4, #62]
 970 00f0 9BB2     		uxth	r3, r3
 971 00f2 53B1     		cbz	r3, .L198
 972 00f4 4DB1     		cbz	r5, .L198
 973 00f6 A36B     		ldr	r3, [r4, #56]
 974 00f8 33F8022B 		ldrh	r2, [r3], #2
 975 00fc CA60     		str	r2, [r1, #12]
 976 00fe A363     		str	r3, [r4, #56]
 977 0100 E38F     		ldrh	r3, [r4, #62]
 978 0102 013B     		subs	r3, r3, #1
 979 0104 9BB2     		uxth	r3, r3
 980 0106 E387     		strh	r3, [r4, #62]	@ movhi
 981 0108 0025     		movs	r5, #0
 982              	.L198:
 983 010a 8A68     		ldr	r2, [r1, #8]
 984 010c 12F00102 		ands	r2, r2, #1
 985 0110 0FD0     		beq	.L199
 986 0112 B4F84630 		ldrh	r3, [r4, #70]
 987 0116 9BB2     		uxth	r3, r3
 988 0118 5BB1     		cbz	r3, .L199
 989 011a 236C     		ldr	r3, [r4, #64]
 990 011c C968     		ldr	r1, [r1, #12]
 991 011e 23F8021B 		strh	r1, [r3], #2	@ movhi
 992 0122 2364     		str	r3, [r4, #64]
ARM GAS  C:\Users\CL\AppData\Local\Temp\ccvLgiZE.s 			page 18


 993 0124 B4F84630 		ldrh	r3, [r4, #70]
 994 0128 013B     		subs	r3, r3, #1
 995 012a 9BB2     		uxth	r3, r3
 996 012c A4F84630 		strh	r3, [r4, #70]	@ movhi
 997 0130 1546     		mov	r5, r2
 998              	.L199:
 999 0132 FFF7FEFF 		bl	HAL_GetTick
 1000 0136 A0EB0900 		sub	r0, r0, r9
 1001 013a 4045     		cmp	r0, r8
 1002 013c BED3     		bcc	.L249
 1003 013e B8F1FF3F 		cmp	r8, #-1
 1004 0142 BBD0     		beq	.L249
 1005              	.L210:
 1006 0144 0320     		movs	r0, #3
 1007              	.L188:
 1008 0146 0123     		movs	r3, #1
 1009 0148 84F85D30 		strb	r3, [r4, #93]
 1010 014c 0023     		movs	r3, #0
 1011 014e 84F85C30 		strb	r3, [r4, #92]
 1012              	.L186:
 1013 0152 BDE8F883 		pop	{r3, r4, r5, r6, r7, r8, r9, pc}
 1014              	.L194:
 1015 0156 0BB1     		cbz	r3, .L202
 1016 0158 012F     		cmp	r7, #1
 1017 015a 0BD1     		bne	.L203
 1018              	.L202:
 1019 015c E38F     		ldrh	r3, [r4, #62]
 1020 015e 9BB2     		uxth	r3, r3
 1021 0160 012B     		cmp	r3, #1
 1022 0162 09D9     		bls	.L204
 1023 0164 35F8023B 		ldrh	r3, [r5], #2
 1024 0168 F360     		str	r3, [r6, #12]
 1025 016a E38F     		ldrh	r3, [r4, #62]
 1026 016c A563     		str	r5, [r4, #56]
 1027 016e 023B     		subs	r3, r3, #2
 1028              	.L267:
 1029 0170 9BB2     		uxth	r3, r3
 1030 0172 E387     		strh	r3, [r4, #62]	@ movhi
 1031              	.L203:
 1032 0174 0125     		movs	r5, #1
 1033 0176 49E0     		b	.L264
 1034              	.L204:
 1035 0178 2B78     		ldrb	r3, [r5]	@ zero_extendqisi2
 1036 017a 3373     		strb	r3, [r6, #12]
 1037 017c A36B     		ldr	r3, [r4, #56]
 1038 017e 0133     		adds	r3, r3, #1
 1039 0180 A363     		str	r3, [r4, #56]
 1040 0182 E38F     		ldrh	r3, [r4, #62]
 1041 0184 013B     		subs	r3, r3, #1
 1042 0186 F3E7     		b	.L267
 1043              	.L212:
 1044 0188 2268     		ldr	r2, [r4]
 1045 018a 9368     		ldr	r3, [r2, #8]
 1046 018c 9B07     		lsls	r3, r3, #30
 1047 018e 11D5     		bpl	.L205
 1048 0190 E38F     		ldrh	r3, [r4, #62]
 1049 0192 9BB2     		uxth	r3, r3
ARM GAS  C:\Users\CL\AppData\Local\Temp\ccvLgiZE.s 			page 19


 1050 0194 73B1     		cbz	r3, .L205
 1051 0196 6DB1     		cbz	r5, .L205
 1052 0198 E18F     		ldrh	r1, [r4, #62]
 1053 019a A36B     		ldr	r3, [r4, #56]
 1054 019c 89B2     		uxth	r1, r1
 1055 019e 0129     		cmp	r1, #1
 1056 01a0 3ED9     		bls	.L206
 1057 01a2 33F8021B 		ldrh	r1, [r3], #2
 1058 01a6 D160     		str	r1, [r2, #12]
 1059 01a8 A363     		str	r3, [r4, #56]
 1060 01aa E38F     		ldrh	r3, [r4, #62]
 1061 01ac 023B     		subs	r3, r3, #2
 1062              	.L266:
 1063 01ae 9BB2     		uxth	r3, r3
 1064 01b0 E387     		strh	r3, [r4, #62]	@ movhi
 1065 01b2 0025     		movs	r5, #0
 1066              	.L205:
 1067 01b4 2268     		ldr	r2, [r4]
 1068 01b6 9368     		ldr	r3, [r2, #8]
 1069 01b8 13F00103 		ands	r3, r3, #1
 1070 01bc 1DD0     		beq	.L207
 1071 01be B4F84610 		ldrh	r1, [r4, #70]
 1072 01c2 89B2     		uxth	r1, r1
 1073 01c4 C9B1     		cbz	r1, .L207
 1074 01c6 B4F84600 		ldrh	r0, [r4, #70]
 1075 01ca 216C     		ldr	r1, [r4, #64]
 1076 01cc 80B2     		uxth	r0, r0
 1077 01ce 0128     		cmp	r0, #1
 1078 01d0 2ED9     		bls	.L208
 1079 01d2 D068     		ldr	r0, [r2, #12]
 1080 01d4 21F8020B 		strh	r0, [r1], #2	@ movhi
 1081 01d8 2164     		str	r1, [r4, #64]
 1082 01da B4F84610 		ldrh	r1, [r4, #70]
 1083 01de 0239     		subs	r1, r1, #2
 1084 01e0 89B2     		uxth	r1, r1
 1085 01e2 A4F84610 		strh	r1, [r4, #70]	@ movhi
 1086 01e6 B4F84610 		ldrh	r1, [r4, #70]
 1087 01ea 89B2     		uxth	r1, r1
 1088 01ec 0129     		cmp	r1, #1
 1089 01ee 03D8     		bhi	.L221
 1090 01f0 5168     		ldr	r1, [r2, #4]
 1091 01f2 41F48051 		orr	r1, r1, #4096
 1092 01f6 5160     		str	r1, [r2, #4]
 1093              	.L221:
 1094 01f8 1D46     		mov	r5, r3
 1095              	.L207:
 1096 01fa FFF7FEFF 		bl	HAL_GetTick
 1097 01fe A0EB0900 		sub	r0, r0, r9
 1098 0202 4045     		cmp	r0, r8
 1099 0204 20D3     		bcc	.L209
 1100 0206 B8F1FF3F 		cmp	r8, #-1
 1101 020a 9BD1     		bne	.L210
 1102              	.L264:
 1103 020c E38F     		ldrh	r3, [r4, #62]
 1104 020e 9BB2     		uxth	r3, r3
 1105 0210 002B     		cmp	r3, #0
 1106 0212 B9D1     		bne	.L212
ARM GAS  C:\Users\CL\AppData\Local\Temp\ccvLgiZE.s 			page 20


 1107 0214 B4F84630 		ldrh	r3, [r4, #70]
 1108 0218 9BB2     		uxth	r3, r3
 1109 021a 002B     		cmp	r3, #0
 1110 021c B4D1     		bne	.L212
 1111 021e 54E7     		b	.L213
 1112              	.L206:
 1113 0220 1B78     		ldrb	r3, [r3]	@ zero_extendqisi2
 1114 0222 1373     		strb	r3, [r2, #12]
 1115 0224 A36B     		ldr	r3, [r4, #56]
 1116 0226 0133     		adds	r3, r3, #1
 1117 0228 A363     		str	r3, [r4, #56]
 1118 022a E38F     		ldrh	r3, [r4, #62]
 1119 022c 013B     		subs	r3, r3, #1
 1120 022e BEE7     		b	.L266
 1121              	.L208:
 1122 0230 127B     		ldrb	r2, [r2, #12]	@ zero_extendqisi2
 1123 0232 0A70     		strb	r2, [r1]
 1124 0234 226C     		ldr	r2, [r4, #64]
 1125 0236 0132     		adds	r2, r2, #1
 1126 0238 2264     		str	r2, [r4, #64]
 1127 023a B4F84620 		ldrh	r2, [r4, #70]
 1128 023e 013A     		subs	r2, r2, #1
 1129 0240 92B2     		uxth	r2, r2
 1130 0242 A4F84620 		strh	r2, [r4, #70]	@ movhi
 1131 0246 D7E7     		b	.L221
 1132              	.L209:
 1133 0248 B8F1000F 		cmp	r8, #0
 1134 024c DED1     		bne	.L264
 1135 024e 79E7     		b	.L210
 1136              	.L217:
 1137 0250 0220     		movs	r0, #2
 1138 0252 78E7     		b	.L188
 1139              	.L214:
 1140 0254 0220     		movs	r0, #2
 1141 0256 7CE7     		b	.L186
 1143              		.section	.text.HAL_SPI_Receive,"ax",%progbits
 1144              		.align	1
 1145              		.global	HAL_SPI_Receive
 1146              		.syntax unified
 1147              		.thumb
 1148              		.thumb_func
 1150              	HAL_SPI_Receive:
 1151              		@ args = 0, pretend = 0, frame = 0
 1152              		@ frame_needed = 0, uses_anonymous_args = 0
 1153 0000 2DE9F743 		push	{r0, r1, r2, r4, r5, r6, r7, r8, r9, lr}
 1154 0004 1E46     		mov	r6, r3
 1155 0006 4368     		ldr	r3, [r0, #4]
 1156 0008 B3F5827F 		cmp	r3, #260
 1157 000c 0446     		mov	r4, r0
 1158 000e 8946     		mov	r9, r1
 1159 0010 1746     		mov	r7, r2
 1160 0012 0CD1     		bne	.L269
 1161 0014 8368     		ldr	r3, [r0, #8]
 1162 0016 53B9     		cbnz	r3, .L269
 1163 0018 0423     		movs	r3, #4
 1164 001a 80F85D30 		strb	r3, [r0, #93]
 1165 001e 1346     		mov	r3, r2
ARM GAS  C:\Users\CL\AppData\Local\Temp\ccvLgiZE.s 			page 21


 1166 0020 0096     		str	r6, [sp]
 1167 0022 0A46     		mov	r2, r1
 1168 0024 FFF7FEFF 		bl	HAL_SPI_TransmitReceive
 1169              	.L270:
 1170 0028 03B0     		add	sp, sp, #12
 1171              		@ sp needed
 1172 002a BDE8F083 		pop	{r4, r5, r6, r7, r8, r9, pc}
 1173              	.L269:
 1174 002e 94F85C30 		ldrb	r3, [r4, #92]	@ zero_extendqisi2
 1175 0032 012B     		cmp	r3, #1
 1176 0034 00F09A80 		beq	.L290
 1177 0038 0123     		movs	r3, #1
 1178 003a 84F85C30 		strb	r3, [r4, #92]
 1179 003e FFF7FEFF 		bl	HAL_GetTick
 1180 0042 94F85D30 		ldrb	r3, [r4, #93]	@ zero_extendqisi2
 1181 0046 012B     		cmp	r3, #1
 1182 0048 8046     		mov	r8, r0
 1183 004a D8B2     		uxtb	r0, r3
 1184 004c 40F08C80 		bne	.L291
 1185 0050 B9F1000F 		cmp	r9, #0
 1186 0054 6FD0     		beq	.L271
 1187 0056 002F     		cmp	r7, #0
 1188 0058 6DD0     		beq	.L271
 1189 005a 0025     		movs	r5, #0
 1190 005c 0423     		movs	r3, #4
 1191 005e 84F85D30 		strb	r3, [r4, #93]
 1192 0062 C4E91355 		strd	r5, r5, [r4, #76]
 1193 0066 2566     		str	r5, [r4, #96]
 1194 0068 A563     		str	r5, [r4, #56]
 1195 006a A4F84670 		strh	r7, [r4, #70]	@ movhi
 1196 006e A587     		strh	r5, [r4, #60]	@ movhi
 1197 0070 E587     		strh	r5, [r4, #62]	@ movhi
 1198 0072 2568     		ldr	r5, [r4]
 1199 0074 E268     		ldr	r2, [r4, #12]
 1200 0076 6B68     		ldr	r3, [r5, #4]
 1201 0078 C4F84090 		str	r9, [r4, #64]
 1202 007c B2F5E06F 		cmp	r2, #1792
 1203 0080 8CBF     		ite	hi
 1204 0082 23F48053 		bichi	r3, r3, #4096
 1205 0086 43F48053 		orrls	r3, r3, #4096
 1206 008a A4F84470 		strh	r7, [r4, #68]	@ movhi
 1207 008e 6B60     		str	r3, [r5, #4]
 1208 0090 A368     		ldr	r3, [r4, #8]
 1209 0092 B3F5004F 		cmp	r3, #32768
 1210 0096 07D1     		bne	.L274
 1211 0098 2B68     		ldr	r3, [r5]
 1212 009a 23F04003 		bic	r3, r3, #64
 1213 009e 2B60     		str	r3, [r5]
 1214 00a0 2B68     		ldr	r3, [r5]
 1215 00a2 23F48043 		bic	r3, r3, #16384
 1216 00a6 2B60     		str	r3, [r5]
 1217              	.L274:
 1218 00a8 2B68     		ldr	r3, [r5]
 1219 00aa 5F06     		lsls	r7, r3, #25
 1220 00ac 5EBF     		ittt	pl
 1221 00ae 2B68     		ldrpl	r3, [r5]
 1222 00b0 43F04003 		orrpl	r3, r3, #64
ARM GAS  C:\Users\CL\AppData\Local\Temp\ccvLgiZE.s 			page 22


 1223 00b4 2B60     		strpl	r3, [r5]
 1224 00b6 B2F5E06F 		cmp	r2, #1792
 1225 00ba 23D9     		bls	.L276
 1226              	.L277:
 1227 00bc B4F84630 		ldrh	r3, [r4, #70]
 1228 00c0 9BB2     		uxth	r3, r3
 1229 00c2 23B3     		cbz	r3, .L289
 1230 00c4 2368     		ldr	r3, [r4]
 1231 00c6 9A68     		ldr	r2, [r3, #8]
 1232 00c8 D207     		lsls	r2, r2, #31
 1233 00ca 3ED5     		bpl	.L285
 1234 00cc DA68     		ldr	r2, [r3, #12]
 1235 00ce 236C     		ldr	r3, [r4, #64]
 1236 00d0 23F8022B 		strh	r2, [r3], #2	@ movhi
 1237 00d4 2364     		str	r3, [r4, #64]
 1238 00d6 B4F84630 		ldrh	r3, [r4, #70]
 1239 00da 013B     		subs	r3, r3, #1
 1240 00dc 9BB2     		uxth	r3, r3
 1241 00de A4F84630 		strh	r3, [r4, #70]	@ movhi
 1242 00e2 EBE7     		b	.L277
 1243              	.L282:
 1244 00e4 2368     		ldr	r3, [r4]
 1245 00e6 9A68     		ldr	r2, [r3, #8]
 1246 00e8 D007     		lsls	r0, r2, #31
 1247 00ea 1BD5     		bpl	.L278
 1248 00ec 226C     		ldr	r2, [r4, #64]
 1249 00ee 1B7B     		ldrb	r3, [r3, #12]	@ zero_extendqisi2
 1250 00f0 1370     		strb	r3, [r2]
 1251 00f2 236C     		ldr	r3, [r4, #64]
 1252 00f4 0133     		adds	r3, r3, #1
 1253 00f6 2364     		str	r3, [r4, #64]
 1254 00f8 B4F84630 		ldrh	r3, [r4, #70]
 1255 00fc 013B     		subs	r3, r3, #1
 1256 00fe 9BB2     		uxth	r3, r3
 1257 0100 A4F84630 		strh	r3, [r4, #70]	@ movhi
 1258              	.L276:
 1259 0104 B4F84630 		ldrh	r3, [r4, #70]
 1260 0108 9BB2     		uxth	r3, r3
 1261 010a 002B     		cmp	r3, #0
 1262 010c EAD1     		bne	.L282
 1263              	.L289:
 1264 010e 4246     		mov	r2, r8
 1265 0110 3146     		mov	r1, r6
 1266 0112 2046     		mov	r0, r4
 1267 0114 FFF7FEFF 		bl	SPI_EndRxTransaction
 1268 0118 18BB     		cbnz	r0, .L283
 1269              	.L284:
 1270 011a 206E     		ldr	r0, [r4, #96]
 1271 011c 0038     		subs	r0, r0, #0
 1272 011e 18BF     		it	ne
 1273 0120 0120     		movne	r0, #1
 1274 0122 08E0     		b	.L271
 1275              	.L278:
 1276 0124 FFF7FEFF 		bl	HAL_GetTick
 1277 0128 A0EB0800 		sub	r0, r0, r8
 1278 012c B042     		cmp	r0, r6
 1279 012e 09D3     		bcc	.L280
ARM GAS  C:\Users\CL\AppData\Local\Temp\ccvLgiZE.s 			page 23


 1280 0130 711C     		adds	r1, r6, #1
 1281 0132 E7D0     		beq	.L276
 1282              	.L281:
 1283 0134 0320     		movs	r0, #3
 1284              	.L271:
 1285 0136 0123     		movs	r3, #1
 1286 0138 84F85D30 		strb	r3, [r4, #93]
 1287 013c 0023     		movs	r3, #0
 1288 013e 84F85C30 		strb	r3, [r4, #92]
 1289 0142 71E7     		b	.L270
 1290              	.L280:
 1291 0144 002E     		cmp	r6, #0
 1292 0146 DDD1     		bne	.L276
 1293 0148 F4E7     		b	.L281
 1294              	.L285:
 1295 014a FFF7FEFF 		bl	HAL_GetTick
 1296 014e A0EB0800 		sub	r0, r0, r8
 1297 0152 B042     		cmp	r0, r6
 1298 0154 02D3     		bcc	.L287
 1299 0156 731C     		adds	r3, r6, #1
 1300 0158 B0D0     		beq	.L277
 1301 015a EBE7     		b	.L281
 1302              	.L287:
 1303 015c 002E     		cmp	r6, #0
 1304 015e ADD1     		bne	.L277
 1305 0160 E8E7     		b	.L281
 1306              	.L283:
 1307 0162 2023     		movs	r3, #32
 1308 0164 2366     		str	r3, [r4, #96]
 1309 0166 D8E7     		b	.L284
 1310              	.L291:
 1311 0168 0220     		movs	r0, #2
 1312 016a E4E7     		b	.L271
 1313              	.L290:
 1314 016c 0220     		movs	r0, #2
 1315 016e 5BE7     		b	.L270
 1317              		.section	.text.HAL_SPI_Transmit_IT,"ax",%progbits
 1318              		.align	1
 1319              		.global	HAL_SPI_Transmit_IT
 1320              		.syntax unified
 1321              		.thumb
 1322              		.thumb_func
 1324              	HAL_SPI_Transmit_IT:
 1325              		@ args = 0, pretend = 0, frame = 0
 1326              		@ frame_needed = 0, uses_anonymous_args = 0
 1327              		@ link register save eliminated.
 1328 0000 0346     		mov	r3, r0
 1329 0002 90F85C00 		ldrb	r0, [r0, #92]	@ zero_extendqisi2
 1330 0006 0128     		cmp	r0, #1
 1331 0008 41D0     		beq	.L314
 1332 000a 0120     		movs	r0, #1
 1333 000c 83F85C00 		strb	r0, [r3, #92]
 1334 0010 0029     		cmp	r1, #0
 1335 0012 34D0     		beq	.L311
 1336 0014 002A     		cmp	r2, #0
 1337 0016 32D0     		beq	.L311
 1338 0018 93F85D00 		ldrb	r0, [r3, #93]	@ zero_extendqisi2
ARM GAS  C:\Users\CL\AppData\Local\Temp\ccvLgiZE.s 			page 24


 1339 001c 0128     		cmp	r0, #1
 1340 001e 32D1     		bne	.L317
 1341 0020 0320     		movs	r0, #3
 1342 0022 83F85D00 		strb	r0, [r3, #93]
 1343 0026 0020     		movs	r0, #0
 1344 0028 1866     		str	r0, [r3, #96]
 1345 002a 9963     		str	r1, [r3, #56]
 1346 002c DA87     		strh	r2, [r3, #62]	@ movhi
 1347 002e 1949     		ldr	r1, .L320
 1348 0030 9A87     		strh	r2, [r3, #60]	@ movhi
 1349 0032 1864     		str	r0, [r3, #64]
 1350 0034 184A     		ldr	r2, .L320+4
 1351 0036 A3F84400 		strh	r0, [r3, #68]	@ movhi
 1352 003a A3F84600 		strh	r0, [r3, #70]	@ movhi
 1353 003e D864     		str	r0, [r3, #76]
 1354 0040 D868     		ldr	r0, [r3, #12]
 1355 0042 B0F5E06F 		cmp	r0, #1792
 1356 0046 98BF     		it	ls
 1357 0048 0A46     		movls	r2, r1
 1358 004a 9968     		ldr	r1, [r3, #8]
 1359 004c 1A65     		str	r2, [r3, #80]
 1360 004e B1F5004F 		cmp	r1, #32768
 1361 0052 1A68     		ldr	r2, [r3]
 1362 0054 07D1     		bne	.L313
 1363 0056 1168     		ldr	r1, [r2]
 1364 0058 21F04001 		bic	r1, r1, #64
 1365 005c 1160     		str	r1, [r2]
 1366 005e 1168     		ldr	r1, [r2]
 1367 0060 41F48041 		orr	r1, r1, #16384
 1368 0064 1160     		str	r1, [r2]
 1369              	.L313:
 1370 0066 5168     		ldr	r1, [r2, #4]
 1371 0068 41F0A001 		orr	r1, r1, #160
 1372 006c 5160     		str	r1, [r2, #4]
 1373 006e 1068     		ldr	r0, [r2]
 1374 0070 10F04000 		ands	r0, r0, #64
 1375 0074 09D1     		bne	.L319
 1376 0076 1168     		ldr	r1, [r2]
 1377 0078 41F04001 		orr	r1, r1, #64
 1378 007c 1160     		str	r1, [r2]
 1379              	.L311:
 1380 007e 0022     		movs	r2, #0
 1381 0080 83F85C20 		strb	r2, [r3, #92]
 1382 0084 7047     		bx	lr
 1383              	.L317:
 1384 0086 0220     		movs	r0, #2
 1385 0088 F9E7     		b	.L311
 1386              	.L319:
 1387 008a 0020     		movs	r0, #0
 1388 008c F7E7     		b	.L311
 1389              	.L314:
 1390 008e 0220     		movs	r0, #2
 1391 0090 7047     		bx	lr
 1392              	.L321:
 1393 0092 00BF     		.align	2
 1394              	.L320:
 1395 0094 00000000 		.word	SPI_TxISR_8BIT
ARM GAS  C:\Users\CL\AppData\Local\Temp\ccvLgiZE.s 			page 25


 1396 0098 00000000 		.word	SPI_TxISR_16BIT
 1398              		.section	.text.HAL_SPI_TransmitReceive_IT,"ax",%progbits
 1399              		.align	1
 1400              		.global	HAL_SPI_TransmitReceive_IT
 1401              		.syntax unified
 1402              		.thumb
 1403              		.thumb_func
 1405              	HAL_SPI_TransmitReceive_IT:
 1406              		@ args = 0, pretend = 0, frame = 0
 1407              		@ frame_needed = 0, uses_anonymous_args = 0
 1408 0000 30B5     		push	{r4, r5, lr}
 1409 0002 90F85C40 		ldrb	r4, [r0, #92]	@ zero_extendqisi2
 1410 0006 012C     		cmp	r4, #1
 1411 0008 55D0     		beq	.L331
 1412 000a 0124     		movs	r4, #1
 1413 000c 80F85C40 		strb	r4, [r0, #92]
 1414 0010 90F85D40 		ldrb	r4, [r0, #93]	@ zero_extendqisi2
 1415 0014 012C     		cmp	r4, #1
 1416 0016 E5B2     		uxtb	r5, r4
 1417 0018 08D0     		beq	.L324
 1418 001a 4468     		ldr	r4, [r0, #4]
 1419 001c B4F5827F 		cmp	r4, #260
 1420 0020 43D1     		bne	.L334
 1421 0022 8468     		ldr	r4, [r0, #8]
 1422 0024 002C     		cmp	r4, #0
 1423 0026 40D1     		bne	.L334
 1424 0028 042D     		cmp	r5, #4
 1425 002a 3ED1     		bne	.L334
 1426              	.L324:
 1427 002c 0029     		cmp	r1, #0
 1428 002e 3ED0     		beq	.L337
 1429 0030 002A     		cmp	r2, #0
 1430 0032 3CD0     		beq	.L337
 1431 0034 002B     		cmp	r3, #0
 1432 0036 3AD0     		beq	.L337
 1433 0038 90F85D40 		ldrb	r4, [r0, #93]	@ zero_extendqisi2
 1434 003c 8163     		str	r1, [r0, #56]
 1435 003e 042C     		cmp	r4, #4
 1436 0040 C168     		ldr	r1, [r0, #12]
 1437 0042 0264     		str	r2, [r0, #64]
 1438 0044 1CBF     		itt	ne
 1439 0046 0524     		movne	r4, #5
 1440 0048 80F85D40 		strbne	r4, [r0, #93]
 1441 004c 0024     		movs	r4, #0
 1442 004e B1F5E06F 		cmp	r1, #1792
 1443 0052 0466     		str	r4, [r0, #96]
 1444 0054 0268     		ldr	r2, [r0]
 1445 0056 C387     		strh	r3, [r0, #62]	@ movhi
 1446 0058 8387     		strh	r3, [r0, #60]	@ movhi
 1447 005a A0F84430 		strh	r3, [r0, #68]	@ movhi
 1448 005e A0F84630 		strh	r3, [r0, #70]	@ movhi
 1449 0062 18D9     		bls	.L327
 1450 0064 154B     		ldr	r3, .L346
 1451 0066 C364     		str	r3, [r0, #76]
 1452 0068 154B     		ldr	r3, .L346+4
 1453 006a 0365     		str	r3, [r0, #80]
 1454              	.L328:
ARM GAS  C:\Users\CL\AppData\Local\Temp\ccvLgiZE.s 			page 26


 1455 006c 5368     		ldr	r3, [r2, #4]
 1456 006e 23F48053 		bic	r3, r3, #4096
 1457              	.L345:
 1458 0072 5360     		str	r3, [r2, #4]
 1459 0074 5368     		ldr	r3, [r2, #4]
 1460 0076 43F0E003 		orr	r3, r3, #224
 1461 007a 5360     		str	r3, [r2, #4]
 1462 007c 1368     		ldr	r3, [r2]
 1463 007e 13F04003 		ands	r3, r3, #64
 1464 0082 16D1     		bne	.L338
 1465 0084 1168     		ldr	r1, [r2]
 1466 0086 41F04001 		orr	r1, r1, #64
 1467 008a 1160     		str	r1, [r2]
 1468              	.L325:
 1469 008c 0022     		movs	r2, #0
 1470 008e 80F85C20 		strb	r2, [r0, #92]
 1471              	.L323:
 1472 0092 1846     		mov	r0, r3
 1473 0094 30BD     		pop	{r4, r5, pc}
 1474              	.L327:
 1475 0096 0B49     		ldr	r1, .L346+8
 1476 0098 C164     		str	r1, [r0, #76]
 1477 009a 012B     		cmp	r3, #1
 1478 009c 0A49     		ldr	r1, .L346+12
 1479 009e 0165     		str	r1, [r0, #80]
 1480 00a0 E4D1     		bne	.L328
 1481 00a2 5368     		ldr	r3, [r2, #4]
 1482 00a4 43F48053 		orr	r3, r3, #4096
 1483 00a8 E3E7     		b	.L345
 1484              	.L334:
 1485 00aa 0223     		movs	r3, #2
 1486 00ac EEE7     		b	.L325
 1487              	.L337:
 1488 00ae 0123     		movs	r3, #1
 1489 00b0 ECE7     		b	.L325
 1490              	.L338:
 1491 00b2 0023     		movs	r3, #0
 1492 00b4 EAE7     		b	.L325
 1493              	.L331:
 1494 00b6 0223     		movs	r3, #2
 1495 00b8 EBE7     		b	.L323
 1496              	.L347:
 1497 00ba 00BF     		.align	2
 1498              	.L346:
 1499 00bc 00000000 		.word	SPI_2linesRxISR_16BIT
 1500 00c0 00000000 		.word	SPI_2linesTxISR_16BIT
 1501 00c4 00000000 		.word	SPI_2linesRxISR_8BIT
 1502 00c8 00000000 		.word	SPI_2linesTxISR_8BIT
 1504              		.section	.text.HAL_SPI_Receive_IT,"ax",%progbits
 1505              		.align	1
 1506              		.global	HAL_SPI_Receive_IT
 1507              		.syntax unified
 1508              		.thumb
 1509              		.thumb_func
 1511              	HAL_SPI_Receive_IT:
 1512              		@ args = 0, pretend = 0, frame = 0
 1513              		@ frame_needed = 0, uses_anonymous_args = 0
ARM GAS  C:\Users\CL\AppData\Local\Temp\ccvLgiZE.s 			page 27


 1514              		@ link register save eliminated.
 1515 0000 70B4     		push	{r4, r5, r6}
 1516 0002 8668     		ldr	r6, [r0, #8]
 1517 0004 0446     		mov	r4, r0
 1518 0006 0D46     		mov	r5, r1
 1519 0008 5EB9     		cbnz	r6, .L349
 1520 000a 4368     		ldr	r3, [r0, #4]
 1521 000c B3F5827F 		cmp	r3, #260
 1522 0010 07D1     		bne	.L349
 1523 0012 0423     		movs	r3, #4
 1524 0014 80F85D30 		strb	r3, [r0, #93]
 1525 0018 70BC     		pop	{r4, r5, r6}
 1526 001a 1346     		mov	r3, r2
 1527 001c 0A46     		mov	r2, r1
 1528 001e FFF7FEBF 		b	HAL_SPI_TransmitReceive_IT
 1529              	.L349:
 1530 0022 94F85C30 		ldrb	r3, [r4, #92]	@ zero_extendqisi2
 1531 0026 012B     		cmp	r3, #1
 1532 0028 49D0     		beq	.L355
 1533 002a 0123     		movs	r3, #1
 1534 002c 84F85C30 		strb	r3, [r4, #92]
 1535 0030 94F85D30 		ldrb	r3, [r4, #93]	@ zero_extendqisi2
 1536 0034 012B     		cmp	r3, #1
 1537 0036 D8B2     		uxtb	r0, r3
 1538 0038 3DD1     		bne	.L356
 1539 003a 002D     		cmp	r5, #0
 1540 003c 36D0     		beq	.L351
 1541 003e 002A     		cmp	r2, #0
 1542 0040 34D0     		beq	.L351
 1543 0042 0423     		movs	r3, #4
 1544 0044 84F85D30 		strb	r3, [r4, #93]
 1545 0048 0023     		movs	r3, #0
 1546 004a 2366     		str	r3, [r4, #96]
 1547 004c A4F84420 		strh	r2, [r4, #68]	@ movhi
 1548 0050 A4F84620 		strh	r2, [r4, #70]	@ movhi
 1549 0054 A363     		str	r3, [r4, #56]
 1550 0056 E268     		ldr	r2, [r4, #12]
 1551 0058 E387     		strh	r3, [r4, #62]	@ movhi
 1552 005a A387     		strh	r3, [r4, #60]	@ movhi
 1553 005c 2365     		str	r3, [r4, #80]
 1554 005e 2368     		ldr	r3, [r4]
 1555 0060 2564     		str	r5, [r4, #64]
 1556 0062 B2F5E06F 		cmp	r2, #1792
 1557 0066 5A68     		ldr	r2, [r3, #4]
 1558 0068 8BBF     		itete	hi
 1559 006a 22F48052 		bichi	r2, r2, #4096
 1560 006e 42F48052 		orrls	r2, r2, #4096
 1561 0072 5A60     		strhi	r2, [r3, #4]
 1562 0074 5A60     		strls	r2, [r3, #4]
 1563 0076 8CBF     		ite	hi
 1564 0078 124A     		ldrhi	r2, .L365
 1565 007a 134A     		ldrls	r2, .L365+4
 1566 007c E264     		str	r2, [r4, #76]
 1567 007e B6F5004F 		cmp	r6, #32768
 1568 0082 07D1     		bne	.L354
 1569 0084 1A68     		ldr	r2, [r3]
 1570 0086 22F04002 		bic	r2, r2, #64
ARM GAS  C:\Users\CL\AppData\Local\Temp\ccvLgiZE.s 			page 28


 1571 008a 1A60     		str	r2, [r3]
 1572 008c 1A68     		ldr	r2, [r3]
 1573 008e 22F48042 		bic	r2, r2, #16384
 1574 0092 1A60     		str	r2, [r3]
 1575              	.L354:
 1576 0094 5A68     		ldr	r2, [r3, #4]
 1577 0096 42F06002 		orr	r2, r2, #96
 1578 009a 5A60     		str	r2, [r3, #4]
 1579 009c 1868     		ldr	r0, [r3]
 1580 009e 10F04000 		ands	r0, r0, #64
 1581 00a2 0AD1     		bne	.L357
 1582 00a4 1A68     		ldr	r2, [r3]
 1583 00a6 42F04002 		orr	r2, r2, #64
 1584 00aa 1A60     		str	r2, [r3]
 1585              	.L351:
 1586 00ac 0023     		movs	r3, #0
 1587 00ae 84F85C30 		strb	r3, [r4, #92]
 1588              	.L350:
 1589 00b2 70BC     		pop	{r4, r5, r6}
 1590 00b4 7047     		bx	lr
 1591              	.L356:
 1592 00b6 0220     		movs	r0, #2
 1593 00b8 F8E7     		b	.L351
 1594              	.L357:
 1595 00ba 0020     		movs	r0, #0
 1596 00bc F6E7     		b	.L351
 1597              	.L355:
 1598 00be 0220     		movs	r0, #2
 1599 00c0 F7E7     		b	.L350
 1600              	.L366:
 1601 00c2 00BF     		.align	2
 1602              	.L365:
 1603 00c4 00000000 		.word	SPI_RxISR_16BIT
 1604 00c8 00000000 		.word	SPI_RxISR_8BIT
 1606              		.section	.text.HAL_SPI_Transmit_DMA,"ax",%progbits
 1607              		.align	1
 1608              		.global	HAL_SPI_Transmit_DMA
 1609              		.syntax unified
 1610              		.thumb
 1611              		.thumb_func
 1613              	HAL_SPI_Transmit_DMA:
 1614              		@ args = 0, pretend = 0, frame = 0
 1615              		@ frame_needed = 0, uses_anonymous_args = 0
 1616 0000 38B5     		push	{r3, r4, r5, lr}
 1617 0002 90F85C30 		ldrb	r3, [r0, #92]	@ zero_extendqisi2
 1618 0006 012B     		cmp	r3, #1
 1619 0008 0446     		mov	r4, r0
 1620 000a 76D0     		beq	.L375
 1621 000c 0123     		movs	r3, #1
 1622 000e 80F85C30 		strb	r3, [r0, #92]
 1623 0012 90F85D30 		ldrb	r3, [r0, #93]	@ zero_extendqisi2
 1624 0016 012B     		cmp	r3, #1
 1625 0018 DDB2     		uxtb	r5, r3
 1626 001a 6CD1     		bne	.L376
 1627 001c 0029     		cmp	r1, #0
 1628 001e 4BD0     		beq	.L369
 1629 0020 002A     		cmp	r2, #0
ARM GAS  C:\Users\CL\AppData\Local\Temp\ccvLgiZE.s 			page 29


 1630 0022 49D0     		beq	.L369
 1631 0024 0323     		movs	r3, #3
 1632 0026 80F85D30 		strb	r3, [r0, #93]
 1633 002a 0023     		movs	r3, #0
 1634 002c 0366     		str	r3, [r0, #96]
 1635 002e C0E91333 		strd	r3, r3, [r0, #76]
 1636 0032 C287     		strh	r2, [r0, #62]	@ movhi
 1637 0034 0364     		str	r3, [r0, #64]
 1638 0036 A0F84430 		strh	r3, [r0, #68]	@ movhi
 1639 003a A0F84630 		strh	r3, [r0, #70]	@ movhi
 1640 003e 8368     		ldr	r3, [r0, #8]
 1641 0040 8287     		strh	r2, [r0, #60]	@ movhi
 1642 0042 B3F5004F 		cmp	r3, #32768
 1643 0046 0268     		ldr	r2, [r0]
 1644 0048 8163     		str	r1, [r0, #56]
 1645 004a 07D1     		bne	.L370
 1646 004c 1368     		ldr	r3, [r2]
 1647 004e 23F04003 		bic	r3, r3, #64
 1648 0052 1360     		str	r3, [r2]
 1649 0054 1368     		ldr	r3, [r2]
 1650 0056 43F48043 		orr	r3, r3, #16384
 1651 005a 1360     		str	r3, [r2]
 1652              	.L370:
 1653 005c 606D     		ldr	r0, [r4, #84]
 1654 005e 284B     		ldr	r3, .L384
 1655 0060 0363     		str	r3, [r0, #48]
 1656 0062 284B     		ldr	r3, .L384+4
 1657 0064 C362     		str	r3, [r0, #44]
 1658 0066 284B     		ldr	r3, .L384+8
 1659 0068 4363     		str	r3, [r0, #52]
 1660 006a 0023     		movs	r3, #0
 1661 006c 8363     		str	r3, [r0, #56]
 1662 006e 5368     		ldr	r3, [r2, #4]
 1663 0070 23F48043 		bic	r3, r3, #16384
 1664 0074 5360     		str	r3, [r2, #4]
 1665 0076 E368     		ldr	r3, [r4, #12]
 1666 0078 B3F5E06F 		cmp	r3, #1792
 1667 007c 0FD8     		bhi	.L371
 1668 007e 8369     		ldr	r3, [r0, #24]
 1669 0080 B3F5806F 		cmp	r3, #1024
 1670 0084 0BD1     		bne	.L371
 1671 0086 E38F     		ldrh	r3, [r4, #62]
 1672 0088 13F0010F 		tst	r3, #1
 1673 008c 5368     		ldr	r3, [r2, #4]
 1674 008e 18D1     		bne	.L372
 1675 0090 23F48043 		bic	r3, r3, #16384
 1676 0094 5360     		str	r3, [r2, #4]
 1677 0096 E38F     		ldrh	r3, [r4, #62]
 1678 0098 C3F34E03 		ubfx	r3, r3, #1, #15
 1679              	.L383:
 1680 009c E387     		strh	r3, [r4, #62]	@ movhi
 1681              	.L371:
 1682 009e E38F     		ldrh	r3, [r4, #62]
 1683 00a0 0C32     		adds	r2, r2, #12
 1684 00a2 9BB2     		uxth	r3, r3
 1685 00a4 FFF7FEFF 		bl	HAL_DMA_Start_IT
 1686 00a8 98B1     		cbz	r0, .L373
ARM GAS  C:\Users\CL\AppData\Local\Temp\ccvLgiZE.s 			page 30


 1687 00aa 236E     		ldr	r3, [r4, #96]
 1688 00ac 43F01003 		orr	r3, r3, #16
 1689 00b0 2366     		str	r3, [r4, #96]
 1690 00b2 0123     		movs	r3, #1
 1691 00b4 84F85D30 		strb	r3, [r4, #93]
 1692              	.L369:
 1693 00b8 0023     		movs	r3, #0
 1694 00ba 84F85C30 		strb	r3, [r4, #92]
 1695              	.L368:
 1696 00be 2846     		mov	r0, r5
 1697 00c0 38BD     		pop	{r3, r4, r5, pc}
 1698              	.L372:
 1699 00c2 43F48043 		orr	r3, r3, #16384
 1700 00c6 5360     		str	r3, [r2, #4]
 1701 00c8 E38F     		ldrh	r3, [r4, #62]
 1702 00ca C3F34E03 		ubfx	r3, r3, #1, #15
 1703 00ce 0133     		adds	r3, r3, #1
 1704 00d0 E4E7     		b	.L383
 1705              	.L373:
 1706 00d2 2368     		ldr	r3, [r4]
 1707 00d4 1A68     		ldr	r2, [r3]
 1708 00d6 5206     		lsls	r2, r2, #25
 1709 00d8 5EBF     		ittt	pl
 1710 00da 1A68     		ldrpl	r2, [r3]
 1711 00dc 42F04002 		orrpl	r2, r2, #64
 1712 00e0 1A60     		strpl	r2, [r3]
 1713 00e2 5A68     		ldr	r2, [r3, #4]
 1714 00e4 42F02002 		orr	r2, r2, #32
 1715 00e8 5A60     		str	r2, [r3, #4]
 1716 00ea 5A68     		ldr	r2, [r3, #4]
 1717 00ec 42F00202 		orr	r2, r2, #2
 1718 00f0 5A60     		str	r2, [r3, #4]
 1719 00f2 0025     		movs	r5, #0
 1720 00f4 E0E7     		b	.L369
 1721              	.L376:
 1722 00f6 0225     		movs	r5, #2
 1723 00f8 DEE7     		b	.L369
 1724              	.L375:
 1725 00fa 0225     		movs	r5, #2
 1726 00fc DFE7     		b	.L368
 1727              	.L385:
 1728 00fe 00BF     		.align	2
 1729              	.L384:
 1730 0100 00000000 		.word	SPI_DMAHalfTransmitCplt
 1731 0104 00000000 		.word	SPI_DMATransmitCplt
 1732 0108 00000000 		.word	SPI_DMAError
 1734              		.section	.text.HAL_SPI_TransmitReceive_DMA,"ax",%progbits
 1735              		.align	1
 1736              		.global	HAL_SPI_TransmitReceive_DMA
 1737              		.syntax unified
 1738              		.thumb
 1739              		.thumb_func
 1741              	HAL_SPI_TransmitReceive_DMA:
 1742              		@ args = 0, pretend = 0, frame = 0
 1743              		@ frame_needed = 0, uses_anonymous_args = 0
 1744 0000 38B5     		push	{r3, r4, r5, lr}
 1745 0002 0446     		mov	r4, r0
ARM GAS  C:\Users\CL\AppData\Local\Temp\ccvLgiZE.s 			page 31


 1746 0004 90F85C00 		ldrb	r0, [r0, #92]	@ zero_extendqisi2
 1747 0008 0128     		cmp	r0, #1
 1748 000a 00F0C680 		beq	.L401
 1749 000e 0120     		movs	r0, #1
 1750 0010 84F85C00 		strb	r0, [r4, #92]
 1751 0014 94F85D00 		ldrb	r0, [r4, #93]	@ zero_extendqisi2
 1752 0018 0128     		cmp	r0, #1
 1753 001a C5B2     		uxtb	r5, r0
 1754 001c 0BD0     		beq	.L388
 1755 001e 6068     		ldr	r0, [r4, #4]
 1756 0020 B0F5827F 		cmp	r0, #260
 1757 0024 40F0B580 		bne	.L404
 1758 0028 A068     		ldr	r0, [r4, #8]
 1759 002a 0028     		cmp	r0, #0
 1760 002c 40F0B180 		bne	.L404
 1761 0030 042D     		cmp	r5, #4
 1762 0032 40F0AE80 		bne	.L404
 1763              	.L388:
 1764 0036 0029     		cmp	r1, #0
 1765 0038 00F0AD80 		beq	.L407
 1766 003c 002A     		cmp	r2, #0
 1767 003e 00F0AA80 		beq	.L407
 1768 0042 002B     		cmp	r3, #0
 1769 0044 00F0A780 		beq	.L407
 1770 0048 94F85D00 		ldrb	r0, [r4, #93]	@ zero_extendqisi2
 1771 004c A163     		str	r1, [r4, #56]
 1772 004e 0428     		cmp	r0, #4
 1773 0050 1CBF     		itt	ne
 1774 0052 0520     		movne	r0, #5
 1775 0054 84F85D00 		strbne	r0, [r4, #93]
 1776 0058 2168     		ldr	r1, [r4]
 1777 005a A387     		strh	r3, [r4, #60]	@ movhi
 1778 005c 0020     		movs	r0, #0
 1779 005e 2066     		str	r0, [r4, #96]
 1780 0060 E387     		strh	r3, [r4, #62]	@ movhi
 1781 0062 A4F84630 		strh	r3, [r4, #70]	@ movhi
 1782 0066 C4E91300 		strd	r0, r0, [r4, #76]
 1783 006a 4868     		ldr	r0, [r1, #4]
 1784 006c 2264     		str	r2, [r4, #64]
 1785 006e 20F4C040 		bic	r0, r0, #24576
 1786 0072 A4F84430 		strh	r3, [r4, #68]	@ movhi
 1787 0076 4860     		str	r0, [r1, #4]
 1788 0078 E068     		ldr	r0, [r4, #12]
 1789 007a B0F5E06F 		cmp	r0, #1792
 1790 007e A06D     		ldr	r0, [r4, #88]
 1791 0080 26D9     		bls	.L391
 1792 0082 4B68     		ldr	r3, [r1, #4]
 1793 0084 23F48053 		bic	r3, r3, #4096
 1794 0088 4B60     		str	r3, [r1, #4]
 1795              	.L392:
 1796 008a 94F85D30 		ldrb	r3, [r4, #93]	@ zero_extendqisi2
 1797 008e 042B     		cmp	r3, #4
 1798 0090 0BBF     		itete	eq
 1799 0092 434B     		ldreq	r3, .L418
 1800 0094 434B     		ldrne	r3, .L418+4
 1801 0096 0363     		streq	r3, [r0, #48]
 1802 0098 0363     		strne	r3, [r0, #48]
ARM GAS  C:\Users\CL\AppData\Local\Temp\ccvLgiZE.s 			page 32


 1803 009a 0CBF     		ite	eq
 1804 009c 424B     		ldreq	r3, .L418+8
 1805 009e 434B     		ldrne	r3, .L418+12
 1806 00a0 C362     		str	r3, [r0, #44]
 1807 00a2 434B     		ldr	r3, .L418+16
 1808 00a4 4363     		str	r3, [r0, #52]
 1809 00a6 0023     		movs	r3, #0
 1810 00a8 8363     		str	r3, [r0, #56]
 1811 00aa B4F84630 		ldrh	r3, [r4, #70]
 1812 00ae 0C31     		adds	r1, r1, #12
 1813 00b0 9BB2     		uxth	r3, r3
 1814 00b2 FFF7FEFF 		bl	HAL_DMA_Start_IT
 1815 00b6 0028     		cmp	r0, #0
 1816 00b8 47D0     		beq	.L398
 1817              	.L417:
 1818 00ba 236E     		ldr	r3, [r4, #96]
 1819 00bc 0120     		movs	r0, #1
 1820 00be 43F01003 		orr	r3, r3, #16
 1821 00c2 2366     		str	r3, [r4, #96]
 1822 00c4 84F85D00 		strb	r0, [r4, #93]
 1823              	.L389:
 1824 00c8 0023     		movs	r3, #0
 1825 00ca 84F85C30 		strb	r3, [r4, #92]
 1826              	.L387:
 1827 00ce 38BD     		pop	{r3, r4, r5, pc}
 1828              	.L391:
 1829 00d0 4D68     		ldr	r5, [r1, #4]
 1830 00d2 45F48055 		orr	r5, r5, #4096
 1831 00d6 4D60     		str	r5, [r1, #4]
 1832 00d8 656D     		ldr	r5, [r4, #84]
 1833 00da AD69     		ldr	r5, [r5, #24]
 1834 00dc B5F5806F 		cmp	r5, #1024
 1835 00e0 0AD1     		bne	.L393
 1836 00e2 13F0010F 		tst	r3, #1
 1837 00e6 4B68     		ldr	r3, [r1, #4]
 1838 00e8 1ED1     		bne	.L394
 1839 00ea 23F48043 		bic	r3, r3, #16384
 1840 00ee 4B60     		str	r3, [r1, #4]
 1841 00f0 E38F     		ldrh	r3, [r4, #62]
 1842 00f2 C3F34E03 		ubfx	r3, r3, #1, #15
 1843              	.L414:
 1844 00f6 E387     		strh	r3, [r4, #62]	@ movhi
 1845              	.L393:
 1846 00f8 8369     		ldr	r3, [r0, #24]
 1847 00fa B3F5806F 		cmp	r3, #1024
 1848 00fe C4D1     		bne	.L392
 1849 0100 4B68     		ldr	r3, [r1, #4]
 1850 0102 23F48053 		bic	r3, r3, #4096
 1851 0106 4B60     		str	r3, [r1, #4]
 1852 0108 B4F84630 		ldrh	r3, [r4, #70]
 1853 010c 13F0010F 		tst	r3, #1
 1854 0110 4B68     		ldr	r3, [r1, #4]
 1855 0112 11D1     		bne	.L395
 1856 0114 23F40053 		bic	r3, r3, #8192
 1857 0118 4B60     		str	r3, [r1, #4]
 1858 011a B4F84630 		ldrh	r3, [r4, #70]
 1859 011e C3F34E03 		ubfx	r3, r3, #1, #15
ARM GAS  C:\Users\CL\AppData\Local\Temp\ccvLgiZE.s 			page 33


 1860              	.L415:
 1861 0122 A4F84630 		strh	r3, [r4, #70]	@ movhi
 1862 0126 B0E7     		b	.L392
 1863              	.L394:
 1864 0128 43F48043 		orr	r3, r3, #16384
 1865 012c 4B60     		str	r3, [r1, #4]
 1866 012e E38F     		ldrh	r3, [r4, #62]
 1867 0130 C3F34E03 		ubfx	r3, r3, #1, #15
 1868 0134 0133     		adds	r3, r3, #1
 1869 0136 DEE7     		b	.L414
 1870              	.L395:
 1871 0138 43F40053 		orr	r3, r3, #8192
 1872 013c 4B60     		str	r3, [r1, #4]
 1873 013e B4F84630 		ldrh	r3, [r4, #70]
 1874 0142 C3F34E03 		ubfx	r3, r3, #1, #15
 1875 0146 0133     		adds	r3, r3, #1
 1876 0148 EBE7     		b	.L415
 1877              	.L398:
 1878 014a 2268     		ldr	r2, [r4]
 1879 014c 656D     		ldr	r5, [r4, #84]
 1880 014e 5368     		ldr	r3, [r2, #4]
 1881 0150 A16B     		ldr	r1, [r4, #56]
 1882 0152 43F00103 		orr	r3, r3, #1
 1883 0156 5360     		str	r3, [r2, #4]
 1884 0158 E38F     		ldrh	r3, [r4, #62]
 1885 015a C5E90B00 		strd	r0, r0, [r5, #44]
 1886 015e C5E90D00 		strd	r0, r0, [r5, #52]
 1887 0162 9BB2     		uxth	r3, r3
 1888 0164 0C32     		adds	r2, r2, #12
 1889 0166 2846     		mov	r0, r5
 1890 0168 FFF7FEFF 		bl	HAL_DMA_Start_IT
 1891 016c 0028     		cmp	r0, #0
 1892 016e A4D1     		bne	.L417
 1893 0170 2368     		ldr	r3, [r4]
 1894 0172 1A68     		ldr	r2, [r3]
 1895 0174 5206     		lsls	r2, r2, #25
 1896 0176 5EBF     		ittt	pl
 1897 0178 1A68     		ldrpl	r2, [r3]
 1898 017a 42F04002 		orrpl	r2, r2, #64
 1899 017e 1A60     		strpl	r2, [r3]
 1900 0180 5A68     		ldr	r2, [r3, #4]
 1901 0182 42F02002 		orr	r2, r2, #32
 1902 0186 5A60     		str	r2, [r3, #4]
 1903 0188 5A68     		ldr	r2, [r3, #4]
 1904 018a 42F00202 		orr	r2, r2, #2
 1905 018e 5A60     		str	r2, [r3, #4]
 1906 0190 9AE7     		b	.L389
 1907              	.L404:
 1908 0192 0220     		movs	r0, #2
 1909 0194 98E7     		b	.L389
 1910              	.L407:
 1911 0196 0120     		movs	r0, #1
 1912 0198 96E7     		b	.L389
 1913              	.L401:
 1914 019a 0220     		movs	r0, #2
 1915 019c 97E7     		b	.L387
 1916              	.L419:
ARM GAS  C:\Users\CL\AppData\Local\Temp\ccvLgiZE.s 			page 34


 1917 019e 00BF     		.align	2
 1918              	.L418:
 1919 01a0 00000000 		.word	SPI_DMAHalfReceiveCplt
 1920 01a4 00000000 		.word	SPI_DMAHalfTransmitReceiveCplt
 1921 01a8 00000000 		.word	SPI_DMAReceiveCplt
 1922 01ac 00000000 		.word	SPI_DMATransmitReceiveCplt
 1923 01b0 00000000 		.word	SPI_DMAError
 1925              		.section	.text.HAL_SPI_Receive_DMA,"ax",%progbits
 1926              		.align	1
 1927              		.global	HAL_SPI_Receive_DMA
 1928              		.syntax unified
 1929              		.thumb
 1930              		.thumb_func
 1932              	HAL_SPI_Receive_DMA:
 1933              		@ args = 0, pretend = 0, frame = 0
 1934              		@ frame_needed = 0, uses_anonymous_args = 0
 1935 0000 2DE9F041 		push	{r4, r5, r6, r7, r8, lr}
 1936 0004 8568     		ldr	r5, [r0, #8]
 1937 0006 0446     		mov	r4, r0
 1938 0008 0E46     		mov	r6, r1
 1939 000a 65B9     		cbnz	r5, .L421
 1940 000c 4368     		ldr	r3, [r0, #4]
 1941 000e B3F5827F 		cmp	r3, #260
 1942 0012 08D1     		bne	.L421
 1943 0014 0423     		movs	r3, #4
 1944 0016 80F85D30 		strb	r3, [r0, #93]
 1945 001a BDE8F041 		pop	{r4, r5, r6, r7, r8, lr}
 1946 001e 1346     		mov	r3, r2
 1947 0020 0A46     		mov	r2, r1
 1948 0022 FFF7FEBF 		b	HAL_SPI_TransmitReceive_DMA
 1949              	.L421:
 1950 0026 94F85C30 		ldrb	r3, [r4, #92]	@ zero_extendqisi2
 1951 002a 012B     		cmp	r3, #1
 1952 002c 00F08980 		beq	.L430
 1953 0030 0123     		movs	r3, #1
 1954 0032 84F85C30 		strb	r3, [r4, #92]
 1955 0036 94F85D30 		ldrb	r3, [r4, #93]	@ zero_extendqisi2
 1956 003a 012B     		cmp	r3, #1
 1957 003c DFB2     		uxtb	r7, r3
 1958 003e 7ED1     		bne	.L431
 1959 0040 002E     		cmp	r6, #0
 1960 0042 40D0     		beq	.L423
 1961 0044 002A     		cmp	r2, #0
 1962 0046 3ED0     		beq	.L423
 1963 0048 0423     		movs	r3, #4
 1964 004a 84F85D30 		strb	r3, [r4, #93]
 1965 004e B5F5004F 		cmp	r5, #32768
 1966 0052 4FF00003 		mov	r3, #0
 1967 0056 2366     		str	r3, [r4, #96]
 1968 0058 C4E91333 		strd	r3, r3, [r4, #76]
 1969 005c A4F84620 		strh	r2, [r4, #70]	@ movhi
 1970 0060 2168     		ldr	r1, [r4]
 1971 0062 2664     		str	r6, [r4, #64]
 1972 0064 A4F84420 		strh	r2, [r4, #68]	@ movhi
 1973 0068 A387     		strh	r3, [r4, #60]	@ movhi
 1974 006a E387     		strh	r3, [r4, #62]	@ movhi
 1975 006c 07D1     		bne	.L424
ARM GAS  C:\Users\CL\AppData\Local\Temp\ccvLgiZE.s 			page 35


 1976 006e 0B68     		ldr	r3, [r1]
 1977 0070 23F04003 		bic	r3, r3, #64
 1978 0074 0B60     		str	r3, [r1]
 1979 0076 0B68     		ldr	r3, [r1]
 1980 0078 23F48043 		bic	r3, r3, #16384
 1981 007c 0B60     		str	r3, [r1]
 1982              	.L424:
 1983 007e 4B68     		ldr	r3, [r1, #4]
 1984 0080 A06D     		ldr	r0, [r4, #88]
 1985 0082 23F40053 		bic	r3, r3, #8192
 1986 0086 4B60     		str	r3, [r1, #4]
 1987 0088 E368     		ldr	r3, [r4, #12]
 1988 008a B3F5E06F 		cmp	r3, #1792
 1989 008e 4B68     		ldr	r3, [r1, #4]
 1990 0090 1FD9     		bls	.L425
 1991 0092 23F48053 		bic	r3, r3, #4096
 1992 0096 4B60     		str	r3, [r1, #4]
 1993              	.L426:
 1994 0098 2B4B     		ldr	r3, .L439
 1995 009a 0363     		str	r3, [r0, #48]
 1996 009c 2B4B     		ldr	r3, .L439+4
 1997 009e C362     		str	r3, [r0, #44]
 1998 00a0 2B4B     		ldr	r3, .L439+8
 1999 00a2 4363     		str	r3, [r0, #52]
 2000 00a4 0023     		movs	r3, #0
 2001 00a6 8363     		str	r3, [r0, #56]
 2002 00a8 B4F84630 		ldrh	r3, [r4, #70]
 2003 00ac 3246     		mov	r2, r6
 2004 00ae 9BB2     		uxth	r3, r3
 2005 00b0 0C31     		adds	r1, r1, #12
 2006 00b2 FFF7FEFF 		bl	HAL_DMA_Start_IT
 2007 00b6 80B3     		cbz	r0, .L428
 2008 00b8 236E     		ldr	r3, [r4, #96]
 2009 00ba 43F01003 		orr	r3, r3, #16
 2010 00be 2366     		str	r3, [r4, #96]
 2011 00c0 0123     		movs	r3, #1
 2012 00c2 84F85D30 		strb	r3, [r4, #93]
 2013              	.L423:
 2014 00c6 0023     		movs	r3, #0
 2015 00c8 84F85C30 		strb	r3, [r4, #92]
 2016              	.L422:
 2017 00cc 3846     		mov	r0, r7
 2018 00ce BDE8F081 		pop	{r4, r5, r6, r7, r8, pc}
 2019              	.L425:
 2020 00d2 43F48053 		orr	r3, r3, #4096
 2021 00d6 4B60     		str	r3, [r1, #4]
 2022 00d8 8369     		ldr	r3, [r0, #24]
 2023 00da B3F5806F 		cmp	r3, #1024
 2024 00de DBD1     		bne	.L426
 2025 00e0 4B68     		ldr	r3, [r1, #4]
 2026 00e2 23F48053 		bic	r3, r3, #4096
 2027 00e6 4B60     		str	r3, [r1, #4]
 2028 00e8 B4F84630 		ldrh	r3, [r4, #70]
 2029 00ec 13F0010F 		tst	r3, #1
 2030 00f0 4B68     		ldr	r3, [r1, #4]
 2031 00f2 09D1     		bne	.L427
 2032 00f4 23F40053 		bic	r3, r3, #8192
ARM GAS  C:\Users\CL\AppData\Local\Temp\ccvLgiZE.s 			page 36


 2033 00f8 4B60     		str	r3, [r1, #4]
 2034 00fa B4F84630 		ldrh	r3, [r4, #70]
 2035 00fe C3F34E03 		ubfx	r3, r3, #1, #15
 2036              	.L438:
 2037 0102 A4F84630 		strh	r3, [r4, #70]	@ movhi
 2038 0106 C7E7     		b	.L426
 2039              	.L427:
 2040 0108 43F40053 		orr	r3, r3, #8192
 2041 010c 4B60     		str	r3, [r1, #4]
 2042 010e B4F84630 		ldrh	r3, [r4, #70]
 2043 0112 C3F34E03 		ubfx	r3, r3, #1, #15
 2044 0116 0133     		adds	r3, r3, #1
 2045 0118 F3E7     		b	.L438
 2046              	.L428:
 2047 011a 2368     		ldr	r3, [r4]
 2048 011c 1A68     		ldr	r2, [r3]
 2049 011e 5206     		lsls	r2, r2, #25
 2050 0120 5EBF     		ittt	pl
 2051 0122 1A68     		ldrpl	r2, [r3]
 2052 0124 42F04002 		orrpl	r2, r2, #64
 2053 0128 1A60     		strpl	r2, [r3]
 2054 012a 5A68     		ldr	r2, [r3, #4]
 2055 012c 42F02002 		orr	r2, r2, #32
 2056 0130 5A60     		str	r2, [r3, #4]
 2057 0132 5A68     		ldr	r2, [r3, #4]
 2058 0134 42F00102 		orr	r2, r2, #1
 2059 0138 5A60     		str	r2, [r3, #4]
 2060 013a 0027     		movs	r7, #0
 2061 013c C3E7     		b	.L423
 2062              	.L431:
 2063 013e 0227     		movs	r7, #2
 2064 0140 C1E7     		b	.L423
 2065              	.L430:
 2066 0142 0227     		movs	r7, #2
 2067 0144 C2E7     		b	.L422
 2068              	.L440:
 2069 0146 00BF     		.align	2
 2070              	.L439:
 2071 0148 00000000 		.word	SPI_DMAHalfReceiveCplt
 2072 014c 00000000 		.word	SPI_DMAReceiveCplt
 2073 0150 00000000 		.word	SPI_DMAError
 2075              		.section	.text.HAL_SPI_Abort,"ax",%progbits
 2076              		.align	1
 2077              		.global	HAL_SPI_Abort
 2078              		.syntax unified
 2079              		.thumb
 2080              		.thumb_func
 2082              	HAL_SPI_Abort:
 2083              		@ args = 0, pretend = 0, frame = 16
 2084              		@ frame_needed = 0, uses_anonymous_args = 0
 2085 0000 1FB5     		push	{r0, r1, r2, r3, r4, lr}
 2086 0002 5B4B     		ldr	r3, .L496
 2087 0004 45F6C052 		movw	r2, #24000
 2088 0008 1B68     		ldr	r3, [r3]
 2089 000a B3FBF2F3 		udiv	r3, r3, r2
 2090 000e 6422     		movs	r2, #100
 2091 0010 5343     		muls	r3, r2, r3
ARM GAS  C:\Users\CL\AppData\Local\Temp\ccvLgiZE.s 			page 37


 2092 0012 0193     		str	r3, [sp, #4]
 2093 0014 019B     		ldr	r3, [sp, #4]
 2094 0016 0093     		str	r3, [sp]
 2095 0018 0368     		ldr	r3, [r0]
 2096 001a 5A68     		ldr	r2, [r3, #4]
 2097 001c 22F02002 		bic	r2, r2, #32
 2098 0020 5A60     		str	r2, [r3, #4]
 2099 0022 5A68     		ldr	r2, [r3, #4]
 2100 0024 0446     		mov	r4, r0
 2101 0026 1006     		lsls	r0, r2, #24
 2102 0028 0BD5     		bpl	.L442
 2103 002a 524A     		ldr	r2, .L496+4
 2104 002c 2265     		str	r2, [r4, #80]
 2105              	.L445:
 2106 002e 009A     		ldr	r2, [sp]
 2107 0030 002A     		cmp	r2, #0
 2108 0032 40F08A80 		bne	.L443
 2109 0036 226E     		ldr	r2, [r4, #96]
 2110 0038 42F04002 		orr	r2, r2, #64
 2111 003c 2266     		str	r2, [r4, #96]
 2112              	.L444:
 2113 003e 019A     		ldr	r2, [sp, #4]
 2114 0040 0092     		str	r2, [sp]
 2115              	.L442:
 2116 0042 5A68     		ldr	r2, [r3, #4]
 2117 0044 5106     		lsls	r1, r2, #25
 2118 0046 0BD5     		bpl	.L446
 2119 0048 4B4A     		ldr	r2, .L496+8
 2120 004a E264     		str	r2, [r4, #76]
 2121              	.L449:
 2122 004c 009A     		ldr	r2, [sp]
 2123 004e 002A     		cmp	r2, #0
 2124 0050 40F08480 		bne	.L447
 2125 0054 226E     		ldr	r2, [r4, #96]
 2126 0056 42F04002 		orr	r2, r2, #64
 2127 005a 2266     		str	r2, [r4, #96]
 2128              	.L448:
 2129 005c 019A     		ldr	r2, [sp, #4]
 2130 005e 0092     		str	r2, [sp]
 2131              	.L446:
 2132 0060 5B68     		ldr	r3, [r3, #4]
 2133 0062 9A07     		lsls	r2, r3, #30
 2134 0064 28D5     		bpl	.L451
 2135 0066 606D     		ldr	r0, [r4, #84]
 2136 0068 30B3     		cbz	r0, .L451
 2137 006a 0023     		movs	r3, #0
 2138 006c 8363     		str	r3, [r0, #56]
 2139 006e FFF7FEFF 		bl	HAL_DMA_Abort
 2140 0072 08B1     		cbz	r0, .L453
 2141 0074 4023     		movs	r3, #64
 2142 0076 2366     		str	r3, [r4, #96]
 2143              	.L453:
 2144 0078 2268     		ldr	r2, [r4]
 2145 007a 5368     		ldr	r3, [r2, #4]
 2146 007c 23F00203 		bic	r3, r3, #2
 2147 0080 5360     		str	r3, [r2, #4]
 2148 0082 FFF7FEFF 		bl	HAL_GetTick
ARM GAS  C:\Users\CL\AppData\Local\Temp\ccvLgiZE.s 			page 38


 2149 0086 6421     		movs	r1, #100
 2150 0088 0246     		mov	r2, r0
 2151 008a 2046     		mov	r0, r4
 2152 008c FFF7FEFF 		bl	SPI_EndRxTxTransaction
 2153 0090 08B1     		cbz	r0, .L454
 2154 0092 4023     		movs	r3, #64
 2155 0094 2366     		str	r3, [r4, #96]
 2156              	.L454:
 2157 0096 2268     		ldr	r2, [r4]
 2158 0098 1368     		ldr	r3, [r2]
 2159 009a 23F04003 		bic	r3, r3, #64
 2160 009e 1360     		str	r3, [r2]
 2161 00a0 FFF7FEFF 		bl	HAL_GetTick
 2162 00a4 6422     		movs	r2, #100
 2163 00a6 0346     		mov	r3, r0
 2164 00a8 4FF4C061 		mov	r1, #1536
 2165 00ac 2046     		mov	r0, r4
 2166 00ae FFF7FEFF 		bl	SPI_WaitFifoStateUntilTimeout.constprop.0
 2167 00b2 08B1     		cbz	r0, .L451
 2168 00b4 4023     		movs	r3, #64
 2169 00b6 2366     		str	r3, [r4, #96]
 2170              	.L451:
 2171 00b8 2368     		ldr	r3, [r4]
 2172 00ba 5B68     		ldr	r3, [r3, #4]
 2173 00bc DB07     		lsls	r3, r3, #31
 2174 00be 28D5     		bpl	.L455
 2175 00c0 A06D     		ldr	r0, [r4, #88]
 2176 00c2 30B3     		cbz	r0, .L455
 2177 00c4 0023     		movs	r3, #0
 2178 00c6 8363     		str	r3, [r0, #56]
 2179 00c8 FFF7FEFF 		bl	HAL_DMA_Abort
 2180 00cc 08B1     		cbz	r0, .L456
 2181 00ce 4023     		movs	r3, #64
 2182 00d0 2366     		str	r3, [r4, #96]
 2183              	.L456:
 2184 00d2 2268     		ldr	r2, [r4]
 2185 00d4 1368     		ldr	r3, [r2]
 2186 00d6 23F04003 		bic	r3, r3, #64
 2187 00da 1360     		str	r3, [r2]
 2188 00dc FFF7FEFF 		bl	HAL_GetTick
 2189 00e0 6421     		movs	r1, #100
 2190 00e2 0246     		mov	r2, r0
 2191 00e4 2046     		mov	r0, r4
 2192 00e6 FFF7FEFF 		bl	SPI_WaitFlagStateUntilTimeout.constprop.0
 2193 00ea 08B1     		cbz	r0, .L457
 2194 00ec 4023     		movs	r3, #64
 2195 00ee 2366     		str	r3, [r4, #96]
 2196              	.L457:
 2197 00f0 FFF7FEFF 		bl	HAL_GetTick
 2198 00f4 6422     		movs	r2, #100
 2199 00f6 0346     		mov	r3, r0
 2200 00f8 4FF4C061 		mov	r1, #1536
 2201 00fc 2046     		mov	r0, r4
 2202 00fe FFF7FEFF 		bl	SPI_WaitFifoStateUntilTimeout.constprop.0
 2203 0102 08B1     		cbz	r0, .L458
 2204 0104 4023     		movs	r3, #64
 2205 0106 2366     		str	r3, [r4, #96]
ARM GAS  C:\Users\CL\AppData\Local\Temp\ccvLgiZE.s 			page 39


 2206              	.L458:
 2207 0108 2268     		ldr	r2, [r4]
 2208 010a 5368     		ldr	r3, [r2, #4]
 2209 010c 23F00103 		bic	r3, r3, #1
 2210 0110 5360     		str	r3, [r2, #4]
 2211              	.L455:
 2212 0112 0023     		movs	r3, #0
 2213 0114 A4F84630 		strh	r3, [r4, #70]	@ movhi
 2214 0118 E387     		strh	r3, [r4, #62]	@ movhi
 2215 011a 226E     		ldr	r2, [r4, #96]
 2216 011c 402A     		cmp	r2, #64
 2217 011e 2268     		ldr	r2, [r4]
 2218 0120 18BF     		it	ne
 2219 0122 2366     		strne	r3, [r4, #96]
 2220 0124 0293     		str	r3, [sp, #8]
 2221 0126 D168     		ldr	r1, [r2, #12]
 2222 0128 0291     		str	r1, [sp, #8]
 2223 012a 9168     		ldr	r1, [r2, #8]
 2224 012c 0291     		str	r1, [sp, #8]
 2225 012e 0299     		ldr	r1, [sp, #8]
 2226 0130 0393     		str	r3, [sp, #12]
 2227 0132 18BF     		it	ne
 2228 0134 1846     		movne	r0, r3
 2229 0136 9368     		ldr	r3, [r2, #8]
 2230 0138 0393     		str	r3, [sp, #12]
 2231 013a 039B     		ldr	r3, [sp, #12]
 2232 013c 08BF     		it	eq
 2233 013e 0120     		moveq	r0, #1
 2234 0140 0123     		movs	r3, #1
 2235 0142 84F85D30 		strb	r3, [r4, #93]
 2236 0146 04B0     		add	sp, sp, #16
 2237              		@ sp needed
 2238 0148 10BD     		pop	{r4, pc}
 2239              	.L443:
 2240 014a 009A     		ldr	r2, [sp]
 2241 014c 013A     		subs	r2, r2, #1
 2242 014e 0092     		str	r2, [sp]
 2243 0150 94F85D20 		ldrb	r2, [r4, #93]	@ zero_extendqisi2
 2244 0154 072A     		cmp	r2, #7
 2245 0156 7FF46AAF 		bne	.L445
 2246 015a 70E7     		b	.L444
 2247              	.L447:
 2248 015c 009A     		ldr	r2, [sp]
 2249 015e 013A     		subs	r2, r2, #1
 2250 0160 0092     		str	r2, [sp]
 2251 0162 94F85D20 		ldrb	r2, [r4, #93]	@ zero_extendqisi2
 2252 0166 072A     		cmp	r2, #7
 2253 0168 7FF470AF 		bne	.L449
 2254 016c 76E7     		b	.L448
 2255              	.L497:
 2256 016e 00BF     		.align	2
 2257              	.L496:
 2258 0170 00000000 		.word	SystemCoreClock
 2259 0174 00000000 		.word	SPI_AbortTx_ISR
 2260 0178 00000000 		.word	SPI_AbortRx_ISR
 2262              		.section	.text.HAL_SPI_DMAPause,"ax",%progbits
 2263              		.align	1
ARM GAS  C:\Users\CL\AppData\Local\Temp\ccvLgiZE.s 			page 40


 2264              		.global	HAL_SPI_DMAPause
 2265              		.syntax unified
 2266              		.thumb
 2267              		.thumb_func
 2269              	HAL_SPI_DMAPause:
 2270              		@ args = 0, pretend = 0, frame = 0
 2271              		@ frame_needed = 0, uses_anonymous_args = 0
 2272              		@ link register save eliminated.
 2273 0000 90F85C30 		ldrb	r3, [r0, #92]	@ zero_extendqisi2
 2274 0004 012B     		cmp	r3, #1
 2275 0006 1FBF     		itttt	ne
 2276 0008 0268     		ldrne	r2, [r0]
 2277 000a 5368     		ldrne	r3, [r2, #4]
 2278 000c 23F00303 		bicne	r3, r3, #3
 2279 0010 5360     		strne	r3, [r2, #4]
 2280 0012 1DBF     		ittte	ne
 2281 0014 0023     		movne	r3, #0
 2282 0016 80F85C30 		strbne	r3, [r0, #92]
 2283 001a 1846     		movne	r0, r3
 2284 001c 0220     		moveq	r0, #2
 2285 001e 7047     		bx	lr
 2287              		.section	.text.HAL_SPI_DMAResume,"ax",%progbits
 2288              		.align	1
 2289              		.global	HAL_SPI_DMAResume
 2290              		.syntax unified
 2291              		.thumb
 2292              		.thumb_func
 2294              	HAL_SPI_DMAResume:
 2295              		@ args = 0, pretend = 0, frame = 0
 2296              		@ frame_needed = 0, uses_anonymous_args = 0
 2297              		@ link register save eliminated.
 2298 0000 90F85C30 		ldrb	r3, [r0, #92]	@ zero_extendqisi2
 2299 0004 012B     		cmp	r3, #1
 2300 0006 1FBF     		itttt	ne
 2301 0008 0268     		ldrne	r2, [r0]
 2302 000a 5368     		ldrne	r3, [r2, #4]
 2303 000c 43F00303 		orrne	r3, r3, #3
 2304 0010 5360     		strne	r3, [r2, #4]
 2305 0012 1DBF     		ittte	ne
 2306 0014 0023     		movne	r3, #0
 2307 0016 80F85C30 		strbne	r3, [r0, #92]
 2308 001a 1846     		movne	r0, r3
 2309 001c 0220     		moveq	r0, #2
 2310 001e 7047     		bx	lr
 2312              		.section	.text.HAL_SPI_DMAStop,"ax",%progbits
 2313              		.align	1
 2314              		.global	HAL_SPI_DMAStop
 2315              		.syntax unified
 2316              		.thumb
 2317              		.thumb_func
 2319              	HAL_SPI_DMAStop:
 2320              		@ args = 0, pretend = 0, frame = 0
 2321              		@ frame_needed = 0, uses_anonymous_args = 0
 2322 0000 38B5     		push	{r3, r4, r5, lr}
 2323 0002 0446     		mov	r4, r0
 2324 0004 406D     		ldr	r0, [r0, #84]
 2325 0006 A0B9     		cbnz	r0, .L505
ARM GAS  C:\Users\CL\AppData\Local\Temp\ccvLgiZE.s 			page 41


 2326              	.L507:
 2327 0008 0025     		movs	r5, #0
 2328              	.L506:
 2329 000a A06D     		ldr	r0, [r4, #88]
 2330 000c 38B1     		cbz	r0, .L508
 2331 000e FFF7FEFF 		bl	HAL_DMA_Abort
 2332 0012 20B1     		cbz	r0, .L508
 2333 0014 236E     		ldr	r3, [r4, #96]
 2334 0016 43F01003 		orr	r3, r3, #16
 2335 001a 2366     		str	r3, [r4, #96]
 2336 001c 0125     		movs	r5, #1
 2337              	.L508:
 2338 001e 2268     		ldr	r2, [r4]
 2339 0020 5368     		ldr	r3, [r2, #4]
 2340 0022 23F00303 		bic	r3, r3, #3
 2341 0026 5360     		str	r3, [r2, #4]
 2342 0028 0123     		movs	r3, #1
 2343 002a 84F85D30 		strb	r3, [r4, #93]
 2344 002e 2846     		mov	r0, r5
 2345 0030 38BD     		pop	{r3, r4, r5, pc}
 2346              	.L505:
 2347 0032 FFF7FEFF 		bl	HAL_DMA_Abort
 2348 0036 0028     		cmp	r0, #0
 2349 0038 E6D0     		beq	.L507
 2350 003a 236E     		ldr	r3, [r4, #96]
 2351 003c 43F01003 		orr	r3, r3, #16
 2352 0040 2366     		str	r3, [r4, #96]
 2353 0042 0125     		movs	r5, #1
 2354 0044 E1E7     		b	.L506
 2356              		.section	.text.HAL_SPI_TxCpltCallback,"ax",%progbits
 2357              		.align	1
 2358              		.weak	HAL_SPI_TxCpltCallback
 2359              		.syntax unified
 2360              		.thumb
 2361              		.thumb_func
 2363              	HAL_SPI_TxCpltCallback:
 2364              		@ args = 0, pretend = 0, frame = 0
 2365              		@ frame_needed = 0, uses_anonymous_args = 0
 2366              		@ link register save eliminated.
 2367 0000 7047     		bx	lr
 2369              		.section	.text.HAL_SPI_RxCpltCallback,"ax",%progbits
 2370              		.align	1
 2371              		.weak	HAL_SPI_RxCpltCallback
 2372              		.syntax unified
 2373              		.thumb
 2374              		.thumb_func
 2376              	HAL_SPI_RxCpltCallback:
 2377              		@ args = 0, pretend = 0, frame = 0
 2378              		@ frame_needed = 0, uses_anonymous_args = 0
 2379              		@ link register save eliminated.
 2380 0000 7047     		bx	lr
 2382              		.section	.text.HAL_SPI_TxRxCpltCallback,"ax",%progbits
 2383              		.align	1
 2384              		.weak	HAL_SPI_TxRxCpltCallback
 2385              		.syntax unified
 2386              		.thumb
 2387              		.thumb_func
ARM GAS  C:\Users\CL\AppData\Local\Temp\ccvLgiZE.s 			page 42


 2389              	HAL_SPI_TxRxCpltCallback:
 2390              		@ args = 0, pretend = 0, frame = 0
 2391              		@ frame_needed = 0, uses_anonymous_args = 0
 2392              		@ link register save eliminated.
 2393 0000 7047     		bx	lr
 2395              		.section	.text.HAL_SPI_TxHalfCpltCallback,"ax",%progbits
 2396              		.align	1
 2397              		.weak	HAL_SPI_TxHalfCpltCallback
 2398              		.syntax unified
 2399              		.thumb
 2400              		.thumb_func
 2402              	HAL_SPI_TxHalfCpltCallback:
 2403              		@ args = 0, pretend = 0, frame = 0
 2404              		@ frame_needed = 0, uses_anonymous_args = 0
 2405              		@ link register save eliminated.
 2406 0000 7047     		bx	lr
 2408              		.section	.text.SPI_DMAHalfTransmitCplt,"ax",%progbits
 2409              		.align	1
 2410              		.syntax unified
 2411              		.thumb
 2412              		.thumb_func
 2414              	SPI_DMAHalfTransmitCplt:
 2415              		@ args = 0, pretend = 0, frame = 0
 2416              		@ frame_needed = 0, uses_anonymous_args = 0
 2417 0000 08B5     		push	{r3, lr}
 2418 0002 806A     		ldr	r0, [r0, #40]
 2419 0004 FFF7FEFF 		bl	HAL_SPI_TxHalfCpltCallback
 2420 0008 08BD     		pop	{r3, pc}
 2422              		.section	.text.HAL_SPI_RxHalfCpltCallback,"ax",%progbits
 2423              		.align	1
 2424              		.weak	HAL_SPI_RxHalfCpltCallback
 2425              		.syntax unified
 2426              		.thumb
 2427              		.thumb_func
 2429              	HAL_SPI_RxHalfCpltCallback:
 2430              		@ args = 0, pretend = 0, frame = 0
 2431              		@ frame_needed = 0, uses_anonymous_args = 0
 2432              		@ link register save eliminated.
 2433 0000 7047     		bx	lr
 2435              		.section	.text.SPI_DMAHalfReceiveCplt,"ax",%progbits
 2436              		.align	1
 2437              		.syntax unified
 2438              		.thumb
 2439              		.thumb_func
 2441              	SPI_DMAHalfReceiveCplt:
 2442              		@ args = 0, pretend = 0, frame = 0
 2443              		@ frame_needed = 0, uses_anonymous_args = 0
 2444 0000 08B5     		push	{r3, lr}
 2445 0002 806A     		ldr	r0, [r0, #40]
 2446 0004 FFF7FEFF 		bl	HAL_SPI_RxHalfCpltCallback
 2447 0008 08BD     		pop	{r3, pc}
 2449              		.section	.text.HAL_SPI_TxRxHalfCpltCallback,"ax",%progbits
 2450              		.align	1
 2451              		.weak	HAL_SPI_TxRxHalfCpltCallback
 2452              		.syntax unified
 2453              		.thumb
 2454              		.thumb_func
ARM GAS  C:\Users\CL\AppData\Local\Temp\ccvLgiZE.s 			page 43


 2456              	HAL_SPI_TxRxHalfCpltCallback:
 2457              		@ args = 0, pretend = 0, frame = 0
 2458              		@ frame_needed = 0, uses_anonymous_args = 0
 2459              		@ link register save eliminated.
 2460 0000 7047     		bx	lr
 2462              		.section	.text.SPI_DMAHalfTransmitReceiveCplt,"ax",%progbits
 2463              		.align	1
 2464              		.syntax unified
 2465              		.thumb
 2466              		.thumb_func
 2468              	SPI_DMAHalfTransmitReceiveCplt:
 2469              		@ args = 0, pretend = 0, frame = 0
 2470              		@ frame_needed = 0, uses_anonymous_args = 0
 2471 0000 08B5     		push	{r3, lr}
 2472 0002 806A     		ldr	r0, [r0, #40]
 2473 0004 FFF7FEFF 		bl	HAL_SPI_TxRxHalfCpltCallback
 2474 0008 08BD     		pop	{r3, pc}
 2476              		.section	.text.HAL_SPI_ErrorCallback,"ax",%progbits
 2477              		.align	1
 2478              		.weak	HAL_SPI_ErrorCallback
 2479              		.syntax unified
 2480              		.thumb
 2481              		.thumb_func
 2483              	HAL_SPI_ErrorCallback:
 2484              		@ args = 0, pretend = 0, frame = 0
 2485              		@ frame_needed = 0, uses_anonymous_args = 0
 2486              		@ link register save eliminated.
 2487 0000 7047     		bx	lr
 2489              		.section	.text.SPI_CloseTx_ISR,"ax",%progbits
 2490              		.align	1
 2491              		.syntax unified
 2492              		.thumb
 2493              		.thumb_func
 2495              	SPI_CloseTx_ISR:
 2496              		@ args = 0, pretend = 0, frame = 8
 2497              		@ frame_needed = 0, uses_anonymous_args = 0
 2498 0000 13B5     		push	{r0, r1, r4, lr}
 2499 0002 0446     		mov	r4, r0
 2500 0004 FFF7FEFF 		bl	HAL_GetTick
 2501 0008 2168     		ldr	r1, [r4]
 2502 000a 4B68     		ldr	r3, [r1, #4]
 2503 000c 23F0A003 		bic	r3, r3, #160
 2504 0010 0246     		mov	r2, r0
 2505 0012 4B60     		str	r3, [r1, #4]
 2506 0014 2046     		mov	r0, r4
 2507 0016 6421     		movs	r1, #100
 2508 0018 FFF7FEFF 		bl	SPI_EndRxTxTransaction
 2509 001c 18B1     		cbz	r0, .L529
 2510 001e 236E     		ldr	r3, [r4, #96]
 2511 0020 43F02003 		orr	r3, r3, #32
 2512 0024 2366     		str	r3, [r4, #96]
 2513              	.L529:
 2514 0026 A368     		ldr	r3, [r4, #8]
 2515 0028 33B9     		cbnz	r3, .L530
 2516 002a 0193     		str	r3, [sp, #4]
 2517 002c 2368     		ldr	r3, [r4]
 2518 002e DA68     		ldr	r2, [r3, #12]
ARM GAS  C:\Users\CL\AppData\Local\Temp\ccvLgiZE.s 			page 44


 2519 0030 0192     		str	r2, [sp, #4]
 2520 0032 9B68     		ldr	r3, [r3, #8]
 2521 0034 0193     		str	r3, [sp, #4]
 2522 0036 019B     		ldr	r3, [sp, #4]
 2523              	.L530:
 2524 0038 0123     		movs	r3, #1
 2525 003a 84F85D30 		strb	r3, [r4, #93]
 2526 003e 236E     		ldr	r3, [r4, #96]
 2527 0040 2046     		mov	r0, r4
 2528 0042 1BB1     		cbz	r3, .L531
 2529 0044 FFF7FEFF 		bl	HAL_SPI_ErrorCallback
 2530              	.L528:
 2531 0048 02B0     		add	sp, sp, #8
 2532              		@ sp needed
 2533 004a 10BD     		pop	{r4, pc}
 2534              	.L531:
 2535 004c FFF7FEFF 		bl	HAL_SPI_TxCpltCallback
 2536 0050 FAE7     		b	.L528
 2538              		.section	.text.SPI_TxISR_8BIT,"ax",%progbits
 2539              		.align	1
 2540              		.syntax unified
 2541              		.thumb
 2542              		.thumb_func
 2544              	SPI_TxISR_8BIT:
 2545              		@ args = 0, pretend = 0, frame = 0
 2546              		@ frame_needed = 0, uses_anonymous_args = 0
 2547              		@ link register save eliminated.
 2548 0000 816B     		ldr	r1, [r0, #56]
 2549 0002 0268     		ldr	r2, [r0]
 2550 0004 0978     		ldrb	r1, [r1]	@ zero_extendqisi2
 2551 0006 1173     		strb	r1, [r2, #12]
 2552 0008 826B     		ldr	r2, [r0, #56]
 2553 000a 0132     		adds	r2, r2, #1
 2554 000c 8263     		str	r2, [r0, #56]
 2555 000e C28F     		ldrh	r2, [r0, #62]
 2556 0010 013A     		subs	r2, r2, #1
 2557 0012 92B2     		uxth	r2, r2
 2558 0014 C287     		strh	r2, [r0, #62]	@ movhi
 2559 0016 C38F     		ldrh	r3, [r0, #62]
 2560 0018 9BB2     		uxth	r3, r3
 2561 001a 0BB9     		cbnz	r3, .L536
 2562 001c FFF7FEBF 		b	SPI_CloseTx_ISR
 2563              	.L536:
 2564 0020 7047     		bx	lr
 2566              		.section	.text.SPI_TxISR_16BIT,"ax",%progbits
 2567              		.align	1
 2568              		.syntax unified
 2569              		.thumb
 2570              		.thumb_func
 2572              	SPI_TxISR_16BIT:
 2573              		@ args = 0, pretend = 0, frame = 0
 2574              		@ frame_needed = 0, uses_anonymous_args = 0
 2575              		@ link register save eliminated.
 2576 0000 826B     		ldr	r2, [r0, #56]
 2577 0002 0168     		ldr	r1, [r0]
 2578 0004 10B4     		push	{r4}
 2579 0006 32F8024B 		ldrh	r4, [r2], #2
ARM GAS  C:\Users\CL\AppData\Local\Temp\ccvLgiZE.s 			page 45


 2580 000a CC60     		str	r4, [r1, #12]
 2581 000c 8263     		str	r2, [r0, #56]
 2582 000e C28F     		ldrh	r2, [r0, #62]
 2583 0010 013A     		subs	r2, r2, #1
 2584 0012 92B2     		uxth	r2, r2
 2585 0014 C287     		strh	r2, [r0, #62]	@ movhi
 2586 0016 C38F     		ldrh	r3, [r0, #62]
 2587 0018 9BB2     		uxth	r3, r3
 2588 001a 1BB9     		cbnz	r3, .L538
 2589 001c 5DF8044B 		ldr	r4, [sp], #4
 2590 0020 FFF7FEBF 		b	SPI_CloseTx_ISR
 2591              	.L538:
 2592 0024 5DF8044B 		ldr	r4, [sp], #4
 2593 0028 7047     		bx	lr
 2595              		.section	.text.SPI_CloseRx_ISR,"ax",%progbits
 2596              		.align	1
 2597              		.syntax unified
 2598              		.thumb
 2599              		.thumb_func
 2601              	SPI_CloseRx_ISR:
 2602              		@ args = 0, pretend = 0, frame = 0
 2603              		@ frame_needed = 0, uses_anonymous_args = 0
 2604 0000 0268     		ldr	r2, [r0]
 2605 0002 5368     		ldr	r3, [r2, #4]
 2606 0004 23F06003 		bic	r3, r3, #96
 2607 0008 10B5     		push	{r4, lr}
 2608 000a 5360     		str	r3, [r2, #4]
 2609 000c 0446     		mov	r4, r0
 2610 000e FFF7FEFF 		bl	HAL_GetTick
 2611 0012 6421     		movs	r1, #100
 2612 0014 0246     		mov	r2, r0
 2613 0016 2046     		mov	r0, r4
 2614 0018 FFF7FEFF 		bl	SPI_EndRxTransaction
 2615 001c 18B1     		cbz	r0, .L541
 2616 001e 236E     		ldr	r3, [r4, #96]
 2617 0020 43F02003 		orr	r3, r3, #32
 2618 0024 2366     		str	r3, [r4, #96]
 2619              	.L541:
 2620 0026 0123     		movs	r3, #1
 2621 0028 84F85D30 		strb	r3, [r4, #93]
 2622 002c 236E     		ldr	r3, [r4, #96]
 2623 002e 2046     		mov	r0, r4
 2624 0030 13B9     		cbnz	r3, .L542
 2625 0032 FFF7FEFF 		bl	HAL_SPI_RxCpltCallback
 2626              	.L540:
 2627 0036 10BD     		pop	{r4, pc}
 2628              	.L542:
 2629 0038 FFF7FEFF 		bl	HAL_SPI_ErrorCallback
 2630 003c FBE7     		b	.L540
 2632              		.section	.text.SPI_RxISR_8BIT,"ax",%progbits
 2633              		.align	1
 2634              		.syntax unified
 2635              		.thumb
 2636              		.thumb_func
 2638              	SPI_RxISR_8BIT:
 2639              		@ args = 0, pretend = 0, frame = 0
 2640              		@ frame_needed = 0, uses_anonymous_args = 0
ARM GAS  C:\Users\CL\AppData\Local\Temp\ccvLgiZE.s 			page 46


 2641              		@ link register save eliminated.
 2642 0000 0168     		ldr	r1, [r0]
 2643 0002 026C     		ldr	r2, [r0, #64]
 2644 0004 097B     		ldrb	r1, [r1, #12]	@ zero_extendqisi2
 2645 0006 1170     		strb	r1, [r2]
 2646 0008 026C     		ldr	r2, [r0, #64]
 2647 000a 0132     		adds	r2, r2, #1
 2648 000c 0264     		str	r2, [r0, #64]
 2649 000e B0F84620 		ldrh	r2, [r0, #70]
 2650 0012 013A     		subs	r2, r2, #1
 2651 0014 92B2     		uxth	r2, r2
 2652 0016 A0F84620 		strh	r2, [r0, #70]	@ movhi
 2653 001a B0F84630 		ldrh	r3, [r0, #70]
 2654 001e 9BB2     		uxth	r3, r3
 2655 0020 0BB9     		cbnz	r3, .L547
 2656 0022 FFF7FEBF 		b	SPI_CloseRx_ISR
 2657              	.L547:
 2658 0026 7047     		bx	lr
 2660              		.section	.text.SPI_RxISR_16BIT,"ax",%progbits
 2661              		.align	1
 2662              		.syntax unified
 2663              		.thumb
 2664              		.thumb_func
 2666              	SPI_RxISR_16BIT:
 2667              		@ args = 0, pretend = 0, frame = 0
 2668              		@ frame_needed = 0, uses_anonymous_args = 0
 2669              		@ link register save eliminated.
 2670 0000 0268     		ldr	r2, [r0]
 2671 0002 D168     		ldr	r1, [r2, #12]
 2672 0004 026C     		ldr	r2, [r0, #64]
 2673 0006 22F8021B 		strh	r1, [r2], #2	@ movhi
 2674 000a 0264     		str	r2, [r0, #64]
 2675 000c B0F84620 		ldrh	r2, [r0, #70]
 2676 0010 013A     		subs	r2, r2, #1
 2677 0012 92B2     		uxth	r2, r2
 2678 0014 A0F84620 		strh	r2, [r0, #70]	@ movhi
 2679 0018 B0F84630 		ldrh	r3, [r0, #70]
 2680 001c 9BB2     		uxth	r3, r3
 2681 001e 0BB9     		cbnz	r3, .L549
 2682 0020 FFF7FEBF 		b	SPI_CloseRx_ISR
 2683              	.L549:
 2684 0024 7047     		bx	lr
 2686              		.section	.text.SPI_CloseRxTx_ISR,"ax",%progbits
 2687              		.align	1
 2688              		.syntax unified
 2689              		.thumb
 2690              		.thumb_func
 2692              	SPI_CloseRxTx_ISR:
 2693              		@ args = 0, pretend = 0, frame = 0
 2694              		@ frame_needed = 0, uses_anonymous_args = 0
 2695 0000 10B5     		push	{r4, lr}
 2696 0002 0446     		mov	r4, r0
 2697 0004 FFF7FEFF 		bl	HAL_GetTick
 2698 0008 2168     		ldr	r1, [r4]
 2699 000a 4B68     		ldr	r3, [r1, #4]
 2700 000c 23F02003 		bic	r3, r3, #32
 2701 0010 0246     		mov	r2, r0
ARM GAS  C:\Users\CL\AppData\Local\Temp\ccvLgiZE.s 			page 47


 2702 0012 4B60     		str	r3, [r1, #4]
 2703 0014 2046     		mov	r0, r4
 2704 0016 6421     		movs	r1, #100
 2705 0018 FFF7FEFF 		bl	SPI_EndRxTxTransaction
 2706 001c 18B1     		cbz	r0, .L552
 2707 001e 236E     		ldr	r3, [r4, #96]
 2708 0020 43F02003 		orr	r3, r3, #32
 2709 0024 2366     		str	r3, [r4, #96]
 2710              	.L552:
 2711 0026 236E     		ldr	r3, [r4, #96]
 2712 0028 73B9     		cbnz	r3, .L553
 2713 002a 94F85D30 		ldrb	r3, [r4, #93]	@ zero_extendqisi2
 2714 002e 042B     		cmp	r3, #4
 2715 0030 4FF00103 		mov	r3, #1
 2716 0034 84F85D30 		strb	r3, [r4, #93]
 2717 0038 2046     		mov	r0, r4
 2718 003a 02D1     		bne	.L554
 2719 003c FFF7FEFF 		bl	HAL_SPI_RxCpltCallback
 2720              	.L551:
 2721 0040 10BD     		pop	{r4, pc}
 2722              	.L554:
 2723 0042 FFF7FEFF 		bl	HAL_SPI_TxRxCpltCallback
 2724 0046 FBE7     		b	.L551
 2725              	.L553:
 2726 0048 0123     		movs	r3, #1
 2727 004a 84F85D30 		strb	r3, [r4, #93]
 2728 004e 2046     		mov	r0, r4
 2729 0050 FFF7FEFF 		bl	HAL_SPI_ErrorCallback
 2730 0054 F4E7     		b	.L551
 2732              		.section	.text.SPI_2linesTxISR_8BIT,"ax",%progbits
 2733              		.align	1
 2734              		.syntax unified
 2735              		.thumb
 2736              		.thumb_func
 2738              	SPI_2linesTxISR_8BIT:
 2739              		@ args = 0, pretend = 0, frame = 0
 2740              		@ frame_needed = 0, uses_anonymous_args = 0
 2741              		@ link register save eliminated.
 2742 0000 C28F     		ldrh	r2, [r0, #62]
 2743 0002 836B     		ldr	r3, [r0, #56]
 2744 0004 0168     		ldr	r1, [r0]
 2745 0006 92B2     		uxth	r2, r2
 2746 0008 012A     		cmp	r2, #1
 2747 000a 15D9     		bls	.L560
 2748 000c 33F8022B 		ldrh	r2, [r3], #2
 2749 0010 CA60     		str	r2, [r1, #12]
 2750 0012 8363     		str	r3, [r0, #56]
 2751 0014 C38F     		ldrh	r3, [r0, #62]
 2752 0016 023B     		subs	r3, r3, #2
 2753              	.L565:
 2754 0018 9BB2     		uxth	r3, r3
 2755 001a C387     		strh	r3, [r0, #62]	@ movhi
 2756 001c C38F     		ldrh	r3, [r0, #62]
 2757 001e 9BB2     		uxth	r3, r3
 2758 0020 93B9     		cbnz	r3, .L559
 2759 0022 0268     		ldr	r2, [r0]
 2760 0024 5368     		ldr	r3, [r2, #4]
ARM GAS  C:\Users\CL\AppData\Local\Temp\ccvLgiZE.s 			page 48


 2761 0026 23F08003 		bic	r3, r3, #128
 2762 002a 5360     		str	r3, [r2, #4]
 2763 002c B0F84630 		ldrh	r3, [r0, #70]
 2764 0030 9BB2     		uxth	r3, r3
 2765 0032 4BB9     		cbnz	r3, .L559
 2766 0034 FFF7FEBF 		b	SPI_CloseRxTx_ISR
 2767              	.L560:
 2768 0038 1B78     		ldrb	r3, [r3]	@ zero_extendqisi2
 2769 003a 0B73     		strb	r3, [r1, #12]
 2770 003c 836B     		ldr	r3, [r0, #56]
 2771 003e 0133     		adds	r3, r3, #1
 2772 0040 8363     		str	r3, [r0, #56]
 2773 0042 C38F     		ldrh	r3, [r0, #62]
 2774 0044 013B     		subs	r3, r3, #1
 2775 0046 E7E7     		b	.L565
 2776              	.L559:
 2777 0048 7047     		bx	lr
 2779              		.section	.text.SPI_2linesRxISR_8BIT,"ax",%progbits
 2780              		.align	1
 2781              		.syntax unified
 2782              		.thumb
 2783              		.thumb_func
 2785              	SPI_2linesRxISR_8BIT:
 2786              		@ args = 0, pretend = 0, frame = 0
 2787              		@ frame_needed = 0, uses_anonymous_args = 0
 2788              		@ link register save eliminated.
 2789 0000 B0F84610 		ldrh	r1, [r0, #70]
 2790 0004 0268     		ldr	r2, [r0]
 2791 0006 036C     		ldr	r3, [r0, #64]
 2792 0008 89B2     		uxth	r1, r1
 2793 000a 0129     		cmp	r1, #1
 2794 000c 20D9     		bls	.L567
 2795 000e D168     		ldr	r1, [r2, #12]
 2796 0010 23F8021B 		strh	r1, [r3], #2	@ movhi
 2797 0014 0364     		str	r3, [r0, #64]
 2798 0016 B0F84630 		ldrh	r3, [r0, #70]
 2799 001a 023B     		subs	r3, r3, #2
 2800 001c 9BB2     		uxth	r3, r3
 2801 001e A0F84630 		strh	r3, [r0, #70]	@ movhi
 2802 0022 B0F84630 		ldrh	r3, [r0, #70]
 2803 0026 9BB2     		uxth	r3, r3
 2804 0028 012B     		cmp	r3, #1
 2805 002a 03D1     		bne	.L568
 2806 002c 5368     		ldr	r3, [r2, #4]
 2807 002e 43F48053 		orr	r3, r3, #4096
 2808 0032 5360     		str	r3, [r2, #4]
 2809              	.L568:
 2810 0034 B0F84630 		ldrh	r3, [r0, #70]
 2811 0038 9BB2     		uxth	r3, r3
 2812 003a ABB9     		cbnz	r3, .L566
 2813 003c 0268     		ldr	r2, [r0]
 2814 003e 5368     		ldr	r3, [r2, #4]
 2815 0040 23F06003 		bic	r3, r3, #96
 2816 0044 5360     		str	r3, [r2, #4]
 2817 0046 C38F     		ldrh	r3, [r0, #62]
 2818 0048 9BB2     		uxth	r3, r3
 2819 004a 6BB9     		cbnz	r3, .L566
ARM GAS  C:\Users\CL\AppData\Local\Temp\ccvLgiZE.s 			page 49


 2820 004c FFF7FEBF 		b	SPI_CloseRxTx_ISR
 2821              	.L567:
 2822 0050 127B     		ldrb	r2, [r2, #12]	@ zero_extendqisi2
 2823 0052 1A70     		strb	r2, [r3]
 2824 0054 036C     		ldr	r3, [r0, #64]
 2825 0056 0133     		adds	r3, r3, #1
 2826 0058 0364     		str	r3, [r0, #64]
 2827 005a B0F84630 		ldrh	r3, [r0, #70]
 2828 005e 013B     		subs	r3, r3, #1
 2829 0060 9BB2     		uxth	r3, r3
 2830 0062 A0F84630 		strh	r3, [r0, #70]	@ movhi
 2831 0066 E5E7     		b	.L568
 2832              	.L566:
 2833 0068 7047     		bx	lr
 2835              		.section	.text.SPI_2linesTxISR_16BIT,"ax",%progbits
 2836              		.align	1
 2837              		.syntax unified
 2838              		.thumb
 2839              		.thumb_func
 2841              	SPI_2linesTxISR_16BIT:
 2842              		@ args = 0, pretend = 0, frame = 0
 2843              		@ frame_needed = 0, uses_anonymous_args = 0
 2844              		@ link register save eliminated.
 2845 0000 826B     		ldr	r2, [r0, #56]
 2846 0002 0168     		ldr	r1, [r0]
 2847 0004 10B4     		push	{r4}
 2848 0006 32F8024B 		ldrh	r4, [r2], #2
 2849 000a CC60     		str	r4, [r1, #12]
 2850 000c 8263     		str	r2, [r0, #56]
 2851 000e C28F     		ldrh	r2, [r0, #62]
 2852 0010 013A     		subs	r2, r2, #1
 2853 0012 92B2     		uxth	r2, r2
 2854 0014 C287     		strh	r2, [r0, #62]	@ movhi
 2855 0016 C28F     		ldrh	r2, [r0, #62]
 2856 0018 92B2     		uxth	r2, r2
 2857 001a 5AB9     		cbnz	r2, .L572
 2858 001c 4A68     		ldr	r2, [r1, #4]
 2859 001e 22F08002 		bic	r2, r2, #128
 2860 0022 4A60     		str	r2, [r1, #4]
 2861 0024 B0F84630 		ldrh	r3, [r0, #70]
 2862 0028 9BB2     		uxth	r3, r3
 2863 002a 1BB9     		cbnz	r3, .L572
 2864 002c 5DF8044B 		ldr	r4, [sp], #4
 2865 0030 FFF7FEBF 		b	SPI_CloseRxTx_ISR
 2866              	.L572:
 2867 0034 5DF8044B 		ldr	r4, [sp], #4
 2868 0038 7047     		bx	lr
 2870              		.section	.text.SPI_2linesRxISR_16BIT,"ax",%progbits
 2871              		.align	1
 2872              		.syntax unified
 2873              		.thumb
 2874              		.thumb_func
 2876              	SPI_2linesRxISR_16BIT:
 2877              		@ args = 0, pretend = 0, frame = 0
 2878              		@ frame_needed = 0, uses_anonymous_args = 0
 2879              		@ link register save eliminated.
 2880 0000 0168     		ldr	r1, [r0]
ARM GAS  C:\Users\CL\AppData\Local\Temp\ccvLgiZE.s 			page 50


 2881 0002 026C     		ldr	r2, [r0, #64]
 2882 0004 10B4     		push	{r4}
 2883 0006 CC68     		ldr	r4, [r1, #12]
 2884 0008 22F8024B 		strh	r4, [r2], #2	@ movhi
 2885 000c 0264     		str	r2, [r0, #64]
 2886 000e B0F84620 		ldrh	r2, [r0, #70]
 2887 0012 013A     		subs	r2, r2, #1
 2888 0014 92B2     		uxth	r2, r2
 2889 0016 A0F84620 		strh	r2, [r0, #70]	@ movhi
 2890 001a B0F84620 		ldrh	r2, [r0, #70]
 2891 001e 92B2     		uxth	r2, r2
 2892 0020 52B9     		cbnz	r2, .L576
 2893 0022 4A68     		ldr	r2, [r1, #4]
 2894 0024 22F04002 		bic	r2, r2, #64
 2895 0028 4A60     		str	r2, [r1, #4]
 2896 002a C38F     		ldrh	r3, [r0, #62]
 2897 002c 9BB2     		uxth	r3, r3
 2898 002e 1BB9     		cbnz	r3, .L576
 2899 0030 5DF8044B 		ldr	r4, [sp], #4
 2900 0034 FFF7FEBF 		b	SPI_CloseRxTx_ISR
 2901              	.L576:
 2902 0038 5DF8044B 		ldr	r4, [sp], #4
 2903 003c 7047     		bx	lr
 2905              		.section	.text.SPI_DMAError,"ax",%progbits
 2906              		.align	1
 2907              		.syntax unified
 2908              		.thumb
 2909              		.thumb_func
 2911              	SPI_DMAError:
 2912              		@ args = 0, pretend = 0, frame = 0
 2913              		@ frame_needed = 0, uses_anonymous_args = 0
 2914 0000 806A     		ldr	r0, [r0, #40]
 2915 0002 0268     		ldr	r2, [r0]
 2916 0004 08B5     		push	{r3, lr}
 2917 0006 5368     		ldr	r3, [r2, #4]
 2918 0008 23F00303 		bic	r3, r3, #3
 2919 000c 5360     		str	r3, [r2, #4]
 2920 000e 036E     		ldr	r3, [r0, #96]
 2921 0010 43F01003 		orr	r3, r3, #16
 2922 0014 0366     		str	r3, [r0, #96]
 2923 0016 0123     		movs	r3, #1
 2924 0018 80F85D30 		strb	r3, [r0, #93]
 2925 001c FFF7FEFF 		bl	HAL_SPI_ErrorCallback
 2926 0020 08BD     		pop	{r3, pc}
 2928              		.section	.text.SPI_DMATransmitCplt,"ax",%progbits
 2929              		.align	1
 2930              		.syntax unified
 2931              		.thumb
 2932              		.thumb_func
 2934              	SPI_DMATransmitCplt:
 2935              		@ args = 0, pretend = 0, frame = 8
 2936              		@ frame_needed = 0, uses_anonymous_args = 0
 2937 0000 37B5     		push	{r0, r1, r2, r4, r5, lr}
 2938 0002 0546     		mov	r5, r0
 2939 0004 846A     		ldr	r4, [r0, #40]
 2940 0006 FFF7FEFF 		bl	HAL_GetTick
 2941 000a 2B68     		ldr	r3, [r5]
ARM GAS  C:\Users\CL\AppData\Local\Temp\ccvLgiZE.s 			page 51


 2942 000c 1B68     		ldr	r3, [r3]
 2943 000e 9B06     		lsls	r3, r3, #26
 2944 0010 0246     		mov	r2, r0
 2945 0012 26D4     		bmi	.L582
 2946 0014 2368     		ldr	r3, [r4]
 2947 0016 5968     		ldr	r1, [r3, #4]
 2948 0018 21F02001 		bic	r1, r1, #32
 2949 001c 5960     		str	r1, [r3, #4]
 2950 001e 5968     		ldr	r1, [r3, #4]
 2951 0020 21F00201 		bic	r1, r1, #2
 2952 0024 5960     		str	r1, [r3, #4]
 2953 0026 2046     		mov	r0, r4
 2954 0028 6421     		movs	r1, #100
 2955 002a FFF7FEFF 		bl	SPI_EndRxTxTransaction
 2956 002e 18B1     		cbz	r0, .L583
 2957 0030 236E     		ldr	r3, [r4, #96]
 2958 0032 43F02003 		orr	r3, r3, #32
 2959 0036 2366     		str	r3, [r4, #96]
 2960              	.L583:
 2961 0038 A368     		ldr	r3, [r4, #8]
 2962 003a 33B9     		cbnz	r3, .L584
 2963 003c 0193     		str	r3, [sp, #4]
 2964 003e 2368     		ldr	r3, [r4]
 2965 0040 DA68     		ldr	r2, [r3, #12]
 2966 0042 0192     		str	r2, [sp, #4]
 2967 0044 9B68     		ldr	r3, [r3, #8]
 2968 0046 0193     		str	r3, [sp, #4]
 2969 0048 019B     		ldr	r3, [sp, #4]
 2970              	.L584:
 2971 004a 0023     		movs	r3, #0
 2972 004c E387     		strh	r3, [r4, #62]	@ movhi
 2973 004e 0123     		movs	r3, #1
 2974 0050 84F85D30 		strb	r3, [r4, #93]
 2975 0054 236E     		ldr	r3, [r4, #96]
 2976 0056 23B1     		cbz	r3, .L582
 2977 0058 2046     		mov	r0, r4
 2978 005a FFF7FEFF 		bl	HAL_SPI_ErrorCallback
 2979              	.L581:
 2980 005e 03B0     		add	sp, sp, #12
 2981              		@ sp needed
 2982 0060 30BD     		pop	{r4, r5, pc}
 2983              	.L582:
 2984 0062 2046     		mov	r0, r4
 2985 0064 FFF7FEFF 		bl	HAL_SPI_TxCpltCallback
 2986 0068 F9E7     		b	.L581
 2988              		.section	.text.SPI_DMAReceiveCplt,"ax",%progbits
 2989              		.align	1
 2990              		.syntax unified
 2991              		.thumb
 2992              		.thumb_func
 2994              	SPI_DMAReceiveCplt:
 2995              		@ args = 0, pretend = 0, frame = 0
 2996              		@ frame_needed = 0, uses_anonymous_args = 0
 2997 0000 38B5     		push	{r3, r4, r5, lr}
 2998 0002 0546     		mov	r5, r0
 2999 0004 846A     		ldr	r4, [r0, #40]
 3000 0006 FFF7FEFF 		bl	HAL_GetTick
ARM GAS  C:\Users\CL\AppData\Local\Temp\ccvLgiZE.s 			page 52


 3001 000a 2B68     		ldr	r3, [r5]
 3002 000c 1B68     		ldr	r3, [r3]
 3003 000e 9B06     		lsls	r3, r3, #26
 3004 0010 0246     		mov	r2, r0
 3005 0012 25D4     		bmi	.L593
 3006 0014 2368     		ldr	r3, [r4]
 3007 0016 5968     		ldr	r1, [r3, #4]
 3008 0018 21F02001 		bic	r1, r1, #32
 3009 001c 5960     		str	r1, [r3, #4]
 3010 001e A168     		ldr	r1, [r4, #8]
 3011 0020 D1B9     		cbnz	r1, .L594
 3012 0022 6168     		ldr	r1, [r4, #4]
 3013 0024 B1F5827F 		cmp	r1, #260
 3014 0028 16D1     		bne	.L594
 3015 002a 5968     		ldr	r1, [r3, #4]
 3016 002c 21F00301 		bic	r1, r1, #3
 3017              	.L604:
 3018 0030 5960     		str	r1, [r3, #4]
 3019 0032 2046     		mov	r0, r4
 3020 0034 6421     		movs	r1, #100
 3021 0036 FFF7FEFF 		bl	SPI_EndRxTransaction
 3022 003a 08B1     		cbz	r0, .L596
 3023 003c 2023     		movs	r3, #32
 3024 003e 2366     		str	r3, [r4, #96]
 3025              	.L596:
 3026 0040 0023     		movs	r3, #0
 3027 0042 A4F84630 		strh	r3, [r4, #70]	@ movhi
 3028 0046 0123     		movs	r3, #1
 3029 0048 84F85D30 		strb	r3, [r4, #93]
 3030 004c 236E     		ldr	r3, [r4, #96]
 3031 004e 3BB1     		cbz	r3, .L593
 3032 0050 2046     		mov	r0, r4
 3033 0052 FFF7FEFF 		bl	HAL_SPI_ErrorCallback
 3034              	.L592:
 3035 0056 38BD     		pop	{r3, r4, r5, pc}
 3036              	.L594:
 3037 0058 5968     		ldr	r1, [r3, #4]
 3038 005a 21F00101 		bic	r1, r1, #1
 3039 005e E7E7     		b	.L604
 3040              	.L593:
 3041 0060 2046     		mov	r0, r4
 3042 0062 FFF7FEFF 		bl	HAL_SPI_RxCpltCallback
 3043 0066 F6E7     		b	.L592
 3045              		.section	.text.SPI_DMATransmitReceiveCplt,"ax",%progbits
 3046              		.align	1
 3047              		.syntax unified
 3048              		.thumb
 3049              		.thumb_func
 3051              	SPI_DMATransmitReceiveCplt:
 3052              		@ args = 0, pretend = 0, frame = 0
 3053              		@ frame_needed = 0, uses_anonymous_args = 0
 3054 0000 38B5     		push	{r3, r4, r5, lr}
 3055 0002 0546     		mov	r5, r0
 3056 0004 846A     		ldr	r4, [r0, #40]
 3057 0006 FFF7FEFF 		bl	HAL_GetTick
 3058 000a 2B68     		ldr	r3, [r5]
 3059 000c 1B68     		ldr	r3, [r3]
ARM GAS  C:\Users\CL\AppData\Local\Temp\ccvLgiZE.s 			page 53


 3060 000e 9B06     		lsls	r3, r3, #26
 3061 0010 0246     		mov	r2, r0
 3062 0012 1FD4     		bmi	.L606
 3063 0014 2168     		ldr	r1, [r4]
 3064 0016 4B68     		ldr	r3, [r1, #4]
 3065 0018 23F02003 		bic	r3, r3, #32
 3066 001c 4B60     		str	r3, [r1, #4]
 3067 001e 2046     		mov	r0, r4
 3068 0020 6421     		movs	r1, #100
 3069 0022 FFF7FEFF 		bl	SPI_EndRxTxTransaction
 3070 0026 18B1     		cbz	r0, .L607
 3071 0028 236E     		ldr	r3, [r4, #96]
 3072 002a 43F02003 		orr	r3, r3, #32
 3073 002e 2366     		str	r3, [r4, #96]
 3074              	.L607:
 3075 0030 2268     		ldr	r2, [r4]
 3076 0032 5368     		ldr	r3, [r2, #4]
 3077 0034 23F00303 		bic	r3, r3, #3
 3078 0038 5360     		str	r3, [r2, #4]
 3079 003a 0023     		movs	r3, #0
 3080 003c E387     		strh	r3, [r4, #62]	@ movhi
 3081 003e A4F84630 		strh	r3, [r4, #70]	@ movhi
 3082 0042 0123     		movs	r3, #1
 3083 0044 84F85D30 		strb	r3, [r4, #93]
 3084 0048 236E     		ldr	r3, [r4, #96]
 3085 004a 1BB1     		cbz	r3, .L606
 3086 004c 2046     		mov	r0, r4
 3087 004e FFF7FEFF 		bl	HAL_SPI_ErrorCallback
 3088              	.L605:
 3089 0052 38BD     		pop	{r3, r4, r5, pc}
 3090              	.L606:
 3091 0054 2046     		mov	r0, r4
 3092 0056 FFF7FEFF 		bl	HAL_SPI_TxRxCpltCallback
 3093 005a FAE7     		b	.L605
 3095              		.section	.text.HAL_SPI_IRQHandler,"ax",%progbits
 3096              		.align	1
 3097              		.global	HAL_SPI_IRQHandler
 3098              		.syntax unified
 3099              		.thumb
 3100              		.thumb_func
 3102              	HAL_SPI_IRQHandler:
 3103              		@ args = 0, pretend = 0, frame = 16
 3104              		@ frame_needed = 0, uses_anonymous_args = 0
 3105 0000 F0B5     		push	{r4, r5, r6, r7, lr}
 3106 0002 0368     		ldr	r3, [r0]
 3107 0004 5D68     		ldr	r5, [r3, #4]
 3108 0006 9A68     		ldr	r2, [r3, #8]
 3109 0008 5606     		lsls	r6, r2, #25
 3110 000a 85B0     		sub	sp, sp, #20
 3111 000c 0446     		mov	r4, r0
 3112 000e 4FEA9211 		lsr	r1, r2, #6
 3113 0012 C2F38017 		ubfx	r7, r2, #6, #1
 3114 0016 08D4     		bmi	.L616
 3115 0018 D607     		lsls	r6, r2, #31
 3116 001a 06D5     		bpl	.L616
 3117 001c 6E06     		lsls	r6, r5, #25
 3118 001e 04D5     		bpl	.L616
ARM GAS  C:\Users\CL\AppData\Local\Temp\ccvLgiZE.s 			page 54


 3119 0020 C36C     		ldr	r3, [r0, #76]
 3120              	.L665:
 3121 0022 05B0     		add	sp, sp, #20
 3122              		@ sp needed
 3123 0024 BDE8F040 		pop	{r4, r5, r6, r7, lr}
 3124 0028 1847     		bx	r3	@ indirect register sibling call
 3125              	.L616:
 3126 002a 9607     		lsls	r6, r2, #30
 3127 002c 04D5     		bpl	.L617
 3128 002e 2806     		lsls	r0, r5, #24
 3129 0030 02D5     		bpl	.L617
 3130 0032 236D     		ldr	r3, [r4, #80]
 3131 0034 2046     		mov	r0, r4
 3132 0036 F4E7     		b	.L665
 3133              	.L617:
 3134 0038 41EA5211 		orr	r1, r1, r2, lsr #5
 3135 003c C2F30020 		ubfx	r0, r2, #8, #1
 3136 0040 01F00101 		and	r1, r1, #1
 3137 0044 5609     		lsrs	r6, r2, #5
 3138 0046 51EA0002 		orrs	r2, r1, r0
 3139 004a 57D0     		beq	.L615
 3140 004c AA06     		lsls	r2, r5, #26
 3141 004e 55D5     		bpl	.L615
 3142 0050 7FB1     		cbz	r7, .L621
 3143 0052 94F85D20 		ldrb	r2, [r4, #93]	@ zero_extendqisi2
 3144 0056 032A     		cmp	r2, #3
 3145 0058 4FF00001 		mov	r1, #0
 3146 005c 48D0     		beq	.L622
 3147 005e 226E     		ldr	r2, [r4, #96]
 3148 0060 42F00402 		orr	r2, r2, #4
 3149 0064 2266     		str	r2, [r4, #96]
 3150 0066 0091     		str	r1, [sp]
 3151 0068 DA68     		ldr	r2, [r3, #12]
 3152 006a 0092     		str	r2, [sp]
 3153 006c 9A68     		ldr	r2, [r3, #8]
 3154 006e 0092     		str	r2, [sp]
 3155 0070 009A     		ldr	r2, [sp]
 3156              	.L621:
 3157 0072 F107     		lsls	r1, r6, #31
 3158 0074 0CD5     		bpl	.L623
 3159 0076 226E     		ldr	r2, [r4, #96]
 3160 0078 42F00102 		orr	r2, r2, #1
 3161 007c 2266     		str	r2, [r4, #96]
 3162 007e 0022     		movs	r2, #0
 3163 0080 0292     		str	r2, [sp, #8]
 3164 0082 9A68     		ldr	r2, [r3, #8]
 3165 0084 0292     		str	r2, [sp, #8]
 3166 0086 1A68     		ldr	r2, [r3]
 3167 0088 22F04002 		bic	r2, r2, #64
 3168 008c 1A60     		str	r2, [r3]
 3169 008e 029A     		ldr	r2, [sp, #8]
 3170              	.L623:
 3171 0090 40B1     		cbz	r0, .L624
 3172 0092 226E     		ldr	r2, [r4, #96]
 3173 0094 42F00802 		orr	r2, r2, #8
 3174 0098 2266     		str	r2, [r4, #96]
 3175 009a 0022     		movs	r2, #0
ARM GAS  C:\Users\CL\AppData\Local\Temp\ccvLgiZE.s 			page 55


 3176 009c 0392     		str	r2, [sp, #12]
 3177 009e 9A68     		ldr	r2, [r3, #8]
 3178 00a0 0392     		str	r2, [sp, #12]
 3179 00a2 039A     		ldr	r2, [sp, #12]
 3180              	.L624:
 3181 00a4 226E     		ldr	r2, [r4, #96]
 3182 00a6 4AB3     		cbz	r2, .L615
 3183 00a8 5A68     		ldr	r2, [r3, #4]
 3184 00aa 22F0E002 		bic	r2, r2, #224
 3185 00ae 5A60     		str	r2, [r3, #4]
 3186 00b0 0122     		movs	r2, #1
 3187 00b2 84F85D20 		strb	r2, [r4, #93]
 3188 00b6 AA07     		lsls	r2, r5, #30
 3189 00b8 22D0     		beq	.L625
 3190 00ba 5A68     		ldr	r2, [r3, #4]
 3191 00bc A06D     		ldr	r0, [r4, #88]
 3192 00be 22F00302 		bic	r2, r2, #3
 3193 00c2 5A60     		str	r2, [r3, #4]
 3194 00c4 40B1     		cbz	r0, .L627
 3195 00c6 104B     		ldr	r3, .L666
 3196 00c8 8363     		str	r3, [r0, #56]
 3197 00ca FFF7FEFF 		bl	HAL_DMA_Abort_IT
 3198 00ce 18B1     		cbz	r0, .L627
 3199 00d0 236E     		ldr	r3, [r4, #96]
 3200 00d2 43F04003 		orr	r3, r3, #64
 3201 00d6 2366     		str	r3, [r4, #96]
 3202              	.L627:
 3203 00d8 606D     		ldr	r0, [r4, #84]
 3204 00da 78B1     		cbz	r0, .L615
 3205 00dc 0A4B     		ldr	r3, .L666
 3206 00de 8363     		str	r3, [r0, #56]
 3207 00e0 FFF7FEFF 		bl	HAL_DMA_Abort_IT
 3208 00e4 50B1     		cbz	r0, .L615
 3209 00e6 236E     		ldr	r3, [r4, #96]
 3210 00e8 43F04003 		orr	r3, r3, #64
 3211 00ec 2366     		str	r3, [r4, #96]
 3212 00ee 05E0     		b	.L615
 3213              	.L622:
 3214 00f0 0191     		str	r1, [sp, #4]
 3215 00f2 DA68     		ldr	r2, [r3, #12]
 3216 00f4 0192     		str	r2, [sp, #4]
 3217 00f6 9B68     		ldr	r3, [r3, #8]
 3218 00f8 0193     		str	r3, [sp, #4]
 3219 00fa 019B     		ldr	r3, [sp, #4]
 3220              	.L615:
 3221 00fc 05B0     		add	sp, sp, #20
 3222              		@ sp needed
 3223 00fe F0BD     		pop	{r4, r5, r6, r7, pc}
 3224              	.L625:
 3225 0100 2046     		mov	r0, r4
 3226 0102 FFF7FEFF 		bl	HAL_SPI_ErrorCallback
 3227 0106 F9E7     		b	.L615
 3228              	.L667:
 3229              		.align	2
 3230              	.L666:
 3231 0108 00000000 		.word	SPI_DMAAbortOnError
 3233              		.section	.text.SPI_DMAAbortOnError,"ax",%progbits
ARM GAS  C:\Users\CL\AppData\Local\Temp\ccvLgiZE.s 			page 56


 3234              		.align	1
 3235              		.syntax unified
 3236              		.thumb
 3237              		.thumb_func
 3239              	SPI_DMAAbortOnError:
 3240              		@ args = 0, pretend = 0, frame = 0
 3241              		@ frame_needed = 0, uses_anonymous_args = 0
 3242 0000 08B5     		push	{r3, lr}
 3243 0002 806A     		ldr	r0, [r0, #40]
 3244 0004 0023     		movs	r3, #0
 3245 0006 A0F84630 		strh	r3, [r0, #70]	@ movhi
 3246 000a C387     		strh	r3, [r0, #62]	@ movhi
 3247 000c FFF7FEFF 		bl	HAL_SPI_ErrorCallback
 3248 0010 08BD     		pop	{r3, pc}
 3250              		.section	.text.HAL_SPI_AbortCpltCallback,"ax",%progbits
 3251              		.align	1
 3252              		.weak	HAL_SPI_AbortCpltCallback
 3253              		.syntax unified
 3254              		.thumb
 3255              		.thumb_func
 3257              	HAL_SPI_AbortCpltCallback:
 3258              		@ args = 0, pretend = 0, frame = 0
 3259              		@ frame_needed = 0, uses_anonymous_args = 0
 3260              		@ link register save eliminated.
 3261 0000 7047     		bx	lr
 3263              		.section	.text.HAL_SPI_Abort_IT,"ax",%progbits
 3264              		.align	1
 3265              		.global	HAL_SPI_Abort_IT
 3266              		.syntax unified
 3267              		.thumb
 3268              		.thumb_func
 3270              	HAL_SPI_Abort_IT:
 3271              		@ args = 0, pretend = 0, frame = 16
 3272              		@ frame_needed = 0, uses_anonymous_args = 0
 3273 0000 30B5     		push	{r4, r5, lr}
 3274 0002 464B     		ldr	r3, .L713
 3275 0004 85B0     		sub	sp, sp, #20
 3276 0006 45F6C052 		movw	r2, #24000
 3277 000a 1B68     		ldr	r3, [r3]
 3278 000c B3FBF2F3 		udiv	r3, r3, r2
 3279 0010 6422     		movs	r2, #100
 3280 0012 5343     		muls	r3, r2, r3
 3281 0014 0193     		str	r3, [sp, #4]
 3282 0016 019B     		ldr	r3, [sp, #4]
 3283 0018 0093     		str	r3, [sp]
 3284 001a 0368     		ldr	r3, [r0]
 3285 001c 5A68     		ldr	r2, [r3, #4]
 3286 001e 22F02002 		bic	r2, r2, #32
 3287 0022 5A60     		str	r2, [r3, #4]
 3288 0024 5A68     		ldr	r2, [r3, #4]
 3289 0026 0446     		mov	r4, r0
 3290 0028 1006     		lsls	r0, r2, #24
 3291 002a 0AD5     		bpl	.L671
 3292 002c 3C4A     		ldr	r2, .L713+4
 3293 002e 2265     		str	r2, [r4, #80]
 3294              	.L674:
 3295 0030 009A     		ldr	r2, [sp]
ARM GAS  C:\Users\CL\AppData\Local\Temp\ccvLgiZE.s 			page 57


 3296 0032 002A     		cmp	r2, #0
 3297 0034 3DD1     		bne	.L672
 3298 0036 226E     		ldr	r2, [r4, #96]
 3299 0038 42F04002 		orr	r2, r2, #64
 3300 003c 2266     		str	r2, [r4, #96]
 3301              	.L673:
 3302 003e 019A     		ldr	r2, [sp, #4]
 3303 0040 0092     		str	r2, [sp]
 3304              	.L671:
 3305 0042 5A68     		ldr	r2, [r3, #4]
 3306 0044 5106     		lsls	r1, r2, #25
 3307 0046 0AD5     		bpl	.L675
 3308 0048 364A     		ldr	r2, .L713+8
 3309 004a E264     		str	r2, [r4, #76]
 3310              	.L678:
 3311 004c 009A     		ldr	r2, [sp]
 3312 004e 002A     		cmp	r2, #0
 3313 0050 37D1     		bne	.L676
 3314 0052 226E     		ldr	r2, [r4, #96]
 3315 0054 42F04002 		orr	r2, r2, #64
 3316 0058 2266     		str	r2, [r4, #96]
 3317              	.L677:
 3318 005a 019A     		ldr	r2, [sp, #4]
 3319 005c 0092     		str	r2, [sp]
 3320              	.L675:
 3321 005e 606D     		ldr	r0, [r4, #84]
 3322 0060 28B1     		cbz	r0, .L679
 3323 0062 5A68     		ldr	r2, [r3, #4]
 3324 0064 12F00202 		ands	r2, r2, #2
 3325 0068 18BF     		it	ne
 3326 006a 2F4A     		ldrne	r2, .L713+12
 3327 006c 8263     		str	r2, [r0, #56]
 3328              	.L679:
 3329 006e A16D     		ldr	r1, [r4, #88]
 3330 0070 29B1     		cbz	r1, .L681
 3331 0072 5A68     		ldr	r2, [r3, #4]
 3332 0074 12F00102 		ands	r2, r2, #1
 3333 0078 18BF     		it	ne
 3334 007a 2C4A     		ldrne	r2, .L713+16
 3335 007c 8A63     		str	r2, [r1, #56]
 3336              	.L681:
 3337 007e 5B68     		ldr	r3, [r3, #4]
 3338 0080 9A07     		lsls	r2, r3, #30
 3339 0082 08D5     		bpl	.L690
 3340 0084 38B1     		cbz	r0, .L690
 3341 0086 FFF7FEFF 		bl	HAL_DMA_Abort_IT
 3342 008a 10B3     		cbz	r0, .L691
 3343 008c 636D     		ldr	r3, [r4, #84]
 3344 008e 0022     		movs	r2, #0
 3345 0090 9A63     		str	r2, [r3, #56]
 3346 0092 4023     		movs	r3, #64
 3347 0094 2366     		str	r3, [r4, #96]
 3348              	.L690:
 3349 0096 0125     		movs	r5, #1
 3350              	.L683:
 3351 0098 2368     		ldr	r3, [r4]
 3352 009a 5B68     		ldr	r3, [r3, #4]
ARM GAS  C:\Users\CL\AppData\Local\Temp\ccvLgiZE.s 			page 58


 3353 009c DB07     		lsls	r3, r3, #31
 3354 009e 1FD5     		bpl	.L684
 3355 00a0 A06D     		ldr	r0, [r4, #88]
 3356 00a2 E8B1     		cbz	r0, .L684
 3357 00a4 FFF7FEFF 		bl	HAL_DMA_Abort_IT
 3358 00a8 A8B9     		cbnz	r0, .L685
 3359              	.L687:
 3360 00aa 0025     		movs	r5, #0
 3361              	.L686:
 3362 00ac 2846     		mov	r0, r5
 3363 00ae 05B0     		add	sp, sp, #20
 3364              		@ sp needed
 3365 00b0 30BD     		pop	{r4, r5, pc}
 3366              	.L672:
 3367 00b2 009A     		ldr	r2, [sp]
 3368 00b4 013A     		subs	r2, r2, #1
 3369 00b6 0092     		str	r2, [sp]
 3370 00b8 94F85D20 		ldrb	r2, [r4, #93]	@ zero_extendqisi2
 3371 00bc 072A     		cmp	r2, #7
 3372 00be B7D1     		bne	.L674
 3373 00c0 BDE7     		b	.L673
 3374              	.L676:
 3375 00c2 009A     		ldr	r2, [sp]
 3376 00c4 013A     		subs	r2, r2, #1
 3377 00c6 0092     		str	r2, [sp]
 3378 00c8 94F85D20 		ldrb	r2, [r4, #93]	@ zero_extendqisi2
 3379 00cc 072A     		cmp	r2, #7
 3380 00ce BDD1     		bne	.L678
 3381 00d0 C3E7     		b	.L677
 3382              	.L691:
 3383 00d2 0546     		mov	r5, r0
 3384 00d4 E0E7     		b	.L683
 3385              	.L685:
 3386 00d6 A36D     		ldr	r3, [r4, #88]
 3387 00d8 0022     		movs	r2, #0
 3388 00da 9A63     		str	r2, [r3, #56]
 3389 00dc 4023     		movs	r3, #64
 3390 00de 2366     		str	r3, [r4, #96]
 3391              	.L684:
 3392 00e0 002D     		cmp	r5, #0
 3393 00e2 E2D0     		beq	.L687
 3394 00e4 0023     		movs	r3, #0
 3395 00e6 A4F84630 		strh	r3, [r4, #70]	@ movhi
 3396 00ea E387     		strh	r3, [r4, #62]	@ movhi
 3397 00ec 226E     		ldr	r2, [r4, #96]
 3398 00ee 402A     		cmp	r2, #64
 3399 00f0 2268     		ldr	r2, [r4]
 3400 00f2 18BF     		it	ne
 3401 00f4 2366     		strne	r3, [r4, #96]
 3402 00f6 0293     		str	r3, [sp, #8]
 3403 00f8 D168     		ldr	r1, [r2, #12]
 3404 00fa 0291     		str	r1, [sp, #8]
 3405 00fc 9168     		ldr	r1, [r2, #8]
 3406 00fe 0291     		str	r1, [sp, #8]
 3407 0100 0299     		ldr	r1, [sp, #8]
 3408 0102 0393     		str	r3, [sp, #12]
 3409 0104 18BF     		it	ne
ARM GAS  C:\Users\CL\AppData\Local\Temp\ccvLgiZE.s 			page 59


 3410 0106 1D46     		movne	r5, r3
 3411 0108 9368     		ldr	r3, [r2, #8]
 3412 010a 0393     		str	r3, [sp, #12]
 3413 010c 039B     		ldr	r3, [sp, #12]
 3414 010e 0123     		movs	r3, #1
 3415 0110 84F85D30 		strb	r3, [r4, #93]
 3416 0114 2046     		mov	r0, r4
 3417 0116 FFF7FEFF 		bl	HAL_SPI_AbortCpltCallback
 3418 011a C7E7     		b	.L686
 3419              	.L714:
 3420              		.align	2
 3421              	.L713:
 3422 011c 00000000 		.word	SystemCoreClock
 3423 0120 00000000 		.word	SPI_AbortTx_ISR
 3424 0124 00000000 		.word	SPI_AbortRx_ISR
 3425 0128 00000000 		.word	SPI_DMATxAbortCallback
 3426 012c 00000000 		.word	SPI_DMARxAbortCallback
 3428              		.section	.text.SPI_DMARxAbortCallback,"ax",%progbits
 3429              		.align	1
 3430              		.syntax unified
 3431              		.thumb
 3432              		.thumb_func
 3434              	SPI_DMARxAbortCallback:
 3435              		@ args = 0, pretend = 0, frame = 8
 3436              		@ frame_needed = 0, uses_anonymous_args = 0
 3437 0000 13B5     		push	{r0, r1, r4, lr}
 3438 0002 846A     		ldr	r4, [r0, #40]
 3439 0004 2368     		ldr	r3, [r4]
 3440 0006 1A68     		ldr	r2, [r3]
 3441 0008 22F04002 		bic	r2, r2, #64
 3442 000c 1A60     		str	r2, [r3]
 3443 000e A26D     		ldr	r2, [r4, #88]
 3444 0010 0021     		movs	r1, #0
 3445 0012 9163     		str	r1, [r2, #56]
 3446 0014 5A68     		ldr	r2, [r3, #4]
 3447 0016 22F00102 		bic	r2, r2, #1
 3448 001a 5A60     		str	r2, [r3, #4]
 3449 001c FFF7FEFF 		bl	HAL_GetTick
 3450 0020 6421     		movs	r1, #100
 3451 0022 0246     		mov	r2, r0
 3452 0024 2046     		mov	r0, r4
 3453 0026 FFF7FEFF 		bl	SPI_WaitFlagStateUntilTimeout.constprop.0
 3454 002a 08B1     		cbz	r0, .L716
 3455 002c 4023     		movs	r3, #64
 3456 002e 2366     		str	r3, [r4, #96]
 3457              	.L716:
 3458 0030 FFF7FEFF 		bl	HAL_GetTick
 3459 0034 6422     		movs	r2, #100
 3460 0036 0346     		mov	r3, r0
 3461 0038 4FF4C061 		mov	r1, #1536
 3462 003c 2046     		mov	r0, r4
 3463 003e FFF7FEFF 		bl	SPI_WaitFifoStateUntilTimeout.constprop.0
 3464 0042 08B1     		cbz	r0, .L717
 3465 0044 4023     		movs	r3, #64
 3466 0046 2366     		str	r3, [r4, #96]
 3467              	.L717:
 3468 0048 636D     		ldr	r3, [r4, #84]
ARM GAS  C:\Users\CL\AppData\Local\Temp\ccvLgiZE.s 			page 60


 3469 004a 0BB1     		cbz	r3, .L718
 3470 004c 9B6B     		ldr	r3, [r3, #56]
 3471 004e C3B9     		cbnz	r3, .L715
 3472              	.L718:
 3473 0050 0023     		movs	r3, #0
 3474 0052 A4F84630 		strh	r3, [r4, #70]	@ movhi
 3475 0056 E387     		strh	r3, [r4, #62]	@ movhi
 3476 0058 226E     		ldr	r2, [r4, #96]
 3477 005a 402A     		cmp	r2, #64
 3478 005c 2268     		ldr	r2, [r4]
 3479 005e 18BF     		it	ne
 3480 0060 2366     		strne	r3, [r4, #96]
 3481 0062 0093     		str	r3, [sp]
 3482 0064 D168     		ldr	r1, [r2, #12]
 3483 0066 0091     		str	r1, [sp]
 3484 0068 9168     		ldr	r1, [r2, #8]
 3485 006a 0091     		str	r1, [sp]
 3486 006c 0099     		ldr	r1, [sp]
 3487 006e 0193     		str	r3, [sp, #4]
 3488 0070 9368     		ldr	r3, [r2, #8]
 3489 0072 0193     		str	r3, [sp, #4]
 3490 0074 019B     		ldr	r3, [sp, #4]
 3491 0076 0123     		movs	r3, #1
 3492 0078 84F85D30 		strb	r3, [r4, #93]
 3493 007c 2046     		mov	r0, r4
 3494 007e FFF7FEFF 		bl	HAL_SPI_AbortCpltCallback
 3495              	.L715:
 3496 0082 02B0     		add	sp, sp, #8
 3497              		@ sp needed
 3498 0084 10BD     		pop	{r4, pc}
 3500              		.section	.text.SPI_DMATxAbortCallback,"ax",%progbits
 3501              		.align	1
 3502              		.syntax unified
 3503              		.thumb
 3504              		.thumb_func
 3506              	SPI_DMATxAbortCallback:
 3507              		@ args = 0, pretend = 0, frame = 8
 3508              		@ frame_needed = 0, uses_anonymous_args = 0
 3509 0000 13B5     		push	{r0, r1, r4, lr}
 3510 0002 846A     		ldr	r4, [r0, #40]
 3511 0004 636D     		ldr	r3, [r4, #84]
 3512 0006 0022     		movs	r2, #0
 3513 0008 9A63     		str	r2, [r3, #56]
 3514 000a 2268     		ldr	r2, [r4]
 3515 000c 5368     		ldr	r3, [r2, #4]
 3516 000e 23F00203 		bic	r3, r3, #2
 3517 0012 5360     		str	r3, [r2, #4]
 3518 0014 FFF7FEFF 		bl	HAL_GetTick
 3519 0018 6421     		movs	r1, #100
 3520 001a 0246     		mov	r2, r0
 3521 001c 2046     		mov	r0, r4
 3522 001e FFF7FEFF 		bl	SPI_EndRxTxTransaction
 3523 0022 08B1     		cbz	r0, .L734
 3524 0024 4023     		movs	r3, #64
 3525 0026 2366     		str	r3, [r4, #96]
 3526              	.L734:
 3527 0028 2268     		ldr	r2, [r4]
ARM GAS  C:\Users\CL\AppData\Local\Temp\ccvLgiZE.s 			page 61


 3528 002a 1368     		ldr	r3, [r2]
 3529 002c 23F04003 		bic	r3, r3, #64
 3530 0030 1360     		str	r3, [r2]
 3531 0032 FFF7FEFF 		bl	HAL_GetTick
 3532 0036 6422     		movs	r2, #100
 3533 0038 0346     		mov	r3, r0
 3534 003a 4FF4C061 		mov	r1, #1536
 3535 003e 2046     		mov	r0, r4
 3536 0040 FFF7FEFF 		bl	SPI_WaitFifoStateUntilTimeout.constprop.0
 3537 0044 08B1     		cbz	r0, .L735
 3538 0046 4023     		movs	r3, #64
 3539 0048 2366     		str	r3, [r4, #96]
 3540              	.L735:
 3541 004a A36D     		ldr	r3, [r4, #88]
 3542 004c 0BB1     		cbz	r3, .L736
 3543 004e 9B6B     		ldr	r3, [r3, #56]
 3544 0050 C3B9     		cbnz	r3, .L733
 3545              	.L736:
 3546 0052 0023     		movs	r3, #0
 3547 0054 A4F84630 		strh	r3, [r4, #70]	@ movhi
 3548 0058 E387     		strh	r3, [r4, #62]	@ movhi
 3549 005a 226E     		ldr	r2, [r4, #96]
 3550 005c 402A     		cmp	r2, #64
 3551 005e 2268     		ldr	r2, [r4]
 3552 0060 18BF     		it	ne
 3553 0062 2366     		strne	r3, [r4, #96]
 3554 0064 0093     		str	r3, [sp]
 3555 0066 D168     		ldr	r1, [r2, #12]
 3556 0068 0091     		str	r1, [sp]
 3557 006a 9168     		ldr	r1, [r2, #8]
 3558 006c 0091     		str	r1, [sp]
 3559 006e 0099     		ldr	r1, [sp]
 3560 0070 0193     		str	r3, [sp, #4]
 3561 0072 9368     		ldr	r3, [r2, #8]
 3562 0074 0193     		str	r3, [sp, #4]
 3563 0076 019B     		ldr	r3, [sp, #4]
 3564 0078 0123     		movs	r3, #1
 3565 007a 84F85D30 		strb	r3, [r4, #93]
 3566 007e 2046     		mov	r0, r4
 3567 0080 FFF7FEFF 		bl	HAL_SPI_AbortCpltCallback
 3568              	.L733:
 3569 0084 02B0     		add	sp, sp, #8
 3570              		@ sp needed
 3571 0086 10BD     		pop	{r4, pc}
 3573              		.section	.text.HAL_SPI_GetState,"ax",%progbits
 3574              		.align	1
 3575              		.global	HAL_SPI_GetState
 3576              		.syntax unified
 3577              		.thumb
 3578              		.thumb_func
 3580              	HAL_SPI_GetState:
 3581              		@ args = 0, pretend = 0, frame = 0
 3582              		@ frame_needed = 0, uses_anonymous_args = 0
 3583              		@ link register save eliminated.
 3584 0000 90F85D00 		ldrb	r0, [r0, #93]	@ zero_extendqisi2
 3585 0004 7047     		bx	lr
 3587              		.section	.text.HAL_SPI_GetError,"ax",%progbits
ARM GAS  C:\Users\CL\AppData\Local\Temp\ccvLgiZE.s 			page 62


 3588              		.align	1
 3589              		.global	HAL_SPI_GetError
 3590              		.syntax unified
 3591              		.thumb
 3592              		.thumb_func
 3594              	HAL_SPI_GetError:
 3595              		@ args = 0, pretend = 0, frame = 0
 3596              		@ frame_needed = 0, uses_anonymous_args = 0
 3597              		@ link register save eliminated.
 3598 0000 006E     		ldr	r0, [r0, #96]
 3599 0002 7047     		bx	lr
 3601              		.ident	"GCC: (GNU Arm Embedded Toolchain 10.3-2021.10) 10.3.1 20210824 (release)"
ARM GAS  C:\Users\CL\AppData\Local\Temp\ccvLgiZE.s 			page 63

