ARM GAS  C:\Users\CL\AppData\Local\Temp\ccSXzFGV.s 			page 1


   1              		.cpu cortex-m4
   2              		.arch armv7e-m
   3              		.fpu fpv4-sp-d16
   4              		.eabi_attribute 27, 1
   5              		.eabi_attribute 28, 1
   6              		.eabi_attribute 20, 1
   7              		.eabi_attribute 21, 1
   8              		.eabi_attribute 23, 3
   9              		.eabi_attribute 24, 1
  10              		.eabi_attribute 25, 1
  11              		.eabi_attribute 26, 1
  12              		.eabi_attribute 30, 4
  13              		.eabi_attribute 34, 1
  14              		.eabi_attribute 18, 4
  15              		.file	"stm32l4xx_hal_cortex.c"
  16              		.text
  17              		.section	.text.HAL_NVIC_SetPriorityGrouping,"ax",%progbits
  18              		.align	1
  19              		.global	HAL_NVIC_SetPriorityGrouping
  20              		.syntax unified
  21              		.thumb
  22              		.thumb_func
  24              	HAL_NVIC_SetPriorityGrouping:
  25              		@ args = 0, pretend = 0, frame = 0
  26              		@ frame_needed = 0, uses_anonymous_args = 0
  27              		@ link register save eliminated.
  28 0000 0749     		ldr	r1, .L2
  29 0002 CA68     		ldr	r2, [r1, #12]
  30 0004 22F4E062 		bic	r2, r2, #1792
  31 0008 0302     		lsls	r3, r0, #8
  32 000a 1204     		lsls	r2, r2, #16
  33 000c 03F4E063 		and	r3, r3, #1792
  34 0010 120C     		lsrs	r2, r2, #16
  35 0012 1343     		orrs	r3, r3, r2
  36 0014 43F0BF63 		orr	r3, r3, #100139008
  37 0018 43F40033 		orr	r3, r3, #131072
  38 001c CB60     		str	r3, [r1, #12]
  39 001e 7047     		bx	lr
  40              	.L3:
  41              		.align	2
  42              	.L2:
  43 0020 00ED00E0 		.word	-536810240
  45              		.section	.text.HAL_NVIC_SetPriority,"ax",%progbits
  46              		.align	1
  47              		.global	HAL_NVIC_SetPriority
  48              		.syntax unified
  49              		.thumb
  50              		.thumb_func
  52              	HAL_NVIC_SetPriority:
  53              		@ args = 0, pretend = 0, frame = 0
  54              		@ frame_needed = 0, uses_anonymous_args = 0
  55 0000 164B     		ldr	r3, .L9
  56 0002 30B5     		push	{r4, r5, lr}
  57 0004 DC68     		ldr	r4, [r3, #12]
  58 0006 C4F30224 		ubfx	r4, r4, #8, #3
  59 000a C4F10705 		rsb	r5, r4, #7
  60 000e 231D     		adds	r3, r4, #4
ARM GAS  C:\Users\CL\AppData\Local\Temp\ccSXzFGV.s 			page 2


  61 0010 042D     		cmp	r5, #4
  62 0012 28BF     		it	cs
  63 0014 0425     		movcs	r5, #4
  64 0016 062B     		cmp	r3, #6
  65 0018 4FF0FF33 		mov	r3, #-1
  66 001c 8CBF     		ite	hi
  67 001e 033C     		subhi	r4, r4, #3
  68 0020 0024     		movls	r4, #0
  69 0022 03FA05F5 		lsl	r5, r3, r5
  70 0026 21EA0501 		bic	r1, r1, r5
  71 002a A340     		lsls	r3, r3, r4
  72 002c 22EA0302 		bic	r2, r2, r3
  73 0030 A140     		lsls	r1, r1, r4
  74 0032 0028     		cmp	r0, #0
  75 0034 41EA0203 		orr	r3, r1, r2
  76 0038 ACBF     		ite	ge
  77 003a 00F16040 		addge	r0, r0, #-536870912
  78 003e 084A     		ldrlt	r2, .L9+4
  79 0040 4FEA0313 		lsl	r3, r3, #4
  80 0044 B8BF     		it	lt
  81 0046 00F00F00 		andlt	r0, r0, #15
  82 004a DBB2     		uxtb	r3, r3
  83 004c AABF     		itet	ge
  84 004e 00F56140 		addge	r0, r0, #57600
  85 0052 1354     		strblt	r3, [r2, r0]
  86 0054 80F80033 		strbge	r3, [r0, #768]
  87 0058 30BD     		pop	{r4, r5, pc}
  88              	.L10:
  89 005a 00BF     		.align	2
  90              	.L9:
  91 005c 00ED00E0 		.word	-536810240
  92 0060 14ED00E0 		.word	-536810220
  94              		.section	.text.HAL_NVIC_EnableIRQ,"ax",%progbits
  95              		.align	1
  96              		.global	HAL_NVIC_EnableIRQ
  97              		.syntax unified
  98              		.thumb
  99              		.thumb_func
 101              	HAL_NVIC_EnableIRQ:
 102              		@ args = 0, pretend = 0, frame = 0
 103              		@ frame_needed = 0, uses_anonymous_args = 0
 104              		@ link register save eliminated.
 105 0000 0028     		cmp	r0, #0
 106 0002 08DB     		blt	.L11
 107 0004 0123     		movs	r3, #1
 108 0006 4209     		lsrs	r2, r0, #5
 109 0008 00F01F00 		and	r0, r0, #31
 110 000c 03FA00F0 		lsl	r0, r3, r0
 111 0010 014B     		ldr	r3, .L13
 112 0012 43F82200 		str	r0, [r3, r2, lsl #2]
 113              	.L11:
 114 0016 7047     		bx	lr
 115              	.L14:
 116              		.align	2
 117              	.L13:
 118 0018 00E100E0 		.word	-536813312
 120              		.section	.text.HAL_NVIC_DisableIRQ,"ax",%progbits
ARM GAS  C:\Users\CL\AppData\Local\Temp\ccSXzFGV.s 			page 3


 121              		.align	1
 122              		.global	HAL_NVIC_DisableIRQ
 123              		.syntax unified
 124              		.thumb
 125              		.thumb_func
 127              	HAL_NVIC_DisableIRQ:
 128              		@ args = 0, pretend = 0, frame = 0
 129              		@ frame_needed = 0, uses_anonymous_args = 0
 130              		@ link register save eliminated.
 131 0000 0028     		cmp	r0, #0
 132 0002 0DDB     		blt	.L15
 133 0004 4309     		lsrs	r3, r0, #5
 134 0006 0122     		movs	r2, #1
 135 0008 00F01F00 		and	r0, r0, #31
 136 000c 02FA00F0 		lsl	r0, r2, r0
 137 0010 2033     		adds	r3, r3, #32
 138 0012 044A     		ldr	r2, .L17
 139 0014 42F82300 		str	r0, [r2, r3, lsl #2]
 140              		.syntax unified
 141              	@ 946 "Drivers/CMSIS/Include/cmsis_gcc.h" 1
 142 0018 BFF34F8F 		dsb 0xF
 143              	@ 0 "" 2
 144              	@ 935 "Drivers/CMSIS/Include/cmsis_gcc.h" 1
 145 001c BFF36F8F 		isb 0xF
 146              	@ 0 "" 2
 147              		.thumb
 148              		.syntax unified
 149              	.L15:
 150 0020 7047     		bx	lr
 151              	.L18:
 152 0022 00BF     		.align	2
 153              	.L17:
 154 0024 00E100E0 		.word	-536813312
 156              		.section	.text.HAL_NVIC_SystemReset,"ax",%progbits
 157              		.align	1
 158              		.global	HAL_NVIC_SystemReset
 159              		.syntax unified
 160              		.thumb
 161              		.thumb_func
 163              	HAL_NVIC_SystemReset:
 164              		@ Volatile: function does not return.
 165              		@ args = 0, pretend = 0, frame = 0
 166              		@ frame_needed = 0, uses_anonymous_args = 0
 167              		@ link register save eliminated.
 168              		.syntax unified
 169              	@ 946 "Drivers/CMSIS/Include/cmsis_gcc.h" 1
 170 0000 BFF34F8F 		dsb 0xF
 171              	@ 0 "" 2
 172              		.thumb
 173              		.syntax unified
 174 0004 0549     		ldr	r1, .L21
 175 0006 064B     		ldr	r3, .L21+4
 176 0008 CA68     		ldr	r2, [r1, #12]
 177 000a 02F4E062 		and	r2, r2, #1792
 178 000e 1343     		orrs	r3, r3, r2
 179 0010 CB60     		str	r3, [r1, #12]
 180              		.syntax unified
ARM GAS  C:\Users\CL\AppData\Local\Temp\ccSXzFGV.s 			page 4


 181              	@ 946 "Drivers/CMSIS/Include/cmsis_gcc.h" 1
 182 0012 BFF34F8F 		dsb 0xF
 183              	@ 0 "" 2
 184              		.thumb
 185              		.syntax unified
 186              	.L20:
 187              		.syntax unified
 188              	@ 1944 "Drivers/CMSIS/Include/core_cm4.h" 1
 189 0016 00BF     		nop
 190              	@ 0 "" 2
 191              		.thumb
 192              		.syntax unified
 193 0018 FDE7     		b	.L20
 194              	.L22:
 195 001a 00BF     		.align	2
 196              	.L21:
 197 001c 00ED00E0 		.word	-536810240
 198 0020 0400FA05 		.word	100270084
 200              		.section	.text.HAL_SYSTICK_Config,"ax",%progbits
 201              		.align	1
 202              		.global	HAL_SYSTICK_Config
 203              		.syntax unified
 204              		.thumb
 205              		.thumb_func
 207              	HAL_SYSTICK_Config:
 208              		@ args = 0, pretend = 0, frame = 0
 209              		@ frame_needed = 0, uses_anonymous_args = 0
 210              		@ link register save eliminated.
 211 0000 0138     		subs	r0, r0, #1
 212 0002 B0F1807F 		cmp	r0, #16777216
 213 0006 0BD2     		bcs	.L25
 214 0008 4FF0E023 		mov	r3, #-536813568
 215 000c 054A     		ldr	r2, .L26
 216 000e 5861     		str	r0, [r3, #20]
 217 0010 F021     		movs	r1, #240
 218 0012 82F82310 		strb	r1, [r2, #35]
 219 0016 0020     		movs	r0, #0
 220 0018 0722     		movs	r2, #7
 221 001a 9861     		str	r0, [r3, #24]
 222 001c 1A61     		str	r2, [r3, #16]
 223 001e 7047     		bx	lr
 224              	.L25:
 225 0020 0120     		movs	r0, #1
 226 0022 7047     		bx	lr
 227              	.L27:
 228              		.align	2
 229              	.L26:
 230 0024 00ED00E0 		.word	-536810240
 232              		.section	.text.HAL_NVIC_GetPriorityGrouping,"ax",%progbits
 233              		.align	1
 234              		.global	HAL_NVIC_GetPriorityGrouping
 235              		.syntax unified
 236              		.thumb
 237              		.thumb_func
 239              	HAL_NVIC_GetPriorityGrouping:
 240              		@ args = 0, pretend = 0, frame = 0
 241              		@ frame_needed = 0, uses_anonymous_args = 0
ARM GAS  C:\Users\CL\AppData\Local\Temp\ccSXzFGV.s 			page 5


 242              		@ link register save eliminated.
 243 0000 024B     		ldr	r3, .L29
 244 0002 D868     		ldr	r0, [r3, #12]
 245 0004 C0F30220 		ubfx	r0, r0, #8, #3
 246 0008 7047     		bx	lr
 247              	.L30:
 248 000a 00BF     		.align	2
 249              	.L29:
 250 000c 00ED00E0 		.word	-536810240
 252              		.section	.text.HAL_NVIC_GetPriority,"ax",%progbits
 253              		.align	1
 254              		.global	HAL_NVIC_GetPriority
 255              		.syntax unified
 256              		.thumb
 257              		.thumb_func
 259              	HAL_NVIC_GetPriority:
 260              		@ args = 0, pretend = 0, frame = 0
 261              		@ frame_needed = 0, uses_anonymous_args = 0
 262 0000 70B5     		push	{r4, r5, r6, lr}
 263 0002 0028     		cmp	r0, #0
 264 0004 AEBF     		itee	ge
 265 0006 00F16040 		addge	r0, r0, #-536870912
 266 000a 134C     		ldrlt	r4, .L37
 267 000c 00F00F00 		andlt	r0, r0, #15
 268 0010 01F00701 		and	r1, r1, #7
 269 0014 AABF     		itet	ge
 270 0016 00F56140 		addge	r0, r0, #57600
 271 001a 205C     		ldrblt	r0, [r4, r0]	@ zero_extendqisi2
 272 001c 90F80003 		ldrbge	r0, [r0, #768]	@ zero_extendqisi2
 273 0020 C1F10704 		rsb	r4, r1, #7
 274 0024 0D1D     		adds	r5, r1, #4
 275 0026 042C     		cmp	r4, #4
 276 0028 28BF     		it	cs
 277 002a 0424     		movcs	r4, #4
 278 002c 062D     		cmp	r5, #6
 279 002e 4FEA1010 		lsr	r0, r0, #4
 280 0032 8CBF     		ite	hi
 281 0034 0339     		subhi	r1, r1, #3
 282 0036 0021     		movls	r1, #0
 283 0038 4FF0FF35 		mov	r5, #-1
 284 003c 20FA01F6 		lsr	r6, r0, r1
 285 0040 05FA04F4 		lsl	r4, r5, r4
 286 0044 05FA01F1 		lsl	r1, r5, r1
 287 0048 26EA0404 		bic	r4, r6, r4
 288 004c 20EA0100 		bic	r0, r0, r1
 289 0050 1460     		str	r4, [r2]
 290 0052 1860     		str	r0, [r3]
 291 0054 70BD     		pop	{r4, r5, r6, pc}
 292              	.L38:
 293 0056 00BF     		.align	2
 294              	.L37:
 295 0058 14ED00E0 		.word	-536810220
 297              		.section	.text.HAL_NVIC_SetPendingIRQ,"ax",%progbits
 298              		.align	1
 299              		.global	HAL_NVIC_SetPendingIRQ
 300              		.syntax unified
 301              		.thumb
ARM GAS  C:\Users\CL\AppData\Local\Temp\ccSXzFGV.s 			page 6


 302              		.thumb_func
 304              	HAL_NVIC_SetPendingIRQ:
 305              		@ args = 0, pretend = 0, frame = 0
 306              		@ frame_needed = 0, uses_anonymous_args = 0
 307              		@ link register save eliminated.
 308 0000 0028     		cmp	r0, #0
 309 0002 09DB     		blt	.L39
 310 0004 4309     		lsrs	r3, r0, #5
 311 0006 0122     		movs	r2, #1
 312 0008 00F01F00 		and	r0, r0, #31
 313 000c 02FA00F0 		lsl	r0, r2, r0
 314 0010 4033     		adds	r3, r3, #64
 315 0012 024A     		ldr	r2, .L41
 316 0014 42F82300 		str	r0, [r2, r3, lsl #2]
 317              	.L39:
 318 0018 7047     		bx	lr
 319              	.L42:
 320 001a 00BF     		.align	2
 321              	.L41:
 322 001c 00E100E0 		.word	-536813312
 324              		.section	.text.HAL_NVIC_GetPendingIRQ,"ax",%progbits
 325              		.align	1
 326              		.global	HAL_NVIC_GetPendingIRQ
 327              		.syntax unified
 328              		.thumb
 329              		.thumb_func
 331              	HAL_NVIC_GetPendingIRQ:
 332              		@ args = 0, pretend = 0, frame = 0
 333              		@ frame_needed = 0, uses_anonymous_args = 0
 334              		@ link register save eliminated.
 335 0000 0028     		cmp	r0, #0
 336 0002 A1BF     		itttt	ge
 337 0004 4309     		lsrge	r3, r0, #5
 338 0006 4033     		addge	r3, r3, #64
 339 0008 054A     		ldrge	r2, .L46
 340 000a 52F82330 		ldrge	r3, [r2, r3, lsl #2]
 341 000e A3BF     		ittte	ge
 342 0010 00F01F00 		andge	r0, r0, #31
 343 0014 23FA00F0 		lsrge	r0, r3, r0
 344 0018 00F00100 		andge	r0, r0, #1
 345 001c 0020     		movlt	r0, #0
 346 001e 7047     		bx	lr
 347              	.L47:
 348              		.align	2
 349              	.L46:
 350 0020 00E100E0 		.word	-536813312
 352              		.section	.text.HAL_NVIC_ClearPendingIRQ,"ax",%progbits
 353              		.align	1
 354              		.global	HAL_NVIC_ClearPendingIRQ
 355              		.syntax unified
 356              		.thumb
 357              		.thumb_func
 359              	HAL_NVIC_ClearPendingIRQ:
 360              		@ args = 0, pretend = 0, frame = 0
 361              		@ frame_needed = 0, uses_anonymous_args = 0
 362              		@ link register save eliminated.
 363 0000 0028     		cmp	r0, #0
ARM GAS  C:\Users\CL\AppData\Local\Temp\ccSXzFGV.s 			page 7


 364 0002 09DB     		blt	.L48
 365 0004 4309     		lsrs	r3, r0, #5
 366 0006 0122     		movs	r2, #1
 367 0008 00F01F00 		and	r0, r0, #31
 368 000c 02FA00F0 		lsl	r0, r2, r0
 369 0010 6033     		adds	r3, r3, #96
 370 0012 024A     		ldr	r2, .L50
 371 0014 42F82300 		str	r0, [r2, r3, lsl #2]
 372              	.L48:
 373 0018 7047     		bx	lr
 374              	.L51:
 375 001a 00BF     		.align	2
 376              	.L50:
 377 001c 00E100E0 		.word	-536813312
 379              		.section	.text.HAL_NVIC_GetActive,"ax",%progbits
 380              		.align	1
 381              		.global	HAL_NVIC_GetActive
 382              		.syntax unified
 383              		.thumb
 384              		.thumb_func
 386              	HAL_NVIC_GetActive:
 387              		@ args = 0, pretend = 0, frame = 0
 388              		@ frame_needed = 0, uses_anonymous_args = 0
 389              		@ link register save eliminated.
 390 0000 0028     		cmp	r0, #0
 391 0002 A1BF     		itttt	ge
 392 0004 4309     		lsrge	r3, r0, #5
 393 0006 8033     		addge	r3, r3, #128
 394 0008 054A     		ldrge	r2, .L55
 395 000a 52F82330 		ldrge	r3, [r2, r3, lsl #2]
 396 000e A3BF     		ittte	ge
 397 0010 00F01F00 		andge	r0, r0, #31
 398 0014 23FA00F0 		lsrge	r0, r3, r0
 399 0018 00F00100 		andge	r0, r0, #1
 400 001c 0020     		movlt	r0, #0
 401 001e 7047     		bx	lr
 402              	.L56:
 403              		.align	2
 404              	.L55:
 405 0020 00E100E0 		.word	-536813312
 407              		.section	.text.HAL_SYSTICK_CLKSourceConfig,"ax",%progbits
 408              		.align	1
 409              		.global	HAL_SYSTICK_CLKSourceConfig
 410              		.syntax unified
 411              		.thumb
 412              		.thumb_func
 414              	HAL_SYSTICK_CLKSourceConfig:
 415              		@ args = 0, pretend = 0, frame = 0
 416              		@ frame_needed = 0, uses_anonymous_args = 0
 417              		@ link register save eliminated.
 418 0000 4FF0E023 		mov	r3, #-536813568
 419 0004 0428     		cmp	r0, #4
 420 0006 1A69     		ldr	r2, [r3, #16]
 421 0008 0CBF     		ite	eq
 422 000a 42F00402 		orreq	r2, r2, #4
 423 000e 22F00402 		bicne	r2, r2, #4
 424 0012 1A61     		str	r2, [r3, #16]
ARM GAS  C:\Users\CL\AppData\Local\Temp\ccSXzFGV.s 			page 8


 425 0014 7047     		bx	lr
 427              		.section	.text.HAL_SYSTICK_Callback,"ax",%progbits
 428              		.align	1
 429              		.weak	HAL_SYSTICK_Callback
 430              		.syntax unified
 431              		.thumb
 432              		.thumb_func
 434              	HAL_SYSTICK_Callback:
 435              		@ args = 0, pretend = 0, frame = 0
 436              		@ frame_needed = 0, uses_anonymous_args = 0
 437              		@ link register save eliminated.
 438 0000 7047     		bx	lr
 440              		.section	.text.HAL_SYSTICK_IRQHandler,"ax",%progbits
 441              		.align	1
 442              		.global	HAL_SYSTICK_IRQHandler
 443              		.syntax unified
 444              		.thumb
 445              		.thumb_func
 447              	HAL_SYSTICK_IRQHandler:
 448              		@ args = 0, pretend = 0, frame = 0
 449              		@ frame_needed = 0, uses_anonymous_args = 0
 450 0000 08B5     		push	{r3, lr}
 451 0002 FFF7FEFF 		bl	HAL_SYSTICK_Callback
 452 0006 08BD     		pop	{r3, pc}
 454              		.section	.text.HAL_MPU_Enable,"ax",%progbits
 455              		.align	1
 456              		.global	HAL_MPU_Enable
 457              		.syntax unified
 458              		.thumb
 459              		.thumb_func
 461              	HAL_MPU_Enable:
 462              		@ args = 0, pretend = 0, frame = 0
 463              		@ frame_needed = 0, uses_anonymous_args = 0
 464              		@ link register save eliminated.
 465 0000 044B     		ldr	r3, .L64
 466 0002 40F00100 		orr	r0, r0, #1
 467 0006 C3F89400 		str	r0, [r3, #148]
 468              		.syntax unified
 469              	@ 946 "Drivers/CMSIS/Include/cmsis_gcc.h" 1
 470 000a BFF34F8F 		dsb 0xF
 471              	@ 0 "" 2
 472              	@ 935 "Drivers/CMSIS/Include/cmsis_gcc.h" 1
 473 000e BFF36F8F 		isb 0xF
 474              	@ 0 "" 2
 475              		.thumb
 476              		.syntax unified
 477 0012 7047     		bx	lr
 478              	.L65:
 479              		.align	2
 480              	.L64:
 481 0014 00ED00E0 		.word	-536810240
 483              		.section	.text.HAL_MPU_Disable,"ax",%progbits
 484              		.align	1
 485              		.global	HAL_MPU_Disable
 486              		.syntax unified
 487              		.thumb
 488              		.thumb_func
ARM GAS  C:\Users\CL\AppData\Local\Temp\ccSXzFGV.s 			page 9


 490              	HAL_MPU_Disable:
 491              		@ args = 0, pretend = 0, frame = 0
 492              		@ frame_needed = 0, uses_anonymous_args = 0
 493              		@ link register save eliminated.
 494              		.syntax unified
 495              	@ 957 "Drivers/CMSIS/Include/cmsis_gcc.h" 1
 496 0000 BFF35F8F 		dmb 0xF
 497              	@ 0 "" 2
 498              		.thumb
 499              		.syntax unified
 500 0004 024B     		ldr	r3, .L67
 501 0006 0022     		movs	r2, #0
 502 0008 C3F89420 		str	r2, [r3, #148]
 503 000c 7047     		bx	lr
 504              	.L68:
 505 000e 00BF     		.align	2
 506              	.L67:
 507 0010 00ED00E0 		.word	-536810240
 509              		.section	.text.HAL_MPU_ConfigRegion,"ax",%progbits
 510              		.align	1
 511              		.global	HAL_MPU_ConfigRegion
 512              		.syntax unified
 513              		.thumb
 514              		.thumb_func
 516              	HAL_MPU_ConfigRegion:
 517              		@ args = 0, pretend = 0, frame = 0
 518              		@ frame_needed = 0, uses_anonymous_args = 0
 519 0000 144A     		ldr	r2, .L72
 520 0002 4378     		ldrb	r3, [r0, #1]	@ zero_extendqisi2
 521 0004 10B5     		push	{r4, lr}
 522 0006 C2F89830 		str	r3, [r2, #152]
 523 000a 0178     		ldrb	r1, [r0]	@ zero_extendqisi2
 524 000c E9B1     		cbz	r1, .L70
 525 000e 4368     		ldr	r3, [r0, #4]
 526 0010 C2F89C30 		str	r3, [r2, #156]
 527 0014 C37A     		ldrb	r3, [r0, #11]	@ zero_extendqisi2
 528 0016 047B     		ldrb	r4, [r0, #12]	@ zero_extendqisi2
 529 0018 1B06     		lsls	r3, r3, #24
 530 001a 43EA0473 		orr	r3, r3, r4, lsl #28
 531 001e 0B43     		orrs	r3, r3, r1
 532 0020 817A     		ldrb	r1, [r0, #10]	@ zero_extendqisi2
 533 0022 43EAC143 		orr	r3, r3, r1, lsl #19
 534 0026 417B     		ldrb	r1, [r0, #13]	@ zero_extendqisi2
 535 0028 43EA8143 		orr	r3, r3, r1, lsl #18
 536 002c 817B     		ldrb	r1, [r0, #14]	@ zero_extendqisi2
 537 002e 43EA4143 		orr	r3, r3, r1, lsl #17
 538 0032 C17B     		ldrb	r1, [r0, #15]	@ zero_extendqisi2
 539 0034 43EA0143 		orr	r3, r3, r1, lsl #16
 540 0038 417A     		ldrb	r1, [r0, #9]	@ zero_extendqisi2
 541 003a 43EA0123 		orr	r3, r3, r1, lsl #8
 542 003e 017A     		ldrb	r1, [r0, #8]	@ zero_extendqisi2
 543 0040 43EA4103 		orr	r3, r3, r1, lsl #1
 544 0044 C2F8A030 		str	r3, [r2, #160]
 545              	.L69:
 546 0048 10BD     		pop	{r4, pc}
 547              	.L70:
 548 004a C2F89C10 		str	r1, [r2, #156]
ARM GAS  C:\Users\CL\AppData\Local\Temp\ccSXzFGV.s 			page 10


 549 004e C2F8A010 		str	r1, [r2, #160]
 550 0052 F9E7     		b	.L69
 551              	.L73:
 552              		.align	2
 553              	.L72:
 554 0054 00ED00E0 		.word	-536810240
 556              		.ident	"GCC: (GNU Arm Embedded Toolchain 10.3-2021.10) 10.3.1 20210824 (release)"
ARM GAS  C:\Users\CL\AppData\Local\Temp\ccSXzFGV.s 			page 11

