ARM GAS  C:\Users\CL\AppData\Local\Temp\cccqVk7o.s 			page 1


   1              		.cpu cortex-m4
   2              		.arch armv7e-m
   3              		.fpu fpv4-sp-d16
   4              		.eabi_attribute 27, 1
   5              		.eabi_attribute 28, 1
   6              		.eabi_attribute 20, 1
   7              		.eabi_attribute 21, 1
   8              		.eabi_attribute 23, 3
   9              		.eabi_attribute 24, 1
  10              		.eabi_attribute 25, 1
  11              		.eabi_attribute 26, 1
  12              		.eabi_attribute 30, 4
  13              		.eabi_attribute 34, 1
  14              		.eabi_attribute 18, 4
  15              		.file	"stm32l4xx_hal_pwr_ex.c"
  16              		.text
  17              		.section	.text.HAL_PWREx_GetVoltageRange,"ax",%progbits
  18              		.align	1
  19              		.global	HAL_PWREx_GetVoltageRange
  20              		.syntax unified
  21              		.thumb
  22              		.thumb_func
  24              	HAL_PWREx_GetVoltageRange:
  25              		@ args = 0, pretend = 0, frame = 0
  26              		@ frame_needed = 0, uses_anonymous_args = 0
  27              		@ link register save eliminated.
  28 0000 024B     		ldr	r3, .L2
  29 0002 1868     		ldr	r0, [r3]
  30 0004 00F4C060 		and	r0, r0, #1536
  31 0008 7047     		bx	lr
  32              	.L3:
  33 000a 00BF     		.align	2
  34              	.L2:
  35 000c 00700040 		.word	1073770496
  37              		.section	.text.HAL_PWREx_ControlVoltageScaling,"ax",%progbits
  38              		.align	1
  39              		.global	HAL_PWREx_ControlVoltageScaling
  40              		.syntax unified
  41              		.thumb
  42              		.thumb_func
  44              	HAL_PWREx_ControlVoltageScaling:
  45              		@ args = 0, pretend = 0, frame = 0
  46              		@ frame_needed = 0, uses_anonymous_args = 0
  47              		@ link register save eliminated.
  48 0000 174A     		ldr	r2, .L20
  49 0002 1368     		ldr	r3, [r2]
  50 0004 B0F5007F 		cmp	r0, #512
  51 0008 03F4C063 		and	r3, r3, #1536
  52 000c 1DD1     		bne	.L5
  53 000e B3F5007F 		cmp	r3, #512
  54 0012 01D1     		bne	.L6
  55              	.L19:
  56 0014 0020     		movs	r0, #0
  57 0016 7047     		bx	lr
  58              	.L6:
  59 0018 1368     		ldr	r3, [r2]
  60 001a 23F4C063 		bic	r3, r3, #1536
ARM GAS  C:\Users\CL\AppData\Local\Temp\cccqVk7o.s 			page 2


  61 001e 43F40073 		orr	r3, r3, #512
  62 0022 1360     		str	r3, [r2]
  63 0024 0F4B     		ldr	r3, .L20+4
  64 0026 1B68     		ldr	r3, [r3]
  65 0028 3221     		movs	r1, #50
  66 002a 4B43     		muls	r3, r1, r3
  67 002c 0E49     		ldr	r1, .L20+8
  68 002e B3FBF1F3 		udiv	r3, r3, r1
  69 0032 0133     		adds	r3, r3, #1
  70              	.L8:
  71 0034 5169     		ldr	r1, [r2, #20]
  72 0036 4905     		lsls	r1, r1, #21
  73 0038 00D5     		bpl	.L9
  74 003a 23B9     		cbnz	r3, .L10
  75              	.L9:
  76 003c 5369     		ldr	r3, [r2, #20]
  77 003e 5B05     		lsls	r3, r3, #21
  78 0040 E8D5     		bpl	.L19
  79 0042 0320     		movs	r0, #3
  80 0044 7047     		bx	lr
  81              	.L10:
  82 0046 013B     		subs	r3, r3, #1
  83 0048 F4E7     		b	.L8
  84              	.L5:
  85 004a B3F5806F 		cmp	r3, #1024
  86 004e 1FBF     		itttt	ne
  87 0050 1368     		ldrne	r3, [r2]
  88 0052 23F4C063 		bicne	r3, r3, #1536
  89 0056 43F48063 		orrne	r3, r3, #1024
  90 005a 1360     		strne	r3, [r2]
  91 005c DAE7     		b	.L19
  92              	.L21:
  93 005e 00BF     		.align	2
  94              	.L20:
  95 0060 00700040 		.word	1073770496
  96 0064 00000000 		.word	SystemCoreClock
  97 0068 40420F00 		.word	1000000
  99              		.section	.text.HAL_PWREx_EnableBatteryCharging,"ax",%progbits
 100              		.align	1
 101              		.global	HAL_PWREx_EnableBatteryCharging
 102              		.syntax unified
 103              		.thumb
 104              		.thumb_func
 106              	HAL_PWREx_EnableBatteryCharging:
 107              		@ args = 0, pretend = 0, frame = 0
 108              		@ frame_needed = 0, uses_anonymous_args = 0
 109              		@ link register save eliminated.
 110 0000 054A     		ldr	r2, .L23
 111 0002 D368     		ldr	r3, [r2, #12]
 112 0004 23F40073 		bic	r3, r3, #512
 113 0008 1843     		orrs	r0, r0, r3
 114 000a D060     		str	r0, [r2, #12]
 115 000c D368     		ldr	r3, [r2, #12]
 116 000e 43F48073 		orr	r3, r3, #256
 117 0012 D360     		str	r3, [r2, #12]
 118 0014 7047     		bx	lr
 119              	.L24:
ARM GAS  C:\Users\CL\AppData\Local\Temp\cccqVk7o.s 			page 3


 120 0016 00BF     		.align	2
 121              	.L23:
 122 0018 00700040 		.word	1073770496
 124              		.section	.text.HAL_PWREx_DisableBatteryCharging,"ax",%progbits
 125              		.align	1
 126              		.global	HAL_PWREx_DisableBatteryCharging
 127              		.syntax unified
 128              		.thumb
 129              		.thumb_func
 131              	HAL_PWREx_DisableBatteryCharging:
 132              		@ args = 0, pretend = 0, frame = 0
 133              		@ frame_needed = 0, uses_anonymous_args = 0
 134              		@ link register save eliminated.
 135 0000 024A     		ldr	r2, .L26
 136 0002 D368     		ldr	r3, [r2, #12]
 137 0004 23F48073 		bic	r3, r3, #256
 138 0008 D360     		str	r3, [r2, #12]
 139 000a 7047     		bx	lr
 140              	.L27:
 141              		.align	2
 142              	.L26:
 143 000c 00700040 		.word	1073770496
 145              		.section	.text.HAL_PWREx_EnableInternalWakeUpLine,"ax",%progbits
 146              		.align	1
 147              		.global	HAL_PWREx_EnableInternalWakeUpLine
 148              		.syntax unified
 149              		.thumb
 150              		.thumb_func
 152              	HAL_PWREx_EnableInternalWakeUpLine:
 153              		@ args = 0, pretend = 0, frame = 0
 154              		@ frame_needed = 0, uses_anonymous_args = 0
 155              		@ link register save eliminated.
 156 0000 024A     		ldr	r2, .L29
 157 0002 9368     		ldr	r3, [r2, #8]
 158 0004 43F40043 		orr	r3, r3, #32768
 159 0008 9360     		str	r3, [r2, #8]
 160 000a 7047     		bx	lr
 161              	.L30:
 162              		.align	2
 163              	.L29:
 164 000c 00700040 		.word	1073770496
 166              		.section	.text.HAL_PWREx_DisableInternalWakeUpLine,"ax",%progbits
 167              		.align	1
 168              		.global	HAL_PWREx_DisableInternalWakeUpLine
 169              		.syntax unified
 170              		.thumb
 171              		.thumb_func
 173              	HAL_PWREx_DisableInternalWakeUpLine:
 174              		@ args = 0, pretend = 0, frame = 0
 175              		@ frame_needed = 0, uses_anonymous_args = 0
 176              		@ link register save eliminated.
 177 0000 024A     		ldr	r2, .L32
 178 0002 9368     		ldr	r3, [r2, #8]
 179 0004 23F40043 		bic	r3, r3, #32768
 180 0008 9360     		str	r3, [r2, #8]
 181 000a 7047     		bx	lr
 182              	.L33:
ARM GAS  C:\Users\CL\AppData\Local\Temp\cccqVk7o.s 			page 4


 183              		.align	2
 184              	.L32:
 185 000c 00700040 		.word	1073770496
 187              		.section	.text.HAL_PWREx_EnableGPIOPullUp,"ax",%progbits
 188              		.align	1
 189              		.global	HAL_PWREx_EnableGPIOPullUp
 190              		.syntax unified
 191              		.thumb
 192              		.thumb_func
 194              	HAL_PWREx_EnableGPIOPullUp:
 195              		@ args = 0, pretend = 0, frame = 0
 196              		@ frame_needed = 0, uses_anonymous_args = 0
 197              		@ link register save eliminated.
 198 0000 0728     		cmp	r0, #7
 199 0002 44D8     		bhi	.L43
 200 0004 DFE800F0 		tbb	[pc, r0]
 201              	.L37:
 202 0008 04       		.byte	(.L42-.L37)/2
 203 0009 12       		.byte	(.L41-.L37)/2
 204 000a 1D       		.byte	(.L40-.L37)/2
 205 000b 26       		.byte	(.L39-.L37)/2
 206 000c 2F       		.byte	(.L38-.L37)/2
 207 000d 43       		.byte	(.L43-.L37)/2
 208 000e 43       		.byte	(.L43-.L37)/2
 209 000f 38       		.byte	(.L36-.L37)/2
 210              		.p2align 1
 211              	.L42:
 212 0010 204B     		ldr	r3, .L45
 213 0012 186A     		ldr	r0, [r3, #32]
 214 0014 21F48042 		bic	r2, r1, #16384
 215 0018 0243     		orrs	r2, r2, r0
 216 001a 1A62     		str	r2, [r3, #32]
 217 001c 5A6A     		ldr	r2, [r3, #36]
 218 001e 21F42041 		bic	r1, r1, #40960
 219 0022 22EA0101 		bic	r1, r2, r1
 220 0026 5962     		str	r1, [r3, #36]
 221              	.L44:
 222 0028 0020     		movs	r0, #0
 223 002a 7047     		bx	lr
 224              	.L41:
 225 002c 194B     		ldr	r3, .L45
 226 002e 9A6A     		ldr	r2, [r3, #40]
 227 0030 0A43     		orrs	r2, r2, r1
 228 0032 9A62     		str	r2, [r3, #40]
 229 0034 DA6A     		ldr	r2, [r3, #44]
 230 0036 21F01001 		bic	r1, r1, #16
 231 003a 22EA0101 		bic	r1, r2, r1
 232 003e D962     		str	r1, [r3, #44]
 233 0040 F2E7     		b	.L44
 234              	.L40:
 235 0042 144B     		ldr	r3, .L45
 236 0044 1A6B     		ldr	r2, [r3, #48]
 237 0046 0A43     		orrs	r2, r2, r1
 238 0048 1A63     		str	r2, [r3, #48]
 239 004a 5A6B     		ldr	r2, [r3, #52]
 240 004c 22EA0101 		bic	r1, r2, r1
 241 0050 5963     		str	r1, [r3, #52]
ARM GAS  C:\Users\CL\AppData\Local\Temp\cccqVk7o.s 			page 5


 242 0052 E9E7     		b	.L44
 243              	.L39:
 244 0054 0F4B     		ldr	r3, .L45
 245 0056 9A6B     		ldr	r2, [r3, #56]
 246 0058 0A43     		orrs	r2, r2, r1
 247 005a 9A63     		str	r2, [r3, #56]
 248 005c DA6B     		ldr	r2, [r3, #60]
 249 005e 22EA0101 		bic	r1, r2, r1
 250 0062 D963     		str	r1, [r3, #60]
 251 0064 E0E7     		b	.L44
 252              	.L38:
 253 0066 0B4B     		ldr	r3, .L45
 254 0068 1A6C     		ldr	r2, [r3, #64]
 255 006a 0A43     		orrs	r2, r2, r1
 256 006c 1A64     		str	r2, [r3, #64]
 257 006e 5A6C     		ldr	r2, [r3, #68]
 258 0070 22EA0101 		bic	r1, r2, r1
 259 0074 5964     		str	r1, [r3, #68]
 260 0076 D7E7     		b	.L44
 261              	.L36:
 262 0078 064B     		ldr	r3, .L45
 263 007a 9A6D     		ldr	r2, [r3, #88]
 264 007c 01F00B01 		and	r1, r1, #11
 265 0080 0A43     		orrs	r2, r2, r1
 266 0082 9A65     		str	r2, [r3, #88]
 267 0084 DA6D     		ldr	r2, [r3, #92]
 268 0086 22EA0101 		bic	r1, r2, r1
 269 008a D965     		str	r1, [r3, #92]
 270 008c CCE7     		b	.L44
 271              	.L43:
 272 008e 0120     		movs	r0, #1
 273 0090 7047     		bx	lr
 274              	.L46:
 275 0092 00BF     		.align	2
 276              	.L45:
 277 0094 00700040 		.word	1073770496
 279              		.section	.text.HAL_PWREx_DisableGPIOPullUp,"ax",%progbits
 280              		.align	1
 281              		.global	HAL_PWREx_DisableGPIOPullUp
 282              		.syntax unified
 283              		.thumb
 284              		.thumb_func
 286              	HAL_PWREx_DisableGPIOPullUp:
 287              		@ args = 0, pretend = 0, frame = 0
 288              		@ frame_needed = 0, uses_anonymous_args = 0
 289              		@ link register save eliminated.
 290 0000 0728     		cmp	r0, #7
 291 0002 2ED8     		bhi	.L56
 292 0004 DFE800F0 		tbb	[pc, r0]
 293              	.L50:
 294 0008 04       		.byte	(.L55-.L50)/2
 295 0009 0D       		.byte	(.L54-.L50)/2
 296 000a 13       		.byte	(.L53-.L50)/2
 297 000b 19       		.byte	(.L52-.L50)/2
 298 000c 1F       		.byte	(.L51-.L50)/2
 299 000d 2D       		.byte	(.L56-.L50)/2
 300 000e 2D       		.byte	(.L56-.L50)/2
ARM GAS  C:\Users\CL\AppData\Local\Temp\cccqVk7o.s 			page 6


 301 000f 25       		.byte	(.L49-.L50)/2
 302              		.p2align 1
 303              	.L55:
 304 0010 154A     		ldr	r2, .L58
 305 0012 136A     		ldr	r3, [r2, #32]
 306 0014 21F48041 		bic	r1, r1, #16384
 307 0018 23EA0101 		bic	r1, r3, r1
 308 001c 1162     		str	r1, [r2, #32]
 309              	.L57:
 310 001e 0020     		movs	r0, #0
 311 0020 7047     		bx	lr
 312              	.L54:
 313 0022 114A     		ldr	r2, .L58
 314 0024 936A     		ldr	r3, [r2, #40]
 315 0026 23EA0101 		bic	r1, r3, r1
 316 002a 9162     		str	r1, [r2, #40]
 317 002c F7E7     		b	.L57
 318              	.L53:
 319 002e 0E4A     		ldr	r2, .L58
 320 0030 136B     		ldr	r3, [r2, #48]
 321 0032 23EA0101 		bic	r1, r3, r1
 322 0036 1163     		str	r1, [r2, #48]
 323 0038 F1E7     		b	.L57
 324              	.L52:
 325 003a 0B4A     		ldr	r2, .L58
 326 003c 936B     		ldr	r3, [r2, #56]
 327 003e 23EA0101 		bic	r1, r3, r1
 328 0042 9163     		str	r1, [r2, #56]
 329 0044 EBE7     		b	.L57
 330              	.L51:
 331 0046 084A     		ldr	r2, .L58
 332 0048 136C     		ldr	r3, [r2, #64]
 333 004a 23EA0101 		bic	r1, r3, r1
 334 004e 1164     		str	r1, [r2, #64]
 335 0050 E5E7     		b	.L57
 336              	.L49:
 337 0052 054A     		ldr	r2, .L58
 338 0054 936D     		ldr	r3, [r2, #88]
 339 0056 01F00B01 		and	r1, r1, #11
 340 005a 23EA0101 		bic	r1, r3, r1
 341 005e 9165     		str	r1, [r2, #88]
 342 0060 DDE7     		b	.L57
 343              	.L56:
 344 0062 0120     		movs	r0, #1
 345 0064 7047     		bx	lr
 346              	.L59:
 347 0066 00BF     		.align	2
 348              	.L58:
 349 0068 00700040 		.word	1073770496
 351              		.section	.text.HAL_PWREx_EnableGPIOPullDown,"ax",%progbits
 352              		.align	1
 353              		.global	HAL_PWREx_EnableGPIOPullDown
 354              		.syntax unified
 355              		.thumb
 356              		.thumb_func
 358              	HAL_PWREx_EnableGPIOPullDown:
 359              		@ args = 0, pretend = 0, frame = 0
ARM GAS  C:\Users\CL\AppData\Local\Temp\cccqVk7o.s 			page 7


 360              		@ frame_needed = 0, uses_anonymous_args = 0
 361              		@ link register save eliminated.
 362 0000 0728     		cmp	r0, #7
 363 0002 44D8     		bhi	.L69
 364 0004 DFE800F0 		tbb	[pc, r0]
 365              	.L63:
 366 0008 04       		.byte	(.L68-.L63)/2
 367 0009 12       		.byte	(.L67-.L63)/2
 368 000a 1D       		.byte	(.L66-.L63)/2
 369 000b 26       		.byte	(.L65-.L63)/2
 370 000c 2F       		.byte	(.L64-.L63)/2
 371 000d 43       		.byte	(.L69-.L63)/2
 372 000e 43       		.byte	(.L69-.L63)/2
 373 000f 38       		.byte	(.L62-.L63)/2
 374              		.p2align 1
 375              	.L68:
 376 0010 204B     		ldr	r3, .L71
 377 0012 586A     		ldr	r0, [r3, #36]
 378 0014 21F42042 		bic	r2, r1, #40960
 379 0018 0243     		orrs	r2, r2, r0
 380 001a 5A62     		str	r2, [r3, #36]
 381 001c 1A6A     		ldr	r2, [r3, #32]
 382 001e 21F48041 		bic	r1, r1, #16384
 383 0022 22EA0101 		bic	r1, r2, r1
 384 0026 1962     		str	r1, [r3, #32]
 385              	.L70:
 386 0028 0020     		movs	r0, #0
 387 002a 7047     		bx	lr
 388              	.L67:
 389 002c 194B     		ldr	r3, .L71
 390 002e D86A     		ldr	r0, [r3, #44]
 391 0030 21F01002 		bic	r2, r1, #16
 392 0034 0243     		orrs	r2, r2, r0
 393 0036 DA62     		str	r2, [r3, #44]
 394 0038 9A6A     		ldr	r2, [r3, #40]
 395 003a 22EA0101 		bic	r1, r2, r1
 396 003e 9962     		str	r1, [r3, #40]
 397 0040 F2E7     		b	.L70
 398              	.L66:
 399 0042 144B     		ldr	r3, .L71
 400 0044 5A6B     		ldr	r2, [r3, #52]
 401 0046 0A43     		orrs	r2, r2, r1
 402 0048 5A63     		str	r2, [r3, #52]
 403 004a 1A6B     		ldr	r2, [r3, #48]
 404 004c 22EA0101 		bic	r1, r2, r1
 405 0050 1963     		str	r1, [r3, #48]
 406 0052 E9E7     		b	.L70
 407              	.L65:
 408 0054 0F4B     		ldr	r3, .L71
 409 0056 DA6B     		ldr	r2, [r3, #60]
 410 0058 0A43     		orrs	r2, r2, r1
 411 005a DA63     		str	r2, [r3, #60]
 412 005c 9A6B     		ldr	r2, [r3, #56]
 413 005e 22EA0101 		bic	r1, r2, r1
 414 0062 9963     		str	r1, [r3, #56]
 415 0064 E0E7     		b	.L70
 416              	.L64:
ARM GAS  C:\Users\CL\AppData\Local\Temp\cccqVk7o.s 			page 8


 417 0066 0B4B     		ldr	r3, .L71
 418 0068 5A6C     		ldr	r2, [r3, #68]
 419 006a 0A43     		orrs	r2, r2, r1
 420 006c 5A64     		str	r2, [r3, #68]
 421 006e 1A6C     		ldr	r2, [r3, #64]
 422 0070 22EA0101 		bic	r1, r2, r1
 423 0074 1964     		str	r1, [r3, #64]
 424 0076 D7E7     		b	.L70
 425              	.L62:
 426 0078 064B     		ldr	r3, .L71
 427 007a DA6D     		ldr	r2, [r3, #92]
 428 007c 01F00B01 		and	r1, r1, #11
 429 0080 0A43     		orrs	r2, r2, r1
 430 0082 DA65     		str	r2, [r3, #92]
 431 0084 9A6D     		ldr	r2, [r3, #88]
 432 0086 22EA0101 		bic	r1, r2, r1
 433 008a 9965     		str	r1, [r3, #88]
 434 008c CCE7     		b	.L70
 435              	.L69:
 436 008e 0120     		movs	r0, #1
 437 0090 7047     		bx	lr
 438              	.L72:
 439 0092 00BF     		.align	2
 440              	.L71:
 441 0094 00700040 		.word	1073770496
 443              		.section	.text.HAL_PWREx_DisableGPIOPullDown,"ax",%progbits
 444              		.align	1
 445              		.global	HAL_PWREx_DisableGPIOPullDown
 446              		.syntax unified
 447              		.thumb
 448              		.thumb_func
 450              	HAL_PWREx_DisableGPIOPullDown:
 451              		@ args = 0, pretend = 0, frame = 0
 452              		@ frame_needed = 0, uses_anonymous_args = 0
 453              		@ link register save eliminated.
 454 0000 0728     		cmp	r0, #7
 455 0002 30D8     		bhi	.L82
 456 0004 DFE800F0 		tbb	[pc, r0]
 457              	.L76:
 458 0008 04       		.byte	(.L81-.L76)/2
 459 0009 0D       		.byte	(.L80-.L76)/2
 460 000a 15       		.byte	(.L79-.L76)/2
 461 000b 1B       		.byte	(.L78-.L76)/2
 462 000c 21       		.byte	(.L77-.L76)/2
 463 000d 2F       		.byte	(.L82-.L76)/2
 464 000e 2F       		.byte	(.L82-.L76)/2
 465 000f 27       		.byte	(.L75-.L76)/2
 466              		.p2align 1
 467              	.L81:
 468 0010 164A     		ldr	r2, .L84
 469 0012 536A     		ldr	r3, [r2, #36]
 470 0014 21F42041 		bic	r1, r1, #40960
 471 0018 23EA0101 		bic	r1, r3, r1
 472 001c 5162     		str	r1, [r2, #36]
 473              	.L83:
 474 001e 0020     		movs	r0, #0
 475 0020 7047     		bx	lr
ARM GAS  C:\Users\CL\AppData\Local\Temp\cccqVk7o.s 			page 9


 476              	.L80:
 477 0022 124A     		ldr	r2, .L84
 478 0024 D36A     		ldr	r3, [r2, #44]
 479 0026 21F01001 		bic	r1, r1, #16
 480 002a 23EA0101 		bic	r1, r3, r1
 481 002e D162     		str	r1, [r2, #44]
 482 0030 F5E7     		b	.L83
 483              	.L79:
 484 0032 0E4A     		ldr	r2, .L84
 485 0034 536B     		ldr	r3, [r2, #52]
 486 0036 23EA0101 		bic	r1, r3, r1
 487 003a 5163     		str	r1, [r2, #52]
 488 003c EFE7     		b	.L83
 489              	.L78:
 490 003e 0B4A     		ldr	r2, .L84
 491 0040 D36B     		ldr	r3, [r2, #60]
 492 0042 23EA0101 		bic	r1, r3, r1
 493 0046 D163     		str	r1, [r2, #60]
 494 0048 E9E7     		b	.L83
 495              	.L77:
 496 004a 084A     		ldr	r2, .L84
 497 004c 536C     		ldr	r3, [r2, #68]
 498 004e 23EA0101 		bic	r1, r3, r1
 499 0052 5164     		str	r1, [r2, #68]
 500 0054 E3E7     		b	.L83
 501              	.L75:
 502 0056 054A     		ldr	r2, .L84
 503 0058 D36D     		ldr	r3, [r2, #92]
 504 005a 01F00B01 		and	r1, r1, #11
 505 005e 23EA0101 		bic	r1, r3, r1
 506 0062 D165     		str	r1, [r2, #92]
 507 0064 DBE7     		b	.L83
 508              	.L82:
 509 0066 0120     		movs	r0, #1
 510 0068 7047     		bx	lr
 511              	.L85:
 512 006a 00BF     		.align	2
 513              	.L84:
 514 006c 00700040 		.word	1073770496
 516              		.section	.text.HAL_PWREx_EnablePullUpPullDownConfig,"ax",%progbits
 517              		.align	1
 518              		.global	HAL_PWREx_EnablePullUpPullDownConfig
 519              		.syntax unified
 520              		.thumb
 521              		.thumb_func
 523              	HAL_PWREx_EnablePullUpPullDownConfig:
 524              		@ args = 0, pretend = 0, frame = 0
 525              		@ frame_needed = 0, uses_anonymous_args = 0
 526              		@ link register save eliminated.
 527 0000 024A     		ldr	r2, .L87
 528 0002 9368     		ldr	r3, [r2, #8]
 529 0004 43F48063 		orr	r3, r3, #1024
 530 0008 9360     		str	r3, [r2, #8]
 531 000a 7047     		bx	lr
 532              	.L88:
 533              		.align	2
 534              	.L87:
ARM GAS  C:\Users\CL\AppData\Local\Temp\cccqVk7o.s 			page 10


 535 000c 00700040 		.word	1073770496
 537              		.section	.text.HAL_PWREx_DisablePullUpPullDownConfig,"ax",%progbits
 538              		.align	1
 539              		.global	HAL_PWREx_DisablePullUpPullDownConfig
 540              		.syntax unified
 541              		.thumb
 542              		.thumb_func
 544              	HAL_PWREx_DisablePullUpPullDownConfig:
 545              		@ args = 0, pretend = 0, frame = 0
 546              		@ frame_needed = 0, uses_anonymous_args = 0
 547              		@ link register save eliminated.
 548 0000 024A     		ldr	r2, .L90
 549 0002 9368     		ldr	r3, [r2, #8]
 550 0004 23F48063 		bic	r3, r3, #1024
 551 0008 9360     		str	r3, [r2, #8]
 552 000a 7047     		bx	lr
 553              	.L91:
 554              		.align	2
 555              	.L90:
 556 000c 00700040 		.word	1073770496
 558              		.section	.text.HAL_PWREx_EnableSRAM2ContentRetention,"ax",%progbits
 559              		.align	1
 560              		.global	HAL_PWREx_EnableSRAM2ContentRetention
 561              		.syntax unified
 562              		.thumb
 563              		.thumb_func
 565              	HAL_PWREx_EnableSRAM2ContentRetention:
 566              		@ args = 0, pretend = 0, frame = 0
 567              		@ frame_needed = 0, uses_anonymous_args = 0
 568              		@ link register save eliminated.
 569 0000 024A     		ldr	r2, .L93
 570 0002 9368     		ldr	r3, [r2, #8]
 571 0004 43F48073 		orr	r3, r3, #256
 572 0008 9360     		str	r3, [r2, #8]
 573 000a 7047     		bx	lr
 574              	.L94:
 575              		.align	2
 576              	.L93:
 577 000c 00700040 		.word	1073770496
 579              		.section	.text.HAL_PWREx_SetSRAM2ContentRetention,"ax",%progbits
 580              		.align	1
 581              		.global	HAL_PWREx_SetSRAM2ContentRetention
 582              		.syntax unified
 583              		.thumb
 584              		.thumb_func
 586              	HAL_PWREx_SetSRAM2ContentRetention:
 587              		@ args = 0, pretend = 0, frame = 0
 588              		@ frame_needed = 0, uses_anonymous_args = 0
 589              		@ link register save eliminated.
 590 0000 28B9     		cbnz	r0, .L96
 591 0002 094A     		ldr	r2, .L99
 592 0004 9368     		ldr	r3, [r2, #8]
 593 0006 23F48073 		bic	r3, r3, #256
 594 000a 9360     		str	r3, [r2, #8]
 595 000c 7047     		bx	lr
 596              	.L96:
 597 000e B0F5807F 		cmp	r0, #256
ARM GAS  C:\Users\CL\AppData\Local\Temp\cccqVk7o.s 			page 11


 598 0012 01BF     		itttt	eq
 599 0014 044A     		ldreq	r2, .L99
 600 0016 9368     		ldreq	r3, [r2, #8]
 601 0018 43F48073 		orreq	r3, r3, #256
 602 001c 0020     		moveq	r0, #0
 603 001e 0CBF     		ite	eq
 604 0020 9360     		streq	r3, [r2, #8]
 605 0022 0120     		movne	r0, #1
 606 0024 7047     		bx	lr
 607              	.L100:
 608 0026 00BF     		.align	2
 609              	.L99:
 610 0028 00700040 		.word	1073770496
 612              		.section	.text.HAL_PWREx_DisableSRAM2ContentRetention,"ax",%progbits
 613              		.align	1
 614              		.global	HAL_PWREx_DisableSRAM2ContentRetention
 615              		.syntax unified
 616              		.thumb
 617              		.thumb_func
 619              	HAL_PWREx_DisableSRAM2ContentRetention:
 620              		@ args = 0, pretend = 0, frame = 0
 621              		@ frame_needed = 0, uses_anonymous_args = 0
 622              		@ link register save eliminated.
 623 0000 0020     		movs	r0, #0
 624 0002 FFF7FEBF 		b	HAL_PWREx_SetSRAM2ContentRetention
 626              		.section	.text.HAL_PWREx_EnablePVM3,"ax",%progbits
 627              		.align	1
 628              		.global	HAL_PWREx_EnablePVM3
 629              		.syntax unified
 630              		.thumb
 631              		.thumb_func
 633              	HAL_PWREx_EnablePVM3:
 634              		@ args = 0, pretend = 0, frame = 0
 635              		@ frame_needed = 0, uses_anonymous_args = 0
 636              		@ link register save eliminated.
 637 0000 024A     		ldr	r2, .L103
 638 0002 5368     		ldr	r3, [r2, #4]
 639 0004 43F04003 		orr	r3, r3, #64
 640 0008 5360     		str	r3, [r2, #4]
 641 000a 7047     		bx	lr
 642              	.L104:
 643              		.align	2
 644              	.L103:
 645 000c 00700040 		.word	1073770496
 647              		.section	.text.HAL_PWREx_DisablePVM3,"ax",%progbits
 648              		.align	1
 649              		.global	HAL_PWREx_DisablePVM3
 650              		.syntax unified
 651              		.thumb
 652              		.thumb_func
 654              	HAL_PWREx_DisablePVM3:
 655              		@ args = 0, pretend = 0, frame = 0
 656              		@ frame_needed = 0, uses_anonymous_args = 0
 657              		@ link register save eliminated.
 658 0000 024A     		ldr	r2, .L106
 659 0002 5368     		ldr	r3, [r2, #4]
 660 0004 23F04003 		bic	r3, r3, #64
ARM GAS  C:\Users\CL\AppData\Local\Temp\cccqVk7o.s 			page 12


 661 0008 5360     		str	r3, [r2, #4]
 662 000a 7047     		bx	lr
 663              	.L107:
 664              		.align	2
 665              	.L106:
 666 000c 00700040 		.word	1073770496
 668              		.section	.text.HAL_PWREx_EnablePVM4,"ax",%progbits
 669              		.align	1
 670              		.global	HAL_PWREx_EnablePVM4
 671              		.syntax unified
 672              		.thumb
 673              		.thumb_func
 675              	HAL_PWREx_EnablePVM4:
 676              		@ args = 0, pretend = 0, frame = 0
 677              		@ frame_needed = 0, uses_anonymous_args = 0
 678              		@ link register save eliminated.
 679 0000 024A     		ldr	r2, .L109
 680 0002 5368     		ldr	r3, [r2, #4]
 681 0004 43F08003 		orr	r3, r3, #128
 682 0008 5360     		str	r3, [r2, #4]
 683 000a 7047     		bx	lr
 684              	.L110:
 685              		.align	2
 686              	.L109:
 687 000c 00700040 		.word	1073770496
 689              		.section	.text.HAL_PWREx_DisablePVM4,"ax",%progbits
 690              		.align	1
 691              		.global	HAL_PWREx_DisablePVM4
 692              		.syntax unified
 693              		.thumb
 694              		.thumb_func
 696              	HAL_PWREx_DisablePVM4:
 697              		@ args = 0, pretend = 0, frame = 0
 698              		@ frame_needed = 0, uses_anonymous_args = 0
 699              		@ link register save eliminated.
 700 0000 024A     		ldr	r2, .L112
 701 0002 5368     		ldr	r3, [r2, #4]
 702 0004 23F08003 		bic	r3, r3, #128
 703 0008 5360     		str	r3, [r2, #4]
 704 000a 7047     		bx	lr
 705              	.L113:
 706              		.align	2
 707              	.L112:
 708 000c 00700040 		.word	1073770496
 710              		.section	.text.HAL_PWREx_ConfigPVM,"ax",%progbits
 711              		.align	1
 712              		.global	HAL_PWREx_ConfigPVM
 713              		.syntax unified
 714              		.thumb
 715              		.thumb_func
 717              	HAL_PWREx_ConfigPVM:
 718              		@ args = 0, pretend = 0, frame = 0
 719              		@ frame_needed = 0, uses_anonymous_args = 0
 720              		@ link register save eliminated.
 721 0000 0368     		ldr	r3, [r0]
 722 0002 402B     		cmp	r3, #64
 723 0004 03D0     		beq	.L115
ARM GAS  C:\Users\CL\AppData\Local\Temp\cccqVk7o.s 			page 13


 724 0006 802B     		cmp	r3, #128
 725 0008 2ED0     		beq	.L116
 726 000a 0120     		movs	r0, #1
 727 000c 7047     		bx	lr
 728              	.L115:
 729 000e 2B4B     		ldr	r3, .L149
 730 0010 5A6A     		ldr	r2, [r3, #36]
 731 0012 22F02002 		bic	r2, r2, #32
 732 0016 5A62     		str	r2, [r3, #36]
 733 0018 1A6A     		ldr	r2, [r3, #32]
 734 001a 22F02002 		bic	r2, r2, #32
 735 001e 1A62     		str	r2, [r3, #32]
 736 0020 DA6A     		ldr	r2, [r3, #44]
 737 0022 22F02002 		bic	r2, r2, #32
 738 0026 DA62     		str	r2, [r3, #44]
 739 0028 9A6A     		ldr	r2, [r3, #40]
 740 002a 22F02002 		bic	r2, r2, #32
 741 002e 9A62     		str	r2, [r3, #40]
 742 0030 4268     		ldr	r2, [r0, #4]
 743 0032 D103     		lsls	r1, r2, #15
 744 0034 42BF     		ittt	mi
 745 0036 196A     		ldrmi	r1, [r3, #32]
 746 0038 41F02001 		orrmi	r1, r1, #32
 747 003c 1962     		strmi	r1, [r3, #32]
 748 003e 9003     		lsls	r0, r2, #14
 749 0040 42BF     		ittt	mi
 750 0042 596A     		ldrmi	r1, [r3, #36]
 751 0044 41F02001 		orrmi	r1, r1, #32
 752 0048 5962     		strmi	r1, [r3, #36]
 753 004a D107     		lsls	r1, r2, #31
 754 004c 42BF     		ittt	mi
 755 004e 996A     		ldrmi	r1, [r3, #40]
 756 0050 41F02001 		orrmi	r1, r1, #32
 757 0054 9962     		strmi	r1, [r3, #40]
 758 0056 9007     		lsls	r0, r2, #30
 759 0058 01D4     		bmi	.L121
 760              	.L147:
 761 005a 0020     		movs	r0, #0
 762 005c 7047     		bx	lr
 763              	.L121:
 764 005e DA6A     		ldr	r2, [r3, #44]
 765 0060 42F02002 		orr	r2, r2, #32
 766              	.L148:
 767 0064 DA62     		str	r2, [r3, #44]
 768 0066 F8E7     		b	.L147
 769              	.L116:
 770 0068 144B     		ldr	r3, .L149
 771 006a 5A6A     		ldr	r2, [r3, #36]
 772 006c 22F04002 		bic	r2, r2, #64
 773 0070 5A62     		str	r2, [r3, #36]
 774 0072 1A6A     		ldr	r2, [r3, #32]
 775 0074 22F04002 		bic	r2, r2, #64
 776 0078 1A62     		str	r2, [r3, #32]
 777 007a DA6A     		ldr	r2, [r3, #44]
 778 007c 22F04002 		bic	r2, r2, #64
 779 0080 DA62     		str	r2, [r3, #44]
 780 0082 9A6A     		ldr	r2, [r3, #40]
ARM GAS  C:\Users\CL\AppData\Local\Temp\cccqVk7o.s 			page 14


 781 0084 22F04002 		bic	r2, r2, #64
 782 0088 9A62     		str	r2, [r3, #40]
 783 008a 4268     		ldr	r2, [r0, #4]
 784 008c D103     		lsls	r1, r2, #15
 785 008e 42BF     		ittt	mi
 786 0090 196A     		ldrmi	r1, [r3, #32]
 787 0092 41F04001 		orrmi	r1, r1, #64
 788 0096 1962     		strmi	r1, [r3, #32]
 789 0098 9003     		lsls	r0, r2, #14
 790 009a 42BF     		ittt	mi
 791 009c 596A     		ldrmi	r1, [r3, #36]
 792 009e 41F04001 		orrmi	r1, r1, #64
 793 00a2 5962     		strmi	r1, [r3, #36]
 794 00a4 D107     		lsls	r1, r2, #31
 795 00a6 42BF     		ittt	mi
 796 00a8 996A     		ldrmi	r1, [r3, #40]
 797 00aa 41F04001 		orrmi	r1, r1, #64
 798 00ae 9962     		strmi	r1, [r3, #40]
 799 00b0 9207     		lsls	r2, r2, #30
 800 00b2 D2D5     		bpl	.L147
 801 00b4 DA6A     		ldr	r2, [r3, #44]
 802 00b6 42F04002 		orr	r2, r2, #64
 803 00ba D3E7     		b	.L148
 804              	.L150:
 805              		.align	2
 806              	.L149:
 807 00bc 00040140 		.word	1073808384
 809              		.section	.text.HAL_PWREx_EnableLowPowerRunMode,"ax",%progbits
 810              		.align	1
 811              		.global	HAL_PWREx_EnableLowPowerRunMode
 812              		.syntax unified
 813              		.thumb
 814              		.thumb_func
 816              	HAL_PWREx_EnableLowPowerRunMode:
 817              		@ args = 0, pretend = 0, frame = 0
 818              		@ frame_needed = 0, uses_anonymous_args = 0
 819              		@ link register save eliminated.
 820 0000 024A     		ldr	r2, .L152
 821 0002 1368     		ldr	r3, [r2]
 822 0004 43F48043 		orr	r3, r3, #16384
 823 0008 1360     		str	r3, [r2]
 824 000a 7047     		bx	lr
 825              	.L153:
 826              		.align	2
 827              	.L152:
 828 000c 00700040 		.word	1073770496
 830              		.section	.text.HAL_PWREx_DisableLowPowerRunMode,"ax",%progbits
 831              		.align	1
 832              		.global	HAL_PWREx_DisableLowPowerRunMode
 833              		.syntax unified
 834              		.thumb
 835              		.thumb_func
 837              	HAL_PWREx_DisableLowPowerRunMode:
 838              		@ args = 0, pretend = 0, frame = 0
 839              		@ frame_needed = 0, uses_anonymous_args = 0
 840              		@ link register save eliminated.
 841 0000 0C4A     		ldr	r2, .L163
ARM GAS  C:\Users\CL\AppData\Local\Temp\cccqVk7o.s 			page 15


 842 0002 1368     		ldr	r3, [r2]
 843 0004 23F48043 		bic	r3, r3, #16384
 844 0008 1360     		str	r3, [r2]
 845 000a 0B4B     		ldr	r3, .L163+4
 846 000c 1B68     		ldr	r3, [r3]
 847 000e 3221     		movs	r1, #50
 848 0010 4B43     		muls	r3, r1, r3
 849 0012 0A49     		ldr	r1, .L163+8
 850 0014 B3FBF1F3 		udiv	r3, r3, r1
 851 0018 0133     		adds	r3, r3, #1
 852              	.L155:
 853 001a 5169     		ldr	r1, [r2, #20]
 854 001c 8905     		lsls	r1, r1, #22
 855 001e 00D5     		bpl	.L156
 856 0020 33B9     		cbnz	r3, .L157
 857              	.L156:
 858 0022 5369     		ldr	r3, [r2, #20]
 859 0024 13F4007F 		tst	r3, #512
 860 0028 14BF     		ite	ne
 861 002a 0320     		movne	r0, #3
 862 002c 0020     		moveq	r0, #0
 863 002e 7047     		bx	lr
 864              	.L157:
 865 0030 013B     		subs	r3, r3, #1
 866 0032 F2E7     		b	.L155
 867              	.L164:
 868              		.align	2
 869              	.L163:
 870 0034 00700040 		.word	1073770496
 871 0038 00000000 		.word	SystemCoreClock
 872 003c 40420F00 		.word	1000000
 874              		.section	.text.HAL_PWREx_EnterSTOP0Mode,"ax",%progbits
 875              		.align	1
 876              		.global	HAL_PWREx_EnterSTOP0Mode
 877              		.syntax unified
 878              		.thumb
 879              		.thumb_func
 881              	HAL_PWREx_EnterSTOP0Mode:
 882              		@ args = 0, pretend = 0, frame = 0
 883              		@ frame_needed = 0, uses_anonymous_args = 0
 884              		@ link register save eliminated.
 885 0000 0A4A     		ldr	r2, .L168
 886 0002 1368     		ldr	r3, [r2]
 887 0004 23F00703 		bic	r3, r3, #7
 888 0008 1360     		str	r3, [r2]
 889 000a 094B     		ldr	r3, .L168+4
 890 000c 1A69     		ldr	r2, [r3, #16]
 891 000e 0128     		cmp	r0, #1
 892 0010 42F00402 		orr	r2, r2, #4
 893 0014 1A61     		str	r2, [r3, #16]
 894 0016 05D1     		bne	.L166
 895              		.syntax unified
 896              	@ 1203 "Drivers/STM32L4xx_HAL_Driver/Src/stm32l4xx_hal_pwr_ex.c" 1
 897 0018 30BF     		wfi
 898              	@ 0 "" 2
 899              		.thumb
 900              		.syntax unified
ARM GAS  C:\Users\CL\AppData\Local\Temp\cccqVk7o.s 			page 16


 901              	.L167:
 902 001a 1A69     		ldr	r2, [r3, #16]
 903 001c 22F00402 		bic	r2, r2, #4
 904 0020 1A61     		str	r2, [r3, #16]
 905 0022 7047     		bx	lr
 906              	.L166:
 907              		.syntax unified
 908              	@ 1208 "Drivers/STM32L4xx_HAL_Driver/Src/stm32l4xx_hal_pwr_ex.c" 1
 909 0024 40BF     		sev
 910              	@ 0 "" 2
 911              	@ 1209 "Drivers/STM32L4xx_HAL_Driver/Src/stm32l4xx_hal_pwr_ex.c" 1
 912 0026 20BF     		wfe
 913              	@ 0 "" 2
 914              	@ 1210 "Drivers/STM32L4xx_HAL_Driver/Src/stm32l4xx_hal_pwr_ex.c" 1
 915 0028 20BF     		wfe
 916              	@ 0 "" 2
 917              		.thumb
 918              		.syntax unified
 919 002a F6E7     		b	.L167
 920              	.L169:
 921              		.align	2
 922              	.L168:
 923 002c 00700040 		.word	1073770496
 924 0030 00ED00E0 		.word	-536810240
 926              		.section	.text.HAL_PWREx_EnterSTOP1Mode,"ax",%progbits
 927              		.align	1
 928              		.global	HAL_PWREx_EnterSTOP1Mode
 929              		.syntax unified
 930              		.thumb
 931              		.thumb_func
 933              	HAL_PWREx_EnterSTOP1Mode:
 934              		@ args = 0, pretend = 0, frame = 0
 935              		@ frame_needed = 0, uses_anonymous_args = 0
 936              		@ link register save eliminated.
 937 0000 0B4A     		ldr	r2, .L173
 938 0002 1368     		ldr	r3, [r2]
 939 0004 23F00703 		bic	r3, r3, #7
 940 0008 43F00103 		orr	r3, r3, #1
 941 000c 1360     		str	r3, [r2]
 942 000e 094B     		ldr	r3, .L173+4
 943 0010 1A69     		ldr	r2, [r3, #16]
 944 0012 0128     		cmp	r0, #1
 945 0014 42F00402 		orr	r2, r2, #4
 946 0018 1A61     		str	r2, [r3, #16]
 947 001a 05D1     		bne	.L171
 948              		.syntax unified
 949              	@ 1254 "Drivers/STM32L4xx_HAL_Driver/Src/stm32l4xx_hal_pwr_ex.c" 1
 950 001c 30BF     		wfi
 951              	@ 0 "" 2
 952              		.thumb
 953              		.syntax unified
 954              	.L172:
 955 001e 1A69     		ldr	r2, [r3, #16]
 956 0020 22F00402 		bic	r2, r2, #4
 957 0024 1A61     		str	r2, [r3, #16]
 958 0026 7047     		bx	lr
 959              	.L171:
ARM GAS  C:\Users\CL\AppData\Local\Temp\cccqVk7o.s 			page 17


 960              		.syntax unified
 961              	@ 1259 "Drivers/STM32L4xx_HAL_Driver/Src/stm32l4xx_hal_pwr_ex.c" 1
 962 0028 40BF     		sev
 963              	@ 0 "" 2
 964              	@ 1260 "Drivers/STM32L4xx_HAL_Driver/Src/stm32l4xx_hal_pwr_ex.c" 1
 965 002a 20BF     		wfe
 966              	@ 0 "" 2
 967              	@ 1261 "Drivers/STM32L4xx_HAL_Driver/Src/stm32l4xx_hal_pwr_ex.c" 1
 968 002c 20BF     		wfe
 969              	@ 0 "" 2
 970              		.thumb
 971              		.syntax unified
 972 002e F6E7     		b	.L172
 973              	.L174:
 974              		.align	2
 975              	.L173:
 976 0030 00700040 		.word	1073770496
 977 0034 00ED00E0 		.word	-536810240
 979              		.section	.text.HAL_PWREx_EnterSTOP2Mode,"ax",%progbits
 980              		.align	1
 981              		.global	HAL_PWREx_EnterSTOP2Mode
 982              		.syntax unified
 983              		.thumb
 984              		.thumb_func
 986              	HAL_PWREx_EnterSTOP2Mode:
 987              		@ args = 0, pretend = 0, frame = 0
 988              		@ frame_needed = 0, uses_anonymous_args = 0
 989              		@ link register save eliminated.
 990 0000 0B4A     		ldr	r2, .L178
 991 0002 1368     		ldr	r3, [r2]
 992 0004 23F00703 		bic	r3, r3, #7
 993 0008 43F00203 		orr	r3, r3, #2
 994 000c 1360     		str	r3, [r2]
 995 000e 094B     		ldr	r3, .L178+4
 996 0010 1A69     		ldr	r2, [r3, #16]
 997 0012 0128     		cmp	r0, #1
 998 0014 42F00402 		orr	r2, r2, #4
 999 0018 1A61     		str	r2, [r3, #16]
 1000 001a 05D1     		bne	.L176
 1001              		.syntax unified
 1002              	@ 1307 "Drivers/STM32L4xx_HAL_Driver/Src/stm32l4xx_hal_pwr_ex.c" 1
 1003 001c 30BF     		wfi
 1004              	@ 0 "" 2
 1005              		.thumb
 1006              		.syntax unified
 1007              	.L177:
 1008 001e 1A69     		ldr	r2, [r3, #16]
 1009 0020 22F00402 		bic	r2, r2, #4
 1010 0024 1A61     		str	r2, [r3, #16]
 1011 0026 7047     		bx	lr
 1012              	.L176:
 1013              		.syntax unified
 1014              	@ 1312 "Drivers/STM32L4xx_HAL_Driver/Src/stm32l4xx_hal_pwr_ex.c" 1
 1015 0028 40BF     		sev
 1016              	@ 0 "" 2
 1017              	@ 1313 "Drivers/STM32L4xx_HAL_Driver/Src/stm32l4xx_hal_pwr_ex.c" 1
 1018 002a 20BF     		wfe
ARM GAS  C:\Users\CL\AppData\Local\Temp\cccqVk7o.s 			page 18


 1019              	@ 0 "" 2
 1020              	@ 1314 "Drivers/STM32L4xx_HAL_Driver/Src/stm32l4xx_hal_pwr_ex.c" 1
 1021 002c 20BF     		wfe
 1022              	@ 0 "" 2
 1023              		.thumb
 1024              		.syntax unified
 1025 002e F6E7     		b	.L177
 1026              	.L179:
 1027              		.align	2
 1028              	.L178:
 1029 0030 00700040 		.word	1073770496
 1030 0034 00ED00E0 		.word	-536810240
 1032              		.section	.text.HAL_PWREx_EnterSHUTDOWNMode,"ax",%progbits
 1033              		.align	1
 1034              		.global	HAL_PWREx_EnterSHUTDOWNMode
 1035              		.syntax unified
 1036              		.thumb
 1037              		.thumb_func
 1039              	HAL_PWREx_EnterSHUTDOWNMode:
 1040              		@ args = 0, pretend = 0, frame = 0
 1041              		@ frame_needed = 0, uses_anonymous_args = 0
 1042              		@ link register save eliminated.
 1043 0000 064A     		ldr	r2, .L181
 1044 0002 1368     		ldr	r3, [r2]
 1045 0004 23F00703 		bic	r3, r3, #7
 1046 0008 43F00403 		orr	r3, r3, #4
 1047 000c 1360     		str	r3, [r2]
 1048 000e 044A     		ldr	r2, .L181+4
 1049 0010 1369     		ldr	r3, [r2, #16]
 1050 0012 43F00403 		orr	r3, r3, #4
 1051 0016 1361     		str	r3, [r2, #16]
 1052              		.syntax unified
 1053              	@ 1348 "Drivers/STM32L4xx_HAL_Driver/Src/stm32l4xx_hal_pwr_ex.c" 1
 1054 0018 30BF     		wfi
 1055              	@ 0 "" 2
 1056              		.thumb
 1057              		.syntax unified
 1058 001a 7047     		bx	lr
 1059              	.L182:
 1060              		.align	2
 1061              	.L181:
 1062 001c 00700040 		.word	1073770496
 1063 0020 00ED00E0 		.word	-536810240
 1065              		.section	.text.HAL_PWREx_PVM3Callback,"ax",%progbits
 1066              		.align	1
 1067              		.weak	HAL_PWREx_PVM3Callback
 1068              		.syntax unified
 1069              		.thumb
 1070              		.thumb_func
 1072              	HAL_PWREx_PVM3Callback:
 1073              		@ args = 0, pretend = 0, frame = 0
 1074              		@ frame_needed = 0, uses_anonymous_args = 0
 1075              		@ link register save eliminated.
 1076 0000 7047     		bx	lr
 1078              		.section	.text.HAL_PWREx_PVM4Callback,"ax",%progbits
 1079              		.align	1
 1080              		.weak	HAL_PWREx_PVM4Callback
ARM GAS  C:\Users\CL\AppData\Local\Temp\cccqVk7o.s 			page 19


 1081              		.syntax unified
 1082              		.thumb
 1083              		.thumb_func
 1085              	HAL_PWREx_PVM4Callback:
 1086              		@ args = 0, pretend = 0, frame = 0
 1087              		@ frame_needed = 0, uses_anonymous_args = 0
 1088              		@ link register save eliminated.
 1089 0000 7047     		bx	lr
 1091              		.section	.text.HAL_PWREx_PVD_PVM_IRQHandler,"ax",%progbits
 1092              		.align	1
 1093              		.global	HAL_PWREx_PVD_PVM_IRQHandler
 1094              		.syntax unified
 1095              		.thumb
 1096              		.thumb_func
 1098              	HAL_PWREx_PVD_PVM_IRQHandler:
 1099              		@ args = 0, pretend = 0, frame = 0
 1100              		@ frame_needed = 0, uses_anonymous_args = 0
 1101 0000 10B5     		push	{r4, lr}
 1102 0002 0C4C     		ldr	r4, .L198
 1103 0004 6369     		ldr	r3, [r4, #20]
 1104 0006 D903     		lsls	r1, r3, #15
 1105 0008 04D5     		bpl	.L186
 1106 000a FFF7FEFF 		bl	HAL_PWR_PVDCallback
 1107 000e 4FF48033 		mov	r3, #65536
 1108 0012 6361     		str	r3, [r4, #20]
 1109              	.L186:
 1110 0014 636B     		ldr	r3, [r4, #52]
 1111 0016 9A06     		lsls	r2, r3, #26
 1112 0018 03D5     		bpl	.L187
 1113 001a FFF7FEFF 		bl	HAL_PWREx_PVM3Callback
 1114 001e 2023     		movs	r3, #32
 1115 0020 6363     		str	r3, [r4, #52]
 1116              	.L187:
 1117 0022 636B     		ldr	r3, [r4, #52]
 1118 0024 5B06     		lsls	r3, r3, #25
 1119 0026 03D5     		bpl	.L185
 1120 0028 FFF7FEFF 		bl	HAL_PWREx_PVM4Callback
 1121 002c 4023     		movs	r3, #64
 1122 002e 6363     		str	r3, [r4, #52]
 1123              	.L185:
 1124 0030 10BD     		pop	{r4, pc}
 1125              	.L199:
 1126 0032 00BF     		.align	2
 1127              	.L198:
 1128 0034 00040140 		.word	1073808384
 1130              		.ident	"GCC: (GNU Arm Embedded Toolchain 10.3-2021.10) 10.3.1 20210824 (release)"
ARM GAS  C:\Users\CL\AppData\Local\Temp\cccqVk7o.s 			page 20

