ARM GAS  C:\Users\CL\AppData\Local\Temp\ccsX5nGA.s 			page 1


   1              		.cpu cortex-m4
   2              		.arch armv7e-m
   3              		.fpu fpv4-sp-d16
   4              		.eabi_attribute 27, 1
   5              		.eabi_attribute 28, 1
   6              		.eabi_attribute 20, 1
   7              		.eabi_attribute 21, 1
   8              		.eabi_attribute 23, 3
   9              		.eabi_attribute 24, 1
  10              		.eabi_attribute 25, 1
  11              		.eabi_attribute 26, 1
  12              		.eabi_attribute 30, 4
  13              		.eabi_attribute 34, 1
  14              		.eabi_attribute 18, 4
  15              		.file	"stm32l4xx_hal.c"
  16              		.text
  17              		.section	.text.HAL_MspInit,"ax",%progbits
  18              		.align	1
  19              		.weak	HAL_MspInit
  20              		.syntax unified
  21              		.thumb
  22              		.thumb_func
  24              	HAL_MspInit:
  25              		@ args = 0, pretend = 0, frame = 0
  26              		@ frame_needed = 0, uses_anonymous_args = 0
  27              		@ link register save eliminated.
  28 0000 7047     		bx	lr
  30              		.section	.text.HAL_MspDeInit,"ax",%progbits
  31              		.align	1
  32              		.weak	HAL_MspDeInit
  33              		.syntax unified
  34              		.thumb
  35              		.thumb_func
  37              	HAL_MspDeInit:
  38              		@ args = 0, pretend = 0, frame = 0
  39              		@ frame_needed = 0, uses_anonymous_args = 0
  40              		@ link register save eliminated.
  41 0000 7047     		bx	lr
  43              		.section	.text.HAL_DeInit,"ax",%progbits
  44              		.align	1
  45              		.global	HAL_DeInit
  46              		.syntax unified
  47              		.thumb
  48              		.thumb_func
  50              	HAL_DeInit:
  51              		@ args = 0, pretend = 0, frame = 0
  52              		@ frame_needed = 0, uses_anonymous_args = 0
  53 0000 10B5     		push	{r4, lr}
  54 0002 0A4B     		ldr	r3, .L4
  55 0004 4FF0FF32 		mov	r2, #-1
  56 0008 0024     		movs	r4, #0
  57 000a 9A63     		str	r2, [r3, #56]
  58 000c DA63     		str	r2, [r3, #60]
  59 000e 9C63     		str	r4, [r3, #56]
  60 0010 DC63     		str	r4, [r3, #60]
  61 0012 1A64     		str	r2, [r3, #64]
  62 0014 1C64     		str	r4, [r3, #64]
ARM GAS  C:\Users\CL\AppData\Local\Temp\ccsX5nGA.s 			page 2


  63 0016 9A62     		str	r2, [r3, #40]
  64 0018 9C62     		str	r4, [r3, #40]
  65 001a DA62     		str	r2, [r3, #44]
  66 001c DC62     		str	r4, [r3, #44]
  67 001e 1A63     		str	r2, [r3, #48]
  68 0020 1C63     		str	r4, [r3, #48]
  69 0022 FFF7FEFF 		bl	HAL_MspDeInit
  70 0026 2046     		mov	r0, r4
  71 0028 10BD     		pop	{r4, pc}
  72              	.L5:
  73 002a 00BF     		.align	2
  74              	.L4:
  75 002c 00100240 		.word	1073876992
  77              		.section	.text.HAL_InitTick,"ax",%progbits
  78              		.align	1
  79              		.weak	HAL_InitTick
  80              		.syntax unified
  81              		.thumb
  82              		.thumb_func
  84              	HAL_InitTick:
  85              		@ args = 0, pretend = 0, frame = 0
  86              		@ frame_needed = 0, uses_anonymous_args = 0
  87 0000 38B5     		push	{r3, r4, r5, lr}
  88 0002 0F4B     		ldr	r3, .L10
  89 0004 0546     		mov	r5, r0
  90 0006 1878     		ldrb	r0, [r3]	@ zero_extendqisi2
  91 0008 08B9     		cbnz	r0, .L7
  92              	.L9:
  93 000a 0120     		movs	r0, #1
  94              	.L8:
  95 000c 38BD     		pop	{r3, r4, r5, pc}
  96              	.L7:
  97 000e 0D4A     		ldr	r2, .L10+4
  98 0010 4FF47A73 		mov	r3, #1000
  99 0014 B3FBF0F3 		udiv	r3, r3, r0
 100 0018 1068     		ldr	r0, [r2]
 101 001a B0FBF3F0 		udiv	r0, r0, r3
 102 001e FFF7FEFF 		bl	HAL_SYSTICK_Config
 103 0022 0446     		mov	r4, r0
 104 0024 0028     		cmp	r0, #0
 105 0026 F0D1     		bne	.L9
 106 0028 0F2D     		cmp	r5, #15
 107 002a EED8     		bhi	.L9
 108 002c 0246     		mov	r2, r0
 109 002e 2946     		mov	r1, r5
 110 0030 4FF0FF30 		mov	r0, #-1
 111 0034 FFF7FEFF 		bl	HAL_NVIC_SetPriority
 112 0038 034B     		ldr	r3, .L10+8
 113 003a 2046     		mov	r0, r4
 114 003c 1D60     		str	r5, [r3]
 115 003e E5E7     		b	.L8
 116              	.L11:
 117              		.align	2
 118              	.L10:
 119 0040 00000000 		.word	.LANCHOR0
 120 0044 00000000 		.word	SystemCoreClock
 121 0048 00000000 		.word	.LANCHOR1
ARM GAS  C:\Users\CL\AppData\Local\Temp\ccsX5nGA.s 			page 3


 123              		.section	.text.HAL_Init,"ax",%progbits
 124              		.align	1
 125              		.global	HAL_Init
 126              		.syntax unified
 127              		.thumb
 128              		.thumb_func
 130              	HAL_Init:
 131              		@ args = 0, pretend = 0, frame = 0
 132              		@ frame_needed = 0, uses_anonymous_args = 0
 133 0000 10B5     		push	{r4, lr}
 134 0002 0320     		movs	r0, #3
 135 0004 FFF7FEFF 		bl	HAL_NVIC_SetPriorityGrouping
 136 0008 0320     		movs	r0, #3
 137 000a FFF7FEFF 		bl	HAL_InitTick
 138 000e 0446     		mov	r4, r0
 139 0010 18B9     		cbnz	r0, .L14
 140 0012 FFF7FEFF 		bl	HAL_MspInit
 141              	.L13:
 142 0016 2046     		mov	r0, r4
 143 0018 10BD     		pop	{r4, pc}
 144              	.L14:
 145 001a 0124     		movs	r4, #1
 146 001c FBE7     		b	.L13
 148              		.section	.text.HAL_IncTick,"ax",%progbits
 149              		.align	1
 150              		.weak	HAL_IncTick
 151              		.syntax unified
 152              		.thumb
 153              		.thumb_func
 155              	HAL_IncTick:
 156              		@ args = 0, pretend = 0, frame = 0
 157              		@ frame_needed = 0, uses_anonymous_args = 0
 158              		@ link register save eliminated.
 159 0000 034A     		ldr	r2, .L16
 160 0002 044B     		ldr	r3, .L16+4
 161 0004 1168     		ldr	r1, [r2]
 162 0006 1B78     		ldrb	r3, [r3]	@ zero_extendqisi2
 163 0008 0B44     		add	r3, r3, r1
 164 000a 1360     		str	r3, [r2]
 165 000c 7047     		bx	lr
 166              	.L17:
 167 000e 00BF     		.align	2
 168              	.L16:
 169 0010 00000000 		.word	.LANCHOR2
 170 0014 00000000 		.word	.LANCHOR0
 172              		.section	.text.HAL_GetTick,"ax",%progbits
 173              		.align	1
 174              		.weak	HAL_GetTick
 175              		.syntax unified
 176              		.thumb
 177              		.thumb_func
 179              	HAL_GetTick:
 180              		@ args = 0, pretend = 0, frame = 0
 181              		@ frame_needed = 0, uses_anonymous_args = 0
 182              		@ link register save eliminated.
 183 0000 014B     		ldr	r3, .L19
 184 0002 1868     		ldr	r0, [r3]
ARM GAS  C:\Users\CL\AppData\Local\Temp\ccsX5nGA.s 			page 4


 185 0004 7047     		bx	lr
 186              	.L20:
 187 0006 00BF     		.align	2
 188              	.L19:
 189 0008 00000000 		.word	.LANCHOR2
 191              		.section	.text.HAL_GetTickPrio,"ax",%progbits
 192              		.align	1
 193              		.global	HAL_GetTickPrio
 194              		.syntax unified
 195              		.thumb
 196              		.thumb_func
 198              	HAL_GetTickPrio:
 199              		@ args = 0, pretend = 0, frame = 0
 200              		@ frame_needed = 0, uses_anonymous_args = 0
 201              		@ link register save eliminated.
 202 0000 014B     		ldr	r3, .L22
 203 0002 1868     		ldr	r0, [r3]
 204 0004 7047     		bx	lr
 205              	.L23:
 206 0006 00BF     		.align	2
 207              	.L22:
 208 0008 00000000 		.word	.LANCHOR1
 210              		.section	.text.HAL_SetTickFreq,"ax",%progbits
 211              		.align	1
 212              		.global	HAL_SetTickFreq
 213              		.syntax unified
 214              		.thumb
 215              		.thumb_func
 217              	HAL_SetTickFreq:
 218              		@ args = 0, pretend = 0, frame = 0
 219              		@ frame_needed = 0, uses_anonymous_args = 0
 220 0000 38B5     		push	{r3, r4, r5, lr}
 221 0002 074C     		ldr	r4, .L30
 222 0004 2578     		ldrb	r5, [r4]	@ zero_extendqisi2
 223 0006 8542     		cmp	r5, r0
 224 0008 07D0     		beq	.L26
 225 000a 064B     		ldr	r3, .L30+4
 226 000c 2070     		strb	r0, [r4]
 227 000e 1868     		ldr	r0, [r3]
 228 0010 FFF7FEFF 		bl	HAL_InitTick
 229 0014 00B1     		cbz	r0, .L25
 230 0016 2570     		strb	r5, [r4]
 231              	.L25:
 232 0018 38BD     		pop	{r3, r4, r5, pc}
 233              	.L26:
 234 001a 0020     		movs	r0, #0
 235 001c FCE7     		b	.L25
 236              	.L31:
 237 001e 00BF     		.align	2
 238              	.L30:
 239 0020 00000000 		.word	.LANCHOR0
 240 0024 00000000 		.word	.LANCHOR1
 242              		.section	.text.HAL_GetTickFreq,"ax",%progbits
 243              		.align	1
 244              		.global	HAL_GetTickFreq
 245              		.syntax unified
 246              		.thumb
ARM GAS  C:\Users\CL\AppData\Local\Temp\ccsX5nGA.s 			page 5


 247              		.thumb_func
 249              	HAL_GetTickFreq:
 250              		@ args = 0, pretend = 0, frame = 0
 251              		@ frame_needed = 0, uses_anonymous_args = 0
 252              		@ link register save eliminated.
 253 0000 014B     		ldr	r3, .L33
 254 0002 1878     		ldrb	r0, [r3]	@ zero_extendqisi2
 255 0004 7047     		bx	lr
 256              	.L34:
 257 0006 00BF     		.align	2
 258              	.L33:
 259 0008 00000000 		.word	.LANCHOR0
 261              		.section	.text.Delay_us,"ax",%progbits
 262              		.align	1
 263              		.global	Delay_us
 264              		.syntax unified
 265              		.thumb
 266              		.thumb_func
 268              	Delay_us:
 269              		@ args = 0, pretend = 0, frame = 0
 270              		@ frame_needed = 0, uses_anonymous_args = 0
 271              		@ link register save eliminated.
 272 0000 0A23     		movs	r3, #10
 273 0002 5843     		muls	r0, r3, r0
 274 0004 4FF0E023 		mov	r3, #-536813568
 275 0008 0022     		movs	r2, #0
 276 000a 5861     		str	r0, [r3, #20]
 277 000c 9A61     		str	r2, [r3, #24]
 278 000e 0122     		movs	r2, #1
 279 0010 1A61     		str	r2, [r3, #16]
 280              	.L36:
 281 0012 1A69     		ldr	r2, [r3, #16]
 282 0014 02F00112 		and	r2, r2, #65537
 283 0018 012A     		cmp	r2, #1
 284 001a FAD0     		beq	.L36
 285 001c 0022     		movs	r2, #0
 286 001e 1A61     		str	r2, [r3, #16]
 287 0020 9A61     		str	r2, [r3, #24]
 288 0022 7047     		bx	lr
 290              		.section	.text.Delay_ms,"ax",%progbits
 291              		.align	1
 292              		.global	Delay_ms
 293              		.syntax unified
 294              		.thumb
 295              		.thumb_func
 297              	Delay_ms:
 298              		@ args = 0, pretend = 0, frame = 0
 299              		@ frame_needed = 0, uses_anonymous_args = 0
 300 0000 10B5     		push	{r4, lr}
 301 0002 0146     		mov	r1, r0
 302 0004 0024     		movs	r4, #0
 303              	.L40:
 304 0006 8C42     		cmp	r4, r1
 305 0008 00D1     		bne	.L41
 306 000a 10BD     		pop	{r4, pc}
 307              	.L41:
 308 000c 4FF47A70 		mov	r0, #1000
ARM GAS  C:\Users\CL\AppData\Local\Temp\ccsX5nGA.s 			page 6


 309 0010 FFF7FEFF 		bl	Delay_us
 310 0014 0134     		adds	r4, r4, #1
 311 0016 F6E7     		b	.L40
 313              		.section	.text.HAL_Delay,"ax",%progbits
 314              		.align	1
 315              		.global	HAL_Delay
 316              		.syntax unified
 317              		.thumb
 318              		.thumb_func
 320              	HAL_Delay:
 321              		@ args = 0, pretend = 0, frame = 0
 322              		@ frame_needed = 0, uses_anonymous_args = 0
 323              		@ link register save eliminated.
 324 0000 FFF7FEBF 		b	Delay_ms
 326              		.section	.text.HAL_SuspendTick,"ax",%progbits
 327              		.align	1
 328              		.weak	HAL_SuspendTick
 329              		.syntax unified
 330              		.thumb
 331              		.thumb_func
 333              	HAL_SuspendTick:
 334              		@ args = 0, pretend = 0, frame = 0
 335              		@ frame_needed = 0, uses_anonymous_args = 0
 336              		@ link register save eliminated.
 337 0000 4FF0E022 		mov	r2, #-536813568
 338 0004 1369     		ldr	r3, [r2, #16]
 339 0006 23F00203 		bic	r3, r3, #2
 340 000a 1361     		str	r3, [r2, #16]
 341 000c 7047     		bx	lr
 343              		.section	.text.HAL_ResumeTick,"ax",%progbits
 344              		.align	1
 345              		.weak	HAL_ResumeTick
 346              		.syntax unified
 347              		.thumb
 348              		.thumb_func
 350              	HAL_ResumeTick:
 351              		@ args = 0, pretend = 0, frame = 0
 352              		@ frame_needed = 0, uses_anonymous_args = 0
 353              		@ link register save eliminated.
 354 0000 4FF0E022 		mov	r2, #-536813568
 355 0004 1369     		ldr	r3, [r2, #16]
 356 0006 43F00203 		orr	r3, r3, #2
 357 000a 1361     		str	r3, [r2, #16]
 358 000c 7047     		bx	lr
 360              		.section	.text.HAL_GetHalVersion,"ax",%progbits
 361              		.align	1
 362              		.global	HAL_GetHalVersion
 363              		.syntax unified
 364              		.thumb
 365              		.thumb_func
 367              	HAL_GetHalVersion:
 368              		@ args = 0, pretend = 0, frame = 0
 369              		@ frame_needed = 0, uses_anonymous_args = 0
 370              		@ link register save eliminated.
 371 0000 0048     		ldr	r0, .L46
 372 0002 7047     		bx	lr
 373              	.L47:
ARM GAS  C:\Users\CL\AppData\Local\Temp\ccsX5nGA.s 			page 7


 374              		.align	2
 375              	.L46:
 376 0004 00030D01 		.word	17629952
 378              		.section	.text.HAL_GetREVID,"ax",%progbits
 379              		.align	1
 380              		.global	HAL_GetREVID
 381              		.syntax unified
 382              		.thumb
 383              		.thumb_func
 385              	HAL_GetREVID:
 386              		@ args = 0, pretend = 0, frame = 0
 387              		@ frame_needed = 0, uses_anonymous_args = 0
 388              		@ link register save eliminated.
 389 0000 014B     		ldr	r3, .L49
 390 0002 1868     		ldr	r0, [r3]
 391 0004 000C     		lsrs	r0, r0, #16
 392 0006 7047     		bx	lr
 393              	.L50:
 394              		.align	2
 395              	.L49:
 396 0008 002004E0 		.word	-536600576
 398              		.section	.text.HAL_GetDEVID,"ax",%progbits
 399              		.align	1
 400              		.global	HAL_GetDEVID
 401              		.syntax unified
 402              		.thumb
 403              		.thumb_func
 405              	HAL_GetDEVID:
 406              		@ args = 0, pretend = 0, frame = 0
 407              		@ frame_needed = 0, uses_anonymous_args = 0
 408              		@ link register save eliminated.
 409 0000 024B     		ldr	r3, .L52
 410 0002 1868     		ldr	r0, [r3]
 411 0004 C0F30B00 		ubfx	r0, r0, #0, #12
 412 0008 7047     		bx	lr
 413              	.L53:
 414 000a 00BF     		.align	2
 415              	.L52:
 416 000c 002004E0 		.word	-536600576
 418              		.section	.text.HAL_GetUIDw0,"ax",%progbits
 419              		.align	1
 420              		.global	HAL_GetUIDw0
 421              		.syntax unified
 422              		.thumb
 423              		.thumb_func
 425              	HAL_GetUIDw0:
 426              		@ args = 0, pretend = 0, frame = 0
 427              		@ frame_needed = 0, uses_anonymous_args = 0
 428              		@ link register save eliminated.
 429 0000 014B     		ldr	r3, .L55
 430 0002 D3F89005 		ldr	r0, [r3, #1424]
 431 0006 7047     		bx	lr
 432              	.L56:
 433              		.align	2
 434              	.L55:
 435 0008 0070FF1F 		.word	536834048
 437              		.section	.text.HAL_GetUIDw1,"ax",%progbits
ARM GAS  C:\Users\CL\AppData\Local\Temp\ccsX5nGA.s 			page 8


 438              		.align	1
 439              		.global	HAL_GetUIDw1
 440              		.syntax unified
 441              		.thumb
 442              		.thumb_func
 444              	HAL_GetUIDw1:
 445              		@ args = 0, pretend = 0, frame = 0
 446              		@ frame_needed = 0, uses_anonymous_args = 0
 447              		@ link register save eliminated.
 448 0000 014B     		ldr	r3, .L58
 449 0002 D3F89405 		ldr	r0, [r3, #1428]
 450 0006 7047     		bx	lr
 451              	.L59:
 452              		.align	2
 453              	.L58:
 454 0008 0070FF1F 		.word	536834048
 456              		.section	.text.HAL_GetUIDw2,"ax",%progbits
 457              		.align	1
 458              		.global	HAL_GetUIDw2
 459              		.syntax unified
 460              		.thumb
 461              		.thumb_func
 463              	HAL_GetUIDw2:
 464              		@ args = 0, pretend = 0, frame = 0
 465              		@ frame_needed = 0, uses_anonymous_args = 0
 466              		@ link register save eliminated.
 467 0000 014B     		ldr	r3, .L61
 468 0002 D3F89805 		ldr	r0, [r3, #1432]
 469 0006 7047     		bx	lr
 470              	.L62:
 471              		.align	2
 472              	.L61:
 473 0008 0070FF1F 		.word	536834048
 475              		.section	.text.HAL_DBGMCU_EnableDBGSleepMode,"ax",%progbits
 476              		.align	1
 477              		.global	HAL_DBGMCU_EnableDBGSleepMode
 478              		.syntax unified
 479              		.thumb
 480              		.thumb_func
 482              	HAL_DBGMCU_EnableDBGSleepMode:
 483              		@ args = 0, pretend = 0, frame = 0
 484              		@ frame_needed = 0, uses_anonymous_args = 0
 485              		@ link register save eliminated.
 486 0000 024A     		ldr	r2, .L64
 487 0002 5368     		ldr	r3, [r2, #4]
 488 0004 43F00103 		orr	r3, r3, #1
 489 0008 5360     		str	r3, [r2, #4]
 490 000a 7047     		bx	lr
 491              	.L65:
 492              		.align	2
 493              	.L64:
 494 000c 002004E0 		.word	-536600576
 496              		.section	.text.HAL_DBGMCU_DisableDBGSleepMode,"ax",%progbits
 497              		.align	1
 498              		.global	HAL_DBGMCU_DisableDBGSleepMode
 499              		.syntax unified
 500              		.thumb
ARM GAS  C:\Users\CL\AppData\Local\Temp\ccsX5nGA.s 			page 9


 501              		.thumb_func
 503              	HAL_DBGMCU_DisableDBGSleepMode:
 504              		@ args = 0, pretend = 0, frame = 0
 505              		@ frame_needed = 0, uses_anonymous_args = 0
 506              		@ link register save eliminated.
 507 0000 024A     		ldr	r2, .L67
 508 0002 5368     		ldr	r3, [r2, #4]
 509 0004 23F00103 		bic	r3, r3, #1
 510 0008 5360     		str	r3, [r2, #4]
 511 000a 7047     		bx	lr
 512              	.L68:
 513              		.align	2
 514              	.L67:
 515 000c 002004E0 		.word	-536600576
 517              		.section	.text.HAL_DBGMCU_EnableDBGStopMode,"ax",%progbits
 518              		.align	1
 519              		.global	HAL_DBGMCU_EnableDBGStopMode
 520              		.syntax unified
 521              		.thumb
 522              		.thumb_func
 524              	HAL_DBGMCU_EnableDBGStopMode:
 525              		@ args = 0, pretend = 0, frame = 0
 526              		@ frame_needed = 0, uses_anonymous_args = 0
 527              		@ link register save eliminated.
 528 0000 024A     		ldr	r2, .L70
 529 0002 5368     		ldr	r3, [r2, #4]
 530 0004 43F00203 		orr	r3, r3, #2
 531 0008 5360     		str	r3, [r2, #4]
 532 000a 7047     		bx	lr
 533              	.L71:
 534              		.align	2
 535              	.L70:
 536 000c 002004E0 		.word	-536600576
 538              		.section	.text.HAL_DBGMCU_DisableDBGStopMode,"ax",%progbits
 539              		.align	1
 540              		.global	HAL_DBGMCU_DisableDBGStopMode
 541              		.syntax unified
 542              		.thumb
 543              		.thumb_func
 545              	HAL_DBGMCU_DisableDBGStopMode:
 546              		@ args = 0, pretend = 0, frame = 0
 547              		@ frame_needed = 0, uses_anonymous_args = 0
 548              		@ link register save eliminated.
 549 0000 024A     		ldr	r2, .L73
 550 0002 5368     		ldr	r3, [r2, #4]
 551 0004 23F00203 		bic	r3, r3, #2
 552 0008 5360     		str	r3, [r2, #4]
 553 000a 7047     		bx	lr
 554              	.L74:
 555              		.align	2
 556              	.L73:
 557 000c 002004E0 		.word	-536600576
 559              		.section	.text.HAL_DBGMCU_EnableDBGStandbyMode,"ax",%progbits
 560              		.align	1
 561              		.global	HAL_DBGMCU_EnableDBGStandbyMode
 562              		.syntax unified
 563              		.thumb
ARM GAS  C:\Users\CL\AppData\Local\Temp\ccsX5nGA.s 			page 10


 564              		.thumb_func
 566              	HAL_DBGMCU_EnableDBGStandbyMode:
 567              		@ args = 0, pretend = 0, frame = 0
 568              		@ frame_needed = 0, uses_anonymous_args = 0
 569              		@ link register save eliminated.
 570 0000 024A     		ldr	r2, .L76
 571 0002 5368     		ldr	r3, [r2, #4]
 572 0004 43F00403 		orr	r3, r3, #4
 573 0008 5360     		str	r3, [r2, #4]
 574 000a 7047     		bx	lr
 575              	.L77:
 576              		.align	2
 577              	.L76:
 578 000c 002004E0 		.word	-536600576
 580              		.section	.text.HAL_DBGMCU_DisableDBGStandbyMode,"ax",%progbits
 581              		.align	1
 582              		.global	HAL_DBGMCU_DisableDBGStandbyMode
 583              		.syntax unified
 584              		.thumb
 585              		.thumb_func
 587              	HAL_DBGMCU_DisableDBGStandbyMode:
 588              		@ args = 0, pretend = 0, frame = 0
 589              		@ frame_needed = 0, uses_anonymous_args = 0
 590              		@ link register save eliminated.
 591 0000 024A     		ldr	r2, .L79
 592 0002 5368     		ldr	r3, [r2, #4]
 593 0004 23F00403 		bic	r3, r3, #4
 594 0008 5360     		str	r3, [r2, #4]
 595 000a 7047     		bx	lr
 596              	.L80:
 597              		.align	2
 598              	.L79:
 599 000c 002004E0 		.word	-536600576
 601              		.section	.text.HAL_SYSCFG_SRAM2Erase,"ax",%progbits
 602              		.align	1
 603              		.global	HAL_SYSCFG_SRAM2Erase
 604              		.syntax unified
 605              		.thumb
 606              		.thumb_func
 608              	HAL_SYSCFG_SRAM2Erase:
 609              		@ args = 0, pretend = 0, frame = 0
 610              		@ frame_needed = 0, uses_anonymous_args = 0
 611              		@ link register save eliminated.
 612 0000 044B     		ldr	r3, .L82
 613 0002 CA22     		movs	r2, #202
 614 0004 5A62     		str	r2, [r3, #36]
 615 0006 5322     		movs	r2, #83
 616 0008 5A62     		str	r2, [r3, #36]
 617 000a 034B     		ldr	r3, .L82+4
 618 000c 0122     		movs	r2, #1
 619 000e C3F80023 		str	r2, [r3, #768]
 620 0012 7047     		bx	lr
 621              	.L83:
 622              		.align	2
 623              	.L82:
 624 0014 00000140 		.word	1073807360
 625 0018 00002042 		.word	1109393408
ARM GAS  C:\Users\CL\AppData\Local\Temp\ccsX5nGA.s 			page 11


 627              		.section	.text.HAL_SYSCFG_EnableMemorySwappingBank,"ax",%progbits
 628              		.align	1
 629              		.global	HAL_SYSCFG_EnableMemorySwappingBank
 630              		.syntax unified
 631              		.thumb
 632              		.thumb_func
 634              	HAL_SYSCFG_EnableMemorySwappingBank:
 635              		@ args = 0, pretend = 0, frame = 0
 636              		@ frame_needed = 0, uses_anonymous_args = 0
 637              		@ link register save eliminated.
 638 0000 014B     		ldr	r3, .L85
 639 0002 0122     		movs	r2, #1
 640 0004 1A62     		str	r2, [r3, #32]
 641 0006 7047     		bx	lr
 642              	.L86:
 643              		.align	2
 644              	.L85:
 645 0008 00002042 		.word	1109393408
 647              		.section	.text.HAL_SYSCFG_DisableMemorySwappingBank,"ax",%progbits
 648              		.align	1
 649              		.global	HAL_SYSCFG_DisableMemorySwappingBank
 650              		.syntax unified
 651              		.thumb
 652              		.thumb_func
 654              	HAL_SYSCFG_DisableMemorySwappingBank:
 655              		@ args = 0, pretend = 0, frame = 0
 656              		@ frame_needed = 0, uses_anonymous_args = 0
 657              		@ link register save eliminated.
 658 0000 014B     		ldr	r3, .L88
 659 0002 0022     		movs	r2, #0
 660 0004 1A62     		str	r2, [r3, #32]
 661 0006 7047     		bx	lr
 662              	.L89:
 663              		.align	2
 664              	.L88:
 665 0008 00002042 		.word	1109393408
 667              		.section	.text.HAL_SYSCFG_VREFBUF_VoltageScalingConfig,"ax",%progbits
 668              		.align	1
 669              		.global	HAL_SYSCFG_VREFBUF_VoltageScalingConfig
 670              		.syntax unified
 671              		.thumb
 672              		.thumb_func
 674              	HAL_SYSCFG_VREFBUF_VoltageScalingConfig:
 675              		@ args = 0, pretend = 0, frame = 0
 676              		@ frame_needed = 0, uses_anonymous_args = 0
 677              		@ link register save eliminated.
 678 0000 034A     		ldr	r2, .L91
 679 0002 136B     		ldr	r3, [r2, #48]
 680 0004 23F00403 		bic	r3, r3, #4
 681 0008 1843     		orrs	r0, r0, r3
 682 000a 1063     		str	r0, [r2, #48]
 683 000c 7047     		bx	lr
 684              	.L92:
 685 000e 00BF     		.align	2
 686              	.L91:
 687 0010 00000140 		.word	1073807360
 689              		.section	.text.HAL_SYSCFG_VREFBUF_HighImpedanceConfig,"ax",%progbits
ARM GAS  C:\Users\CL\AppData\Local\Temp\ccsX5nGA.s 			page 12


 690              		.align	1
 691              		.global	HAL_SYSCFG_VREFBUF_HighImpedanceConfig
 692              		.syntax unified
 693              		.thumb
 694              		.thumb_func
 696              	HAL_SYSCFG_VREFBUF_HighImpedanceConfig:
 697              		@ args = 0, pretend = 0, frame = 0
 698              		@ frame_needed = 0, uses_anonymous_args = 0
 699              		@ link register save eliminated.
 700 0000 034A     		ldr	r2, .L94
 701 0002 136B     		ldr	r3, [r2, #48]
 702 0004 23F00203 		bic	r3, r3, #2
 703 0008 1843     		orrs	r0, r0, r3
 704 000a 1063     		str	r0, [r2, #48]
 705 000c 7047     		bx	lr
 706              	.L95:
 707 000e 00BF     		.align	2
 708              	.L94:
 709 0010 00000140 		.word	1073807360
 711              		.section	.text.HAL_SYSCFG_VREFBUF_TrimmingConfig,"ax",%progbits
 712              		.align	1
 713              		.global	HAL_SYSCFG_VREFBUF_TrimmingConfig
 714              		.syntax unified
 715              		.thumb
 716              		.thumb_func
 718              	HAL_SYSCFG_VREFBUF_TrimmingConfig:
 719              		@ args = 0, pretend = 0, frame = 0
 720              		@ frame_needed = 0, uses_anonymous_args = 0
 721              		@ link register save eliminated.
 722 0000 034A     		ldr	r2, .L97
 723 0002 536B     		ldr	r3, [r2, #52]
 724 0004 23F03F03 		bic	r3, r3, #63
 725 0008 1843     		orrs	r0, r0, r3
 726 000a 5063     		str	r0, [r2, #52]
 727 000c 7047     		bx	lr
 728              	.L98:
 729 000e 00BF     		.align	2
 730              	.L97:
 731 0010 00000140 		.word	1073807360
 733              		.section	.text.HAL_SYSCFG_EnableVREFBUF,"ax",%progbits
 734              		.align	1
 735              		.global	HAL_SYSCFG_EnableVREFBUF
 736              		.syntax unified
 737              		.thumb
 738              		.thumb_func
 740              	HAL_SYSCFG_EnableVREFBUF:
 741              		@ args = 0, pretend = 0, frame = 0
 742              		@ frame_needed = 0, uses_anonymous_args = 0
 743 0000 38B5     		push	{r3, r4, r5, lr}
 744 0002 0A4C     		ldr	r4, .L104
 745 0004 236B     		ldr	r3, [r4, #48]
 746 0006 43F00103 		orr	r3, r3, #1
 747 000a 2363     		str	r3, [r4, #48]
 748 000c FFF7FEFF 		bl	HAL_GetTick
 749 0010 0546     		mov	r5, r0
 750              	.L100:
 751 0012 236B     		ldr	r3, [r4, #48]
ARM GAS  C:\Users\CL\AppData\Local\Temp\ccsX5nGA.s 			page 13


 752 0014 1B07     		lsls	r3, r3, #28
 753 0016 01D5     		bpl	.L102
 754 0018 0020     		movs	r0, #0
 755              	.L101:
 756 001a 38BD     		pop	{r3, r4, r5, pc}
 757              	.L102:
 758 001c FFF7FEFF 		bl	HAL_GetTick
 759 0020 401B     		subs	r0, r0, r5
 760 0022 0A28     		cmp	r0, #10
 761 0024 F5D9     		bls	.L100
 762 0026 0320     		movs	r0, #3
 763 0028 F7E7     		b	.L101
 764              	.L105:
 765 002a 00BF     		.align	2
 766              	.L104:
 767 002c 00000140 		.word	1073807360
 769              		.section	.text.HAL_SYSCFG_DisableVREFBUF,"ax",%progbits
 770              		.align	1
 771              		.global	HAL_SYSCFG_DisableVREFBUF
 772              		.syntax unified
 773              		.thumb
 774              		.thumb_func
 776              	HAL_SYSCFG_DisableVREFBUF:
 777              		@ args = 0, pretend = 0, frame = 0
 778              		@ frame_needed = 0, uses_anonymous_args = 0
 779              		@ link register save eliminated.
 780 0000 024A     		ldr	r2, .L107
 781 0002 136B     		ldr	r3, [r2, #48]
 782 0004 23F00103 		bic	r3, r3, #1
 783 0008 1363     		str	r3, [r2, #48]
 784 000a 7047     		bx	lr
 785              	.L108:
 786              		.align	2
 787              	.L107:
 788 000c 00000140 		.word	1073807360
 790              		.section	.text.HAL_SYSCFG_EnableIOAnalogSwitchBooster,"ax",%progbits
 791              		.align	1
 792              		.global	HAL_SYSCFG_EnableIOAnalogSwitchBooster
 793              		.syntax unified
 794              		.thumb
 795              		.thumb_func
 797              	HAL_SYSCFG_EnableIOAnalogSwitchBooster:
 798              		@ args = 0, pretend = 0, frame = 0
 799              		@ frame_needed = 0, uses_anonymous_args = 0
 800              		@ link register save eliminated.
 801 0000 024A     		ldr	r2, .L110
 802 0002 5368     		ldr	r3, [r2, #4]
 803 0004 43F48073 		orr	r3, r3, #256
 804 0008 5360     		str	r3, [r2, #4]
 805 000a 7047     		bx	lr
 806              	.L111:
 807              		.align	2
 808              	.L110:
 809 000c 00000140 		.word	1073807360
 811              		.section	.text.HAL_SYSCFG_DisableIOAnalogSwitchBooster,"ax",%progbits
 812              		.align	1
 813              		.global	HAL_SYSCFG_DisableIOAnalogSwitchBooster
ARM GAS  C:\Users\CL\AppData\Local\Temp\ccsX5nGA.s 			page 14


 814              		.syntax unified
 815              		.thumb
 816              		.thumb_func
 818              	HAL_SYSCFG_DisableIOAnalogSwitchBooster:
 819              		@ args = 0, pretend = 0, frame = 0
 820              		@ frame_needed = 0, uses_anonymous_args = 0
 821              		@ link register save eliminated.
 822 0000 024A     		ldr	r2, .L113
 823 0002 5368     		ldr	r3, [r2, #4]
 824 0004 23F48073 		bic	r3, r3, #256
 825 0008 5360     		str	r3, [r2, #4]
 826 000a 7047     		bx	lr
 827              	.L114:
 828              		.align	2
 829              	.L113:
 830 000c 00000140 		.word	1073807360
 832              		.global	uwTickFreq
 833              		.global	uwTickPrio
 834              		.global	uwTick
 835              		.section	.bss.uwTick,"aw",%nobits
 836              		.align	2
 837              		.set	.LANCHOR2,. + 0
 840              	uwTick:
 841 0000 00000000 		.space	4
 842              		.section	.data.uwTickFreq,"aw"
 843              		.set	.LANCHOR0,. + 0
 846              	uwTickFreq:
 847 0000 01       		.byte	1
 848              		.section	.data.uwTickPrio,"aw"
 849              		.align	2
 850              		.set	.LANCHOR1,. + 0
 853              	uwTickPrio:
 854 0000 10000000 		.word	16
 855              		.ident	"GCC: (GNU Arm Embedded Toolchain 10.3-2021.10) 10.3.1 20210824 (release)"
ARM GAS  C:\Users\CL\AppData\Local\Temp\ccsX5nGA.s 			page 15

