ARM GAS  C:\Users\CL\AppData\Local\Temp\ccv2KUeF.s 			page 1


   1              		.cpu cortex-m4
   2              		.arch armv7e-m
   3              		.fpu fpv4-sp-d16
   4              		.eabi_attribute 27, 1
   5              		.eabi_attribute 28, 1
   6              		.eabi_attribute 20, 1
   7              		.eabi_attribute 21, 1
   8              		.eabi_attribute 23, 3
   9              		.eabi_attribute 24, 1
  10              		.eabi_attribute 25, 1
  11              		.eabi_attribute 26, 1
  12              		.eabi_attribute 30, 4
  13              		.eabi_attribute 34, 1
  14              		.eabi_attribute 18, 4
  15              		.file	"stm32l4xx_hal_uart.c"
  16              		.text
  17              		.section	.text.UART_EndRxTransfer,"ax",%progbits
  18              		.align	1
  19              		.syntax unified
  20              		.thumb
  21              		.thumb_func
  23              	UART_EndRxTransfer:
  24              		@ args = 0, pretend = 0, frame = 0
  25              		@ frame_needed = 0, uses_anonymous_args = 0
  26              		@ link register save eliminated.
  27              	.L2:
  28 0000 0268     		ldr	r2, [r0]
  29              		.syntax unified
  30              	@ 1155 "Drivers/CMSIS/Include/cmsis_gcc.h" 1
  31 0002 52E8003F 		ldrex r3, [r2]
  32              	@ 0 "" 2
  33              		.thumb
  34              		.syntax unified
  35 0006 23F49073 		bic	r3, r3, #288
  36              		.syntax unified
  37              	@ 1206 "Drivers/CMSIS/Include/cmsis_gcc.h" 1
  38 000a 42E80031 		strex r1, r3, [r2]
  39              	@ 0 "" 2
  40              		.thumb
  41              		.syntax unified
  42 000e 0268     		ldr	r2, [r0]
  43 0010 0029     		cmp	r1, #0
  44 0012 F5D1     		bne	.L2
  45              	.L3:
  46 0014 02F10803 		add	r3, r2, #8
  47              		.syntax unified
  48              	@ 1155 "Drivers/CMSIS/Include/cmsis_gcc.h" 1
  49 0018 53E8003F 		ldrex r3, [r3]
  50              	@ 0 "" 2
  51              		.thumb
  52              		.syntax unified
  53 001c 23F00103 		bic	r3, r3, #1
  54 0020 02F1080C 		add	ip, r2, #8
  55              		.syntax unified
  56              	@ 1206 "Drivers/CMSIS/Include/cmsis_gcc.h" 1
  57 0024 4CE80031 		strex r1, r3, [ip]
  58              	@ 0 "" 2
ARM GAS  C:\Users\CL\AppData\Local\Temp\ccv2KUeF.s 			page 2


  59              		.thumb
  60              		.syntax unified
  61 0028 0029     		cmp	r1, #0
  62 002a F3D1     		bne	.L3
  63 002c 036E     		ldr	r3, [r0, #96]
  64 002e 012B     		cmp	r3, #1
  65 0030 07D1     		bne	.L4
  66              	.L5:
  67              		.syntax unified
  68              	@ 1155 "Drivers/CMSIS/Include/cmsis_gcc.h" 1
  69 0032 52E8003F 		ldrex r3, [r2]
  70              	@ 0 "" 2
  71              		.thumb
  72              		.syntax unified
  73 0036 23F01003 		bic	r3, r3, #16
  74              		.syntax unified
  75              	@ 1206 "Drivers/CMSIS/Include/cmsis_gcc.h" 1
  76 003a 42E80031 		strex r1, r3, [r2]
  77              	@ 0 "" 2
  78              		.thumb
  79              		.syntax unified
  80 003e 0029     		cmp	r1, #0
  81 0040 F7D1     		bne	.L5
  82              	.L4:
  83 0042 2023     		movs	r3, #32
  84 0044 C367     		str	r3, [r0, #124]
  85 0046 0023     		movs	r3, #0
  86 0048 0366     		str	r3, [r0, #96]
  87 004a 4366     		str	r3, [r0, #100]
  88 004c 7047     		bx	lr
  90              		.section	.text.UART_TxISR_8BIT.part.0,"ax",%progbits
  91              		.align	1
  92              		.syntax unified
  93              		.thumb
  94              		.thumb_func
  96              	UART_TxISR_8BIT.part.0:
  97              		@ args = 0, pretend = 0, frame = 0
  98              		@ frame_needed = 0, uses_anonymous_args = 0
  99              		@ link register save eliminated.
 100              	.L10:
 101 0000 0268     		ldr	r2, [r0]
 102              		.syntax unified
 103              	@ 1155 "Drivers/CMSIS/Include/cmsis_gcc.h" 1
 104 0002 52E8003F 		ldrex r3, [r2]
 105              	@ 0 "" 2
 106              		.thumb
 107              		.syntax unified
 108 0006 23F08003 		bic	r3, r3, #128
 109              		.syntax unified
 110              	@ 1206 "Drivers/CMSIS/Include/cmsis_gcc.h" 1
 111 000a 42E80031 		strex r1, r3, [r2]
 112              	@ 0 "" 2
 113              		.thumb
 114              		.syntax unified
 115 000e 0268     		ldr	r2, [r0]
 116 0010 0029     		cmp	r1, #0
 117 0012 F5D1     		bne	.L10
ARM GAS  C:\Users\CL\AppData\Local\Temp\ccv2KUeF.s 			page 3


 118              	.L11:
 119              		.syntax unified
 120              	@ 1155 "Drivers/CMSIS/Include/cmsis_gcc.h" 1
 121 0014 52E8003F 		ldrex r3, [r2]
 122              	@ 0 "" 2
 123              		.thumb
 124              		.syntax unified
 125 0018 43F04003 		orr	r3, r3, #64
 126              		.syntax unified
 127              	@ 1206 "Drivers/CMSIS/Include/cmsis_gcc.h" 1
 128 001c 42E80031 		strex r1, r3, [r2]
 129              	@ 0 "" 2
 130              		.thumb
 131              		.syntax unified
 132 0020 0029     		cmp	r1, #0
 133 0022 F7D1     		bne	.L11
 134 0024 7047     		bx	lr
 136              		.thumb_set UART_TxISR_16BIT.part.0,UART_TxISR_8BIT.part.0
 137              		.section	.text.UART_TxISR_8BIT,"ax",%progbits
 138              		.align	1
 139              		.syntax unified
 140              		.thumb
 141              		.thumb_func
 143              	UART_TxISR_8BIT:
 144              		@ args = 0, pretend = 0, frame = 0
 145              		@ frame_needed = 0, uses_anonymous_args = 0
 146              		@ link register save eliminated.
 147 0000 826F     		ldr	r2, [r0, #120]
 148 0002 212A     		cmp	r2, #33
 149 0004 0346     		mov	r3, r0
 150 0006 11D1     		bne	.L14
 151 0008 B0F85220 		ldrh	r2, [r0, #82]
 152 000c 92B2     		uxth	r2, r2
 153 000e 0AB9     		cbnz	r2, .L16
 154 0010 FFF7FEBF 		b	UART_TxISR_8BIT.part.0
 155              	.L16:
 156 0014 C26C     		ldr	r2, [r0, #76]
 157 0016 0168     		ldr	r1, [r0]
 158 0018 12F8010B 		ldrb	r0, [r2], #1	@ zero_extendqisi2
 159 001c 0885     		strh	r0, [r1, #40]	@ movhi
 160 001e DA64     		str	r2, [r3, #76]
 161 0020 B3F85220 		ldrh	r2, [r3, #82]
 162 0024 013A     		subs	r2, r2, #1
 163 0026 92B2     		uxth	r2, r2
 164 0028 A3F85220 		strh	r2, [r3, #82]	@ movhi
 165              	.L14:
 166 002c 7047     		bx	lr
 168              		.section	.text.UART_TxISR_16BIT,"ax",%progbits
 169              		.align	1
 170              		.syntax unified
 171              		.thumb
 172              		.thumb_func
 174              	UART_TxISR_16BIT:
 175              		@ args = 0, pretend = 0, frame = 0
 176              		@ frame_needed = 0, uses_anonymous_args = 0
 177              		@ link register save eliminated.
 178 0000 826F     		ldr	r2, [r0, #120]
ARM GAS  C:\Users\CL\AppData\Local\Temp\ccv2KUeF.s 			page 4


 179 0002 212A     		cmp	r2, #33
 180 0004 0346     		mov	r3, r0
 181 0006 13D1     		bne	.L17
 182 0008 B0F85220 		ldrh	r2, [r0, #82]
 183 000c 92B2     		uxth	r2, r2
 184 000e 0AB9     		cbnz	r2, .L19
 185 0010 FFF7FEBF 		b	UART_TxISR_16BIT.part.0
 186              	.L19:
 187 0014 DA6C     		ldr	r2, [r3, #76]
 188 0016 0068     		ldr	r0, [r0]
 189 0018 32F8021B 		ldrh	r1, [r2], #2
 190 001c C1F30801 		ubfx	r1, r1, #0, #9
 191 0020 0185     		strh	r1, [r0, #40]	@ movhi
 192 0022 DA64     		str	r2, [r3, #76]
 193 0024 B3F85220 		ldrh	r2, [r3, #82]
 194 0028 013A     		subs	r2, r2, #1
 195 002a 92B2     		uxth	r2, r2
 196 002c A3F85220 		strh	r2, [r3, #82]	@ movhi
 197              	.L17:
 198 0030 7047     		bx	lr
 200              		.section	.text.HAL_UART_MspInit,"ax",%progbits
 201              		.align	1
 202              		.weak	HAL_UART_MspInit
 203              		.syntax unified
 204              		.thumb
 205              		.thumb_func
 207              	HAL_UART_MspInit:
 208              		@ args = 0, pretend = 0, frame = 0
 209              		@ frame_needed = 0, uses_anonymous_args = 0
 210              		@ link register save eliminated.
 211 0000 7047     		bx	lr
 213              		.section	.text.HAL_UART_MspDeInit,"ax",%progbits
 214              		.align	1
 215              		.weak	HAL_UART_MspDeInit
 216              		.syntax unified
 217              		.thumb
 218              		.thumb_func
 220              	HAL_UART_MspDeInit:
 221              		@ args = 0, pretend = 0, frame = 0
 222              		@ frame_needed = 0, uses_anonymous_args = 0
 223              		@ link register save eliminated.
 224 0000 7047     		bx	lr
 226              		.section	.text.HAL_UART_DeInit,"ax",%progbits
 227              		.align	1
 228              		.global	HAL_UART_DeInit
 229              		.syntax unified
 230              		.thumb
 231              		.thumb_func
 233              	HAL_UART_DeInit:
 234              		@ args = 0, pretend = 0, frame = 0
 235              		@ frame_needed = 0, uses_anonymous_args = 0
 236 0000 38B5     		push	{r3, r4, r5, lr}
 237 0002 0546     		mov	r5, r0
 238 0004 A8B1     		cbz	r0, .L24
 239 0006 2423     		movs	r3, #36
 240 0008 8367     		str	r3, [r0, #120]
 241 000a 0368     		ldr	r3, [r0]
ARM GAS  C:\Users\CL\AppData\Local\Temp\ccv2KUeF.s 			page 5


 242 000c 1A68     		ldr	r2, [r3]
 243 000e 0024     		movs	r4, #0
 244 0010 22F00102 		bic	r2, r2, #1
 245 0014 1A60     		str	r2, [r3]
 246 0016 1C60     		str	r4, [r3]
 247 0018 5C60     		str	r4, [r3, #4]
 248 001a 9C60     		str	r4, [r3, #8]
 249 001c FFF7FEFF 		bl	HAL_UART_MspDeInit
 250 0020 C5F88040 		str	r4, [r5, #128]
 251 0024 85F87440 		strb	r4, [r5, #116]
 252 0028 AC67     		str	r4, [r5, #120]
 253 002a 2046     		mov	r0, r4
 254 002c EC67     		str	r4, [r5, #124]
 255 002e 2C66     		str	r4, [r5, #96]
 256              	.L23:
 257 0030 38BD     		pop	{r3, r4, r5, pc}
 258              	.L24:
 259 0032 0120     		movs	r0, #1
 260 0034 FCE7     		b	.L23
 262              		.section	.text.HAL_UART_Transmit_IT,"ax",%progbits
 263              		.align	1
 264              		.global	HAL_UART_Transmit_IT
 265              		.syntax unified
 266              		.thumb
 267              		.thumb_func
 269              	HAL_UART_Transmit_IT:
 270              		@ args = 0, pretend = 0, frame = 0
 271              		@ frame_needed = 0, uses_anonymous_args = 0
 272              		@ link register save eliminated.
 273 0000 836F     		ldr	r3, [r0, #120]
 274 0002 202B     		cmp	r3, #32
 275 0004 2CD1     		bne	.L32
 276 0006 49B3     		cbz	r1, .L31
 277 0008 42B3     		cbz	r2, .L31
 278 000a 90F87430 		ldrb	r3, [r0, #116]	@ zero_extendqisi2
 279 000e 012B     		cmp	r3, #1
 280 0010 26D0     		beq	.L32
 281 0012 0023     		movs	r3, #0
 282 0014 A0F85220 		strh	r2, [r0, #82]	@ movhi
 283 0018 C0F88030 		str	r3, [r0, #128]
 284 001c 2123     		movs	r3, #33
 285 001e 8367     		str	r3, [r0, #120]
 286 0020 8368     		ldr	r3, [r0, #8]
 287 0022 C164     		str	r1, [r0, #76]
 288 0024 B3F5805F 		cmp	r3, #4096
 289 0028 A0F85020 		strh	r2, [r0, #80]	@ movhi
 290 002c 14D1     		bne	.L33
 291 002e 0169     		ldr	r1, [r0, #16]
 292 0030 0C4B     		ldr	r3, .L36
 293 0032 0D4A     		ldr	r2, .L36+4
 294 0034 0029     		cmp	r1, #0
 295 0036 08BF     		it	eq
 296 0038 1346     		moveq	r3, r2
 297              	.L27:
 298 003a 8366     		str	r3, [r0, #104]
 299 003c 0023     		movs	r3, #0
 300 003e 80F87430 		strb	r3, [r0, #116]
ARM GAS  C:\Users\CL\AppData\Local\Temp\ccv2KUeF.s 			page 6


 301              	.L28:
 302 0042 0168     		ldr	r1, [r0]
 303              		.syntax unified
 304              	@ 1155 "Drivers/CMSIS/Include/cmsis_gcc.h" 1
 305 0044 51E8002F 		ldrex r2, [r1]
 306              	@ 0 "" 2
 307              		.thumb
 308              		.syntax unified
 309 0048 42F08002 		orr	r2, r2, #128
 310              		.syntax unified
 311              	@ 1206 "Drivers/CMSIS/Include/cmsis_gcc.h" 1
 312 004c 41E80023 		strex r3, r2, [r1]
 313              	@ 0 "" 2
 314              		.thumb
 315              		.syntax unified
 316 0050 002B     		cmp	r3, #0
 317 0052 F6D1     		bne	.L28
 318 0054 1846     		mov	r0, r3
 319 0056 7047     		bx	lr
 320              	.L33:
 321 0058 024B     		ldr	r3, .L36
 322 005a EEE7     		b	.L27
 323              	.L31:
 324 005c 0120     		movs	r0, #1
 325 005e 7047     		bx	lr
 326              	.L32:
 327 0060 0220     		movs	r0, #2
 328 0062 7047     		bx	lr
 329              	.L37:
 330              		.align	2
 331              	.L36:
 332 0064 00000000 		.word	UART_TxISR_8BIT
 333 0068 00000000 		.word	UART_TxISR_16BIT
 335              		.section	.text.HAL_UART_Transmit_DMA,"ax",%progbits
 336              		.align	1
 337              		.global	HAL_UART_Transmit_DMA
 338              		.syntax unified
 339              		.thumb
 340              		.thumb_func
 342              	HAL_UART_Transmit_DMA:
 343              		@ args = 0, pretend = 0, frame = 0
 344              		@ frame_needed = 0, uses_anonymous_args = 0
 345 0000 F8B5     		push	{r3, r4, r5, r6, r7, lr}
 346 0002 0446     		mov	r4, r0
 347 0004 1346     		mov	r3, r2
 348 0006 A76F     		ldr	r7, [r4, #120]
 349 0008 202F     		cmp	r7, #32
 350 000a 41D1     		bne	.L45
 351 000c 51B3     		cbz	r1, .L44
 352 000e 4AB3     		cbz	r2, .L44
 353 0010 94F87420 		ldrb	r2, [r4, #116]	@ zero_extendqisi2
 354 0014 012A     		cmp	r2, #1
 355 0016 3BD0     		beq	.L45
 356 0018 E06E     		ldr	r0, [r4, #108]
 357 001a A4F85230 		strh	r3, [r4, #82]	@ movhi
 358 001e 0125     		movs	r5, #1
 359 0020 0026     		movs	r6, #0
ARM GAS  C:\Users\CL\AppData\Local\Temp\ccv2KUeF.s 			page 7


 360 0022 2122     		movs	r2, #33
 361 0024 C4F88060 		str	r6, [r4, #128]
 362 0028 84F87450 		strb	r5, [r4, #116]
 363 002c E164     		str	r1, [r4, #76]
 364 002e A4F85030 		strh	r3, [r4, #80]	@ movhi
 365 0032 A267     		str	r2, [r4, #120]
 366 0034 C0B1     		cbz	r0, .L40
 367 0036 DFF85CC0 		ldr	ip, .L53
 368 003a 2268     		ldr	r2, [r4]
 369 003c C0F82CC0 		str	ip, [r0, #44]
 370 0040 DFF854C0 		ldr	ip, .L53+4
 371 0044 C0F830C0 		str	ip, [r0, #48]
 372 0048 DFF850C0 		ldr	ip, .L53+8
 373 004c 2832     		adds	r2, r2, #40
 374 004e C0E90DC6 		strd	ip, r6, [r0, #52]
 375 0052 FFF7FEFF 		bl	HAL_DMA_Start_IT
 376 0056 38B1     		cbz	r0, .L40
 377 0058 1023     		movs	r3, #16
 378 005a C4F88030 		str	r3, [r4, #128]
 379 005e 84F87460 		strb	r6, [r4, #116]
 380 0062 A767     		str	r7, [r4, #120]
 381              	.L44:
 382 0064 0120     		movs	r0, #1
 383 0066 12E0     		b	.L39
 384              	.L40:
 385 0068 2368     		ldr	r3, [r4]
 386 006a 4022     		movs	r2, #64
 387 006c 1A62     		str	r2, [r3, #32]
 388 006e 0023     		movs	r3, #0
 389 0070 2268     		ldr	r2, [r4]
 390 0072 84F87430 		strb	r3, [r4, #116]
 391              	.L41:
 392 0076 02F10803 		add	r3, r2, #8
 393              		.syntax unified
 394              	@ 1155 "Drivers/CMSIS/Include/cmsis_gcc.h" 1
 395 007a 53E8003F 		ldrex r3, [r3]
 396              	@ 0 "" 2
 397              		.thumb
 398              		.syntax unified
 399 007e 43F08003 		orr	r3, r3, #128
 400 0082 02F10801 		add	r1, r2, #8
 401              		.syntax unified
 402              	@ 1206 "Drivers/CMSIS/Include/cmsis_gcc.h" 1
 403 0086 41E80030 		strex r0, r3, [r1]
 404              	@ 0 "" 2
 405              		.thumb
 406              		.syntax unified
 407 008a 0028     		cmp	r0, #0
 408 008c F3D1     		bne	.L41
 409              	.L39:
 410 008e F8BD     		pop	{r3, r4, r5, r6, r7, pc}
 411              	.L45:
 412 0090 0220     		movs	r0, #2
 413 0092 FCE7     		b	.L39
 414              	.L54:
 415              		.align	2
 416              	.L53:
ARM GAS  C:\Users\CL\AppData\Local\Temp\ccv2KUeF.s 			page 8


 417 0094 00000000 		.word	UART_DMATransmitCplt
 418 0098 00000000 		.word	UART_DMATxHalfCplt
 419 009c 00000000 		.word	UART_DMAError
 421              		.section	.text.HAL_UART_DMAPause,"ax",%progbits
 422              		.align	1
 423              		.global	HAL_UART_DMAPause
 424              		.syntax unified
 425              		.thumb
 426              		.thumb_func
 428              	HAL_UART_DMAPause:
 429              		@ args = 0, pretend = 0, frame = 0
 430              		@ frame_needed = 0, uses_anonymous_args = 0
 431 0000 10B5     		push	{r4, lr}
 432 0002 90F87430 		ldrb	r3, [r0, #116]	@ zero_extendqisi2
 433 0006 826F     		ldr	r2, [r0, #120]
 434 0008 C16F     		ldr	r1, [r0, #124]
 435 000a 012B     		cmp	r3, #1
 436 000c 3ED0     		beq	.L63
 437 000e 0123     		movs	r3, #1
 438 0010 80F87430 		strb	r3, [r0, #116]
 439 0014 0368     		ldr	r3, [r0]
 440 0016 9C68     		ldr	r4, [r3, #8]
 441 0018 2406     		lsls	r4, r4, #24
 442 001a 0DD5     		bpl	.L57
 443 001c 212A     		cmp	r2, #33
 444 001e 0BD1     		bne	.L57
 445              	.L58:
 446 0020 03F10802 		add	r2, r3, #8
 447              		.syntax unified
 448              	@ 1155 "Drivers/CMSIS/Include/cmsis_gcc.h" 1
 449 0024 52E8002F 		ldrex r2, [r2]
 450              	@ 0 "" 2
 451              		.thumb
 452              		.syntax unified
 453 0028 22F08002 		bic	r2, r2, #128
 454 002c 03F1080C 		add	ip, r3, #8
 455              		.syntax unified
 456              	@ 1206 "Drivers/CMSIS/Include/cmsis_gcc.h" 1
 457 0030 4CE80024 		strex r4, r2, [ip]
 458              	@ 0 "" 2
 459              		.thumb
 460              		.syntax unified
 461 0034 002C     		cmp	r4, #0
 462 0036 F3D1     		bne	.L58
 463              	.L57:
 464 0038 9A68     		ldr	r2, [r3, #8]
 465 003a 5206     		lsls	r2, r2, #25
 466 003c 21D5     		bpl	.L59
 467 003e 2229     		cmp	r1, #34
 468 0040 1FD1     		bne	.L59
 469              	.L60:
 470              		.syntax unified
 471              	@ 1155 "Drivers/CMSIS/Include/cmsis_gcc.h" 1
 472 0042 53E8002F 		ldrex r2, [r3]
 473              	@ 0 "" 2
 474              		.thumb
 475              		.syntax unified
ARM GAS  C:\Users\CL\AppData\Local\Temp\ccv2KUeF.s 			page 9


 476 0046 22F48072 		bic	r2, r2, #256
 477              		.syntax unified
 478              	@ 1206 "Drivers/CMSIS/Include/cmsis_gcc.h" 1
 479 004a 43E80021 		strex r1, r2, [r3]
 480              	@ 0 "" 2
 481              		.thumb
 482              		.syntax unified
 483 004e 0029     		cmp	r1, #0
 484 0050 F7D1     		bne	.L60
 485              	.L61:
 486 0052 03F10802 		add	r2, r3, #8
 487              		.syntax unified
 488              	@ 1155 "Drivers/CMSIS/Include/cmsis_gcc.h" 1
 489 0056 52E8002F 		ldrex r2, [r2]
 490              	@ 0 "" 2
 491              		.thumb
 492              		.syntax unified
 493 005a 22F00102 		bic	r2, r2, #1
 494 005e 03F10804 		add	r4, r3, #8
 495              		.syntax unified
 496              	@ 1206 "Drivers/CMSIS/Include/cmsis_gcc.h" 1
 497 0062 44E80021 		strex r1, r2, [r4]
 498              	@ 0 "" 2
 499              		.thumb
 500              		.syntax unified
 501 0066 0029     		cmp	r1, #0
 502 0068 F3D1     		bne	.L61
 503              	.L62:
 504 006a 03F10802 		add	r2, r3, #8
 505              		.syntax unified
 506              	@ 1155 "Drivers/CMSIS/Include/cmsis_gcc.h" 1
 507 006e 52E8002F 		ldrex r2, [r2]
 508              	@ 0 "" 2
 509              		.thumb
 510              		.syntax unified
 511 0072 22F04002 		bic	r2, r2, #64
 512 0076 03F10804 		add	r4, r3, #8
 513              		.syntax unified
 514              	@ 1206 "Drivers/CMSIS/Include/cmsis_gcc.h" 1
 515 007a 44E80021 		strex r1, r2, [r4]
 516              	@ 0 "" 2
 517              		.thumb
 518              		.syntax unified
 519 007e 0029     		cmp	r1, #0
 520 0080 F3D1     		bne	.L62
 521              	.L59:
 522 0082 0023     		movs	r3, #0
 523 0084 80F87430 		strb	r3, [r0, #116]
 524 0088 1846     		mov	r0, r3
 525              	.L56:
 526 008a 10BD     		pop	{r4, pc}
 527              	.L63:
 528 008c 0220     		movs	r0, #2
 529 008e FCE7     		b	.L56
 531              		.section	.text.HAL_UART_DMAResume,"ax",%progbits
 532              		.align	1
 533              		.global	HAL_UART_DMAResume
ARM GAS  C:\Users\CL\AppData\Local\Temp\ccv2KUeF.s 			page 10


 534              		.syntax unified
 535              		.thumb
 536              		.thumb_func
 538              	HAL_UART_DMAResume:
 539              		@ args = 0, pretend = 0, frame = 0
 540              		@ frame_needed = 0, uses_anonymous_args = 0
 541              		@ link register save eliminated.
 542 0000 90F87430 		ldrb	r3, [r0, #116]	@ zero_extendqisi2
 543 0004 012B     		cmp	r3, #1
 544 0006 3FD0     		beq	.L83
 545 0008 0123     		movs	r3, #1
 546 000a 80F87430 		strb	r3, [r0, #116]
 547 000e 836F     		ldr	r3, [r0, #120]
 548 0010 212B     		cmp	r3, #33
 549 0012 0BD1     		bne	.L76
 550              	.L77:
 551 0014 0268     		ldr	r2, [r0]
 552 0016 02F10803 		add	r3, r2, #8
 553              		.syntax unified
 554              	@ 1155 "Drivers/CMSIS/Include/cmsis_gcc.h" 1
 555 001a 53E8003F 		ldrex r3, [r3]
 556              	@ 0 "" 2
 557              		.thumb
 558              		.syntax unified
 559 001e 43F08003 		orr	r3, r3, #128
 560 0022 0832     		adds	r2, r2, #8
 561              		.syntax unified
 562              	@ 1206 "Drivers/CMSIS/Include/cmsis_gcc.h" 1
 563 0024 42E80031 		strex r1, r3, [r2]
 564              	@ 0 "" 2
 565              		.thumb
 566              		.syntax unified
 567 0028 0029     		cmp	r1, #0
 568 002a F3D1     		bne	.L77
 569              	.L76:
 570 002c C36F     		ldr	r3, [r0, #124]
 571 002e 222B     		cmp	r3, #34
 572 0030 25D1     		bne	.L78
 573 0032 0368     		ldr	r3, [r0]
 574 0034 0822     		movs	r2, #8
 575 0036 1A62     		str	r2, [r3, #32]
 576 0038 0269     		ldr	r2, [r0, #16]
 577 003a 0368     		ldr	r3, [r0]
 578 003c 3AB1     		cbz	r2, .L81
 579              	.L80:
 580              		.syntax unified
 581              	@ 1155 "Drivers/CMSIS/Include/cmsis_gcc.h" 1
 582 003e 53E8002F 		ldrex r2, [r3]
 583              	@ 0 "" 2
 584              		.thumb
 585              		.syntax unified
 586 0042 42F48072 		orr	r2, r2, #256
 587              		.syntax unified
 588              	@ 1206 "Drivers/CMSIS/Include/cmsis_gcc.h" 1
 589 0046 43E80021 		strex r1, r2, [r3]
 590              	@ 0 "" 2
 591              		.thumb
ARM GAS  C:\Users\CL\AppData\Local\Temp\ccv2KUeF.s 			page 11


 592              		.syntax unified
 593 004a 0029     		cmp	r1, #0
 594 004c F7D1     		bne	.L80
 595              	.L81:
 596 004e 03F10802 		add	r2, r3, #8
 597              		.syntax unified
 598              	@ 1155 "Drivers/CMSIS/Include/cmsis_gcc.h" 1
 599 0052 52E8002F 		ldrex r2, [r2]
 600              	@ 0 "" 2
 601              		.thumb
 602              		.syntax unified
 603 0056 42F00102 		orr	r2, r2, #1
 604 005a 03F1080C 		add	ip, r3, #8
 605              		.syntax unified
 606              	@ 1206 "Drivers/CMSIS/Include/cmsis_gcc.h" 1
 607 005e 4CE80021 		strex r1, r2, [ip]
 608              	@ 0 "" 2
 609              		.thumb
 610              		.syntax unified
 611 0062 0029     		cmp	r1, #0
 612 0064 F3D1     		bne	.L81
 613              	.L82:
 614 0066 03F10802 		add	r2, r3, #8
 615              		.syntax unified
 616              	@ 1155 "Drivers/CMSIS/Include/cmsis_gcc.h" 1
 617 006a 52E8002F 		ldrex r2, [r2]
 618              	@ 0 "" 2
 619              		.thumb
 620              		.syntax unified
 621 006e 42F04002 		orr	r2, r2, #64
 622 0072 03F1080C 		add	ip, r3, #8
 623              		.syntax unified
 624              	@ 1206 "Drivers/CMSIS/Include/cmsis_gcc.h" 1
 625 0076 4CE80021 		strex r1, r2, [ip]
 626              	@ 0 "" 2
 627              		.thumb
 628              		.syntax unified
 629 007a 0029     		cmp	r1, #0
 630 007c F3D1     		bne	.L82
 631              	.L78:
 632 007e 0023     		movs	r3, #0
 633 0080 80F87430 		strb	r3, [r0, #116]
 634 0084 1846     		mov	r0, r3
 635 0086 7047     		bx	lr
 636              	.L83:
 637 0088 0220     		movs	r0, #2
 638 008a 7047     		bx	lr
 640              		.section	.text.HAL_UART_DMAStop,"ax",%progbits
 641              		.align	1
 642              		.global	HAL_UART_DMAStop
 643              		.syntax unified
 644              		.thumb
 645              		.thumb_func
 647              	HAL_UART_DMAStop:
 648              		@ args = 0, pretend = 0, frame = 0
 649              		@ frame_needed = 0, uses_anonymous_args = 0
 650 0000 0268     		ldr	r2, [r0]
ARM GAS  C:\Users\CL\AppData\Local\Temp\ccv2KUeF.s 			page 12


 651 0002 38B5     		push	{r3, r4, r5, lr}
 652 0004 836F     		ldr	r3, [r0, #120]
 653 0006 C56F     		ldr	r5, [r0, #124]
 654 0008 9168     		ldr	r1, [r2, #8]
 655 000a 0906     		lsls	r1, r1, #24
 656 000c 0446     		mov	r4, r0
 657 000e 27D5     		bpl	.L92
 658 0010 212B     		cmp	r3, #33
 659 0012 25D1     		bne	.L92
 660              	.L93:
 661 0014 02F10803 		add	r3, r2, #8
 662              		.syntax unified
 663              	@ 1155 "Drivers/CMSIS/Include/cmsis_gcc.h" 1
 664 0018 53E8003F 		ldrex r3, [r3]
 665              	@ 0 "" 2
 666              		.thumb
 667              		.syntax unified
 668 001c 23F08003 		bic	r3, r3, #128
 669 0020 02F10800 		add	r0, r2, #8
 670              		.syntax unified
 671              	@ 1206 "Drivers/CMSIS/Include/cmsis_gcc.h" 1
 672 0024 40E80031 		strex r1, r3, [r0]
 673              	@ 0 "" 2
 674              		.thumb
 675              		.syntax unified
 676 0028 0029     		cmp	r1, #0
 677 002a F3D1     		bne	.L93
 678 002c E06E     		ldr	r0, [r4, #108]
 679 002e 60B1     		cbz	r0, .L95
 680 0030 FFF7FEFF 		bl	HAL_DMA_Abort
 681 0034 48B1     		cbz	r0, .L95
 682 0036 E06E     		ldr	r0, [r4, #108]
 683 0038 FFF7FEFF 		bl	HAL_DMA_GetError
 684 003c 2028     		cmp	r0, #32
 685 003e 04D1     		bne	.L95
 686              	.L117:
 687 0040 1023     		movs	r3, #16
 688 0042 C4F88030 		str	r3, [r4, #128]
 689 0046 0320     		movs	r0, #3
 690              	.L97:
 691 0048 38BD     		pop	{r3, r4, r5, pc}
 692              	.L95:
 693 004a 2268     		ldr	r2, [r4]
 694              		.syntax unified
 695              	@ 1155 "Drivers/CMSIS/Include/cmsis_gcc.h" 1
 696 004c 52E8003F 		ldrex r3, [r2]
 697              	@ 0 "" 2
 698              		.thumb
 699              		.syntax unified
 700 0050 23F0C003 		bic	r3, r3, #192
 701              		.syntax unified
 702              	@ 1206 "Drivers/CMSIS/Include/cmsis_gcc.h" 1
 703 0054 42E80031 		strex r1, r3, [r2]
 704              	@ 0 "" 2
 705              		.thumb
 706              		.syntax unified
 707 0058 0029     		cmp	r1, #0
ARM GAS  C:\Users\CL\AppData\Local\Temp\ccv2KUeF.s 			page 13


 708 005a F6D1     		bne	.L95
 709 005c 2023     		movs	r3, #32
 710 005e A367     		str	r3, [r4, #120]
 711              	.L92:
 712 0060 2268     		ldr	r2, [r4]
 713 0062 9068     		ldr	r0, [r2, #8]
 714 0064 10F04000 		ands	r0, r0, #64
 715 0068 EED0     		beq	.L97
 716 006a 222D     		cmp	r5, #34
 717 006c 18D1     		bne	.L101
 718              	.L98:
 719 006e 02F10803 		add	r3, r2, #8
 720              		.syntax unified
 721              	@ 1155 "Drivers/CMSIS/Include/cmsis_gcc.h" 1
 722 0072 53E8003F 		ldrex r3, [r3]
 723              	@ 0 "" 2
 724              		.thumb
 725              		.syntax unified
 726 0076 23F04003 		bic	r3, r3, #64
 727 007a 02F10800 		add	r0, r2, #8
 728              		.syntax unified
 729              	@ 1206 "Drivers/CMSIS/Include/cmsis_gcc.h" 1
 730 007e 40E80031 		strex r1, r3, [r0]
 731              	@ 0 "" 2
 732              		.thumb
 733              		.syntax unified
 734 0082 0029     		cmp	r1, #0
 735 0084 F3D1     		bne	.L98
 736 0086 206F     		ldr	r0, [r4, #112]
 737 0088 38B1     		cbz	r0, .L99
 738 008a FFF7FEFF 		bl	HAL_DMA_Abort
 739 008e 20B1     		cbz	r0, .L99
 740 0090 206F     		ldr	r0, [r4, #112]
 741 0092 FFF7FEFF 		bl	HAL_DMA_GetError
 742 0096 2028     		cmp	r0, #32
 743 0098 D2D0     		beq	.L117
 744              	.L99:
 745 009a 2046     		mov	r0, r4
 746 009c FFF7FEFF 		bl	UART_EndRxTransfer
 747              	.L101:
 748 00a0 0020     		movs	r0, #0
 749 00a2 D1E7     		b	.L97
 751              		.section	.text.HAL_UART_Abort,"ax",%progbits
 752              		.align	1
 753              		.global	HAL_UART_Abort
 754              		.syntax unified
 755              		.thumb
 756              		.thumb_func
 758              	HAL_UART_Abort:
 759              		@ args = 0, pretend = 0, frame = 0
 760              		@ frame_needed = 0, uses_anonymous_args = 0
 761 0000 10B5     		push	{r4, lr}
 762 0002 0446     		mov	r4, r0
 763              	.L119:
 764 0004 2268     		ldr	r2, [r4]
 765              		.syntax unified
 766              	@ 1155 "Drivers/CMSIS/Include/cmsis_gcc.h" 1
ARM GAS  C:\Users\CL\AppData\Local\Temp\ccv2KUeF.s 			page 14


 767 0006 52E8003F 		ldrex r3, [r2]
 768              	@ 0 "" 2
 769              		.thumb
 770              		.syntax unified
 771 000a 23F4F073 		bic	r3, r3, #480
 772              		.syntax unified
 773              	@ 1206 "Drivers/CMSIS/Include/cmsis_gcc.h" 1
 774 000e 42E80031 		strex r1, r3, [r2]
 775              	@ 0 "" 2
 776              		.thumb
 777              		.syntax unified
 778 0012 2368     		ldr	r3, [r4]
 779 0014 0029     		cmp	r1, #0
 780 0016 F5D1     		bne	.L119
 781              	.L120:
 782 0018 03F10802 		add	r2, r3, #8
 783              		.syntax unified
 784              	@ 1155 "Drivers/CMSIS/Include/cmsis_gcc.h" 1
 785 001c 52E8002F 		ldrex r2, [r2]
 786              	@ 0 "" 2
 787              		.thumb
 788              		.syntax unified
 789 0020 22F00102 		bic	r2, r2, #1
 790 0024 03F10800 		add	r0, r3, #8
 791              		.syntax unified
 792              	@ 1206 "Drivers/CMSIS/Include/cmsis_gcc.h" 1
 793 0028 40E80021 		strex r1, r2, [r0]
 794              	@ 0 "" 2
 795              		.thumb
 796              		.syntax unified
 797 002c 0029     		cmp	r1, #0
 798 002e F3D1     		bne	.L120
 799 0030 226E     		ldr	r2, [r4, #96]
 800 0032 012A     		cmp	r2, #1
 801 0034 07D1     		bne	.L121
 802              	.L122:
 803              		.syntax unified
 804              	@ 1155 "Drivers/CMSIS/Include/cmsis_gcc.h" 1
 805 0036 53E8002F 		ldrex r2, [r3]
 806              	@ 0 "" 2
 807              		.thumb
 808              		.syntax unified
 809 003a 22F01002 		bic	r2, r2, #16
 810              		.syntax unified
 811              	@ 1206 "Drivers/CMSIS/Include/cmsis_gcc.h" 1
 812 003e 43E80021 		strex r1, r2, [r3]
 813              	@ 0 "" 2
 814              		.thumb
 815              		.syntax unified
 816 0042 0029     		cmp	r1, #0
 817 0044 F7D1     		bne	.L122
 818              	.L121:
 819 0046 9A68     		ldr	r2, [r3, #8]
 820 0048 1206     		lsls	r2, r2, #24
 821 004a 1BD5     		bpl	.L123
 822              	.L124:
 823 004c 03F10802 		add	r2, r3, #8
ARM GAS  C:\Users\CL\AppData\Local\Temp\ccv2KUeF.s 			page 15


 824              		.syntax unified
 825              	@ 1155 "Drivers/CMSIS/Include/cmsis_gcc.h" 1
 826 0050 52E8002F 		ldrex r2, [r2]
 827              	@ 0 "" 2
 828              		.thumb
 829              		.syntax unified
 830 0054 22F08002 		bic	r2, r2, #128
 831 0058 03F10800 		add	r0, r3, #8
 832              		.syntax unified
 833              	@ 1206 "Drivers/CMSIS/Include/cmsis_gcc.h" 1
 834 005c 40E80021 		strex r1, r2, [r0]
 835              	@ 0 "" 2
 836              		.thumb
 837              		.syntax unified
 838 0060 0029     		cmp	r1, #0
 839 0062 F3D1     		bne	.L124
 840 0064 E06E     		ldr	r0, [r4, #108]
 841 0066 68B1     		cbz	r0, .L123
 842 0068 8163     		str	r1, [r0, #56]
 843 006a FFF7FEFF 		bl	HAL_DMA_Abort
 844 006e 48B1     		cbz	r0, .L123
 845 0070 E06E     		ldr	r0, [r4, #108]
 846 0072 FFF7FEFF 		bl	HAL_DMA_GetError
 847 0076 2028     		cmp	r0, #32
 848 0078 04D1     		bne	.L123
 849              	.L151:
 850 007a 1023     		movs	r3, #16
 851 007c C4F88030 		str	r3, [r4, #128]
 852 0080 0320     		movs	r0, #3
 853              	.L125:
 854 0082 10BD     		pop	{r4, pc}
 855              	.L123:
 856 0084 2268     		ldr	r2, [r4]
 857 0086 9368     		ldr	r3, [r2, #8]
 858 0088 5B06     		lsls	r3, r3, #25
 859 008a 16D5     		bpl	.L126
 860              	.L127:
 861 008c 02F10803 		add	r3, r2, #8
 862              		.syntax unified
 863              	@ 1155 "Drivers/CMSIS/Include/cmsis_gcc.h" 1
 864 0090 53E8003F 		ldrex r3, [r3]
 865              	@ 0 "" 2
 866              		.thumb
 867              		.syntax unified
 868 0094 23F04003 		bic	r3, r3, #64
 869 0098 02F10800 		add	r0, r2, #8
 870              		.syntax unified
 871              	@ 1206 "Drivers/CMSIS/Include/cmsis_gcc.h" 1
 872 009c 40E80031 		strex r1, r3, [r0]
 873              	@ 0 "" 2
 874              		.thumb
 875              		.syntax unified
 876 00a0 0029     		cmp	r1, #0
 877 00a2 F3D1     		bne	.L127
 878 00a4 206F     		ldr	r0, [r4, #112]
 879 00a6 40B1     		cbz	r0, .L126
 880 00a8 8163     		str	r1, [r0, #56]
ARM GAS  C:\Users\CL\AppData\Local\Temp\ccv2KUeF.s 			page 16


 881 00aa FFF7FEFF 		bl	HAL_DMA_Abort
 882 00ae 20B1     		cbz	r0, .L126
 883 00b0 206F     		ldr	r0, [r4, #112]
 884 00b2 FFF7FEFF 		bl	HAL_DMA_GetError
 885 00b6 2028     		cmp	r0, #32
 886 00b8 DFD0     		beq	.L151
 887              	.L126:
 888 00ba 2268     		ldr	r2, [r4]
 889 00bc 0020     		movs	r0, #0
 890 00be 0F23     		movs	r3, #15
 891 00c0 A4F85200 		strh	r0, [r4, #82]	@ movhi
 892 00c4 A4F85A00 		strh	r0, [r4, #90]	@ movhi
 893 00c8 1362     		str	r3, [r2, #32]
 894 00ca 138B     		ldrh	r3, [r2, #24]
 895 00cc 9BB2     		uxth	r3, r3
 896 00ce 43F00803 		orr	r3, r3, #8
 897 00d2 1383     		strh	r3, [r2, #24]	@ movhi
 898 00d4 2023     		movs	r3, #32
 899 00d6 A367     		str	r3, [r4, #120]
 900 00d8 E367     		str	r3, [r4, #124]
 901 00da 2066     		str	r0, [r4, #96]
 902 00dc C4F88000 		str	r0, [r4, #128]
 903 00e0 CFE7     		b	.L125
 905              		.section	.text.HAL_UART_AbortTransmit,"ax",%progbits
 906              		.align	1
 907              		.global	HAL_UART_AbortTransmit
 908              		.syntax unified
 909              		.thumb
 910              		.thumb_func
 912              	HAL_UART_AbortTransmit:
 913              		@ args = 0, pretend = 0, frame = 0
 914              		@ frame_needed = 0, uses_anonymous_args = 0
 915 0000 10B5     		push	{r4, lr}
 916 0002 0446     		mov	r4, r0
 917              	.L153:
 918 0004 2268     		ldr	r2, [r4]
 919              		.syntax unified
 920              	@ 1155 "Drivers/CMSIS/Include/cmsis_gcc.h" 1
 921 0006 52E8003F 		ldrex r3, [r2]
 922              	@ 0 "" 2
 923              		.thumb
 924              		.syntax unified
 925 000a 23F0C003 		bic	r3, r3, #192
 926              		.syntax unified
 927              	@ 1206 "Drivers/CMSIS/Include/cmsis_gcc.h" 1
 928 000e 42E80031 		strex r1, r3, [r2]
 929              	@ 0 "" 2
 930              		.thumb
 931              		.syntax unified
 932 0012 2268     		ldr	r2, [r4]
 933 0014 0029     		cmp	r1, #0
 934 0016 F5D1     		bne	.L153
 935 0018 9368     		ldr	r3, [r2, #8]
 936 001a 1B06     		lsls	r3, r3, #24
 937 001c 1BD5     		bpl	.L154
 938              	.L155:
 939 001e 02F10803 		add	r3, r2, #8
ARM GAS  C:\Users\CL\AppData\Local\Temp\ccv2KUeF.s 			page 17


 940              		.syntax unified
 941              	@ 1155 "Drivers/CMSIS/Include/cmsis_gcc.h" 1
 942 0022 53E8003F 		ldrex r3, [r3]
 943              	@ 0 "" 2
 944              		.thumb
 945              		.syntax unified
 946 0026 23F08003 		bic	r3, r3, #128
 947 002a 02F10800 		add	r0, r2, #8
 948              		.syntax unified
 949              	@ 1206 "Drivers/CMSIS/Include/cmsis_gcc.h" 1
 950 002e 40E80031 		strex r1, r3, [r0]
 951              	@ 0 "" 2
 952              		.thumb
 953              		.syntax unified
 954 0032 0029     		cmp	r1, #0
 955 0034 F3D1     		bne	.L155
 956 0036 E06E     		ldr	r0, [r4, #108]
 957 0038 68B1     		cbz	r0, .L154
 958 003a 8163     		str	r1, [r0, #56]
 959 003c FFF7FEFF 		bl	HAL_DMA_Abort
 960 0040 48B1     		cbz	r0, .L154
 961 0042 E06E     		ldr	r0, [r4, #108]
 962 0044 FFF7FEFF 		bl	HAL_DMA_GetError
 963 0048 2028     		cmp	r0, #32
 964 004a 04D1     		bne	.L154
 965 004c 1023     		movs	r3, #16
 966 004e C4F88030 		str	r3, [r4, #128]
 967 0052 0320     		movs	r0, #3
 968              	.L156:
 969 0054 10BD     		pop	{r4, pc}
 970              	.L154:
 971 0056 0020     		movs	r0, #0
 972 0058 2023     		movs	r3, #32
 973 005a A4F85200 		strh	r0, [r4, #82]	@ movhi
 974 005e A367     		str	r3, [r4, #120]
 975 0060 F8E7     		b	.L156
 977              		.section	.text.HAL_UART_AbortReceive,"ax",%progbits
 978              		.align	1
 979              		.global	HAL_UART_AbortReceive
 980              		.syntax unified
 981              		.thumb
 982              		.thumb_func
 984              	HAL_UART_AbortReceive:
 985              		@ args = 0, pretend = 0, frame = 0
 986              		@ frame_needed = 0, uses_anonymous_args = 0
 987 0000 10B5     		push	{r4, lr}
 988 0002 0446     		mov	r4, r0
 989              	.L169:
 990 0004 2268     		ldr	r2, [r4]
 991              		.syntax unified
 992              	@ 1155 "Drivers/CMSIS/Include/cmsis_gcc.h" 1
 993 0006 52E8003F 		ldrex r3, [r2]
 994              	@ 0 "" 2
 995              		.thumb
 996              		.syntax unified
 997 000a 23F49073 		bic	r3, r3, #288
 998              		.syntax unified
ARM GAS  C:\Users\CL\AppData\Local\Temp\ccv2KUeF.s 			page 18


 999              	@ 1206 "Drivers/CMSIS/Include/cmsis_gcc.h" 1
 1000 000e 42E80031 		strex r1, r3, [r2]
 1001              	@ 0 "" 2
 1002              		.thumb
 1003              		.syntax unified
 1004 0012 2368     		ldr	r3, [r4]
 1005 0014 0029     		cmp	r1, #0
 1006 0016 F5D1     		bne	.L169
 1007              	.L170:
 1008 0018 03F10802 		add	r2, r3, #8
 1009              		.syntax unified
 1010              	@ 1155 "Drivers/CMSIS/Include/cmsis_gcc.h" 1
 1011 001c 52E8002F 		ldrex r2, [r2]
 1012              	@ 0 "" 2
 1013              		.thumb
 1014              		.syntax unified
 1015 0020 22F00102 		bic	r2, r2, #1
 1016 0024 03F10800 		add	r0, r3, #8
 1017              		.syntax unified
 1018              	@ 1206 "Drivers/CMSIS/Include/cmsis_gcc.h" 1
 1019 0028 40E80021 		strex r1, r2, [r0]
 1020              	@ 0 "" 2
 1021              		.thumb
 1022              		.syntax unified
 1023 002c 0029     		cmp	r1, #0
 1024 002e F3D1     		bne	.L170
 1025 0030 226E     		ldr	r2, [r4, #96]
 1026 0032 012A     		cmp	r2, #1
 1027 0034 07D1     		bne	.L171
 1028              	.L172:
 1029              		.syntax unified
 1030              	@ 1155 "Drivers/CMSIS/Include/cmsis_gcc.h" 1
 1031 0036 53E8002F 		ldrex r2, [r3]
 1032              	@ 0 "" 2
 1033              		.thumb
 1034              		.syntax unified
 1035 003a 22F01002 		bic	r2, r2, #16
 1036              		.syntax unified
 1037              	@ 1206 "Drivers/CMSIS/Include/cmsis_gcc.h" 1
 1038 003e 43E80021 		strex r1, r2, [r3]
 1039              	@ 0 "" 2
 1040              		.thumb
 1041              		.syntax unified
 1042 0042 0029     		cmp	r1, #0
 1043 0044 F7D1     		bne	.L172
 1044              	.L171:
 1045 0046 9A68     		ldr	r2, [r3, #8]
 1046 0048 5206     		lsls	r2, r2, #25
 1047 004a 1BD5     		bpl	.L173
 1048              	.L174:
 1049 004c 03F10802 		add	r2, r3, #8
 1050              		.syntax unified
 1051              	@ 1155 "Drivers/CMSIS/Include/cmsis_gcc.h" 1
 1052 0050 52E8002F 		ldrex r2, [r2]
 1053              	@ 0 "" 2
 1054              		.thumb
 1055              		.syntax unified
ARM GAS  C:\Users\CL\AppData\Local\Temp\ccv2KUeF.s 			page 19


 1056 0054 22F04002 		bic	r2, r2, #64
 1057 0058 03F10800 		add	r0, r3, #8
 1058              		.syntax unified
 1059              	@ 1206 "Drivers/CMSIS/Include/cmsis_gcc.h" 1
 1060 005c 40E80021 		strex r1, r2, [r0]
 1061              	@ 0 "" 2
 1062              		.thumb
 1063              		.syntax unified
 1064 0060 0029     		cmp	r1, #0
 1065 0062 F3D1     		bne	.L174
 1066 0064 206F     		ldr	r0, [r4, #112]
 1067 0066 68B1     		cbz	r0, .L173
 1068 0068 8163     		str	r1, [r0, #56]
 1069 006a FFF7FEFF 		bl	HAL_DMA_Abort
 1070 006e 48B1     		cbz	r0, .L173
 1071 0070 206F     		ldr	r0, [r4, #112]
 1072 0072 FFF7FEFF 		bl	HAL_DMA_GetError
 1073 0076 2028     		cmp	r0, #32
 1074 0078 04D1     		bne	.L173
 1075 007a 1023     		movs	r3, #16
 1076 007c C4F88030 		str	r3, [r4, #128]
 1077 0080 0320     		movs	r0, #3
 1078              	.L175:
 1079 0082 10BD     		pop	{r4, pc}
 1080              	.L173:
 1081 0084 2268     		ldr	r2, [r4]
 1082 0086 0020     		movs	r0, #0
 1083 0088 0F23     		movs	r3, #15
 1084 008a A4F85A00 		strh	r0, [r4, #90]	@ movhi
 1085 008e 1362     		str	r3, [r2, #32]
 1086 0090 138B     		ldrh	r3, [r2, #24]
 1087 0092 9BB2     		uxth	r3, r3
 1088 0094 43F00803 		orr	r3, r3, #8
 1089 0098 1383     		strh	r3, [r2, #24]	@ movhi
 1090 009a 2023     		movs	r3, #32
 1091 009c E367     		str	r3, [r4, #124]
 1092 009e 2066     		str	r0, [r4, #96]
 1093 00a0 EFE7     		b	.L175
 1095              		.section	.text.HAL_UART_TxCpltCallback,"ax",%progbits
 1096              		.align	1
 1097              		.weak	HAL_UART_TxCpltCallback
 1098              		.syntax unified
 1099              		.thumb
 1100              		.thumb_func
 1102              	HAL_UART_TxCpltCallback:
 1103              		@ args = 0, pretend = 0, frame = 0
 1104              		@ frame_needed = 0, uses_anonymous_args = 0
 1105              		@ link register save eliminated.
 1106 0000 7047     		bx	lr
 1108              		.section	.text.UART_DMATransmitCplt,"ax",%progbits
 1109              		.align	1
 1110              		.syntax unified
 1111              		.thumb
 1112              		.thumb_func
 1114              	UART_DMATransmitCplt:
 1115              		@ args = 0, pretend = 0, frame = 0
 1116              		@ frame_needed = 0, uses_anonymous_args = 0
ARM GAS  C:\Users\CL\AppData\Local\Temp\ccv2KUeF.s 			page 20


 1117 0000 08B5     		push	{r3, lr}
 1118 0002 0346     		mov	r3, r0
 1119 0004 806A     		ldr	r0, [r0, #40]
 1120 0006 1B68     		ldr	r3, [r3]
 1121 0008 1B68     		ldr	r3, [r3]
 1122 000a 13F02003 		ands	r3, r3, #32
 1123 000e 17D1     		bne	.L191
 1124 0010 A0F85230 		strh	r3, [r0, #82]	@ movhi
 1125              	.L192:
 1126 0014 0268     		ldr	r2, [r0]
 1127 0016 02F10803 		add	r3, r2, #8
 1128              		.syntax unified
 1129              	@ 1155 "Drivers/CMSIS/Include/cmsis_gcc.h" 1
 1130 001a 53E8003F 		ldrex r3, [r3]
 1131              	@ 0 "" 2
 1132              		.thumb
 1133              		.syntax unified
 1134 001e 23F08003 		bic	r3, r3, #128
 1135 0022 0832     		adds	r2, r2, #8
 1136              		.syntax unified
 1137              	@ 1206 "Drivers/CMSIS/Include/cmsis_gcc.h" 1
 1138 0024 42E80031 		strex r1, r3, [r2]
 1139              	@ 0 "" 2
 1140              		.thumb
 1141              		.syntax unified
 1142 0028 0268     		ldr	r2, [r0]
 1143 002a 0029     		cmp	r1, #0
 1144 002c F2D1     		bne	.L192
 1145              	.L193:
 1146              		.syntax unified
 1147              	@ 1155 "Drivers/CMSIS/Include/cmsis_gcc.h" 1
 1148 002e 52E8003F 		ldrex r3, [r2]
 1149              	@ 0 "" 2
 1150              		.thumb
 1151              		.syntax unified
 1152 0032 43F04003 		orr	r3, r3, #64
 1153              		.syntax unified
 1154              	@ 1206 "Drivers/CMSIS/Include/cmsis_gcc.h" 1
 1155 0036 42E80031 		strex r1, r3, [r2]
 1156              	@ 0 "" 2
 1157              		.thumb
 1158              		.syntax unified
 1159 003a 0029     		cmp	r1, #0
 1160 003c F7D1     		bne	.L193
 1161              	.L190:
 1162 003e 08BD     		pop	{r3, pc}
 1163              	.L191:
 1164 0040 FFF7FEFF 		bl	HAL_UART_TxCpltCallback
 1165 0044 FBE7     		b	.L190
 1167              		.section	.text.HAL_UART_TxHalfCpltCallback,"ax",%progbits
 1168              		.align	1
 1169              		.weak	HAL_UART_TxHalfCpltCallback
 1170              		.syntax unified
 1171              		.thumb
 1172              		.thumb_func
 1174              	HAL_UART_TxHalfCpltCallback:
 1175              		@ args = 0, pretend = 0, frame = 0
ARM GAS  C:\Users\CL\AppData\Local\Temp\ccv2KUeF.s 			page 21


 1176              		@ frame_needed = 0, uses_anonymous_args = 0
 1177              		@ link register save eliminated.
 1178 0000 7047     		bx	lr
 1180              		.section	.text.UART_DMATxHalfCplt,"ax",%progbits
 1181              		.align	1
 1182              		.syntax unified
 1183              		.thumb
 1184              		.thumb_func
 1186              	UART_DMATxHalfCplt:
 1187              		@ args = 0, pretend = 0, frame = 0
 1188              		@ frame_needed = 0, uses_anonymous_args = 0
 1189 0000 08B5     		push	{r3, lr}
 1190 0002 806A     		ldr	r0, [r0, #40]
 1191 0004 FFF7FEFF 		bl	HAL_UART_TxHalfCpltCallback
 1192 0008 08BD     		pop	{r3, pc}
 1194              		.section	.text.HAL_UART_RxCpltCallback,"ax",%progbits
 1195              		.align	1
 1196              		.weak	HAL_UART_RxCpltCallback
 1197              		.syntax unified
 1198              		.thumb
 1199              		.thumb_func
 1201              	HAL_UART_RxCpltCallback:
 1202              		@ args = 0, pretend = 0, frame = 0
 1203              		@ frame_needed = 0, uses_anonymous_args = 0
 1204              		@ link register save eliminated.
 1205 0000 7047     		bx	lr
 1207              		.section	.text.HAL_UART_RxHalfCpltCallback,"ax",%progbits
 1208              		.align	1
 1209              		.weak	HAL_UART_RxHalfCpltCallback
 1210              		.syntax unified
 1211              		.thumb
 1212              		.thumb_func
 1214              	HAL_UART_RxHalfCpltCallback:
 1215              		@ args = 0, pretend = 0, frame = 0
 1216              		@ frame_needed = 0, uses_anonymous_args = 0
 1217              		@ link register save eliminated.
 1218 0000 7047     		bx	lr
 1220              		.section	.text.HAL_UART_ErrorCallback,"ax",%progbits
 1221              		.align	1
 1222              		.weak	HAL_UART_ErrorCallback
 1223              		.syntax unified
 1224              		.thumb
 1225              		.thumb_func
 1227              	HAL_UART_ErrorCallback:
 1228              		@ args = 0, pretend = 0, frame = 0
 1229              		@ frame_needed = 0, uses_anonymous_args = 0
 1230              		@ link register save eliminated.
 1231 0000 7047     		bx	lr
 1233              		.section	.text.UART_DMAError,"ax",%progbits
 1234              		.align	1
 1235              		.syntax unified
 1236              		.thumb
 1237              		.thumb_func
 1239              	UART_DMAError:
 1240              		@ args = 0, pretend = 0, frame = 0
 1241              		@ frame_needed = 0, uses_anonymous_args = 0
 1242 0000 806A     		ldr	r0, [r0, #40]
ARM GAS  C:\Users\CL\AppData\Local\Temp\ccv2KUeF.s 			page 22


 1243 0002 0368     		ldr	r3, [r0]
 1244 0004 826F     		ldr	r2, [r0, #120]
 1245 0006 C16F     		ldr	r1, [r0, #124]
 1246 0008 10B5     		push	{r4, lr}
 1247 000a 9C68     		ldr	r4, [r3, #8]
 1248 000c 2406     		lsls	r4, r4, #24
 1249 000e 0ED5     		bpl	.L203
 1250 0010 212A     		cmp	r2, #33
 1251 0012 0CD1     		bne	.L203
 1252 0014 0022     		movs	r2, #0
 1253 0016 A0F85220 		strh	r2, [r0, #82]	@ movhi
 1254              	.L204:
 1255              		.syntax unified
 1256              	@ 1155 "Drivers/CMSIS/Include/cmsis_gcc.h" 1
 1257 001a 53E8002F 		ldrex r2, [r3]
 1258              	@ 0 "" 2
 1259              		.thumb
 1260              		.syntax unified
 1261 001e 22F0C002 		bic	r2, r2, #192
 1262              		.syntax unified
 1263              	@ 1206 "Drivers/CMSIS/Include/cmsis_gcc.h" 1
 1264 0022 43E80024 		strex r4, r2, [r3]
 1265              	@ 0 "" 2
 1266              		.thumb
 1267              		.syntax unified
 1268 0026 002C     		cmp	r4, #0
 1269 0028 F7D1     		bne	.L204
 1270 002a 2022     		movs	r2, #32
 1271 002c 8267     		str	r2, [r0, #120]
 1272              	.L203:
 1273 002e 9B68     		ldr	r3, [r3, #8]
 1274 0030 5B06     		lsls	r3, r3, #25
 1275 0032 06D5     		bpl	.L205
 1276 0034 2229     		cmp	r1, #34
 1277 0036 04D1     		bne	.L205
 1278 0038 0023     		movs	r3, #0
 1279 003a A0F85A30 		strh	r3, [r0, #90]	@ movhi
 1280 003e FFF7FEFF 		bl	UART_EndRxTransfer
 1281              	.L205:
 1282 0042 D0F88030 		ldr	r3, [r0, #128]
 1283 0046 43F01003 		orr	r3, r3, #16
 1284 004a C0F88030 		str	r3, [r0, #128]
 1285 004e FFF7FEFF 		bl	HAL_UART_ErrorCallback
 1286 0052 10BD     		pop	{r4, pc}
 1288              		.section	.text.UART_DMAAbortOnError,"ax",%progbits
 1289              		.align	1
 1290              		.syntax unified
 1291              		.thumb
 1292              		.thumb_func
 1294              	UART_DMAAbortOnError:
 1295              		@ args = 0, pretend = 0, frame = 0
 1296              		@ frame_needed = 0, uses_anonymous_args = 0
 1297 0000 08B5     		push	{r3, lr}
 1298 0002 806A     		ldr	r0, [r0, #40]
 1299 0004 0023     		movs	r3, #0
 1300 0006 A0F85A30 		strh	r3, [r0, #90]	@ movhi
 1301 000a A0F85230 		strh	r3, [r0, #82]	@ movhi
ARM GAS  C:\Users\CL\AppData\Local\Temp\ccv2KUeF.s 			page 23


 1302 000e FFF7FEFF 		bl	HAL_UART_ErrorCallback
 1303 0012 08BD     		pop	{r3, pc}
 1305              		.section	.text.HAL_UART_AbortCpltCallback,"ax",%progbits
 1306              		.align	1
 1307              		.weak	HAL_UART_AbortCpltCallback
 1308              		.syntax unified
 1309              		.thumb
 1310              		.thumb_func
 1312              	HAL_UART_AbortCpltCallback:
 1313              		@ args = 0, pretend = 0, frame = 0
 1314              		@ frame_needed = 0, uses_anonymous_args = 0
 1315              		@ link register save eliminated.
 1316 0000 7047     		bx	lr
 1318              		.section	.text.HAL_UART_Abort_IT,"ax",%progbits
 1319              		.align	1
 1320              		.global	HAL_UART_Abort_IT
 1321              		.syntax unified
 1322              		.thumb
 1323              		.thumb_func
 1325              	HAL_UART_Abort_IT:
 1326              		@ args = 0, pretend = 0, frame = 0
 1327              		@ frame_needed = 0, uses_anonymous_args = 0
 1328 0000 70B5     		push	{r4, r5, r6, lr}
 1329 0002 0446     		mov	r4, r0
 1330              	.L216:
 1331 0004 2268     		ldr	r2, [r4]
 1332              		.syntax unified
 1333              	@ 1155 "Drivers/CMSIS/Include/cmsis_gcc.h" 1
 1334 0006 52E8003F 		ldrex r3, [r2]
 1335              	@ 0 "" 2
 1336              		.thumb
 1337              		.syntax unified
 1338 000a 23F4F073 		bic	r3, r3, #480
 1339              		.syntax unified
 1340              	@ 1206 "Drivers/CMSIS/Include/cmsis_gcc.h" 1
 1341 000e 42E80031 		strex r1, r3, [r2]
 1342              	@ 0 "" 2
 1343              		.thumb
 1344              		.syntax unified
 1345 0012 2368     		ldr	r3, [r4]
 1346 0014 0029     		cmp	r1, #0
 1347 0016 F5D1     		bne	.L216
 1348              	.L217:
 1349 0018 03F10802 		add	r2, r3, #8
 1350              		.syntax unified
 1351              	@ 1155 "Drivers/CMSIS/Include/cmsis_gcc.h" 1
 1352 001c 52E8002F 		ldrex r2, [r2]
 1353              	@ 0 "" 2
 1354              		.thumb
 1355              		.syntax unified
 1356 0020 22F00102 		bic	r2, r2, #1
 1357 0024 03F10800 		add	r0, r3, #8
 1358              		.syntax unified
 1359              	@ 1206 "Drivers/CMSIS/Include/cmsis_gcc.h" 1
 1360 0028 40E80021 		strex r1, r2, [r0]
 1361              	@ 0 "" 2
 1362              		.thumb
ARM GAS  C:\Users\CL\AppData\Local\Temp\ccv2KUeF.s 			page 24


 1363              		.syntax unified
 1364 002c 0029     		cmp	r1, #0
 1365 002e F3D1     		bne	.L217
 1366 0030 226E     		ldr	r2, [r4, #96]
 1367 0032 012A     		cmp	r2, #1
 1368 0034 40D0     		beq	.L218
 1369              	.L221:
 1370 0036 E06E     		ldr	r0, [r4, #108]
 1371 0038 0028     		cmp	r0, #0
 1372 003a 46D1     		bne	.L219
 1373              	.L220:
 1374 003c 216F     		ldr	r1, [r4, #112]
 1375 003e 29B1     		cbz	r1, .L223
 1376 0040 9A68     		ldr	r2, [r3, #8]
 1377 0042 12F04002 		ands	r2, r2, #64
 1378 0046 18BF     		it	ne
 1379 0048 304A     		ldrne	r2, .L258
 1380 004a 8A63     		str	r2, [r1, #56]
 1381              	.L223:
 1382 004c 9A68     		ldr	r2, [r3, #8]
 1383 004e 1206     		lsls	r2, r2, #24
 1384 0050 42D4     		bmi	.L225
 1385              	.L257:
 1386 0052 0125     		movs	r5, #1
 1387              	.L226:
 1388 0054 2268     		ldr	r2, [r4]
 1389 0056 9368     		ldr	r3, [r2, #8]
 1390 0058 5B06     		lsls	r3, r3, #25
 1391 005a 52D5     		bpl	.L228
 1392              	.L229:
 1393 005c 02F10803 		add	r3, r2, #8
 1394              		.syntax unified
 1395              	@ 1155 "Drivers/CMSIS/Include/cmsis_gcc.h" 1
 1396 0060 53E8003F 		ldrex r3, [r3]
 1397              	@ 0 "" 2
 1398              		.thumb
 1399              		.syntax unified
 1400 0064 23F04003 		bic	r3, r3, #64
 1401 0068 02F10801 		add	r1, r2, #8
 1402              		.syntax unified
 1403              	@ 1206 "Drivers/CMSIS/Include/cmsis_gcc.h" 1
 1404 006c 41E80036 		strex r6, r3, [r1]
 1405              	@ 0 "" 2
 1406              		.thumb
 1407              		.syntax unified
 1408 0070 002E     		cmp	r6, #0
 1409 0072 F3D1     		bne	.L229
 1410 0074 206F     		ldr	r0, [r4, #112]
 1411 0076 0028     		cmp	r0, #0
 1412 0078 43D0     		beq	.L228
 1413 007a FFF7FEFF 		bl	HAL_DMA_Abort_IT
 1414 007e 0028     		cmp	r0, #0
 1415 0080 41D0     		beq	.L231
 1416 0082 236F     		ldr	r3, [r4, #112]
 1417 0084 9E63     		str	r6, [r3, #56]
 1418              	.L232:
 1419 0086 2168     		ldr	r1, [r4]
ARM GAS  C:\Users\CL\AppData\Local\Temp\ccv2KUeF.s 			page 25


 1420 0088 0023     		movs	r3, #0
 1421 008a 0F22     		movs	r2, #15
 1422 008c A4F85230 		strh	r3, [r4, #82]	@ movhi
 1423 0090 C4E91933 		strd	r3, r3, [r4, #100]
 1424 0094 A4F85A30 		strh	r3, [r4, #90]	@ movhi
 1425 0098 C4F88030 		str	r3, [r4, #128]
 1426 009c 0A62     		str	r2, [r1, #32]
 1427 009e 0A8B     		ldrh	r2, [r1, #24]
 1428 00a0 92B2     		uxth	r2, r2
 1429 00a2 42F00802 		orr	r2, r2, #8
 1430 00a6 0A83     		strh	r2, [r1, #24]	@ movhi
 1431 00a8 2022     		movs	r2, #32
 1432 00aa A267     		str	r2, [r4, #120]
 1433 00ac 2046     		mov	r0, r4
 1434 00ae E267     		str	r2, [r4, #124]
 1435 00b0 2366     		str	r3, [r4, #96]
 1436 00b2 FFF7FEFF 		bl	HAL_UART_AbortCpltCallback
 1437 00b6 26E0     		b	.L231
 1438              	.L218:
 1439              		.syntax unified
 1440              	@ 1155 "Drivers/CMSIS/Include/cmsis_gcc.h" 1
 1441 00b8 53E8002F 		ldrex r2, [r3]
 1442              	@ 0 "" 2
 1443              		.thumb
 1444              		.syntax unified
 1445 00bc 22F01002 		bic	r2, r2, #16
 1446              		.syntax unified
 1447              	@ 1206 "Drivers/CMSIS/Include/cmsis_gcc.h" 1
 1448 00c0 43E80021 		strex r1, r2, [r3]
 1449              	@ 0 "" 2
 1450              		.thumb
 1451              		.syntax unified
 1452 00c4 0029     		cmp	r1, #0
 1453 00c6 F7D1     		bne	.L218
 1454 00c8 B5E7     		b	.L221
 1455              	.L219:
 1456 00ca 9A68     		ldr	r2, [r3, #8]
 1457 00cc 12F08002 		ands	r2, r2, #128
 1458 00d0 18BF     		it	ne
 1459 00d2 0F4A     		ldrne	r2, .L258+4
 1460 00d4 8263     		str	r2, [r0, #56]
 1461 00d6 B1E7     		b	.L220
 1462              	.L225:
 1463 00d8 03F10802 		add	r2, r3, #8
 1464              		.syntax unified
 1465              	@ 1155 "Drivers/CMSIS/Include/cmsis_gcc.h" 1
 1466 00dc 52E8002F 		ldrex r2, [r2]
 1467              	@ 0 "" 2
 1468              		.thumb
 1469              		.syntax unified
 1470 00e0 22F08002 		bic	r2, r2, #128
 1471 00e4 03F10801 		add	r1, r3, #8
 1472              		.syntax unified
 1473              	@ 1206 "Drivers/CMSIS/Include/cmsis_gcc.h" 1
 1474 00e8 41E80025 		strex r5, r2, [r1]
 1475              	@ 0 "" 2
 1476              		.thumb
ARM GAS  C:\Users\CL\AppData\Local\Temp\ccv2KUeF.s 			page 26


 1477              		.syntax unified
 1478 00ec 002D     		cmp	r5, #0
 1479 00ee F3D1     		bne	.L225
 1480 00f0 0028     		cmp	r0, #0
 1481 00f2 AED0     		beq	.L257
 1482 00f4 FFF7FEFF 		bl	HAL_DMA_Abort_IT
 1483 00f8 0028     		cmp	r0, #0
 1484 00fa ABD0     		beq	.L226
 1485 00fc E36E     		ldr	r3, [r4, #108]
 1486 00fe 9D63     		str	r5, [r3, #56]
 1487 0100 A7E7     		b	.L257
 1488              	.L228:
 1489 0102 012D     		cmp	r5, #1
 1490 0104 BFD0     		beq	.L232
 1491              	.L231:
 1492 0106 0020     		movs	r0, #0
 1493 0108 70BD     		pop	{r4, r5, r6, pc}
 1494              	.L259:
 1495 010a 00BF     		.align	2
 1496              	.L258:
 1497 010c 00000000 		.word	UART_DMARxAbortCallback
 1498 0110 00000000 		.word	UART_DMATxAbortCallback
 1500              		.section	.text.UART_DMARxAbortCallback,"ax",%progbits
 1501              		.align	1
 1502              		.syntax unified
 1503              		.thumb
 1504              		.thumb_func
 1506              	UART_DMARxAbortCallback:
 1507              		@ args = 0, pretend = 0, frame = 0
 1508              		@ frame_needed = 0, uses_anonymous_args = 0
 1509 0000 806A     		ldr	r0, [r0, #40]
 1510 0002 026F     		ldr	r2, [r0, #112]
 1511 0004 08B5     		push	{r3, lr}
 1512 0006 0023     		movs	r3, #0
 1513 0008 9363     		str	r3, [r2, #56]
 1514 000a C26E     		ldr	r2, [r0, #108]
 1515 000c 0AB1     		cbz	r2, .L261
 1516 000e 926B     		ldr	r2, [r2, #56]
 1517 0010 9AB9     		cbnz	r2, .L260
 1518              	.L261:
 1519 0012 0168     		ldr	r1, [r0]
 1520 0014 A0F85230 		strh	r3, [r0, #82]	@ movhi
 1521 0018 0F22     		movs	r2, #15
 1522 001a A0F85A30 		strh	r3, [r0, #90]	@ movhi
 1523 001e C0F88030 		str	r3, [r0, #128]
 1524 0022 0A62     		str	r2, [r1, #32]
 1525 0024 0A8B     		ldrh	r2, [r1, #24]
 1526 0026 92B2     		uxth	r2, r2
 1527 0028 42F00802 		orr	r2, r2, #8
 1528 002c 0A83     		strh	r2, [r1, #24]	@ movhi
 1529 002e 2022     		movs	r2, #32
 1530 0030 8267     		str	r2, [r0, #120]
 1531 0032 C267     		str	r2, [r0, #124]
 1532 0034 0366     		str	r3, [r0, #96]
 1533 0036 FFF7FEFF 		bl	HAL_UART_AbortCpltCallback
 1534              	.L260:
 1535 003a 08BD     		pop	{r3, pc}
ARM GAS  C:\Users\CL\AppData\Local\Temp\ccv2KUeF.s 			page 27


 1537              		.section	.text.UART_DMATxAbortCallback,"ax",%progbits
 1538              		.align	1
 1539              		.syntax unified
 1540              		.thumb
 1541              		.thumb_func
 1543              	UART_DMATxAbortCallback:
 1544              		@ args = 0, pretend = 0, frame = 0
 1545              		@ frame_needed = 0, uses_anonymous_args = 0
 1546 0000 806A     		ldr	r0, [r0, #40]
 1547 0002 C26E     		ldr	r2, [r0, #108]
 1548 0004 08B5     		push	{r3, lr}
 1549 0006 0023     		movs	r3, #0
 1550 0008 9363     		str	r3, [r2, #56]
 1551 000a 026F     		ldr	r2, [r0, #112]
 1552 000c 0AB1     		cbz	r2, .L267
 1553 000e 926B     		ldr	r2, [r2, #56]
 1554 0010 72B9     		cbnz	r2, .L266
 1555              	.L267:
 1556 0012 0268     		ldr	r2, [r0]
 1557 0014 A0F85230 		strh	r3, [r0, #82]	@ movhi
 1558 0018 0F21     		movs	r1, #15
 1559 001a A0F85A30 		strh	r3, [r0, #90]	@ movhi
 1560 001e C0F88030 		str	r3, [r0, #128]
 1561 0022 1162     		str	r1, [r2, #32]
 1562 0024 2022     		movs	r2, #32
 1563 0026 8267     		str	r2, [r0, #120]
 1564 0028 C267     		str	r2, [r0, #124]
 1565 002a 0366     		str	r3, [r0, #96]
 1566 002c FFF7FEFF 		bl	HAL_UART_AbortCpltCallback
 1567              	.L266:
 1568 0030 08BD     		pop	{r3, pc}
 1570              		.section	.text.HAL_UART_AbortTransmitCpltCallback,"ax",%progbits
 1571              		.align	1
 1572              		.weak	HAL_UART_AbortTransmitCpltCallback
 1573              		.syntax unified
 1574              		.thumb
 1575              		.thumb_func
 1577              	HAL_UART_AbortTransmitCpltCallback:
 1578              		@ args = 0, pretend = 0, frame = 0
 1579              		@ frame_needed = 0, uses_anonymous_args = 0
 1580              		@ link register save eliminated.
 1581 0000 7047     		bx	lr
 1583              		.section	.text.HAL_UART_AbortTransmit_IT,"ax",%progbits
 1584              		.align	1
 1585              		.global	HAL_UART_AbortTransmit_IT
 1586              		.syntax unified
 1587              		.thumb
 1588              		.thumb_func
 1590              	HAL_UART_AbortTransmit_IT:
 1591              		@ args = 0, pretend = 0, frame = 0
 1592              		@ frame_needed = 0, uses_anonymous_args = 0
 1593 0000 10B5     		push	{r4, lr}
 1594 0002 0446     		mov	r4, r0
 1595              	.L274:
 1596 0004 2268     		ldr	r2, [r4]
 1597              		.syntax unified
 1598              	@ 1155 "Drivers/CMSIS/Include/cmsis_gcc.h" 1
ARM GAS  C:\Users\CL\AppData\Local\Temp\ccv2KUeF.s 			page 28


 1599 0006 52E8003F 		ldrex r3, [r2]
 1600              	@ 0 "" 2
 1601              		.thumb
 1602              		.syntax unified
 1603 000a 23F0C003 		bic	r3, r3, #192
 1604              		.syntax unified
 1605              	@ 1206 "Drivers/CMSIS/Include/cmsis_gcc.h" 1
 1606 000e 42E80031 		strex r1, r3, [r2]
 1607              	@ 0 "" 2
 1608              		.thumb
 1609              		.syntax unified
 1610 0012 2268     		ldr	r2, [r4]
 1611 0014 0029     		cmp	r1, #0
 1612 0016 F5D1     		bne	.L274
 1613 0018 9368     		ldr	r3, [r2, #8]
 1614 001a 13F08003 		ands	r3, r3, #128
 1615 001e 20D0     		beq	.L275
 1616              	.L276:
 1617 0020 02F10803 		add	r3, r2, #8
 1618              		.syntax unified
 1619              	@ 1155 "Drivers/CMSIS/Include/cmsis_gcc.h" 1
 1620 0024 53E8003F 		ldrex r3, [r3]
 1621              	@ 0 "" 2
 1622              		.thumb
 1623              		.syntax unified
 1624 0028 23F08003 		bic	r3, r3, #128
 1625 002c 02F10800 		add	r0, r2, #8
 1626              		.syntax unified
 1627              	@ 1206 "Drivers/CMSIS/Include/cmsis_gcc.h" 1
 1628 0030 40E80031 		strex r1, r3, [r0]
 1629              	@ 0 "" 2
 1630              		.thumb
 1631              		.syntax unified
 1632 0034 0029     		cmp	r1, #0
 1633 0036 F3D1     		bne	.L276
 1634 0038 E06E     		ldr	r0, [r4, #108]
 1635 003a 48B1     		cbz	r0, .L277
 1636 003c 0B4B     		ldr	r3, .L285
 1637 003e 8363     		str	r3, [r0, #56]
 1638 0040 FFF7FEFF 		bl	HAL_DMA_Abort_IT
 1639 0044 10B1     		cbz	r0, .L278
 1640 0046 E06E     		ldr	r0, [r4, #108]
 1641 0048 836B     		ldr	r3, [r0, #56]
 1642 004a 9847     		blx	r3
 1643              	.L278:
 1644 004c 0020     		movs	r0, #0
 1645 004e 10BD     		pop	{r4, pc}
 1646              	.L277:
 1647 0050 A4F85200 		strh	r0, [r4, #82]	@ movhi
 1648 0054 A066     		str	r0, [r4, #104]
 1649              	.L284:
 1650 0056 2023     		movs	r3, #32
 1651 0058 A367     		str	r3, [r4, #120]
 1652 005a 2046     		mov	r0, r4
 1653 005c FFF7FEFF 		bl	HAL_UART_AbortTransmitCpltCallback
 1654 0060 F4E7     		b	.L278
 1655              	.L275:
ARM GAS  C:\Users\CL\AppData\Local\Temp\ccv2KUeF.s 			page 29


 1656 0062 A4F85230 		strh	r3, [r4, #82]	@ movhi
 1657 0066 A366     		str	r3, [r4, #104]
 1658 0068 F5E7     		b	.L284
 1659              	.L286:
 1660 006a 00BF     		.align	2
 1661              	.L285:
 1662 006c 00000000 		.word	UART_DMATxOnlyAbortCallback
 1664              		.section	.text.UART_DMATxOnlyAbortCallback,"ax",%progbits
 1665              		.align	1
 1666              		.syntax unified
 1667              		.thumb
 1668              		.thumb_func
 1670              	UART_DMATxOnlyAbortCallback:
 1671              		@ args = 0, pretend = 0, frame = 0
 1672              		@ frame_needed = 0, uses_anonymous_args = 0
 1673 0000 08B5     		push	{r3, lr}
 1674 0002 806A     		ldr	r0, [r0, #40]
 1675 0004 0023     		movs	r3, #0
 1676 0006 A0F85230 		strh	r3, [r0, #82]	@ movhi
 1677 000a 2023     		movs	r3, #32
 1678 000c 8367     		str	r3, [r0, #120]
 1679 000e FFF7FEFF 		bl	HAL_UART_AbortTransmitCpltCallback
 1680 0012 08BD     		pop	{r3, pc}
 1682              		.section	.text.HAL_UART_AbortReceiveCpltCallback,"ax",%progbits
 1683              		.align	1
 1684              		.weak	HAL_UART_AbortReceiveCpltCallback
 1685              		.syntax unified
 1686              		.thumb
 1687              		.thumb_func
 1689              	HAL_UART_AbortReceiveCpltCallback:
 1690              		@ args = 0, pretend = 0, frame = 0
 1691              		@ frame_needed = 0, uses_anonymous_args = 0
 1692              		@ link register save eliminated.
 1693 0000 7047     		bx	lr
 1695              		.section	.text.HAL_UART_AbortReceive_IT,"ax",%progbits
 1696              		.align	1
 1697              		.global	HAL_UART_AbortReceive_IT
 1698              		.syntax unified
 1699              		.thumb
 1700              		.thumb_func
 1702              	HAL_UART_AbortReceive_IT:
 1703              		@ args = 0, pretend = 0, frame = 0
 1704              		@ frame_needed = 0, uses_anonymous_args = 0
 1705 0000 10B5     		push	{r4, lr}
 1706 0002 0446     		mov	r4, r0
 1707              	.L290:
 1708 0004 2268     		ldr	r2, [r4]
 1709              		.syntax unified
 1710              	@ 1155 "Drivers/CMSIS/Include/cmsis_gcc.h" 1
 1711 0006 52E8003F 		ldrex r3, [r2]
 1712              	@ 0 "" 2
 1713              		.thumb
 1714              		.syntax unified
 1715 000a 23F49073 		bic	r3, r3, #288
 1716              		.syntax unified
 1717              	@ 1206 "Drivers/CMSIS/Include/cmsis_gcc.h" 1
 1718 000e 42E80031 		strex r1, r3, [r2]
ARM GAS  C:\Users\CL\AppData\Local\Temp\ccv2KUeF.s 			page 30


 1719              	@ 0 "" 2
 1720              		.thumb
 1721              		.syntax unified
 1722 0012 2368     		ldr	r3, [r4]
 1723 0014 0029     		cmp	r1, #0
 1724 0016 F5D1     		bne	.L290
 1725              	.L291:
 1726 0018 03F10802 		add	r2, r3, #8
 1727              		.syntax unified
 1728              	@ 1155 "Drivers/CMSIS/Include/cmsis_gcc.h" 1
 1729 001c 52E8002F 		ldrex r2, [r2]
 1730              	@ 0 "" 2
 1731              		.thumb
 1732              		.syntax unified
 1733 0020 22F00102 		bic	r2, r2, #1
 1734 0024 03F10800 		add	r0, r3, #8
 1735              		.syntax unified
 1736              	@ 1206 "Drivers/CMSIS/Include/cmsis_gcc.h" 1
 1737 0028 40E80021 		strex r1, r2, [r0]
 1738              	@ 0 "" 2
 1739              		.thumb
 1740              		.syntax unified
 1741 002c 0029     		cmp	r1, #0
 1742 002e F3D1     		bne	.L291
 1743 0030 226E     		ldr	r2, [r4, #96]
 1744 0032 012A     		cmp	r2, #1
 1745 0034 07D1     		bne	.L292
 1746              	.L293:
 1747              		.syntax unified
 1748              	@ 1155 "Drivers/CMSIS/Include/cmsis_gcc.h" 1
 1749 0036 53E8002F 		ldrex r2, [r3]
 1750              	@ 0 "" 2
 1751              		.thumb
 1752              		.syntax unified
 1753 003a 22F01002 		bic	r2, r2, #16
 1754              		.syntax unified
 1755              	@ 1206 "Drivers/CMSIS/Include/cmsis_gcc.h" 1
 1756 003e 43E80021 		strex r1, r2, [r3]
 1757              	@ 0 "" 2
 1758              		.thumb
 1759              		.syntax unified
 1760 0042 0029     		cmp	r1, #0
 1761 0044 F7D1     		bne	.L293
 1762              	.L292:
 1763 0046 9A68     		ldr	r2, [r3, #8]
 1764 0048 12F04002 		ands	r2, r2, #64
 1765 004c 28D0     		beq	.L294
 1766              	.L295:
 1767 004e 03F10802 		add	r2, r3, #8
 1768              		.syntax unified
 1769              	@ 1155 "Drivers/CMSIS/Include/cmsis_gcc.h" 1
 1770 0052 52E8002F 		ldrex r2, [r2]
 1771              	@ 0 "" 2
 1772              		.thumb
 1773              		.syntax unified
 1774 0056 22F04002 		bic	r2, r2, #64
 1775 005a 03F10800 		add	r0, r3, #8
ARM GAS  C:\Users\CL\AppData\Local\Temp\ccv2KUeF.s 			page 31


 1776              		.syntax unified
 1777              	@ 1206 "Drivers/CMSIS/Include/cmsis_gcc.h" 1
 1778 005e 40E80021 		strex r1, r2, [r0]
 1779              	@ 0 "" 2
 1780              		.thumb
 1781              		.syntax unified
 1782 0062 0029     		cmp	r1, #0
 1783 0064 F3D1     		bne	.L295
 1784 0066 206F     		ldr	r0, [r4, #112]
 1785 0068 48B1     		cbz	r0, .L296
 1786 006a 124B     		ldr	r3, .L306
 1787 006c 8363     		str	r3, [r0, #56]
 1788 006e FFF7FEFF 		bl	HAL_DMA_Abort_IT
 1789 0072 10B1     		cbz	r0, .L297
 1790 0074 206F     		ldr	r0, [r4, #112]
 1791 0076 836B     		ldr	r3, [r0, #56]
 1792 0078 9847     		blx	r3
 1793              	.L297:
 1794 007a 0020     		movs	r0, #0
 1795 007c 10BD     		pop	{r4, pc}
 1796              	.L296:
 1797 007e 0F22     		movs	r2, #15
 1798 0080 A4F85A00 		strh	r0, [r4, #90]	@ movhi
 1799 0084 6065     		str	r0, [r4, #84]
 1800 0086 1A62     		str	r2, [r3, #32]
 1801 0088 1A8B     		ldrh	r2, [r3, #24]
 1802 008a 92B2     		uxth	r2, r2
 1803 008c 42F00802 		orr	r2, r2, #8
 1804 0090 1A83     		strh	r2, [r3, #24]	@ movhi
 1805 0092 2023     		movs	r3, #32
 1806 0094 E367     		str	r3, [r4, #124]
 1807 0096 2066     		str	r0, [r4, #96]
 1808              	.L305:
 1809 0098 2046     		mov	r0, r4
 1810 009a FFF7FEFF 		bl	HAL_UART_AbortReceiveCpltCallback
 1811 009e ECE7     		b	.L297
 1812              	.L294:
 1813 00a0 0F21     		movs	r1, #15
 1814 00a2 A4F85A20 		strh	r2, [r4, #90]	@ movhi
 1815 00a6 6265     		str	r2, [r4, #84]
 1816 00a8 1962     		str	r1, [r3, #32]
 1817 00aa 2023     		movs	r3, #32
 1818 00ac E367     		str	r3, [r4, #124]
 1819 00ae 2266     		str	r2, [r4, #96]
 1820 00b0 F2E7     		b	.L305
 1821              	.L307:
 1822 00b2 00BF     		.align	2
 1823              	.L306:
 1824 00b4 00000000 		.word	UART_DMARxOnlyAbortCallback
 1826              		.section	.text.UART_DMARxOnlyAbortCallback,"ax",%progbits
 1827              		.align	1
 1828              		.syntax unified
 1829              		.thumb
 1830              		.thumb_func
 1832              	UART_DMARxOnlyAbortCallback:
 1833              		@ args = 0, pretend = 0, frame = 0
 1834              		@ frame_needed = 0, uses_anonymous_args = 0
ARM GAS  C:\Users\CL\AppData\Local\Temp\ccv2KUeF.s 			page 32


 1835 0000 806A     		ldr	r0, [r0, #40]
 1836 0002 0268     		ldr	r2, [r0]
 1837 0004 08B5     		push	{r3, lr}
 1838 0006 0021     		movs	r1, #0
 1839 0008 0F23     		movs	r3, #15
 1840 000a A0F85A10 		strh	r1, [r0, #90]	@ movhi
 1841 000e 1362     		str	r3, [r2, #32]
 1842 0010 138B     		ldrh	r3, [r2, #24]
 1843 0012 9BB2     		uxth	r3, r3
 1844 0014 43F00803 		orr	r3, r3, #8
 1845 0018 1383     		strh	r3, [r2, #24]	@ movhi
 1846 001a 2023     		movs	r3, #32
 1847 001c C367     		str	r3, [r0, #124]
 1848 001e 0166     		str	r1, [r0, #96]
 1849 0020 FFF7FEFF 		bl	HAL_UART_AbortReceiveCpltCallback
 1850 0024 08BD     		pop	{r3, pc}
 1852              		.section	.text.HAL_UARTEx_RxEventCallback,"ax",%progbits
 1853              		.align	1
 1854              		.weak	HAL_UARTEx_RxEventCallback
 1855              		.syntax unified
 1856              		.thumb
 1857              		.thumb_func
 1859              	HAL_UARTEx_RxEventCallback:
 1860              		@ args = 0, pretend = 0, frame = 0
 1861              		@ frame_needed = 0, uses_anonymous_args = 0
 1862              		@ link register save eliminated.
 1863 0000 7047     		bx	lr
 1865              		.section	.text.HAL_UART_IRQHandler,"ax",%progbits
 1866              		.align	1
 1867              		.global	HAL_UART_IRQHandler
 1868              		.syntax unified
 1869              		.thumb
 1870              		.thumb_func
 1872              	HAL_UART_IRQHandler:
 1873              		@ args = 0, pretend = 0, frame = 0
 1874              		@ frame_needed = 0, uses_anonymous_args = 0
 1875 0000 0368     		ldr	r3, [r0]
 1876 0002 DA69     		ldr	r2, [r3, #28]
 1877 0004 1968     		ldr	r1, [r3]
 1878 0006 70B5     		push	{r4, r5, r6, lr}
 1879 0008 40F60F06 		movw	r6, #2063
 1880 000c 3242     		tst	r2, r6
 1881 000e 9D68     		ldr	r5, [r3, #8]
 1882 0010 0446     		mov	r4, r0
 1883 0012 0BD1     		bne	.L311
 1884 0014 9606     		lsls	r6, r2, #26
 1885 0016 40F18880 		bpl	.L312
 1886 001a 8E06     		lsls	r6, r1, #26
 1887 001c 40F18580 		bpl	.L312
 1888 0020 436E     		ldr	r3, [r0, #100]
 1889 0022 002B     		cmp	r3, #0
 1890 0024 7BD0     		beq	.L310
 1891              	.L444:
 1892 0026 BDE87040 		pop	{r4, r5, r6, lr}
 1893 002a 1847     		bx	r3	@ indirect register sibling call
 1894              	.L311:
 1895 002c 954E     		ldr	r6, .L445
ARM GAS  C:\Users\CL\AppData\Local\Temp\ccv2KUeF.s 			page 33


 1896 002e 05F00100 		and	r0, r5, #1
 1897 0032 0E40     		ands	r6, r6, r1
 1898 0034 0643     		orrs	r6, r6, r0
 1899 0036 78D0     		beq	.L312
 1900 0038 D507     		lsls	r5, r2, #31
 1901 003a 09D5     		bpl	.L315
 1902 003c CE05     		lsls	r6, r1, #23
 1903 003e 07D5     		bpl	.L315
 1904 0040 0125     		movs	r5, #1
 1905 0042 1D62     		str	r5, [r3, #32]
 1906 0044 D4F88050 		ldr	r5, [r4, #128]
 1907 0048 45F00105 		orr	r5, r5, #1
 1908 004c C4F88050 		str	r5, [r4, #128]
 1909              	.L315:
 1910 0050 9507     		lsls	r5, r2, #30
 1911 0052 08D5     		bpl	.L316
 1912 0054 38B1     		cbz	r0, .L316
 1913 0056 0225     		movs	r5, #2
 1914 0058 1D62     		str	r5, [r3, #32]
 1915 005a D4F88050 		ldr	r5, [r4, #128]
 1916 005e 45F00405 		orr	r5, r5, #4
 1917 0062 C4F88050 		str	r5, [r4, #128]
 1918              	.L316:
 1919 0066 5607     		lsls	r6, r2, #29
 1920 0068 08D5     		bpl	.L317
 1921 006a 38B1     		cbz	r0, .L317
 1922 006c 0425     		movs	r5, #4
 1923 006e 1D62     		str	r5, [r3, #32]
 1924 0070 D4F88050 		ldr	r5, [r4, #128]
 1925 0074 45F00205 		orr	r5, r5, #2
 1926 0078 C4F88050 		str	r5, [r4, #128]
 1927              	.L317:
 1928 007c 1507     		lsls	r5, r2, #28
 1929 007e 0BD5     		bpl	.L318
 1930 0080 01F02005 		and	r5, r1, #32
 1931 0084 2843     		orrs	r0, r5, r0
 1932 0086 07D0     		beq	.L318
 1933 0088 0820     		movs	r0, #8
 1934 008a 1862     		str	r0, [r3, #32]
 1935 008c D4F88000 		ldr	r0, [r4, #128]
 1936 0090 40F00800 		orr	r0, r0, #8
 1937 0094 C4F88000 		str	r0, [r4, #128]
 1938              	.L318:
 1939 0098 1605     		lsls	r6, r2, #20
 1940 009a 0AD5     		bpl	.L319
 1941 009c 4D01     		lsls	r5, r1, #5
 1942 009e 08D5     		bpl	.L319
 1943 00a0 4FF40060 		mov	r0, #2048
 1944 00a4 1862     		str	r0, [r3, #32]
 1945 00a6 D4F88030 		ldr	r3, [r4, #128]
 1946 00aa 43F02003 		orr	r3, r3, #32
 1947 00ae C4F88030 		str	r3, [r4, #128]
 1948              	.L319:
 1949 00b2 D4F88030 		ldr	r3, [r4, #128]
 1950 00b6 002B     		cmp	r3, #0
 1951 00b8 31D0     		beq	.L310
 1952 00ba 9006     		lsls	r0, r2, #26
ARM GAS  C:\Users\CL\AppData\Local\Temp\ccv2KUeF.s 			page 34


 1953 00bc 05D5     		bpl	.L321
 1954 00be 8A06     		lsls	r2, r1, #26
 1955 00c0 03D5     		bpl	.L321
 1956 00c2 636E     		ldr	r3, [r4, #100]
 1957 00c4 0BB1     		cbz	r3, .L321
 1958 00c6 2046     		mov	r0, r4
 1959 00c8 9847     		blx	r3
 1960              	.L321:
 1961 00ca 2368     		ldr	r3, [r4]
 1962 00cc D4F88050 		ldr	r5, [r4, #128]
 1963 00d0 9B68     		ldr	r3, [r3, #8]
 1964 00d2 05F02805 		and	r5, r5, #40
 1965 00d6 03F04003 		and	r3, r3, #64
 1966 00da 1D43     		orrs	r5, r5, r3
 1967 00dc 2046     		mov	r0, r4
 1968 00de 1FD0     		beq	.L322
 1969 00e0 FFF7FEFF 		bl	UART_EndRxTransfer
 1970 00e4 2268     		ldr	r2, [r4]
 1971 00e6 9368     		ldr	r3, [r2, #8]
 1972 00e8 5B06     		lsls	r3, r3, #25
 1973 00ea 15D5     		bpl	.L323
 1974              	.L324:
 1975 00ec 02F10803 		add	r3, r2, #8
 1976              		.syntax unified
 1977              	@ 1155 "Drivers/CMSIS/Include/cmsis_gcc.h" 1
 1978 00f0 53E8003F 		ldrex r3, [r3]
 1979              	@ 0 "" 2
 1980              		.thumb
 1981              		.syntax unified
 1982 00f4 23F04003 		bic	r3, r3, #64
 1983 00f8 02F10800 		add	r0, r2, #8
 1984              		.syntax unified
 1985              	@ 1206 "Drivers/CMSIS/Include/cmsis_gcc.h" 1
 1986 00fc 40E80031 		strex r1, r3, [r0]
 1987              	@ 0 "" 2
 1988              		.thumb
 1989              		.syntax unified
 1990 0100 0029     		cmp	r1, #0
 1991 0102 F3D1     		bne	.L324
 1992 0104 206F     		ldr	r0, [r4, #112]
 1993 0106 38B1     		cbz	r0, .L323
 1994 0108 5F4B     		ldr	r3, .L445+4
 1995 010a 8363     		str	r3, [r0, #56]
 1996 010c FFF7FEFF 		bl	HAL_DMA_Abort_IT
 1997 0110 28B1     		cbz	r0, .L310
 1998 0112 206F     		ldr	r0, [r4, #112]
 1999 0114 836B     		ldr	r3, [r0, #56]
 2000 0116 86E7     		b	.L444
 2001              	.L323:
 2002 0118 2046     		mov	r0, r4
 2003 011a FFF7FEFF 		bl	HAL_UART_ErrorCallback
 2004              	.L310:
 2005 011e 70BD     		pop	{r4, r5, r6, pc}
 2006              	.L322:
 2007 0120 FFF7FEFF 		bl	HAL_UART_ErrorCallback
 2008 0124 C4F88050 		str	r5, [r4, #128]
 2009 0128 F9E7     		b	.L310
ARM GAS  C:\Users\CL\AppData\Local\Temp\ccv2KUeF.s 			page 35


 2010              	.L312:
 2011 012a 206E     		ldr	r0, [r4, #96]
 2012 012c 0128     		cmp	r0, #1
 2013 012e 7ED1     		bne	.L325
 2014 0130 D606     		lsls	r6, r2, #27
 2015 0132 7CD5     		bpl	.L325
 2016 0134 C806     		lsls	r0, r1, #27
 2017 0136 7AD5     		bpl	.L325
 2018 0138 1022     		movs	r2, #16
 2019 013a 1A62     		str	r2, [r3, #32]
 2020 013c 9A68     		ldr	r2, [r3, #8]
 2021 013e 5106     		lsls	r1, r2, #25
 2022 0140 46D5     		bpl	.L326
 2023 0142 226F     		ldr	r2, [r4, #112]
 2024 0144 1168     		ldr	r1, [r2]
 2025 0146 4A68     		ldr	r2, [r1, #4]
 2026 0148 92B2     		uxth	r2, r2
 2027 014a 002A     		cmp	r2, #0
 2028 014c E7D0     		beq	.L310
 2029 014e B4F85800 		ldrh	r0, [r4, #88]
 2030 0152 9042     		cmp	r0, r2
 2031 0154 E3D9     		bls	.L310
 2032 0156 A4F85A20 		strh	r2, [r4, #90]	@ movhi
 2033 015a 0A68     		ldr	r2, [r1]
 2034 015c 9206     		lsls	r2, r2, #26
 2035 015e 2DD4     		bmi	.L327
 2036              	.L328:
 2037              		.syntax unified
 2038              	@ 1155 "Drivers/CMSIS/Include/cmsis_gcc.h" 1
 2039 0160 53E8002F 		ldrex r2, [r3]
 2040              	@ 0 "" 2
 2041              		.thumb
 2042              		.syntax unified
 2043 0164 22F48072 		bic	r2, r2, #256
 2044              		.syntax unified
 2045              	@ 1206 "Drivers/CMSIS/Include/cmsis_gcc.h" 1
 2046 0168 43E80021 		strex r1, r2, [r3]
 2047              	@ 0 "" 2
 2048              		.thumb
 2049              		.syntax unified
 2050 016c 0029     		cmp	r1, #0
 2051 016e F7D1     		bne	.L328
 2052              	.L329:
 2053 0170 03F10802 		add	r2, r3, #8
 2054              		.syntax unified
 2055              	@ 1155 "Drivers/CMSIS/Include/cmsis_gcc.h" 1
 2056 0174 52E8002F 		ldrex r2, [r2]
 2057              	@ 0 "" 2
 2058              		.thumb
 2059              		.syntax unified
 2060 0178 22F00102 		bic	r2, r2, #1
 2061 017c 03F10800 		add	r0, r3, #8
 2062              		.syntax unified
 2063              	@ 1206 "Drivers/CMSIS/Include/cmsis_gcc.h" 1
 2064 0180 40E80021 		strex r1, r2, [r0]
 2065              	@ 0 "" 2
 2066              		.thumb
ARM GAS  C:\Users\CL\AppData\Local\Temp\ccv2KUeF.s 			page 36


 2067              		.syntax unified
 2068 0184 0029     		cmp	r1, #0
 2069 0186 F3D1     		bne	.L329
 2070              	.L330:
 2071 0188 03F10802 		add	r2, r3, #8
 2072              		.syntax unified
 2073              	@ 1155 "Drivers/CMSIS/Include/cmsis_gcc.h" 1
 2074 018c 52E8002F 		ldrex r2, [r2]
 2075              	@ 0 "" 2
 2076              		.thumb
 2077              		.syntax unified
 2078 0190 22F04002 		bic	r2, r2, #64
 2079 0194 03F10800 		add	r0, r3, #8
 2080              		.syntax unified
 2081              	@ 1206 "Drivers/CMSIS/Include/cmsis_gcc.h" 1
 2082 0198 40E80021 		strex r1, r2, [r0]
 2083              	@ 0 "" 2
 2084              		.thumb
 2085              		.syntax unified
 2086 019c 0029     		cmp	r1, #0
 2087 019e F3D1     		bne	.L330
 2088 01a0 2022     		movs	r2, #32
 2089 01a2 E267     		str	r2, [r4, #124]
 2090 01a4 2166     		str	r1, [r4, #96]
 2091              	.L331:
 2092              		.syntax unified
 2093              	@ 1155 "Drivers/CMSIS/Include/cmsis_gcc.h" 1
 2094 01a6 53E8002F 		ldrex r2, [r3]
 2095              	@ 0 "" 2
 2096              		.thumb
 2097              		.syntax unified
 2098 01aa 22F01002 		bic	r2, r2, #16
 2099              		.syntax unified
 2100              	@ 1206 "Drivers/CMSIS/Include/cmsis_gcc.h" 1
 2101 01ae 43E80021 		strex r1, r2, [r3]
 2102              	@ 0 "" 2
 2103              		.thumb
 2104              		.syntax unified
 2105 01b2 0029     		cmp	r1, #0
 2106 01b4 F7D1     		bne	.L331
 2107 01b6 206F     		ldr	r0, [r4, #112]
 2108 01b8 FFF7FEFF 		bl	HAL_DMA_Abort
 2109              	.L327:
 2110 01bc B4F85A30 		ldrh	r3, [r4, #90]
 2111 01c0 B4F85810 		ldrh	r1, [r4, #88]
 2112 01c4 C91A     		subs	r1, r1, r3
 2113 01c6 89B2     		uxth	r1, r1
 2114              	.L443:
 2115 01c8 2046     		mov	r0, r4
 2116 01ca FFF7FEFF 		bl	HAL_UARTEx_RxEventCallback
 2117 01ce A6E7     		b	.L310
 2118              	.L326:
 2119 01d0 B4F85A10 		ldrh	r1, [r4, #90]
 2120 01d4 8AB2     		uxth	r2, r1
 2121 01d6 B4F85A10 		ldrh	r1, [r4, #90]
 2122 01da 89B2     		uxth	r1, r1
 2123 01dc 0029     		cmp	r1, #0
ARM GAS  C:\Users\CL\AppData\Local\Temp\ccv2KUeF.s 			page 37


 2124 01de 9ED0     		beq	.L310
 2125 01e0 B4F85810 		ldrh	r1, [r4, #88]
 2126 01e4 891A     		subs	r1, r1, r2
 2127 01e6 89B2     		uxth	r1, r1
 2128 01e8 0029     		cmp	r1, #0
 2129 01ea 98D0     		beq	.L310
 2130              	.L332:
 2131              		.syntax unified
 2132              	@ 1155 "Drivers/CMSIS/Include/cmsis_gcc.h" 1
 2133 01ec 53E8002F 		ldrex r2, [r3]
 2134              	@ 0 "" 2
 2135              		.thumb
 2136              		.syntax unified
 2137 01f0 22F49072 		bic	r2, r2, #288
 2138              		.syntax unified
 2139              	@ 1206 "Drivers/CMSIS/Include/cmsis_gcc.h" 1
 2140 01f4 43E80020 		strex r0, r2, [r3]
 2141              	@ 0 "" 2
 2142              		.thumb
 2143              		.syntax unified
 2144 01f8 0028     		cmp	r0, #0
 2145 01fa F7D1     		bne	.L332
 2146              	.L333:
 2147 01fc 03F10802 		add	r2, r3, #8
 2148              		.syntax unified
 2149              	@ 1155 "Drivers/CMSIS/Include/cmsis_gcc.h" 1
 2150 0200 52E8002F 		ldrex r2, [r2]
 2151              	@ 0 "" 2
 2152              		.thumb
 2153              		.syntax unified
 2154 0204 22F00102 		bic	r2, r2, #1
 2155 0208 03F10805 		add	r5, r3, #8
 2156              		.syntax unified
 2157              	@ 1206 "Drivers/CMSIS/Include/cmsis_gcc.h" 1
 2158 020c 45E80020 		strex r0, r2, [r5]
 2159              	@ 0 "" 2
 2160              		.thumb
 2161              		.syntax unified
 2162 0210 0028     		cmp	r0, #0
 2163 0212 F3D1     		bne	.L333
 2164 0214 2022     		movs	r2, #32
 2165 0216 E267     		str	r2, [r4, #124]
 2166 0218 6066     		str	r0, [r4, #100]
 2167 021a 2066     		str	r0, [r4, #96]
 2168              	.L334:
 2169              		.syntax unified
 2170              	@ 1155 "Drivers/CMSIS/Include/cmsis_gcc.h" 1
 2171 021c 53E8002F 		ldrex r2, [r3]
 2172              	@ 0 "" 2
 2173              		.thumb
 2174              		.syntax unified
 2175 0220 22F01002 		bic	r2, r2, #16
 2176              		.syntax unified
 2177              	@ 1206 "Drivers/CMSIS/Include/cmsis_gcc.h" 1
 2178 0224 43E80020 		strex r0, r2, [r3]
 2179              	@ 0 "" 2
 2180              		.thumb
ARM GAS  C:\Users\CL\AppData\Local\Temp\ccv2KUeF.s 			page 38


 2181              		.syntax unified
 2182 0228 0028     		cmp	r0, #0
 2183 022a F7D1     		bne	.L334
 2184 022c CCE7     		b	.L443
 2185              	.L325:
 2186 022e D602     		lsls	r6, r2, #11
 2187 0230 09D5     		bpl	.L335
 2188 0232 6802     		lsls	r0, r5, #9
 2189 0234 07D5     		bpl	.L335
 2190 0236 4FF48012 		mov	r2, #1048576
 2191 023a 2046     		mov	r0, r4
 2192 023c 1A62     		str	r2, [r3, #32]
 2193 023e BDE87040 		pop	{r4, r5, r6, lr}
 2194 0242 FFF7FEBF 		b	HAL_UARTEx_WakeupCallback
 2195              	.L335:
 2196 0246 1606     		lsls	r6, r2, #24
 2197 0248 07D5     		bpl	.L336
 2198 024a 0D06     		lsls	r5, r1, #24
 2199 024c 05D5     		bpl	.L336
 2200 024e A36E     		ldr	r3, [r4, #104]
 2201 0250 002B     		cmp	r3, #0
 2202 0252 3FF464AF 		beq	.L310
 2203 0256 2046     		mov	r0, r4
 2204 0258 E5E6     		b	.L444
 2205              	.L336:
 2206 025a 5006     		lsls	r0, r2, #25
 2207 025c 7FF55FAF 		bpl	.L310
 2208 0260 4A06     		lsls	r2, r1, #25
 2209 0262 7FF55CAF 		bpl	.L310
 2210              	.L337:
 2211              		.syntax unified
 2212              	@ 1155 "Drivers/CMSIS/Include/cmsis_gcc.h" 1
 2213 0266 53E8002F 		ldrex r2, [r3]
 2214              	@ 0 "" 2
 2215              		.thumb
 2216              		.syntax unified
 2217 026a 22F04002 		bic	r2, r2, #64
 2218              		.syntax unified
 2219              	@ 1206 "Drivers/CMSIS/Include/cmsis_gcc.h" 1
 2220 026e 43E80021 		strex r1, r2, [r3]
 2221              	@ 0 "" 2
 2222              		.thumb
 2223              		.syntax unified
 2224 0272 0029     		cmp	r1, #0
 2225 0274 F7D1     		bne	.L337
 2226 0276 2023     		movs	r3, #32
 2227 0278 A367     		str	r3, [r4, #120]
 2228 027a A166     		str	r1, [r4, #104]
 2229 027c 2046     		mov	r0, r4
 2230 027e FFF7FEFF 		bl	HAL_UART_TxCpltCallback
 2231 0282 4CE7     		b	.L310
 2232              	.L446:
 2233              		.align	2
 2234              	.L445:
 2235 0284 20010004 		.word	67109152
 2236 0288 00000000 		.word	UART_DMAAbortOnError
 2238              		.section	.text.UART_RxISR_8BIT,"ax",%progbits
ARM GAS  C:\Users\CL\AppData\Local\Temp\ccv2KUeF.s 			page 39


 2239              		.align	1
 2240              		.syntax unified
 2241              		.thumb
 2242              		.thumb_func
 2244              	UART_RxISR_8BIT:
 2245              		@ args = 0, pretend = 0, frame = 0
 2246              		@ frame_needed = 0, uses_anonymous_args = 0
 2247 0000 08B5     		push	{r3, lr}
 2248 0002 C36F     		ldr	r3, [r0, #124]
 2249 0004 0268     		ldr	r2, [r0]
 2250 0006 222B     		cmp	r3, #34
 2251 0008 44D1     		bne	.L448
 2252 000a 938C     		ldrh	r3, [r2, #36]
 2253 000c B0F85C10 		ldrh	r1, [r0, #92]
 2254 0010 426D     		ldr	r2, [r0, #84]
 2255 0012 0B40     		ands	r3, r3, r1
 2256 0014 1370     		strb	r3, [r2]
 2257 0016 436D     		ldr	r3, [r0, #84]
 2258 0018 0133     		adds	r3, r3, #1
 2259 001a 4365     		str	r3, [r0, #84]
 2260 001c B0F85A30 		ldrh	r3, [r0, #90]
 2261 0020 013B     		subs	r3, r3, #1
 2262 0022 9BB2     		uxth	r3, r3
 2263 0024 A0F85A30 		strh	r3, [r0, #90]	@ movhi
 2264 0028 B0F85A30 		ldrh	r3, [r0, #90]
 2265 002c 9BB2     		uxth	r3, r3
 2266 002e 6BBB     		cbnz	r3, .L447
 2267              	.L450:
 2268 0030 0268     		ldr	r2, [r0]
 2269              		.syntax unified
 2270              	@ 1155 "Drivers/CMSIS/Include/cmsis_gcc.h" 1
 2271 0032 52E8003F 		ldrex r3, [r2]
 2272              	@ 0 "" 2
 2273              		.thumb
 2274              		.syntax unified
 2275 0036 23F49073 		bic	r3, r3, #288
 2276              		.syntax unified
 2277              	@ 1206 "Drivers/CMSIS/Include/cmsis_gcc.h" 1
 2278 003a 42E80031 		strex r1, r3, [r2]
 2279              	@ 0 "" 2
 2280              		.thumb
 2281              		.syntax unified
 2282 003e 0368     		ldr	r3, [r0]
 2283 0040 0029     		cmp	r1, #0
 2284 0042 F5D1     		bne	.L450
 2285              	.L451:
 2286 0044 03F10802 		add	r2, r3, #8
 2287              		.syntax unified
 2288              	@ 1155 "Drivers/CMSIS/Include/cmsis_gcc.h" 1
 2289 0048 52E8002F 		ldrex r2, [r2]
 2290              	@ 0 "" 2
 2291              		.thumb
 2292              		.syntax unified
 2293 004c 22F00102 		bic	r2, r2, #1
 2294 0050 03F1080C 		add	ip, r3, #8
 2295              		.syntax unified
 2296              	@ 1206 "Drivers/CMSIS/Include/cmsis_gcc.h" 1
ARM GAS  C:\Users\CL\AppData\Local\Temp\ccv2KUeF.s 			page 40


 2297 0054 4CE80021 		strex r1, r2, [ip]
 2298              	@ 0 "" 2
 2299              		.thumb
 2300              		.syntax unified
 2301 0058 0029     		cmp	r1, #0
 2302 005a F3D1     		bne	.L451
 2303 005c 2022     		movs	r2, #32
 2304 005e C267     		str	r2, [r0, #124]
 2305 0060 026E     		ldr	r2, [r0, #96]
 2306 0062 4166     		str	r1, [r0, #100]
 2307 0064 012A     		cmp	r2, #1
 2308 0066 12D1     		bne	.L452
 2309 0068 0166     		str	r1, [r0, #96]
 2310              	.L453:
 2311              		.syntax unified
 2312              	@ 1155 "Drivers/CMSIS/Include/cmsis_gcc.h" 1
 2313 006a 53E8002F 		ldrex r2, [r3]
 2314              	@ 0 "" 2
 2315              		.thumb
 2316              		.syntax unified
 2317 006e 22F01002 		bic	r2, r2, #16
 2318              		.syntax unified
 2319              	@ 1206 "Drivers/CMSIS/Include/cmsis_gcc.h" 1
 2320 0072 43E80021 		strex r1, r2, [r3]
 2321              	@ 0 "" 2
 2322              		.thumb
 2323              		.syntax unified
 2324 0076 0029     		cmp	r1, #0
 2325 0078 F7D1     		bne	.L453
 2326 007a DA69     		ldr	r2, [r3, #28]
 2327 007c B0F85810 		ldrh	r1, [r0, #88]
 2328 0080 D206     		lsls	r2, r2, #27
 2329 0082 44BF     		itt	mi
 2330 0084 1022     		movmi	r2, #16
 2331 0086 1A62     		strmi	r2, [r3, #32]
 2332 0088 FFF7FEFF 		bl	HAL_UARTEx_RxEventCallback
 2333              	.L447:
 2334 008c 08BD     		pop	{r3, pc}
 2335              	.L452:
 2336 008e FFF7FEFF 		bl	HAL_UART_RxCpltCallback
 2337 0092 FBE7     		b	.L447
 2338              	.L448:
 2339 0094 138B     		ldrh	r3, [r2, #24]
 2340 0096 9BB2     		uxth	r3, r3
 2341 0098 43F00803 		orr	r3, r3, #8
 2342 009c 1383     		strh	r3, [r2, #24]	@ movhi
 2343 009e F5E7     		b	.L447
 2345              		.section	.text.UART_RxISR_16BIT,"ax",%progbits
 2346              		.align	1
 2347              		.syntax unified
 2348              		.thumb
 2349              		.thumb_func
 2351              	UART_RxISR_16BIT:
 2352              		@ args = 0, pretend = 0, frame = 0
 2353              		@ frame_needed = 0, uses_anonymous_args = 0
 2354 0000 C26F     		ldr	r2, [r0, #124]
 2355 0002 222A     		cmp	r2, #34
ARM GAS  C:\Users\CL\AppData\Local\Temp\ccv2KUeF.s 			page 41


 2356 0004 08B5     		push	{r3, lr}
 2357 0006 0368     		ldr	r3, [r0]
 2358 0008 41D1     		bne	.L462
 2359 000a 998C     		ldrh	r1, [r3, #36]
 2360 000c B0F85C20 		ldrh	r2, [r0, #92]
 2361 0010 1140     		ands	r1, r1, r2
 2362 0012 426D     		ldr	r2, [r0, #84]
 2363 0014 22F8021B 		strh	r1, [r2], #2	@ movhi
 2364 0018 4265     		str	r2, [r0, #84]
 2365 001a B0F85A20 		ldrh	r2, [r0, #90]
 2366 001e 013A     		subs	r2, r2, #1
 2367 0020 92B2     		uxth	r2, r2
 2368 0022 A0F85A20 		strh	r2, [r0, #90]	@ movhi
 2369 0026 B0F85A20 		ldrh	r2, [r0, #90]
 2370 002a 92B2     		uxth	r2, r2
 2371 002c 5ABB     		cbnz	r2, .L461
 2372              	.L464:
 2373              		.syntax unified
 2374              	@ 1155 "Drivers/CMSIS/Include/cmsis_gcc.h" 1
 2375 002e 53E8002F 		ldrex r2, [r3]
 2376              	@ 0 "" 2
 2377              		.thumb
 2378              		.syntax unified
 2379 0032 22F49072 		bic	r2, r2, #288
 2380              		.syntax unified
 2381              	@ 1206 "Drivers/CMSIS/Include/cmsis_gcc.h" 1
 2382 0036 43E80021 		strex r1, r2, [r3]
 2383              	@ 0 "" 2
 2384              		.thumb
 2385              		.syntax unified
 2386 003a 0029     		cmp	r1, #0
 2387 003c F7D1     		bne	.L464
 2388              	.L465:
 2389 003e 03F10802 		add	r2, r3, #8
 2390              		.syntax unified
 2391              	@ 1155 "Drivers/CMSIS/Include/cmsis_gcc.h" 1
 2392 0042 52E8002F 		ldrex r2, [r2]
 2393              	@ 0 "" 2
 2394              		.thumb
 2395              		.syntax unified
 2396 0046 22F00102 		bic	r2, r2, #1
 2397 004a 03F1080C 		add	ip, r3, #8
 2398              		.syntax unified
 2399              	@ 1206 "Drivers/CMSIS/Include/cmsis_gcc.h" 1
 2400 004e 4CE80021 		strex r1, r2, [ip]
 2401              	@ 0 "" 2
 2402              		.thumb
 2403              		.syntax unified
 2404 0052 0029     		cmp	r1, #0
 2405 0054 F3D1     		bne	.L465
 2406 0056 2022     		movs	r2, #32
 2407 0058 C267     		str	r2, [r0, #124]
 2408 005a 026E     		ldr	r2, [r0, #96]
 2409 005c 4166     		str	r1, [r0, #100]
 2410 005e 012A     		cmp	r2, #1
 2411 0060 12D1     		bne	.L466
 2412 0062 0166     		str	r1, [r0, #96]
ARM GAS  C:\Users\CL\AppData\Local\Temp\ccv2KUeF.s 			page 42


 2413              	.L467:
 2414              		.syntax unified
 2415              	@ 1155 "Drivers/CMSIS/Include/cmsis_gcc.h" 1
 2416 0064 53E8002F 		ldrex r2, [r3]
 2417              	@ 0 "" 2
 2418              		.thumb
 2419              		.syntax unified
 2420 0068 22F01002 		bic	r2, r2, #16
 2421              		.syntax unified
 2422              	@ 1206 "Drivers/CMSIS/Include/cmsis_gcc.h" 1
 2423 006c 43E80021 		strex r1, r2, [r3]
 2424              	@ 0 "" 2
 2425              		.thumb
 2426              		.syntax unified
 2427 0070 0029     		cmp	r1, #0
 2428 0072 F7D1     		bne	.L467
 2429 0074 DA69     		ldr	r2, [r3, #28]
 2430 0076 B0F85810 		ldrh	r1, [r0, #88]
 2431 007a D206     		lsls	r2, r2, #27
 2432 007c 44BF     		itt	mi
 2433 007e 1022     		movmi	r2, #16
 2434 0080 1A62     		strmi	r2, [r3, #32]
 2435 0082 FFF7FEFF 		bl	HAL_UARTEx_RxEventCallback
 2436              	.L461:
 2437 0086 08BD     		pop	{r3, pc}
 2438              	.L466:
 2439 0088 FFF7FEFF 		bl	HAL_UART_RxCpltCallback
 2440 008c FBE7     		b	.L461
 2441              	.L462:
 2442 008e 1A8B     		ldrh	r2, [r3, #24]
 2443 0090 92B2     		uxth	r2, r2
 2444 0092 42F00802 		orr	r2, r2, #8
 2445 0096 1A83     		strh	r2, [r3, #24]	@ movhi
 2446 0098 F5E7     		b	.L461
 2448              		.section	.text.UART_DMARxHalfCplt,"ax",%progbits
 2449              		.align	1
 2450              		.syntax unified
 2451              		.thumb
 2452              		.thumb_func
 2454              	UART_DMARxHalfCplt:
 2455              		@ args = 0, pretend = 0, frame = 0
 2456              		@ frame_needed = 0, uses_anonymous_args = 0
 2457 0000 806A     		ldr	r0, [r0, #40]
 2458 0002 08B5     		push	{r3, lr}
 2459 0004 036E     		ldr	r3, [r0, #96]
 2460 0006 012B     		cmp	r3, #1
 2461 0008 05D1     		bne	.L476
 2462 000a B0F85810 		ldrh	r1, [r0, #88]
 2463 000e 4908     		lsrs	r1, r1, #1
 2464 0010 FFF7FEFF 		bl	HAL_UARTEx_RxEventCallback
 2465              	.L475:
 2466 0014 08BD     		pop	{r3, pc}
 2467              	.L476:
 2468 0016 FFF7FEFF 		bl	HAL_UART_RxHalfCpltCallback
 2469 001a FBE7     		b	.L475
 2471              		.section	.text.UART_DMAReceiveCplt,"ax",%progbits
 2472              		.align	1
ARM GAS  C:\Users\CL\AppData\Local\Temp\ccv2KUeF.s 			page 43


 2473              		.syntax unified
 2474              		.thumb
 2475              		.thumb_func
 2477              	UART_DMAReceiveCplt:
 2478              		@ args = 0, pretend = 0, frame = 0
 2479              		@ frame_needed = 0, uses_anonymous_args = 0
 2480 0000 08B5     		push	{r3, lr}
 2481 0002 0346     		mov	r3, r0
 2482 0004 806A     		ldr	r0, [r0, #40]
 2483 0006 1B68     		ldr	r3, [r3]
 2484 0008 1B68     		ldr	r3, [r3]
 2485 000a 13F02003 		ands	r3, r3, #32
 2486 000e 30D1     		bne	.L479
 2487 0010 A0F85A30 		strh	r3, [r0, #90]	@ movhi
 2488              	.L480:
 2489 0014 0268     		ldr	r2, [r0]
 2490              		.syntax unified
 2491              	@ 1155 "Drivers/CMSIS/Include/cmsis_gcc.h" 1
 2492 0016 52E8003F 		ldrex r3, [r2]
 2493              	@ 0 "" 2
 2494              		.thumb
 2495              		.syntax unified
 2496 001a 23F48073 		bic	r3, r3, #256
 2497              		.syntax unified
 2498              	@ 1206 "Drivers/CMSIS/Include/cmsis_gcc.h" 1
 2499 001e 42E80031 		strex r1, r3, [r2]
 2500              	@ 0 "" 2
 2501              		.thumb
 2502              		.syntax unified
 2503 0022 0368     		ldr	r3, [r0]
 2504 0024 0029     		cmp	r1, #0
 2505 0026 F5D1     		bne	.L480
 2506              	.L481:
 2507 0028 03F10802 		add	r2, r3, #8
 2508              		.syntax unified
 2509              	@ 1155 "Drivers/CMSIS/Include/cmsis_gcc.h" 1
 2510 002c 52E8002F 		ldrex r2, [r2]
 2511              	@ 0 "" 2
 2512              		.thumb
 2513              		.syntax unified
 2514 0030 22F00102 		bic	r2, r2, #1
 2515 0034 03F1080C 		add	ip, r3, #8
 2516              		.syntax unified
 2517              	@ 1206 "Drivers/CMSIS/Include/cmsis_gcc.h" 1
 2518 0038 4CE80021 		strex r1, r2, [ip]
 2519              	@ 0 "" 2
 2520              		.thumb
 2521              		.syntax unified
 2522 003c 0029     		cmp	r1, #0
 2523 003e F3D1     		bne	.L481
 2524              	.L482:
 2525 0040 03F10802 		add	r2, r3, #8
 2526              		.syntax unified
 2527              	@ 1155 "Drivers/CMSIS/Include/cmsis_gcc.h" 1
 2528 0044 52E8002F 		ldrex r2, [r2]
 2529              	@ 0 "" 2
 2530              		.thumb
ARM GAS  C:\Users\CL\AppData\Local\Temp\ccv2KUeF.s 			page 44


 2531              		.syntax unified
 2532 0048 22F04002 		bic	r2, r2, #64
 2533 004c 03F1080C 		add	ip, r3, #8
 2534              		.syntax unified
 2535              	@ 1206 "Drivers/CMSIS/Include/cmsis_gcc.h" 1
 2536 0050 4CE80021 		strex r1, r2, [ip]
 2537              	@ 0 "" 2
 2538              		.thumb
 2539              		.syntax unified
 2540 0054 0029     		cmp	r1, #0
 2541 0056 F3D1     		bne	.L482
 2542 0058 2022     		movs	r2, #32
 2543 005a C267     		str	r2, [r0, #124]
 2544 005c 026E     		ldr	r2, [r0, #96]
 2545 005e 012A     		cmp	r2, #1
 2546 0060 07D1     		bne	.L479
 2547              	.L483:
 2548              		.syntax unified
 2549              	@ 1155 "Drivers/CMSIS/Include/cmsis_gcc.h" 1
 2550 0062 53E8002F 		ldrex r2, [r3]
 2551              	@ 0 "" 2
 2552              		.thumb
 2553              		.syntax unified
 2554 0066 22F01002 		bic	r2, r2, #16
 2555              		.syntax unified
 2556              	@ 1206 "Drivers/CMSIS/Include/cmsis_gcc.h" 1
 2557 006a 43E80021 		strex r1, r2, [r3]
 2558              	@ 0 "" 2
 2559              		.thumb
 2560              		.syntax unified
 2561 006e 0029     		cmp	r1, #0
 2562 0070 F7D1     		bne	.L483
 2563              	.L479:
 2564 0072 036E     		ldr	r3, [r0, #96]
 2565 0074 012B     		cmp	r3, #1
 2566 0076 04D1     		bne	.L484
 2567 0078 B0F85810 		ldrh	r1, [r0, #88]
 2568 007c FFF7FEFF 		bl	HAL_UARTEx_RxEventCallback
 2569              	.L478:
 2570 0080 08BD     		pop	{r3, pc}
 2571              	.L484:
 2572 0082 FFF7FEFF 		bl	HAL_UART_RxCpltCallback
 2573 0086 FBE7     		b	.L478
 2575              		.section	.text.HAL_UART_ReceiverTimeout_Config,"ax",%progbits
 2576              		.align	1
 2577              		.global	HAL_UART_ReceiverTimeout_Config
 2578              		.syntax unified
 2579              		.thumb
 2580              		.thumb_func
 2582              	HAL_UART_ReceiverTimeout_Config:
 2583              		@ args = 0, pretend = 0, frame = 0
 2584              		@ frame_needed = 0, uses_anonymous_args = 0
 2585              		@ link register save eliminated.
 2586 0000 044B     		ldr	r3, .L492
 2587 0002 0268     		ldr	r2, [r0]
 2588 0004 9A42     		cmp	r2, r3
 2589 0006 1FBF     		itttt	ne
ARM GAS  C:\Users\CL\AppData\Local\Temp\ccv2KUeF.s 			page 45


 2590 0008 5369     		ldrne	r3, [r2, #20]
 2591 000a 03F07F43 		andne	r3, r3, #-16777216
 2592 000e 1943     		orrne	r1, r1, r3
 2593 0010 5161     		strne	r1, [r2, #20]
 2594 0012 7047     		bx	lr
 2595              	.L493:
 2596              		.align	2
 2597              	.L492:
 2598 0014 00800040 		.word	1073774592
 2600              		.section	.text.HAL_UART_EnableReceiverTimeout,"ax",%progbits
 2601              		.align	1
 2602              		.global	HAL_UART_EnableReceiverTimeout
 2603              		.syntax unified
 2604              		.thumb
 2605              		.thumb_func
 2607              	HAL_UART_EnableReceiverTimeout:
 2608              		@ args = 0, pretend = 0, frame = 0
 2609              		@ frame_needed = 0, uses_anonymous_args = 0
 2610              		@ link register save eliminated.
 2611 0000 0368     		ldr	r3, [r0]
 2612 0002 0D4A     		ldr	r2, .L499
 2613 0004 9342     		cmp	r3, r2
 2614 0006 12D0     		beq	.L496
 2615 0008 816F     		ldr	r1, [r0, #120]
 2616 000a 2029     		cmp	r1, #32
 2617 000c 11D1     		bne	.L498
 2618 000e 90F87420 		ldrb	r2, [r0, #116]	@ zero_extendqisi2
 2619 0012 012A     		cmp	r2, #1
 2620 0014 0DD0     		beq	.L498
 2621 0016 2422     		movs	r2, #36
 2622 0018 8267     		str	r2, [r0, #120]
 2623 001a 5A68     		ldr	r2, [r3, #4]
 2624 001c 42F40002 		orr	r2, r2, #8388608
 2625 0020 5A60     		str	r2, [r3, #4]
 2626 0022 0023     		movs	r3, #0
 2627 0024 8167     		str	r1, [r0, #120]
 2628 0026 80F87430 		strb	r3, [r0, #116]
 2629 002a 1846     		mov	r0, r3
 2630 002c 7047     		bx	lr
 2631              	.L496:
 2632 002e 0120     		movs	r0, #1
 2633 0030 7047     		bx	lr
 2634              	.L498:
 2635 0032 0220     		movs	r0, #2
 2636 0034 7047     		bx	lr
 2637              	.L500:
 2638 0036 00BF     		.align	2
 2639              	.L499:
 2640 0038 00800040 		.word	1073774592
 2642              		.section	.text.HAL_UART_DisableReceiverTimeout,"ax",%progbits
 2643              		.align	1
 2644              		.global	HAL_UART_DisableReceiverTimeout
 2645              		.syntax unified
 2646              		.thumb
 2647              		.thumb_func
 2649              	HAL_UART_DisableReceiverTimeout:
 2650              		@ args = 0, pretend = 0, frame = 0
ARM GAS  C:\Users\CL\AppData\Local\Temp\ccv2KUeF.s 			page 46


 2651              		@ frame_needed = 0, uses_anonymous_args = 0
 2652              		@ link register save eliminated.
 2653 0000 0368     		ldr	r3, [r0]
 2654 0002 0D4A     		ldr	r2, .L506
 2655 0004 9342     		cmp	r3, r2
 2656 0006 12D0     		beq	.L503
 2657 0008 816F     		ldr	r1, [r0, #120]
 2658 000a 2029     		cmp	r1, #32
 2659 000c 11D1     		bne	.L505
 2660 000e 90F87420 		ldrb	r2, [r0, #116]	@ zero_extendqisi2
 2661 0012 012A     		cmp	r2, #1
 2662 0014 0DD0     		beq	.L505
 2663 0016 2422     		movs	r2, #36
 2664 0018 8267     		str	r2, [r0, #120]
 2665 001a 5A68     		ldr	r2, [r3, #4]
 2666 001c 22F40002 		bic	r2, r2, #8388608
 2667 0020 5A60     		str	r2, [r3, #4]
 2668 0022 0023     		movs	r3, #0
 2669 0024 8167     		str	r1, [r0, #120]
 2670 0026 80F87430 		strb	r3, [r0, #116]
 2671 002a 1846     		mov	r0, r3
 2672 002c 7047     		bx	lr
 2673              	.L503:
 2674 002e 0120     		movs	r0, #1
 2675 0030 7047     		bx	lr
 2676              	.L505:
 2677 0032 0220     		movs	r0, #2
 2678 0034 7047     		bx	lr
 2679              	.L507:
 2680 0036 00BF     		.align	2
 2681              	.L506:
 2682 0038 00800040 		.word	1073774592
 2684              		.section	.text.HAL_MultiProcessor_EnterMuteMode,"ax",%progbits
 2685              		.align	1
 2686              		.global	HAL_MultiProcessor_EnterMuteMode
 2687              		.syntax unified
 2688              		.thumb
 2689              		.thumb_func
 2691              	HAL_MultiProcessor_EnterMuteMode:
 2692              		@ args = 0, pretend = 0, frame = 0
 2693              		@ frame_needed = 0, uses_anonymous_args = 0
 2694              		@ link register save eliminated.
 2695 0000 0268     		ldr	r2, [r0]
 2696 0002 138B     		ldrh	r3, [r2, #24]
 2697 0004 9BB2     		uxth	r3, r3
 2698 0006 43F00403 		orr	r3, r3, #4
 2699 000a 1383     		strh	r3, [r2, #24]	@ movhi
 2700 000c 7047     		bx	lr
 2702              		.section	.text.HAL_HalfDuplex_EnableTransmitter,"ax",%progbits
 2703              		.align	1
 2704              		.global	HAL_HalfDuplex_EnableTransmitter
 2705              		.syntax unified
 2706              		.thumb
 2707              		.thumb_func
 2709              	HAL_HalfDuplex_EnableTransmitter:
 2710              		@ args = 0, pretend = 0, frame = 0
 2711              		@ frame_needed = 0, uses_anonymous_args = 0
ARM GAS  C:\Users\CL\AppData\Local\Temp\ccv2KUeF.s 			page 47


 2712 0000 10B5     		push	{r4, lr}
 2713 0002 90F87430 		ldrb	r3, [r0, #116]	@ zero_extendqisi2
 2714 0006 012B     		cmp	r3, #1
 2715 0008 1CD0     		beq	.L513
 2716 000a 0123     		movs	r3, #1
 2717 000c 80F87430 		strb	r3, [r0, #116]
 2718 0010 2423     		movs	r3, #36
 2719 0012 8367     		str	r3, [r0, #120]
 2720              	.L511:
 2721 0014 0268     		ldr	r2, [r0]
 2722              		.syntax unified
 2723              	@ 1155 "Drivers/CMSIS/Include/cmsis_gcc.h" 1
 2724 0016 52E8003F 		ldrex r3, [r2]
 2725              	@ 0 "" 2
 2726              		.thumb
 2727              		.syntax unified
 2728 001a 23F00C03 		bic	r3, r3, #12
 2729              		.syntax unified
 2730              	@ 1206 "Drivers/CMSIS/Include/cmsis_gcc.h" 1
 2731 001e 42E80034 		strex r4, r3, [r2]
 2732              	@ 0 "" 2
 2733              		.thumb
 2734              		.syntax unified
 2735 0022 0168     		ldr	r1, [r0]
 2736 0024 002C     		cmp	r4, #0
 2737 0026 F5D1     		bne	.L511
 2738              	.L512:
 2739              		.syntax unified
 2740              	@ 1155 "Drivers/CMSIS/Include/cmsis_gcc.h" 1
 2741 0028 51E8002F 		ldrex r2, [r1]
 2742              	@ 0 "" 2
 2743              		.thumb
 2744              		.syntax unified
 2745 002c 42F00802 		orr	r2, r2, #8
 2746              		.syntax unified
 2747              	@ 1206 "Drivers/CMSIS/Include/cmsis_gcc.h" 1
 2748 0030 41E80023 		strex r3, r2, [r1]
 2749              	@ 0 "" 2
 2750              		.thumb
 2751              		.syntax unified
 2752 0034 002B     		cmp	r3, #0
 2753 0036 F7D1     		bne	.L512
 2754 0038 2022     		movs	r2, #32
 2755 003a 8267     		str	r2, [r0, #120]
 2756 003c 80F87430 		strb	r3, [r0, #116]
 2757 0040 1846     		mov	r0, r3
 2758              	.L510:
 2759 0042 10BD     		pop	{r4, pc}
 2760              	.L513:
 2761 0044 0220     		movs	r0, #2
 2762 0046 FCE7     		b	.L510
 2764              		.section	.text.HAL_HalfDuplex_EnableReceiver,"ax",%progbits
 2765              		.align	1
 2766              		.global	HAL_HalfDuplex_EnableReceiver
 2767              		.syntax unified
 2768              		.thumb
 2769              		.thumb_func
ARM GAS  C:\Users\CL\AppData\Local\Temp\ccv2KUeF.s 			page 48


 2771              	HAL_HalfDuplex_EnableReceiver:
 2772              		@ args = 0, pretend = 0, frame = 0
 2773              		@ frame_needed = 0, uses_anonymous_args = 0
 2774 0000 10B5     		push	{r4, lr}
 2775 0002 90F87430 		ldrb	r3, [r0, #116]	@ zero_extendqisi2
 2776 0006 012B     		cmp	r3, #1
 2777 0008 1CD0     		beq	.L520
 2778 000a 0123     		movs	r3, #1
 2779 000c 80F87430 		strb	r3, [r0, #116]
 2780 0010 2423     		movs	r3, #36
 2781 0012 8367     		str	r3, [r0, #120]
 2782              	.L518:
 2783 0014 0268     		ldr	r2, [r0]
 2784              		.syntax unified
 2785              	@ 1155 "Drivers/CMSIS/Include/cmsis_gcc.h" 1
 2786 0016 52E8003F 		ldrex r3, [r2]
 2787              	@ 0 "" 2
 2788              		.thumb
 2789              		.syntax unified
 2790 001a 23F00C03 		bic	r3, r3, #12
 2791              		.syntax unified
 2792              	@ 1206 "Drivers/CMSIS/Include/cmsis_gcc.h" 1
 2793 001e 42E80034 		strex r4, r3, [r2]
 2794              	@ 0 "" 2
 2795              		.thumb
 2796              		.syntax unified
 2797 0022 0168     		ldr	r1, [r0]
 2798 0024 002C     		cmp	r4, #0
 2799 0026 F5D1     		bne	.L518
 2800              	.L519:
 2801              		.syntax unified
 2802              	@ 1155 "Drivers/CMSIS/Include/cmsis_gcc.h" 1
 2803 0028 51E8002F 		ldrex r2, [r1]
 2804              	@ 0 "" 2
 2805              		.thumb
 2806              		.syntax unified
 2807 002c 42F00402 		orr	r2, r2, #4
 2808              		.syntax unified
 2809              	@ 1206 "Drivers/CMSIS/Include/cmsis_gcc.h" 1
 2810 0030 41E80023 		strex r3, r2, [r1]
 2811              	@ 0 "" 2
 2812              		.thumb
 2813              		.syntax unified
 2814 0034 002B     		cmp	r3, #0
 2815 0036 F7D1     		bne	.L519
 2816 0038 2022     		movs	r2, #32
 2817 003a 8267     		str	r2, [r0, #120]
 2818 003c 80F87430 		strb	r3, [r0, #116]
 2819 0040 1846     		mov	r0, r3
 2820              	.L517:
 2821 0042 10BD     		pop	{r4, pc}
 2822              	.L520:
 2823 0044 0220     		movs	r0, #2
 2824 0046 FCE7     		b	.L517
 2826              		.section	.text.HAL_LIN_SendBreak,"ax",%progbits
 2827              		.align	1
 2828              		.global	HAL_LIN_SendBreak
ARM GAS  C:\Users\CL\AppData\Local\Temp\ccv2KUeF.s 			page 49


 2829              		.syntax unified
 2830              		.thumb
 2831              		.thumb_func
 2833              	HAL_LIN_SendBreak:
 2834              		@ args = 0, pretend = 0, frame = 0
 2835              		@ frame_needed = 0, uses_anonymous_args = 0
 2836              		@ link register save eliminated.
 2837 0000 90F87430 		ldrb	r3, [r0, #116]	@ zero_extendqisi2
 2838 0004 012B     		cmp	r3, #1
 2839 0006 0ED0     		beq	.L525
 2840 0008 0268     		ldr	r2, [r0]
 2841 000a 2423     		movs	r3, #36
 2842 000c 8367     		str	r3, [r0, #120]
 2843 000e 138B     		ldrh	r3, [r2, #24]
 2844 0010 9BB2     		uxth	r3, r3
 2845 0012 43F00203 		orr	r3, r3, #2
 2846 0016 1383     		strh	r3, [r2, #24]	@ movhi
 2847 0018 2023     		movs	r3, #32
 2848 001a 8367     		str	r3, [r0, #120]
 2849 001c 0023     		movs	r3, #0
 2850 001e 80F87430 		strb	r3, [r0, #116]
 2851 0022 1846     		mov	r0, r3
 2852 0024 7047     		bx	lr
 2853              	.L525:
 2854 0026 0220     		movs	r0, #2
 2855 0028 7047     		bx	lr
 2857              		.section	.text.HAL_UART_GetState,"ax",%progbits
 2858              		.align	1
 2859              		.global	HAL_UART_GetState
 2860              		.syntax unified
 2861              		.thumb
 2862              		.thumb_func
 2864              	HAL_UART_GetState:
 2865              		@ args = 0, pretend = 0, frame = 0
 2866              		@ frame_needed = 0, uses_anonymous_args = 0
 2867              		@ link register save eliminated.
 2868 0000 826F     		ldr	r2, [r0, #120]
 2869 0002 C06F     		ldr	r0, [r0, #124]
 2870 0004 1043     		orrs	r0, r0, r2
 2871 0006 7047     		bx	lr
 2873              		.section	.text.HAL_UART_GetError,"ax",%progbits
 2874              		.align	1
 2875              		.global	HAL_UART_GetError
 2876              		.syntax unified
 2877              		.thumb
 2878              		.thumb_func
 2880              	HAL_UART_GetError:
 2881              		@ args = 0, pretend = 0, frame = 0
 2882              		@ frame_needed = 0, uses_anonymous_args = 0
 2883              		@ link register save eliminated.
 2884 0000 D0F88000 		ldr	r0, [r0, #128]
 2885 0004 7047     		bx	lr
 2887              		.global	__aeabi_uldivmod
 2888              		.global	__aeabi_ldivmod
 2889              		.section	.text.UART_SetConfig,"ax",%progbits
 2890              		.align	1
 2891              		.global	UART_SetConfig
ARM GAS  C:\Users\CL\AppData\Local\Temp\ccv2KUeF.s 			page 50


 2892              		.syntax unified
 2893              		.thumb
 2894              		.thumb_func
 2896              	UART_SetConfig:
 2897              		@ args = 0, pretend = 0, frame = 0
 2898              		@ frame_needed = 0, uses_anonymous_args = 0
 2899 0000 70B5     		push	{r4, r5, r6, lr}
 2900 0002 0446     		mov	r4, r0
 2901 0004 0368     		ldr	r3, [r0]
 2902 0006 2169     		ldr	r1, [r4, #16]
 2903 0008 A268     		ldr	r2, [r4, #8]
 2904 000a 1D68     		ldr	r5, [r3]
 2905 000c C069     		ldr	r0, [r0, #28]
 2906 000e 0A43     		orrs	r2, r2, r1
 2907 0010 6169     		ldr	r1, [r4, #20]
 2908 0012 0A43     		orrs	r2, r2, r1
 2909 0014 7949     		ldr	r1, .L597
 2910 0016 0243     		orrs	r2, r2, r0
 2911 0018 2940     		ands	r1, r1, r5
 2912 001a 0A43     		orrs	r2, r2, r1
 2913 001c 1A60     		str	r2, [r3]
 2914 001e 5A68     		ldr	r2, [r3, #4]
 2915 0020 E168     		ldr	r1, [r4, #12]
 2916 0022 22F44052 		bic	r2, r2, #12288
 2917 0026 0A43     		orrs	r2, r2, r1
 2918 0028 5A60     		str	r2, [r3, #4]
 2919 002a 754A     		ldr	r2, .L597+4
 2920 002c A169     		ldr	r1, [r4, #24]
 2921 002e 9342     		cmp	r3, r2
 2922 0030 1CBF     		itt	ne
 2923 0032 226A     		ldrne	r2, [r4, #32]
 2924 0034 1143     		orrne	r1, r1, r2
 2925 0036 9A68     		ldr	r2, [r3, #8]
 2926 0038 22F43062 		bic	r2, r2, #2816
 2927 003c 0A43     		orrs	r2, r2, r1
 2928 003e 9A60     		str	r2, [r3, #8]
 2929 0040 704A     		ldr	r2, .L597+8
 2930 0042 9342     		cmp	r3, r2
 2931 0044 17D1     		bne	.L530
 2932 0046 704B     		ldr	r3, .L597+12
 2933 0048 D3F88830 		ldr	r3, [r3, #136]
 2934 004c 03F00303 		and	r3, r3, #3
 2935 0050 013B     		subs	r3, r3, #1
 2936 0052 022B     		cmp	r3, #2
 2937 0054 00F2B080 		bhi	.L531
 2938 0058 6C4A     		ldr	r2, .L597+16
 2939              	.L593:
 2940 005a D35C     		ldrb	r3, [r2, r3]	@ zero_extendqisi2
 2941 005c B0F5004F 		cmp	r0, #32768
 2942 0060 40F08B80 		bne	.L549
 2943 0064 082B     		cmp	r3, #8
 2944 0066 22D8     		bhi	.L596
 2945 0068 DFE803F0 		tbb	[pc, r3]
 2946              	.L551:
 2947 006c 69       		.byte	(.L555-.L551)/2
 2948 006d A9       		.byte	(.L554-.L551)/2
 2949 006e 85       		.byte	(.L570-.L551)/2
ARM GAS  C:\Users\CL\AppData\Local\Temp\ccv2KUeF.s 			page 51


 2950 006f 21       		.byte	(.L596-.L551)/2
 2951 0070 82       		.byte	(.L552-.L551)/2
 2952 0071 21       		.byte	(.L596-.L551)/2
 2953 0072 21       		.byte	(.L596-.L551)/2
 2954 0073 21       		.byte	(.L596-.L551)/2
 2955 0074 6D       		.byte	(.L550-.L551)/2
 2956 0075 00       		.p2align 1
 2957              	.L530:
 2958 0076 664A     		ldr	r2, .L597+20
 2959 0078 9342     		cmp	r3, r2
 2960 007a 06D1     		bne	.L533
 2961 007c 624B     		ldr	r3, .L597+12
 2962 007e 654A     		ldr	r2, .L597+24
 2963 0080 D3F88830 		ldr	r3, [r3, #136]
 2964 0084 03F00C03 		and	r3, r3, #12
 2965 0088 E7E7     		b	.L593
 2966              	.L533:
 2967 008a 634A     		ldr	r2, .L597+28
 2968 008c 9342     		cmp	r3, r2
 2969 008e 18D1     		bne	.L534
 2970 0090 5D4B     		ldr	r3, .L597+12
 2971 0092 D3F88830 		ldr	r3, [r3, #136]
 2972 0096 03F03003 		and	r3, r3, #48
 2973 009a 202B     		cmp	r3, #32
 2974 009c 00F08780 		beq	.L535
 2975 00a0 07D8     		bhi	.L536
 2976 00a2 002B     		cmp	r3, #0
 2977 00a4 00F09480 		beq	.L537
 2978 00a8 102B     		cmp	r3, #16
 2979 00aa 00F08B80 		beq	.L538
 2980              	.L596:
 2981 00ae 0120     		movs	r0, #1
 2982 00b0 24E0     		b	.L547
 2983              	.L536:
 2984 00b2 302B     		cmp	r3, #48
 2985 00b4 FBD1     		bne	.L596
 2986 00b6 B0F5004F 		cmp	r0, #32768
 2987 00ba 44D0     		beq	.L550
 2988              	.L594:
 2989 00bc 4FF40040 		mov	r0, #32768
 2990 00c0 8DE0     		b	.L561
 2991              	.L534:
 2992 00c2 4F4A     		ldr	r2, .L597+4
 2993 00c4 9342     		cmp	r3, r2
 2994 00c6 F2D1     		bne	.L596
 2995 00c8 4F4B     		ldr	r3, .L597+12
 2996 00ca D3F88830 		ldr	r3, [r3, #136]
 2997 00ce 03F44063 		and	r3, r3, #3072
 2998 00d2 B3F5006F 		cmp	r3, #2048
 2999 00d6 15D0     		beq	.L565
 3000 00d8 06D8     		bhi	.L542
 3001 00da 5BB1     		cbz	r3, .L543
 3002 00dc B3F5806F 		cmp	r3, #1024
 3003 00e0 E5D1     		bne	.L596
 3004 00e2 FFF7FEFF 		bl	HAL_RCC_GetSysClockFreq
 3005 00e6 07E0     		b	.L546
 3006              	.L542:
ARM GAS  C:\Users\CL\AppData\Local\Temp\ccv2KUeF.s 			page 52


 3007 00e8 B3F5406F 		cmp	r3, #3072
 3008 00ec DFD1     		bne	.L596
 3009 00ee 4FF40040 		mov	r0, #32768
 3010 00f2 08E0     		b	.L541
 3011              	.L543:
 3012 00f4 FFF7FEFF 		bl	HAL_RCC_GetPCLK1Freq
 3013              	.L546:
 3014 00f8 28B9     		cbnz	r0, .L541
 3015              	.L595:
 3016 00fa 0020     		movs	r0, #0
 3017              	.L547:
 3018 00fc 0023     		movs	r3, #0
 3019 00fe C4E91933 		strd	r3, r3, [r4, #100]
 3020 0102 70BD     		pop	{r4, r5, r6, pc}
 3021              	.L565:
 3022 0104 4548     		ldr	r0, .L597+32
 3023              	.L541:
 3024 0106 6268     		ldr	r2, [r4, #4]
 3025 0108 02EB4203 		add	r3, r2, r2, lsl #1
 3026 010c 8342     		cmp	r3, r0
 3027 010e CED8     		bhi	.L596
 3028 0110 B0EB023F 		cmp	r0, r2, lsl #12
 3029 0114 CBD8     		bhi	.L596
 3030 0116 5108     		lsrs	r1, r2, #1
 3031 0118 0025     		movs	r5, #0
 3032 011a 8C46     		mov	ip, r1
 3033 011c 4FF48076 		mov	r6, #256
 3034 0120 2946     		mov	r1, r5
 3035 0122 E0FB06C1 		umlal	ip, r1, r0, r6
 3036 0126 2B46     		mov	r3, r5
 3037 0128 6046     		mov	r0, ip
 3038 012a FFF7FEFF 		bl	__aeabi_uldivmod
 3039 012e 3C4B     		ldr	r3, .L597+36
 3040 0130 A0F54072 		sub	r2, r0, #768
 3041 0134 9A42     		cmp	r2, r3
 3042 0136 BAD8     		bhi	.L596
 3043 0138 2368     		ldr	r3, [r4]
 3044 013a D860     		str	r0, [r3, #12]
 3045 013c DDE7     		b	.L595
 3046              	.L555:
 3047 013e FFF7FEFF 		bl	HAL_RCC_GetPCLK1Freq
 3048              	.L556:
 3049 0142 0028     		cmp	r0, #0
 3050 0144 D9D0     		beq	.L595
 3051              	.L550:
 3052 0146 6268     		ldr	r2, [r4, #4]
 3053 0148 5308     		lsrs	r3, r2, #1
 3054 014a 03EB4000 		add	r0, r3, r0, lsl #1
 3055 014e 4FF6EF73 		movw	r3, #65519
 3056 0152 B0FBF2F0 		udiv	r0, r0, r2
 3057 0156 A0F11002 		sub	r2, r0, #16
 3058 015a 9A42     		cmp	r2, r3
 3059 015c A7D8     		bhi	.L596
 3060 015e 20F00F03 		bic	r3, r0, #15
 3061 0162 2268     		ldr	r2, [r4]
 3062 0164 9BB2     		uxth	r3, r3
 3063 0166 C0F34200 		ubfx	r0, r0, #1, #3
ARM GAS  C:\Users\CL\AppData\Local\Temp\ccv2KUeF.s 			page 53


 3064 016a 1843     		orrs	r0, r0, r3
 3065 016c D060     		str	r0, [r2, #12]
 3066 016e C4E7     		b	.L595
 3067              	.L552:
 3068 0170 FFF7FEFF 		bl	HAL_RCC_GetSysClockFreq
 3069 0174 E5E7     		b	.L556
 3070              	.L570:
 3071 0176 2948     		ldr	r0, .L597+32
 3072 0178 E5E7     		b	.L550
 3073              	.L549:
 3074 017a 082B     		cmp	r3, #8
 3075 017c 97D8     		bhi	.L596
 3076 017e 01A2     		adr	r2, .L559
 3077 0180 52F823F0 		ldr	pc, [r2, r3, lsl #2]
 3078              		.p2align 2
 3079              	.L559:
 3080 0184 D7010000 		.word	.L563+1
 3081 0188 A9010000 		.word	.L562+1
 3082 018c B5010000 		.word	.L569+1
 3083 0190 AF000000 		.word	.L596+1
 3084 0194 CB010000 		.word	.L560+1
 3085 0198 AF000000 		.word	.L596+1
 3086 019c AF000000 		.word	.L596+1
 3087 01a0 AF000000 		.word	.L596+1
 3088 01a4 BD000000 		.word	.L594+1
 3089              		.p2align 1
 3090              	.L562:
 3091 01a8 FFF7FEFF 		bl	HAL_RCC_GetPCLK2Freq
 3092 01ac 15E0     		b	.L564
 3093              	.L535:
 3094 01ae B0F5004F 		cmp	r0, #32768
 3095 01b2 E0D0     		beq	.L570
 3096              	.L569:
 3097 01b4 1948     		ldr	r0, .L597+32
 3098 01b6 12E0     		b	.L561
 3099              	.L531:
 3100 01b8 B0F5004F 		cmp	r0, #32768
 3101 01bc F4D1     		bne	.L562
 3102              	.L554:
 3103 01be FFF7FEFF 		bl	HAL_RCC_GetPCLK2Freq
 3104 01c2 BEE7     		b	.L556
 3105              	.L538:
 3106 01c4 B0F5004F 		cmp	r0, #32768
 3107 01c8 D2D0     		beq	.L552
 3108              	.L560:
 3109 01ca FFF7FEFF 		bl	HAL_RCC_GetSysClockFreq
 3110 01ce 04E0     		b	.L564
 3111              	.L537:
 3112 01d0 B0F5004F 		cmp	r0, #32768
 3113 01d4 B3D0     		beq	.L555
 3114              	.L563:
 3115 01d6 FFF7FEFF 		bl	HAL_RCC_GetPCLK1Freq
 3116              	.L564:
 3117 01da 0028     		cmp	r0, #0
 3118 01dc 8DD0     		beq	.L595
 3119              	.L561:
 3120 01de 6268     		ldr	r2, [r4, #4]
ARM GAS  C:\Users\CL\AppData\Local\Temp\ccv2KUeF.s 			page 54


 3121 01e0 00EB5203 		add	r3, r0, r2, lsr #1
 3122 01e4 B3FBF2F3 		udiv	r3, r3, r2
 3123 01e8 4FF6EF72 		movw	r2, #65519
 3124 01ec A3F11001 		sub	r1, r3, #16
 3125 01f0 9142     		cmp	r1, r2
 3126 01f2 3FF65CAF 		bhi	.L596
 3127 01f6 2268     		ldr	r2, [r4]
 3128 01f8 D360     		str	r3, [r2, #12]
 3129 01fa 7EE7     		b	.L595
 3130              	.L598:
 3131              		.align	2
 3132              	.L597:
 3133 01fc F369FFEF 		.word	-268473869
 3134 0200 00800040 		.word	1073774592
 3135 0204 00380140 		.word	1073821696
 3136 0208 00100240 		.word	1073876992
 3137 020c 00000000 		.word	.LANCHOR0
 3138 0210 00440040 		.word	1073759232
 3139 0214 00000000 		.word	.LANCHOR1
 3140 0218 00480040 		.word	1073760256
 3141 021c 0024F400 		.word	16000000
 3142 0220 FFFC0F00 		.word	1047807
 3144              		.section	.text.UART_AdvFeatureConfig,"ax",%progbits
 3145              		.align	1
 3146              		.global	UART_AdvFeatureConfig
 3147              		.syntax unified
 3148              		.thumb
 3149              		.thumb_func
 3151              	UART_AdvFeatureConfig:
 3152              		@ args = 0, pretend = 0, frame = 0
 3153              		@ frame_needed = 0, uses_anonymous_args = 0
 3154 0000 436A     		ldr	r3, [r0, #36]
 3155 0002 DA07     		lsls	r2, r3, #31
 3156 0004 10B5     		push	{r4, lr}
 3157 0006 06D5     		bpl	.L600
 3158 0008 0168     		ldr	r1, [r0]
 3159 000a 846A     		ldr	r4, [r0, #40]
 3160 000c 4A68     		ldr	r2, [r1, #4]
 3161 000e 22F40032 		bic	r2, r2, #131072
 3162 0012 2243     		orrs	r2, r2, r4
 3163 0014 4A60     		str	r2, [r1, #4]
 3164              	.L600:
 3165 0016 9C07     		lsls	r4, r3, #30
 3166 0018 06D5     		bpl	.L601
 3167 001a 0168     		ldr	r1, [r0]
 3168 001c C46A     		ldr	r4, [r0, #44]
 3169 001e 4A68     		ldr	r2, [r1, #4]
 3170 0020 22F48032 		bic	r2, r2, #65536
 3171 0024 2243     		orrs	r2, r2, r4
 3172 0026 4A60     		str	r2, [r1, #4]
 3173              	.L601:
 3174 0028 5907     		lsls	r1, r3, #29
 3175 002a 06D5     		bpl	.L602
 3176 002c 0168     		ldr	r1, [r0]
 3177 002e 046B     		ldr	r4, [r0, #48]
 3178 0030 4A68     		ldr	r2, [r1, #4]
 3179 0032 22F48022 		bic	r2, r2, #262144
ARM GAS  C:\Users\CL\AppData\Local\Temp\ccv2KUeF.s 			page 55


 3180 0036 2243     		orrs	r2, r2, r4
 3181 0038 4A60     		str	r2, [r1, #4]
 3182              	.L602:
 3183 003a 1A07     		lsls	r2, r3, #28
 3184 003c 06D5     		bpl	.L603
 3185 003e 0168     		ldr	r1, [r0]
 3186 0040 446B     		ldr	r4, [r0, #52]
 3187 0042 4A68     		ldr	r2, [r1, #4]
 3188 0044 22F40042 		bic	r2, r2, #32768
 3189 0048 2243     		orrs	r2, r2, r4
 3190 004a 4A60     		str	r2, [r1, #4]
 3191              	.L603:
 3192 004c DC06     		lsls	r4, r3, #27
 3193 004e 06D5     		bpl	.L604
 3194 0050 0168     		ldr	r1, [r0]
 3195 0052 846B     		ldr	r4, [r0, #56]
 3196 0054 8A68     		ldr	r2, [r1, #8]
 3197 0056 22F48052 		bic	r2, r2, #4096
 3198 005a 2243     		orrs	r2, r2, r4
 3199 005c 8A60     		str	r2, [r1, #8]
 3200              	.L604:
 3201 005e 9906     		lsls	r1, r3, #26
 3202 0060 06D5     		bpl	.L605
 3203 0062 0168     		ldr	r1, [r0]
 3204 0064 C46B     		ldr	r4, [r0, #60]
 3205 0066 8A68     		ldr	r2, [r1, #8]
 3206 0068 22F40052 		bic	r2, r2, #8192
 3207 006c 2243     		orrs	r2, r2, r4
 3208 006e 8A60     		str	r2, [r1, #8]
 3209              	.L605:
 3210 0070 5A06     		lsls	r2, r3, #25
 3211 0072 0FD5     		bpl	.L607
 3212 0074 0168     		ldr	r1, [r0]
 3213 0076 046C     		ldr	r4, [r0, #64]
 3214 0078 4A68     		ldr	r2, [r1, #4]
 3215 007a 22F48012 		bic	r2, r2, #1048576
 3216 007e 2243     		orrs	r2, r2, r4
 3217 0080 B4F5801F 		cmp	r4, #1048576
 3218 0084 4A60     		str	r2, [r1, #4]
 3219 0086 05D1     		bne	.L607
 3220 0088 4A68     		ldr	r2, [r1, #4]
 3221 008a 446C     		ldr	r4, [r0, #68]
 3222 008c 22F4C002 		bic	r2, r2, #6291456
 3223 0090 2243     		orrs	r2, r2, r4
 3224 0092 4A60     		str	r2, [r1, #4]
 3225              	.L607:
 3226 0094 1B06     		lsls	r3, r3, #24
 3227 0096 06D5     		bpl	.L599
 3228 0098 0268     		ldr	r2, [r0]
 3229 009a 816C     		ldr	r1, [r0, #72]
 3230 009c 5368     		ldr	r3, [r2, #4]
 3231 009e 23F40023 		bic	r3, r3, #524288
 3232 00a2 0B43     		orrs	r3, r3, r1
 3233 00a4 5360     		str	r3, [r2, #4]
 3234              	.L599:
 3235 00a6 10BD     		pop	{r4, pc}
 3237              		.section	.text.UART_WaitOnFlagUntilTimeout,"ax",%progbits
ARM GAS  C:\Users\CL\AppData\Local\Temp\ccv2KUeF.s 			page 56


 3238              		.align	1
 3239              		.global	UART_WaitOnFlagUntilTimeout
 3240              		.syntax unified
 3241              		.thumb
 3242              		.thumb_func
 3244              	UART_WaitOnFlagUntilTimeout:
 3245              		@ args = 4, pretend = 0, frame = 0
 3246              		@ frame_needed = 0, uses_anonymous_args = 0
 3247 0000 2DE9F041 		push	{r4, r5, r6, r7, r8, lr}
 3248 0004 DDF81880 		ldr	r8, [sp, #24]
 3249 0008 0446     		mov	r4, r0
 3250 000a 0E46     		mov	r6, r1
 3251 000c 1546     		mov	r5, r2
 3252 000e 1F46     		mov	r7, r3
 3253              	.L649:
 3254 0010 2268     		ldr	r2, [r4]
 3255              	.L633:
 3256 0012 D369     		ldr	r3, [r2, #28]
 3257 0014 36EA0303 		bics	r3, r6, r3
 3258 0018 0CBF     		ite	eq
 3259 001a 0123     		moveq	r3, #1
 3260 001c 0023     		movne	r3, #0
 3261 001e AB42     		cmp	r3, r5
 3262 0020 01D0     		beq	.L641
 3263 0022 0020     		movs	r0, #0
 3264 0024 25E0     		b	.L638
 3265              	.L641:
 3266 0026 B8F1FF3F 		cmp	r8, #-1
 3267 002a F2D0     		beq	.L633
 3268 002c FFF7FEFF 		bl	HAL_GetTick
 3269 0030 C01B     		subs	r0, r0, r7
 3270 0032 4045     		cmp	r0, r8
 3271 0034 2068     		ldr	r0, [r4]
 3272 0036 02D8     		bhi	.L636
 3273 0038 B8F1000F 		cmp	r8, #0
 3274 003c 1BD1     		bne	.L635
 3275              	.L636:
 3276              		.syntax unified
 3277              	@ 1155 "Drivers/CMSIS/Include/cmsis_gcc.h" 1
 3278 003e 50E8003F 		ldrex r3, [r0]
 3279              	@ 0 "" 2
 3280              		.thumb
 3281              		.syntax unified
 3282 0042 23F4D073 		bic	r3, r3, #416
 3283              		.syntax unified
 3284              	@ 1206 "Drivers/CMSIS/Include/cmsis_gcc.h" 1
 3285 0046 40E80032 		strex r2, r3, [r0]
 3286              	@ 0 "" 2
 3287              		.thumb
 3288              		.syntax unified
 3289 004a 002A     		cmp	r2, #0
 3290 004c F7D1     		bne	.L636
 3291              	.L637:
 3292 004e 00F10803 		add	r3, r0, #8
 3293              		.syntax unified
 3294              	@ 1155 "Drivers/CMSIS/Include/cmsis_gcc.h" 1
 3295 0052 53E8003F 		ldrex r3, [r3]
ARM GAS  C:\Users\CL\AppData\Local\Temp\ccv2KUeF.s 			page 57


 3296              	@ 0 "" 2
 3297              		.thumb
 3298              		.syntax unified
 3299 0056 23F00103 		bic	r3, r3, #1
 3300 005a 00F10801 		add	r1, r0, #8
 3301              		.syntax unified
 3302              	@ 1206 "Drivers/CMSIS/Include/cmsis_gcc.h" 1
 3303 005e 41E80032 		strex r2, r3, [r1]
 3304              	@ 0 "" 2
 3305              		.thumb
 3306              		.syntax unified
 3307 0062 002A     		cmp	r2, #0
 3308 0064 F3D1     		bne	.L637
 3309 0066 2023     		movs	r3, #32
 3310 0068 A367     		str	r3, [r4, #120]
 3311 006a E367     		str	r3, [r4, #124]
 3312              	.L653:
 3313 006c 84F87420 		strb	r2, [r4, #116]
 3314 0070 0320     		movs	r0, #3
 3315              	.L638:
 3316 0072 BDE8F081 		pop	{r4, r5, r6, r7, r8, pc}
 3317              	.L635:
 3318 0076 0368     		ldr	r3, [r0]
 3319 0078 5A07     		lsls	r2, r3, #29
 3320 007a C9D5     		bpl	.L649
 3321 007c C369     		ldr	r3, [r0, #28]
 3322 007e 1B05     		lsls	r3, r3, #20
 3323 0080 C6D5     		bpl	.L649
 3324 0082 4FF40063 		mov	r3, #2048
 3325 0086 0362     		str	r3, [r0, #32]
 3326              	.L639:
 3327              		.syntax unified
 3328              	@ 1155 "Drivers/CMSIS/Include/cmsis_gcc.h" 1
 3329 0088 50E8003F 		ldrex r3, [r0]
 3330              	@ 0 "" 2
 3331              		.thumb
 3332              		.syntax unified
 3333 008c 23F4D073 		bic	r3, r3, #416
 3334              		.syntax unified
 3335              	@ 1206 "Drivers/CMSIS/Include/cmsis_gcc.h" 1
 3336 0090 40E80032 		strex r2, r3, [r0]
 3337              	@ 0 "" 2
 3338              		.thumb
 3339              		.syntax unified
 3340 0094 002A     		cmp	r2, #0
 3341 0096 F7D1     		bne	.L639
 3342              	.L640:
 3343 0098 00F10803 		add	r3, r0, #8
 3344              		.syntax unified
 3345              	@ 1155 "Drivers/CMSIS/Include/cmsis_gcc.h" 1
 3346 009c 53E8003F 		ldrex r3, [r3]
 3347              	@ 0 "" 2
 3348              		.thumb
 3349              		.syntax unified
 3350 00a0 23F00103 		bic	r3, r3, #1
 3351 00a4 00F10801 		add	r1, r0, #8
 3352              		.syntax unified
ARM GAS  C:\Users\CL\AppData\Local\Temp\ccv2KUeF.s 			page 58


 3353              	@ 1206 "Drivers/CMSIS/Include/cmsis_gcc.h" 1
 3354 00a8 41E80032 		strex r2, r3, [r1]
 3355              	@ 0 "" 2
 3356              		.thumb
 3357              		.syntax unified
 3358 00ac 002A     		cmp	r2, #0
 3359 00ae F3D1     		bne	.L640
 3360 00b0 2023     		movs	r3, #32
 3361 00b2 A367     		str	r3, [r4, #120]
 3362 00b4 E367     		str	r3, [r4, #124]
 3363 00b6 C4F88030 		str	r3, [r4, #128]
 3364 00ba D7E7     		b	.L653
 3366              		.section	.text.HAL_UART_Transmit,"ax",%progbits
 3367              		.align	1
 3368              		.global	HAL_UART_Transmit
 3369              		.syntax unified
 3370              		.thumb
 3371              		.thumb_func
 3373              	HAL_UART_Transmit:
 3374              		@ args = 0, pretend = 0, frame = 8
 3375              		@ frame_needed = 0, uses_anonymous_args = 0
 3376 0000 2DE9FF41 		push	{r0, r1, r2, r3, r4, r5, r6, r7, r8, lr}
 3377 0004 9846     		mov	r8, r3
 3378 0006 836F     		ldr	r3, [r0, #120]
 3379 0008 202B     		cmp	r3, #32
 3380 000a 0446     		mov	r4, r0
 3381 000c 0E46     		mov	r6, r1
 3382 000e 1746     		mov	r7, r2
 3383 0010 4ED1     		bne	.L666
 3384 0012 0029     		cmp	r1, #0
 3385 0014 4AD0     		beq	.L665
 3386 0016 002A     		cmp	r2, #0
 3387 0018 48D0     		beq	.L665
 3388 001a 90F87430 		ldrb	r3, [r0, #116]	@ zero_extendqisi2
 3389 001e 012B     		cmp	r3, #1
 3390 0020 46D0     		beq	.L666
 3391 0022 0123     		movs	r3, #1
 3392 0024 80F87430 		strb	r3, [r0, #116]
 3393 0028 0025     		movs	r5, #0
 3394 002a 2123     		movs	r3, #33
 3395 002c C0F88050 		str	r5, [r0, #128]
 3396 0030 8367     		str	r3, [r0, #120]
 3397 0032 FFF7FEFF 		bl	HAL_GetTick
 3398 0036 A268     		ldr	r2, [r4, #8]
 3399 0038 A4F85070 		strh	r7, [r4, #80]	@ movhi
 3400 003c B2F5805F 		cmp	r2, #4096
 3401 0040 0346     		mov	r3, r0
 3402 0042 A4F85270 		strh	r7, [r4, #82]	@ movhi
 3403 0046 03D1     		bne	.L656
 3404 0048 2269     		ldr	r2, [r4, #16]
 3405 004a 0AB9     		cbnz	r2, .L656
 3406 004c 3546     		mov	r5, r6
 3407 004e 1646     		mov	r6, r2
 3408              	.L656:
 3409 0050 0022     		movs	r2, #0
 3410 0052 84F87420 		strb	r2, [r4, #116]
 3411              	.L657:
ARM GAS  C:\Users\CL\AppData\Local\Temp\ccv2KUeF.s 			page 59


 3412 0056 B4F85220 		ldrh	r2, [r4, #82]
 3413 005a CDF80080 		str	r8, [sp]
 3414 005e 92B2     		uxth	r2, r2
 3415 0060 3AB9     		cbnz	r2, .L661
 3416 0062 4021     		movs	r1, #64
 3417 0064 2046     		mov	r0, r4
 3418 0066 FFF7FEFF 		bl	UART_WaitOnFlagUntilTimeout
 3419 006a 50B9     		cbnz	r0, .L662
 3420 006c 2023     		movs	r3, #32
 3421 006e A367     		str	r3, [r4, #120]
 3422 0070 08E0     		b	.L655
 3423              	.L661:
 3424 0072 0022     		movs	r2, #0
 3425 0074 8021     		movs	r1, #128
 3426 0076 2046     		mov	r0, r4
 3427 0078 0393     		str	r3, [sp, #12]
 3428 007a FFF7FEFF 		bl	UART_WaitOnFlagUntilTimeout
 3429 007e 039B     		ldr	r3, [sp, #12]
 3430 0080 18B1     		cbz	r0, .L658
 3431              	.L662:
 3432 0082 0320     		movs	r0, #3
 3433              	.L655:
 3434 0084 04B0     		add	sp, sp, #16
 3435              		@ sp needed
 3436 0086 BDE8F081 		pop	{r4, r5, r6, r7, r8, pc}
 3437              	.L658:
 3438 008a 2168     		ldr	r1, [r4]
 3439 008c 5EB9     		cbnz	r6, .L659
 3440 008e 35F8022B 		ldrh	r2, [r5], #2
 3441 0092 C2F30802 		ubfx	r2, r2, #0, #9
 3442              	.L669:
 3443 0096 0A85     		strh	r2, [r1, #40]	@ movhi
 3444 0098 B4F85220 		ldrh	r2, [r4, #82]
 3445 009c 013A     		subs	r2, r2, #1
 3446 009e 92B2     		uxth	r2, r2
 3447 00a0 A4F85220 		strh	r2, [r4, #82]	@ movhi
 3448 00a4 D7E7     		b	.L657
 3449              	.L659:
 3450 00a6 16F8012B 		ldrb	r2, [r6], #1	@ zero_extendqisi2
 3451 00aa F4E7     		b	.L669
 3452              	.L665:
 3453 00ac 0120     		movs	r0, #1
 3454 00ae E9E7     		b	.L655
 3455              	.L666:
 3456 00b0 0220     		movs	r0, #2
 3457 00b2 E7E7     		b	.L655
 3459              		.section	.text.HAL_UART_Receive,"ax",%progbits
 3460              		.align	1
 3461              		.global	HAL_UART_Receive
 3462              		.syntax unified
 3463              		.thumb
 3464              		.thumb_func
 3466              	HAL_UART_Receive:
 3467              		@ args = 0, pretend = 0, frame = 0
 3468              		@ frame_needed = 0, uses_anonymous_args = 0
 3469 0000 2DE9F743 		push	{r0, r1, r2, r4, r5, r6, r7, r8, r9, lr}
 3470 0004 1F46     		mov	r7, r3
ARM GAS  C:\Users\CL\AppData\Local\Temp\ccv2KUeF.s 			page 60


 3471 0006 C36F     		ldr	r3, [r0, #124]
 3472 0008 202B     		cmp	r3, #32
 3473 000a 0446     		mov	r4, r0
 3474 000c 0D46     		mov	r5, r1
 3475 000e 1646     		mov	r6, r2
 3476 0010 68D1     		bne	.L686
 3477 0012 0029     		cmp	r1, #0
 3478 0014 64D0     		beq	.L685
 3479 0016 002A     		cmp	r2, #0
 3480 0018 62D0     		beq	.L685
 3481 001a 90F87430 		ldrb	r3, [r0, #116]	@ zero_extendqisi2
 3482 001e 012B     		cmp	r3, #1
 3483 0020 60D0     		beq	.L686
 3484 0022 0123     		movs	r3, #1
 3485 0024 80F87430 		strb	r3, [r0, #116]
 3486 0028 4FF00008 		mov	r8, #0
 3487 002c 2223     		movs	r3, #34
 3488 002e C0F88080 		str	r8, [r0, #128]
 3489 0032 C367     		str	r3, [r0, #124]
 3490 0034 C0F86080 		str	r8, [r0, #96]
 3491 0038 FFF7FEFF 		bl	HAL_GetTick
 3492 003c A368     		ldr	r3, [r4, #8]
 3493 003e A4F85860 		strh	r6, [r4, #88]	@ movhi
 3494 0042 B3F5805F 		cmp	r3, #4096
 3495 0046 8146     		mov	r9, r0
 3496 0048 A4F85A60 		strh	r6, [r4, #90]	@ movhi
 3497 004c 1CD1     		bne	.L672
 3498 004e 2269     		ldr	r2, [r4, #16]
 3499 0050 C2B9     		cbnz	r2, .L673
 3500 0052 40F2FF12 		movw	r2, #511
 3501              	.L696:
 3502 0056 A4F85C20 		strh	r2, [r4, #92]	@ movhi
 3503              	.L674:
 3504 005a B3F5805F 		cmp	r3, #4096
 3505 005e B4F85C80 		ldrh	r8, [r4, #92]
 3506 0062 22D1     		bne	.L688
 3507 0064 2369     		ldr	r3, [r4, #16]
 3508 0066 03BB     		cbnz	r3, .L688
 3509 0068 2E46     		mov	r6, r5
 3510 006a 1D46     		mov	r5, r3
 3511              	.L678:
 3512 006c 0023     		movs	r3, #0
 3513 006e 84F87430 		strb	r3, [r4, #116]
 3514              	.L679:
 3515 0072 B4F85A20 		ldrh	r2, [r4, #90]
 3516 0076 90B2     		uxth	r0, r2
 3517 0078 C8B9     		cbnz	r0, .L682
 3518 007a 2023     		movs	r3, #32
 3519 007c E367     		str	r3, [r4, #124]
 3520              	.L671:
 3521 007e 03B0     		add	sp, sp, #12
 3522              		@ sp needed
 3523 0080 BDE8F083 		pop	{r4, r5, r6, r7, r8, r9, pc}
 3524              	.L673:
 3525 0084 FF22     		movs	r2, #255
 3526 0086 E6E7     		b	.L696
 3527              	.L672:
ARM GAS  C:\Users\CL\AppData\Local\Temp\ccv2KUeF.s 			page 61


 3528 0088 23B9     		cbnz	r3, .L675
 3529 008a 2269     		ldr	r2, [r4, #16]
 3530 008c 002A     		cmp	r2, #0
 3531 008e F9D0     		beq	.L673
 3532              	.L677:
 3533 0090 7F22     		movs	r2, #127
 3534 0092 E0E7     		b	.L696
 3535              	.L675:
 3536 0094 B3F1805F 		cmp	r3, #268435456
 3537 0098 04D1     		bne	.L676
 3538 009a 2269     		ldr	r2, [r4, #16]
 3539 009c 002A     		cmp	r2, #0
 3540 009e F7D0     		beq	.L677
 3541 00a0 3F22     		movs	r2, #63
 3542 00a2 D8E7     		b	.L696
 3543              	.L676:
 3544 00a4 A4F85C80 		strh	r8, [r4, #92]	@ movhi
 3545 00a8 D7E7     		b	.L674
 3546              	.L688:
 3547 00aa 0026     		movs	r6, #0
 3548 00ac DEE7     		b	.L678
 3549              	.L682:
 3550 00ae 0097     		str	r7, [sp]
 3551 00b0 4B46     		mov	r3, r9
 3552 00b2 0022     		movs	r2, #0
 3553 00b4 2021     		movs	r1, #32
 3554 00b6 2046     		mov	r0, r4
 3555 00b8 FFF7FEFF 		bl	UART_WaitOnFlagUntilTimeout
 3556 00bc A0B9     		cbnz	r0, .L689
 3557 00be 2368     		ldr	r3, [r4]
 3558 00c0 9B8C     		ldrh	r3, [r3, #36]
 3559 00c2 08EA0303 		and	r3, r8, r3
 3560 00c6 45B9     		cbnz	r5, .L680
 3561 00c8 26F8023B 		strh	r3, [r6], #2	@ movhi
 3562              	.L681:
 3563 00cc B4F85A20 		ldrh	r2, [r4, #90]
 3564 00d0 013A     		subs	r2, r2, #1
 3565 00d2 92B2     		uxth	r2, r2
 3566 00d4 A4F85A20 		strh	r2, [r4, #90]	@ movhi
 3567 00d8 CBE7     		b	.L679
 3568              	.L680:
 3569 00da 05F8013B 		strb	r3, [r5], #1
 3570 00de F5E7     		b	.L681
 3571              	.L685:
 3572 00e0 0120     		movs	r0, #1
 3573 00e2 CCE7     		b	.L671
 3574              	.L686:
 3575 00e4 0220     		movs	r0, #2
 3576 00e6 CAE7     		b	.L671
 3577              	.L689:
 3578 00e8 0320     		movs	r0, #3
 3579 00ea C8E7     		b	.L671
 3581              		.section	.text.UART_CheckIdleState,"ax",%progbits
 3582              		.align	1
 3583              		.global	UART_CheckIdleState
 3584              		.syntax unified
 3585              		.thumb
ARM GAS  C:\Users\CL\AppData\Local\Temp\ccv2KUeF.s 			page 62


 3586              		.thumb_func
 3588              	UART_CheckIdleState:
 3589              		@ args = 0, pretend = 0, frame = 8
 3590              		@ frame_needed = 0, uses_anonymous_args = 0
 3591 0000 30B5     		push	{r4, r5, lr}
 3592 0002 0446     		mov	r4, r0
 3593 0004 0025     		movs	r5, #0
 3594 0006 85B0     		sub	sp, sp, #20
 3595 0008 C0F88050 		str	r5, [r0, #128]
 3596 000c FFF7FEFF 		bl	HAL_GetTick
 3597 0010 2268     		ldr	r2, [r4]
 3598 0012 1268     		ldr	r2, [r2]
 3599 0014 1107     		lsls	r1, r2, #28
 3600 0016 0346     		mov	r3, r0
 3601 0018 15D4     		bmi	.L698
 3602              	.L701:
 3603 001a 2268     		ldr	r2, [r4]
 3604 001c 1268     		ldr	r2, [r2]
 3605 001e 5207     		lsls	r2, r2, #29
 3606 0020 09D5     		bpl	.L700
 3607 0022 6FF07E42 		mvn	r2, #-33554432
 3608 0026 0092     		str	r2, [sp]
 3609 0028 4FF48001 		mov	r1, #4194304
 3610 002c 0022     		movs	r2, #0
 3611 002e 2046     		mov	r0, r4
 3612 0030 FFF7FEFF 		bl	UART_WaitOnFlagUntilTimeout
 3613 0034 A0B9     		cbnz	r0, .L703
 3614              	.L700:
 3615 0036 2023     		movs	r3, #32
 3616 0038 0020     		movs	r0, #0
 3617 003a A367     		str	r3, [r4, #120]
 3618 003c 84F87400 		strb	r0, [r4, #116]
 3619 0040 E367     		str	r3, [r4, #124]
 3620 0042 2066     		str	r0, [r4, #96]
 3621 0044 0DE0     		b	.L702
 3622              	.L698:
 3623 0046 6FF07E42 		mvn	r2, #-33554432
 3624 004a 0092     		str	r2, [sp]
 3625 004c 0390     		str	r0, [sp, #12]
 3626 004e 2A46     		mov	r2, r5
 3627 0050 4FF40011 		mov	r1, #2097152
 3628 0054 2046     		mov	r0, r4
 3629 0056 FFF7FEFF 		bl	UART_WaitOnFlagUntilTimeout
 3630 005a 039B     		ldr	r3, [sp, #12]
 3631 005c 0028     		cmp	r0, #0
 3632 005e DCD0     		beq	.L701
 3633              	.L703:
 3634 0060 0320     		movs	r0, #3
 3635              	.L702:
 3636 0062 05B0     		add	sp, sp, #20
 3637              		@ sp needed
 3638 0064 30BD     		pop	{r4, r5, pc}
 3640              		.section	.text.HAL_UART_Init,"ax",%progbits
 3641              		.align	1
 3642              		.global	HAL_UART_Init
 3643              		.syntax unified
 3644              		.thumb
ARM GAS  C:\Users\CL\AppData\Local\Temp\ccv2KUeF.s 			page 63


 3645              		.thumb_func
 3647              	HAL_UART_Init:
 3648              		@ args = 0, pretend = 0, frame = 0
 3649              		@ frame_needed = 0, uses_anonymous_args = 0
 3650 0000 10B5     		push	{r4, lr}
 3651 0002 0446     		mov	r4, r0
 3652 0004 40B3     		cbz	r0, .L709
 3653 0006 836F     		ldr	r3, [r0, #120]
 3654 0008 1BB9     		cbnz	r3, .L710
 3655 000a 80F87430 		strb	r3, [r0, #116]
 3656 000e FFF7FEFF 		bl	HAL_UART_MspInit
 3657              	.L710:
 3658 0012 2268     		ldr	r2, [r4]
 3659 0014 2423     		movs	r3, #36
 3660 0016 A367     		str	r3, [r4, #120]
 3661 0018 1368     		ldr	r3, [r2]
 3662 001a 23F00103 		bic	r3, r3, #1
 3663 001e 1360     		str	r3, [r2]
 3664 0020 2046     		mov	r0, r4
 3665 0022 FFF7FEFF 		bl	UART_SetConfig
 3666 0026 0128     		cmp	r0, #1
 3667 0028 16D0     		beq	.L709
 3668 002a 636A     		ldr	r3, [r4, #36]
 3669 002c 13B1     		cbz	r3, .L712
 3670 002e 2046     		mov	r0, r4
 3671 0030 FFF7FEFF 		bl	UART_AdvFeatureConfig
 3672              	.L712:
 3673 0034 2368     		ldr	r3, [r4]
 3674 0036 5A68     		ldr	r2, [r3, #4]
 3675 0038 22F49042 		bic	r2, r2, #18432
 3676 003c 5A60     		str	r2, [r3, #4]
 3677 003e 9A68     		ldr	r2, [r3, #8]
 3678 0040 22F02A02 		bic	r2, r2, #42
 3679 0044 9A60     		str	r2, [r3, #8]
 3680 0046 1A68     		ldr	r2, [r3]
 3681 0048 42F00102 		orr	r2, r2, #1
 3682 004c 2046     		mov	r0, r4
 3683 004e 1A60     		str	r2, [r3]
 3684 0050 BDE81040 		pop	{r4, lr}
 3685 0054 FFF7FEBF 		b	UART_CheckIdleState
 3686              	.L709:
 3687 0058 0120     		movs	r0, #1
 3688 005a 10BD     		pop	{r4, pc}
 3690              		.section	.text.HAL_HalfDuplex_Init,"ax",%progbits
 3691              		.align	1
 3692              		.global	HAL_HalfDuplex_Init
 3693              		.syntax unified
 3694              		.thumb
 3695              		.thumb_func
 3697              	HAL_HalfDuplex_Init:
 3698              		@ args = 0, pretend = 0, frame = 0
 3699              		@ frame_needed = 0, uses_anonymous_args = 0
 3700 0000 10B5     		push	{r4, lr}
 3701 0002 0446     		mov	r4, r0
 3702 0004 60B3     		cbz	r0, .L721
 3703 0006 836F     		ldr	r3, [r0, #120]
 3704 0008 1BB9     		cbnz	r3, .L722
ARM GAS  C:\Users\CL\AppData\Local\Temp\ccv2KUeF.s 			page 64


 3705 000a 80F87430 		strb	r3, [r0, #116]
 3706 000e FFF7FEFF 		bl	HAL_UART_MspInit
 3707              	.L722:
 3708 0012 2268     		ldr	r2, [r4]
 3709 0014 2423     		movs	r3, #36
 3710 0016 A367     		str	r3, [r4, #120]
 3711 0018 1368     		ldr	r3, [r2]
 3712 001a 23F00103 		bic	r3, r3, #1
 3713 001e 1360     		str	r3, [r2]
 3714 0020 2046     		mov	r0, r4
 3715 0022 FFF7FEFF 		bl	UART_SetConfig
 3716 0026 0128     		cmp	r0, #1
 3717 0028 1AD0     		beq	.L721
 3718 002a 636A     		ldr	r3, [r4, #36]
 3719 002c 13B1     		cbz	r3, .L724
 3720 002e 2046     		mov	r0, r4
 3721 0030 FFF7FEFF 		bl	UART_AdvFeatureConfig
 3722              	.L724:
 3723 0034 2368     		ldr	r3, [r4]
 3724 0036 5A68     		ldr	r2, [r3, #4]
 3725 0038 22F49042 		bic	r2, r2, #18432
 3726 003c 5A60     		str	r2, [r3, #4]
 3727 003e 9A68     		ldr	r2, [r3, #8]
 3728 0040 22F02202 		bic	r2, r2, #34
 3729 0044 9A60     		str	r2, [r3, #8]
 3730 0046 9A68     		ldr	r2, [r3, #8]
 3731 0048 42F00802 		orr	r2, r2, #8
 3732 004c 9A60     		str	r2, [r3, #8]
 3733 004e 1A68     		ldr	r2, [r3]
 3734 0050 42F00102 		orr	r2, r2, #1
 3735 0054 2046     		mov	r0, r4
 3736 0056 1A60     		str	r2, [r3]
 3737 0058 BDE81040 		pop	{r4, lr}
 3738 005c FFF7FEBF 		b	UART_CheckIdleState
 3739              	.L721:
 3740 0060 0120     		movs	r0, #1
 3741 0062 10BD     		pop	{r4, pc}
 3743              		.section	.text.HAL_LIN_Init,"ax",%progbits
 3744              		.align	1
 3745              		.global	HAL_LIN_Init
 3746              		.syntax unified
 3747              		.thumb
 3748              		.thumb_func
 3750              	HAL_LIN_Init:
 3751              		@ args = 0, pretend = 0, frame = 0
 3752              		@ frame_needed = 0, uses_anonymous_args = 0
 3753 0000 38B5     		push	{r3, r4, r5, lr}
 3754 0002 0D46     		mov	r5, r1
 3755 0004 0446     		mov	r4, r0
 3756 0006 0028     		cmp	r0, #0
 3757 0008 38D0     		beq	.L733
 3758 000a C369     		ldr	r3, [r0, #28]
 3759 000c B3F5004F 		cmp	r3, #32768
 3760 0010 34D0     		beq	.L733
 3761 0012 8368     		ldr	r3, [r0, #8]
 3762 0014 002B     		cmp	r3, #0
 3763 0016 31D1     		bne	.L733
ARM GAS  C:\Users\CL\AppData\Local\Temp\ccv2KUeF.s 			page 65


 3764 0018 836F     		ldr	r3, [r0, #120]
 3765 001a 1BB9     		cbnz	r3, .L735
 3766 001c 80F87430 		strb	r3, [r0, #116]
 3767 0020 FFF7FEFF 		bl	HAL_UART_MspInit
 3768              	.L735:
 3769 0024 2268     		ldr	r2, [r4]
 3770 0026 2423     		movs	r3, #36
 3771 0028 A367     		str	r3, [r4, #120]
 3772 002a 1368     		ldr	r3, [r2]
 3773 002c 23F00103 		bic	r3, r3, #1
 3774 0030 1360     		str	r3, [r2]
 3775 0032 2046     		mov	r0, r4
 3776 0034 FFF7FEFF 		bl	UART_SetConfig
 3777 0038 0128     		cmp	r0, #1
 3778 003a 1FD0     		beq	.L733
 3779 003c 636A     		ldr	r3, [r4, #36]
 3780 003e 13B1     		cbz	r3, .L736
 3781 0040 2046     		mov	r0, r4
 3782 0042 FFF7FEFF 		bl	UART_AdvFeatureConfig
 3783              	.L736:
 3784 0046 2368     		ldr	r3, [r4]
 3785 0048 5A68     		ldr	r2, [r3, #4]
 3786 004a 22F40062 		bic	r2, r2, #2048
 3787 004e 5A60     		str	r2, [r3, #4]
 3788 0050 9A68     		ldr	r2, [r3, #8]
 3789 0052 22F02A02 		bic	r2, r2, #42
 3790 0056 9A60     		str	r2, [r3, #8]
 3791 0058 5A68     		ldr	r2, [r3, #4]
 3792 005a 42F48042 		orr	r2, r2, #16384
 3793 005e 5A60     		str	r2, [r3, #4]
 3794 0060 5A68     		ldr	r2, [r3, #4]
 3795 0062 22F02002 		bic	r2, r2, #32
 3796 0066 2A43     		orrs	r2, r2, r5
 3797 0068 5A60     		str	r2, [r3, #4]
 3798 006a 1A68     		ldr	r2, [r3]
 3799 006c 42F00102 		orr	r2, r2, #1
 3800 0070 1A60     		str	r2, [r3]
 3801 0072 2046     		mov	r0, r4
 3802 0074 BDE83840 		pop	{r3, r4, r5, lr}
 3803 0078 FFF7FEBF 		b	UART_CheckIdleState
 3804              	.L733:
 3805 007c 0120     		movs	r0, #1
 3806 007e 38BD     		pop	{r3, r4, r5, pc}
 3808              		.section	.text.HAL_MultiProcessor_Init,"ax",%progbits
 3809              		.align	1
 3810              		.global	HAL_MultiProcessor_Init
 3811              		.syntax unified
 3812              		.thumb
 3813              		.thumb_func
 3815              	HAL_MultiProcessor_Init:
 3816              		@ args = 0, pretend = 0, frame = 0
 3817              		@ frame_needed = 0, uses_anonymous_args = 0
 3818 0000 70B5     		push	{r4, r5, r6, lr}
 3819 0002 0E46     		mov	r6, r1
 3820 0004 1546     		mov	r5, r2
 3821 0006 0446     		mov	r4, r0
 3822 0008 0028     		cmp	r0, #0
ARM GAS  C:\Users\CL\AppData\Local\Temp\ccv2KUeF.s 			page 66


 3823 000a 36D0     		beq	.L748
 3824 000c 836F     		ldr	r3, [r0, #120]
 3825 000e 1BB9     		cbnz	r3, .L749
 3826 0010 80F87430 		strb	r3, [r0, #116]
 3827 0014 FFF7FEFF 		bl	HAL_UART_MspInit
 3828              	.L749:
 3829 0018 2268     		ldr	r2, [r4]
 3830 001a 2423     		movs	r3, #36
 3831 001c A367     		str	r3, [r4, #120]
 3832 001e 1368     		ldr	r3, [r2]
 3833 0020 23F00103 		bic	r3, r3, #1
 3834 0024 1360     		str	r3, [r2]
 3835 0026 2046     		mov	r0, r4
 3836 0028 FFF7FEFF 		bl	UART_SetConfig
 3837 002c 0128     		cmp	r0, #1
 3838 002e 24D0     		beq	.L748
 3839 0030 636A     		ldr	r3, [r4, #36]
 3840 0032 13B1     		cbz	r3, .L751
 3841 0034 2046     		mov	r0, r4
 3842 0036 FFF7FEFF 		bl	UART_AdvFeatureConfig
 3843              	.L751:
 3844 003a 2368     		ldr	r3, [r4]
 3845 003c 5A68     		ldr	r2, [r3, #4]
 3846 003e 22F49042 		bic	r2, r2, #18432
 3847 0042 5A60     		str	r2, [r3, #4]
 3848 0044 9A68     		ldr	r2, [r3, #8]
 3849 0046 22F02A02 		bic	r2, r2, #42
 3850 004a 9A60     		str	r2, [r3, #8]
 3851 004c B5F5006F 		cmp	r5, #2048
 3852 0050 01BF     		itttt	eq
 3853 0052 5868     		ldreq	r0, [r3, #4]
 3854 0054 20F07F40 		biceq	r0, r0, #-16777216
 3855 0058 40EA0660 		orreq	r0, r0, r6, lsl #24
 3856 005c 5860     		streq	r0, [r3, #4]
 3857 005e 1968     		ldr	r1, [r3]
 3858 0060 21F40061 		bic	r1, r1, #2048
 3859 0064 2943     		orrs	r1, r1, r5
 3860 0066 1960     		str	r1, [r3]
 3861 0068 1A68     		ldr	r2, [r3]
 3862 006a 42F00102 		orr	r2, r2, #1
 3863 006e 2046     		mov	r0, r4
 3864 0070 1A60     		str	r2, [r3]
 3865 0072 BDE87040 		pop	{r4, r5, r6, lr}
 3866 0076 FFF7FEBF 		b	UART_CheckIdleState
 3867              	.L748:
 3868 007a 0120     		movs	r0, #1
 3869 007c 70BD     		pop	{r4, r5, r6, pc}
 3871              		.section	.text.HAL_MultiProcessor_EnableMuteMode,"ax",%progbits
 3872              		.align	1
 3873              		.global	HAL_MultiProcessor_EnableMuteMode
 3874              		.syntax unified
 3875              		.thumb
 3876              		.thumb_func
 3878              	HAL_MultiProcessor_EnableMuteMode:
 3879              		@ args = 0, pretend = 0, frame = 0
 3880              		@ frame_needed = 0, uses_anonymous_args = 0
 3881              		@ link register save eliminated.
ARM GAS  C:\Users\CL\AppData\Local\Temp\ccv2KUeF.s 			page 67


 3882 0000 90F87430 		ldrb	r3, [r0, #116]	@ zero_extendqisi2
 3883 0004 012B     		cmp	r3, #1
 3884 0006 11D0     		beq	.L760
 3885 0008 0123     		movs	r3, #1
 3886 000a 80F87430 		strb	r3, [r0, #116]
 3887 000e 2423     		movs	r3, #36
 3888 0010 8367     		str	r3, [r0, #120]
 3889              	.L761:
 3890 0012 0268     		ldr	r2, [r0]
 3891              		.syntax unified
 3892              	@ 1155 "Drivers/CMSIS/Include/cmsis_gcc.h" 1
 3893 0014 52E8003F 		ldrex r3, [r2]
 3894              	@ 0 "" 2
 3895              		.thumb
 3896              		.syntax unified
 3897 0018 43F40053 		orr	r3, r3, #8192
 3898              		.syntax unified
 3899              	@ 1206 "Drivers/CMSIS/Include/cmsis_gcc.h" 1
 3900 001c 42E80031 		strex r1, r3, [r2]
 3901              	@ 0 "" 2
 3902              		.thumb
 3903              		.syntax unified
 3904 0020 0029     		cmp	r1, #0
 3905 0022 F6D1     		bne	.L761
 3906 0024 2023     		movs	r3, #32
 3907 0026 8367     		str	r3, [r0, #120]
 3908 0028 FFF7FEBF 		b	UART_CheckIdleState
 3909              	.L760:
 3910 002c 0220     		movs	r0, #2
 3911 002e 7047     		bx	lr
 3913              		.section	.text.HAL_MultiProcessor_DisableMuteMode,"ax",%progbits
 3914              		.align	1
 3915              		.global	HAL_MultiProcessor_DisableMuteMode
 3916              		.syntax unified
 3917              		.thumb
 3918              		.thumb_func
 3920              	HAL_MultiProcessor_DisableMuteMode:
 3921              		@ args = 0, pretend = 0, frame = 0
 3922              		@ frame_needed = 0, uses_anonymous_args = 0
 3923              		@ link register save eliminated.
 3924 0000 90F87430 		ldrb	r3, [r0, #116]	@ zero_extendqisi2
 3925 0004 012B     		cmp	r3, #1
 3926 0006 11D0     		beq	.L764
 3927 0008 0123     		movs	r3, #1
 3928 000a 80F87430 		strb	r3, [r0, #116]
 3929 000e 2423     		movs	r3, #36
 3930 0010 8367     		str	r3, [r0, #120]
 3931              	.L765:
 3932 0012 0268     		ldr	r2, [r0]
 3933              		.syntax unified
 3934              	@ 1155 "Drivers/CMSIS/Include/cmsis_gcc.h" 1
 3935 0014 52E8003F 		ldrex r3, [r2]
 3936              	@ 0 "" 2
 3937              		.thumb
 3938              		.syntax unified
 3939 0018 23F40053 		bic	r3, r3, #8192
 3940              		.syntax unified
ARM GAS  C:\Users\CL\AppData\Local\Temp\ccv2KUeF.s 			page 68


 3941              	@ 1206 "Drivers/CMSIS/Include/cmsis_gcc.h" 1
 3942 001c 42E80031 		strex r1, r3, [r2]
 3943              	@ 0 "" 2
 3944              		.thumb
 3945              		.syntax unified
 3946 0020 0029     		cmp	r1, #0
 3947 0022 F6D1     		bne	.L765
 3948 0024 2023     		movs	r3, #32
 3949 0026 8367     		str	r3, [r0, #120]
 3950 0028 FFF7FEBF 		b	UART_CheckIdleState
 3951              	.L764:
 3952 002c 0220     		movs	r0, #2
 3953 002e 7047     		bx	lr
 3955              		.section	.text.UART_Start_Receive_IT,"ax",%progbits
 3956              		.align	1
 3957              		.global	UART_Start_Receive_IT
 3958              		.syntax unified
 3959              		.thumb
 3960              		.thumb_func
 3962              	UART_Start_Receive_IT:
 3963              		@ args = 0, pretend = 0, frame = 0
 3964              		@ frame_needed = 0, uses_anonymous_args = 0
 3965 0000 8368     		ldr	r3, [r0, #8]
 3966 0002 10B5     		push	{r4, lr}
 3967 0004 B3F5805F 		cmp	r3, #4096
 3968 0008 A0F85820 		strh	r2, [r0, #88]	@ movhi
 3969 000c A0F85A20 		strh	r2, [r0, #90]	@ movhi
 3970 0010 4FF00002 		mov	r2, #0
 3971 0014 4165     		str	r1, [r0, #84]
 3972 0016 4266     		str	r2, [r0, #100]
 3973 0018 32D1     		bne	.L768
 3974 001a 0369     		ldr	r3, [r0, #16]
 3975 001c 73BB     		cbnz	r3, .L769
 3976 001e 40F2FF13 		movw	r3, #511
 3977              	.L793:
 3978 0022 A0F85C30 		strh	r3, [r0, #92]	@ movhi
 3979              	.L770:
 3980 0026 0023     		movs	r3, #0
 3981 0028 C0F88030 		str	r3, [r0, #128]
 3982 002c 2223     		movs	r3, #34
 3983 002e C367     		str	r3, [r0, #124]
 3984              	.L774:
 3985 0030 0268     		ldr	r2, [r0]
 3986 0032 02F10803 		add	r3, r2, #8
 3987              		.syntax unified
 3988              	@ 1155 "Drivers/CMSIS/Include/cmsis_gcc.h" 1
 3989 0036 53E8003F 		ldrex r3, [r3]
 3990              	@ 0 "" 2
 3991              		.thumb
 3992              		.syntax unified
 3993 003a 43F00103 		orr	r3, r3, #1
 3994 003e 0832     		adds	r2, r2, #8
 3995              		.syntax unified
 3996              	@ 1206 "Drivers/CMSIS/Include/cmsis_gcc.h" 1
 3997 0040 42E80031 		strex r1, r3, [r2]
 3998              	@ 0 "" 2
 3999              		.thumb
ARM GAS  C:\Users\CL\AppData\Local\Temp\ccv2KUeF.s 			page 69


 4000              		.syntax unified
 4001 0044 0268     		ldr	r2, [r0]
 4002 0046 0029     		cmp	r1, #0
 4003 0048 F2D1     		bne	.L774
 4004 004a 8368     		ldr	r3, [r0, #8]
 4005 004c 0169     		ldr	r1, [r0, #16]
 4006 004e B3F5805F 		cmp	r3, #4096
 4007 0052 26D1     		bne	.L779
 4008 0054 184B     		ldr	r3, .L794
 4009 0056 194C     		ldr	r4, .L794+4
 4010 0058 0029     		cmp	r1, #0
 4011 005a 18BF     		it	ne
 4012 005c 2346     		movne	r3, r4
 4013              	.L775:
 4014 005e 4366     		str	r3, [r0, #100]
 4015 0060 0023     		movs	r3, #0
 4016 0062 80F87430 		strb	r3, [r0, #116]
 4017 0066 F1B1     		cbz	r1, .L776
 4018              	.L777:
 4019              		.syntax unified
 4020              	@ 1155 "Drivers/CMSIS/Include/cmsis_gcc.h" 1
 4021 0068 52E8003F 		ldrex r3, [r2]
 4022              	@ 0 "" 2
 4023              		.thumb
 4024              		.syntax unified
 4025 006c 43F49073 		orr	r3, r3, #288
 4026              		.syntax unified
 4027              	@ 1206 "Drivers/CMSIS/Include/cmsis_gcc.h" 1
 4028 0070 42E80031 		strex r1, r3, [r2]
 4029              	@ 0 "" 2
 4030              		.thumb
 4031              		.syntax unified
 4032 0074 0029     		cmp	r1, #0
 4033 0076 F7D1     		bne	.L777
 4034              	.L792:
 4035 0078 0020     		movs	r0, #0
 4036 007a 10BD     		pop	{r4, pc}
 4037              	.L769:
 4038 007c FF23     		movs	r3, #255
 4039 007e D0E7     		b	.L793
 4040              	.L768:
 4041 0080 23B9     		cbnz	r3, .L771
 4042 0082 0369     		ldr	r3, [r0, #16]
 4043 0084 002B     		cmp	r3, #0
 4044 0086 F9D0     		beq	.L769
 4045              	.L773:
 4046 0088 7F23     		movs	r3, #127
 4047 008a CAE7     		b	.L793
 4048              	.L771:
 4049 008c B3F1805F 		cmp	r3, #268435456
 4050 0090 04D1     		bne	.L772
 4051 0092 0369     		ldr	r3, [r0, #16]
 4052 0094 002B     		cmp	r3, #0
 4053 0096 F7D0     		beq	.L773
 4054 0098 3F23     		movs	r3, #63
 4055 009a C2E7     		b	.L793
 4056              	.L772:
ARM GAS  C:\Users\CL\AppData\Local\Temp\ccv2KUeF.s 			page 70


 4057 009c A0F85C20 		strh	r2, [r0, #92]	@ movhi
 4058 00a0 C1E7     		b	.L770
 4059              	.L779:
 4060 00a2 064B     		ldr	r3, .L794+4
 4061 00a4 DBE7     		b	.L775
 4062              	.L776:
 4063              		.syntax unified
 4064              	@ 1155 "Drivers/CMSIS/Include/cmsis_gcc.h" 1
 4065 00a6 52E8003F 		ldrex r3, [r2]
 4066              	@ 0 "" 2
 4067              		.thumb
 4068              		.syntax unified
 4069 00aa 43F02003 		orr	r3, r3, #32
 4070              		.syntax unified
 4071              	@ 1206 "Drivers/CMSIS/Include/cmsis_gcc.h" 1
 4072 00ae 42E80031 		strex r1, r3, [r2]
 4073              	@ 0 "" 2
 4074              		.thumb
 4075              		.syntax unified
 4076 00b2 0029     		cmp	r1, #0
 4077 00b4 F7D1     		bne	.L776
 4078 00b6 DFE7     		b	.L792
 4079              	.L795:
 4080              		.align	2
 4081              	.L794:
 4082 00b8 00000000 		.word	UART_RxISR_16BIT
 4083 00bc 00000000 		.word	UART_RxISR_8BIT
 4085              		.section	.text.HAL_UART_Receive_IT,"ax",%progbits
 4086              		.align	1
 4087              		.global	HAL_UART_Receive_IT
 4088              		.syntax unified
 4089              		.thumb
 4090              		.thumb_func
 4092              	HAL_UART_Receive_IT:
 4093              		@ args = 0, pretend = 0, frame = 0
 4094              		@ frame_needed = 0, uses_anonymous_args = 0
 4095              		@ link register save eliminated.
 4096 0000 C36F     		ldr	r3, [r0, #124]
 4097 0002 202B     		cmp	r3, #32
 4098 0004 30B4     		push	{r4, r5}
 4099 0006 1FD1     		bne	.L803
 4100 0008 D9B1     		cbz	r1, .L802
 4101 000a D2B1     		cbz	r2, .L802
 4102 000c 90F87430 		ldrb	r3, [r0, #116]	@ zero_extendqisi2
 4103 0010 012B     		cmp	r3, #1
 4104 0012 19D0     		beq	.L803
 4105 0014 0123     		movs	r3, #1
 4106 0016 80F87430 		strb	r3, [r0, #116]
 4107 001a 0023     		movs	r3, #0
 4108 001c 0468     		ldr	r4, [r0]
 4109 001e 0366     		str	r3, [r0, #96]
 4110 0020 0A4B     		ldr	r3, .L808
 4111 0022 9C42     		cmp	r4, r3
 4112 0024 0AD0     		beq	.L798
 4113 0026 6368     		ldr	r3, [r4, #4]
 4114 0028 1B02     		lsls	r3, r3, #8
 4115 002a 07D5     		bpl	.L798
ARM GAS  C:\Users\CL\AppData\Local\Temp\ccv2KUeF.s 			page 71


 4116              	.L799:
 4117              		.syntax unified
 4118              	@ 1155 "Drivers/CMSIS/Include/cmsis_gcc.h" 1
 4119 002c 54E8003F 		ldrex r3, [r4]
 4120              	@ 0 "" 2
 4121              		.thumb
 4122              		.syntax unified
 4123 0030 43F08063 		orr	r3, r3, #67108864
 4124              		.syntax unified
 4125              	@ 1206 "Drivers/CMSIS/Include/cmsis_gcc.h" 1
 4126 0034 44E80035 		strex r5, r3, [r4]
 4127              	@ 0 "" 2
 4128              		.thumb
 4129              		.syntax unified
 4130 0038 002D     		cmp	r5, #0
 4131 003a F7D1     		bne	.L799
 4132              	.L798:
 4133 003c 30BC     		pop	{r4, r5}
 4134 003e FFF7FEBF 		b	UART_Start_Receive_IT
 4135              	.L802:
 4136 0042 0120     		movs	r0, #1
 4137              	.L797:
 4138 0044 30BC     		pop	{r4, r5}
 4139 0046 7047     		bx	lr
 4140              	.L803:
 4141 0048 0220     		movs	r0, #2
 4142 004a FBE7     		b	.L797
 4143              	.L809:
 4144              		.align	2
 4145              	.L808:
 4146 004c 00800040 		.word	1073774592
 4148              		.section	.text.UART_Start_Receive_DMA,"ax",%progbits
 4149              		.align	1
 4150              		.global	UART_Start_Receive_DMA
 4151              		.syntax unified
 4152              		.thumb
 4153              		.thumb_func
 4155              	UART_Start_Receive_DMA:
 4156              		@ args = 0, pretend = 0, frame = 0
 4157              		@ frame_needed = 0, uses_anonymous_args = 0
 4158 0000 70B5     		push	{r4, r5, r6, lr}
 4159 0002 2223     		movs	r3, #34
 4160 0004 0025     		movs	r5, #0
 4161 0006 C0F88050 		str	r5, [r0, #128]
 4162 000a 0446     		mov	r4, r0
 4163 000c 4165     		str	r1, [r0, #84]
 4164 000e A0F85820 		strh	r2, [r0, #88]	@ movhi
 4165 0012 C367     		str	r3, [r0, #124]
 4166 0014 006F     		ldr	r0, [r0, #112]
 4167 0016 B8B1     		cbz	r0, .L811
 4168 0018 1F4B     		ldr	r3, .L827
 4169 001a 2668     		ldr	r6, [r4]
 4170 001c C362     		str	r3, [r0, #44]
 4171 001e 1F4B     		ldr	r3, .L827+4
 4172 0020 0363     		str	r3, [r0, #48]
 4173 0022 1F4B     		ldr	r3, .L827+8
 4174 0024 C0E90D35 		strd	r3, r5, [r0, #52]
ARM GAS  C:\Users\CL\AppData\Local\Temp\ccv2KUeF.s 			page 72


 4175 0028 1346     		mov	r3, r2
 4176 002a 0A46     		mov	r2, r1
 4177 002c 06F12401 		add	r1, r6, #36
 4178 0030 FFF7FEFF 		bl	HAL_DMA_Start_IT
 4179 0034 40B1     		cbz	r0, .L811
 4180 0036 1023     		movs	r3, #16
 4181 0038 C4F88030 		str	r3, [r4, #128]
 4182 003c 2023     		movs	r3, #32
 4183 003e 84F87450 		strb	r5, [r4, #116]
 4184 0042 E367     		str	r3, [r4, #124]
 4185 0044 0120     		movs	r0, #1
 4186              	.L812:
 4187 0046 70BD     		pop	{r4, r5, r6, pc}
 4188              	.L811:
 4189 0048 2269     		ldr	r2, [r4, #16]
 4190 004a 0023     		movs	r3, #0
 4191 004c 84F87430 		strb	r3, [r4, #116]
 4192 0050 2368     		ldr	r3, [r4]
 4193 0052 3AB1     		cbz	r2, .L814
 4194              	.L813:
 4195              		.syntax unified
 4196              	@ 1155 "Drivers/CMSIS/Include/cmsis_gcc.h" 1
 4197 0054 53E8002F 		ldrex r2, [r3]
 4198              	@ 0 "" 2
 4199              		.thumb
 4200              		.syntax unified
 4201 0058 42F48072 		orr	r2, r2, #256
 4202              		.syntax unified
 4203              	@ 1206 "Drivers/CMSIS/Include/cmsis_gcc.h" 1
 4204 005c 43E80021 		strex r1, r2, [r3]
 4205              	@ 0 "" 2
 4206              		.thumb
 4207              		.syntax unified
 4208 0060 0029     		cmp	r1, #0
 4209 0062 F7D1     		bne	.L813
 4210              	.L814:
 4211 0064 03F10802 		add	r2, r3, #8
 4212              		.syntax unified
 4213              	@ 1155 "Drivers/CMSIS/Include/cmsis_gcc.h" 1
 4214 0068 52E8002F 		ldrex r2, [r2]
 4215              	@ 0 "" 2
 4216              		.thumb
 4217              		.syntax unified
 4218 006c 42F00102 		orr	r2, r2, #1
 4219 0070 03F10800 		add	r0, r3, #8
 4220              		.syntax unified
 4221              	@ 1206 "Drivers/CMSIS/Include/cmsis_gcc.h" 1
 4222 0074 40E80021 		strex r1, r2, [r0]
 4223              	@ 0 "" 2
 4224              		.thumb
 4225              		.syntax unified
 4226 0078 0029     		cmp	r1, #0
 4227 007a F3D1     		bne	.L814
 4228              	.L816:
 4229 007c 03F10802 		add	r2, r3, #8
 4230              		.syntax unified
 4231              	@ 1155 "Drivers/CMSIS/Include/cmsis_gcc.h" 1
ARM GAS  C:\Users\CL\AppData\Local\Temp\ccv2KUeF.s 			page 73


 4232 0080 52E8002F 		ldrex r2, [r2]
 4233              	@ 0 "" 2
 4234              		.thumb
 4235              		.syntax unified
 4236 0084 42F04002 		orr	r2, r2, #64
 4237 0088 03F10801 		add	r1, r3, #8
 4238              		.syntax unified
 4239              	@ 1206 "Drivers/CMSIS/Include/cmsis_gcc.h" 1
 4240 008c 41E80020 		strex r0, r2, [r1]
 4241              	@ 0 "" 2
 4242              		.thumb
 4243              		.syntax unified
 4244 0090 0028     		cmp	r0, #0
 4245 0092 F3D1     		bne	.L816
 4246 0094 D7E7     		b	.L812
 4247              	.L828:
 4248 0096 00BF     		.align	2
 4249              	.L827:
 4250 0098 00000000 		.word	UART_DMAReceiveCplt
 4251 009c 00000000 		.word	UART_DMARxHalfCplt
 4252 00a0 00000000 		.word	UART_DMAError
 4254              		.section	.text.HAL_UART_Receive_DMA,"ax",%progbits
 4255              		.align	1
 4256              		.global	HAL_UART_Receive_DMA
 4257              		.syntax unified
 4258              		.thumb
 4259              		.thumb_func
 4261              	HAL_UART_Receive_DMA:
 4262              		@ args = 0, pretend = 0, frame = 0
 4263              		@ frame_needed = 0, uses_anonymous_args = 0
 4264              		@ link register save eliminated.
 4265 0000 C36F     		ldr	r3, [r0, #124]
 4266 0002 202B     		cmp	r3, #32
 4267 0004 30B4     		push	{r4, r5}
 4268 0006 1FD1     		bne	.L836
 4269 0008 D9B1     		cbz	r1, .L835
 4270 000a D2B1     		cbz	r2, .L835
 4271 000c 90F87430 		ldrb	r3, [r0, #116]	@ zero_extendqisi2
 4272 0010 012B     		cmp	r3, #1
 4273 0012 19D0     		beq	.L836
 4274 0014 0123     		movs	r3, #1
 4275 0016 80F87430 		strb	r3, [r0, #116]
 4276 001a 0023     		movs	r3, #0
 4277 001c 0468     		ldr	r4, [r0]
 4278 001e 0366     		str	r3, [r0, #96]
 4279 0020 0A4B     		ldr	r3, .L841
 4280 0022 9C42     		cmp	r4, r3
 4281 0024 0AD0     		beq	.L831
 4282 0026 6368     		ldr	r3, [r4, #4]
 4283 0028 1B02     		lsls	r3, r3, #8
 4284 002a 07D5     		bpl	.L831
 4285              	.L832:
 4286              		.syntax unified
 4287              	@ 1155 "Drivers/CMSIS/Include/cmsis_gcc.h" 1
 4288 002c 54E8003F 		ldrex r3, [r4]
 4289              	@ 0 "" 2
 4290              		.thumb
ARM GAS  C:\Users\CL\AppData\Local\Temp\ccv2KUeF.s 			page 74


 4291              		.syntax unified
 4292 0030 43F08063 		orr	r3, r3, #67108864
 4293              		.syntax unified
 4294              	@ 1206 "Drivers/CMSIS/Include/cmsis_gcc.h" 1
 4295 0034 44E80035 		strex r5, r3, [r4]
 4296              	@ 0 "" 2
 4297              		.thumb
 4298              		.syntax unified
 4299 0038 002D     		cmp	r5, #0
 4300 003a F7D1     		bne	.L832
 4301              	.L831:
 4302 003c 30BC     		pop	{r4, r5}
 4303 003e FFF7FEBF 		b	UART_Start_Receive_DMA
 4304              	.L835:
 4305 0042 0120     		movs	r0, #1
 4306              	.L830:
 4307 0044 30BC     		pop	{r4, r5}
 4308 0046 7047     		bx	lr
 4309              	.L836:
 4310 0048 0220     		movs	r0, #2
 4311 004a FBE7     		b	.L830
 4312              	.L842:
 4313              		.align	2
 4314              	.L841:
 4315 004c 00800040 		.word	1073774592
 4317              		.section	.rodata.CSWTCH.53,"a"
 4318              		.set	.LANCHOR0,. + 0
 4321              	CSWTCH.53:
 4322 0000 04       		.byte	4
 4323 0001 02       		.byte	2
 4324 0002 08       		.byte	8
 4325              		.section	.rodata.CSWTCH.54,"a"
 4326              		.set	.LANCHOR1,. + 0
 4329              	CSWTCH.54:
 4330 0000 00       		.byte	0
 4331 0001 10       		.byte	16
 4332 0002 10       		.byte	16
 4333 0003 10       		.byte	16
 4334 0004 04       		.byte	4
 4335 0005 10       		.byte	16
 4336 0006 10       		.byte	16
 4337 0007 10       		.byte	16
 4338 0008 02       		.byte	2
 4339 0009 10       		.byte	16
 4340 000a 10       		.byte	16
 4341 000b 10       		.byte	16
 4342 000c 08       		.byte	8
 4343              		.ident	"GCC: (GNU Arm Embedded Toolchain 10.3-2021.10) 10.3.1 20210824 (release)"
ARM GAS  C:\Users\CL\AppData\Local\Temp\ccv2KUeF.s 			page 75

