ARM GAS  C:\Users\CL\AppData\Local\Temp\ccg4mYET.s 			page 1


   1              		.cpu cortex-m4
   2              		.arch armv7e-m
   3              		.fpu fpv4-sp-d16
   4              		.eabi_attribute 27, 1
   5              		.eabi_attribute 28, 1
   6              		.eabi_attribute 20, 1
   7              		.eabi_attribute 21, 1
   8              		.eabi_attribute 23, 3
   9              		.eabi_attribute 24, 1
  10              		.eabi_attribute 25, 1
  11              		.eabi_attribute 26, 1
  12              		.eabi_attribute 30, 4
  13              		.eabi_attribute 34, 1
  14              		.eabi_attribute 18, 4
  15              		.file	"SX1278.c"
  16              		.text
  17              	.Ltext0:
  18              		.cfi_sections	.debug_frame
  19              		.section	.text.SX1278_SPIBurstWrite.part.0,"ax",%progbits
  20              		.align	1
  21              		.syntax unified
  22              		.thumb
  23              		.thumb_func
  25              	SX1278_SPIBurstWrite.part.0:
  26              	.LVL0:
  27              	.LFB311:
  28              		.file 1 "FML/Src/SX1278.c"
   1:FML/Src/SX1278.c **** /**
   2:FML/Src/SX1278.c ****  * Author Wojciech Domski <Wojciech.Domski@gmail.com>
   3:FML/Src/SX1278.c ****  * www: www.Domski.pl
   4:FML/Src/SX1278.c ****  *
   5:FML/Src/SX1278.c ****  * work based on DORJI.COM sample code and
   6:FML/Src/SX1278.c ****  * https://github.com/realspinner/SX1278_LoRa
   7:FML/Src/SX1278.c ****  */
   8:FML/Src/SX1278.c **** 
   9:FML/Src/SX1278.c **** #include "SX1278.h"
  10:FML/Src/SX1278.c **** #include <string.h>
  11:FML/Src/SX1278.c **** #include "spi.h"
  12:FML/Src/SX1278.c **** #include "shell_port.h"
  13:FML/Src/SX1278.c **** 
  14:FML/Src/SX1278.c **** uint8_t lora_cache[2][30] = {0xff,};
  15:FML/Src/SX1278.c **** 
  16:FML/Src/SX1278.c **** 
  17:FML/Src/SX1278.c **** SX1278_t Lora_dev[]={
  18:FML/Src/SX1278.c **** 	{
  19:FML/Src/SX1278.c **** 	 .hw = &lora_dev_hw[0],
  20:FML/Src/SX1278.c **** 	 .frequency = 437000000,
  21:FML/Src/SX1278.c **** 	 .power = 20,
  22:FML/Src/SX1278.c **** 	 .LoRa_SF = 1,
  23:FML/Src/SX1278.c **** 	 .LoRa_BW = 2,
  24:FML/Src/SX1278.c **** 	 .LoRa_CR = 1,
  25:FML/Src/SX1278.c **** 	 .LoRa_CRC_sum = 0,
  26:FML/Src/SX1278.c **** 	 .packetLength = 0, 
  27:FML/Src/SX1278.c **** 	 .readBytes = 0,
  28:FML/Src/SX1278.c **** 	},
  29:FML/Src/SX1278.c **** 	{
  30:FML/Src/SX1278.c **** 	 .hw = &lora_dev_hw[1],
ARM GAS  C:\Users\CL\AppData\Local\Temp\ccg4mYET.s 			page 2


  31:FML/Src/SX1278.c **** 	 .frequency = 437000000,
  32:FML/Src/SX1278.c **** 	 .power = 20,
  33:FML/Src/SX1278.c **** 	 .LoRa_SF = 1,
  34:FML/Src/SX1278.c **** 	 .LoRa_BW = 2,
  35:FML/Src/SX1278.c **** 	 .LoRa_CR = 1,
  36:FML/Src/SX1278.c **** 	 .LoRa_CRC_sum = 0,
  37:FML/Src/SX1278.c **** 	 .packetLength = 0, 
  38:FML/Src/SX1278.c **** 	 .readBytes = 0,
  39:FML/Src/SX1278.c **** 	}
  40:FML/Src/SX1278.c **** };
  41:FML/Src/SX1278.c **** 
  42:FML/Src/SX1278.c **** uint8_t SX1278_SPIRead(SX1278_t *module, uint8_t addr) {
  43:FML/Src/SX1278.c **** 	uint8_t tmp;
  44:FML/Src/SX1278.c **** 	SX1278_hw_SPICommand(module->hw, addr);
  45:FML/Src/SX1278.c **** 	tmp = SX1278_hw_SPIReadByte(module->hw);
  46:FML/Src/SX1278.c **** 	SX1278_hw_SetNSS(module->hw, 1);
  47:FML/Src/SX1278.c **** 	return tmp;
  48:FML/Src/SX1278.c **** }
  49:FML/Src/SX1278.c **** 
  50:FML/Src/SX1278.c **** void SX1278_SPIWrite(SX1278_t *module, uint8_t addr, uint8_t cmd) {
  51:FML/Src/SX1278.c **** 	SX1278_hw_SetNSS(module->hw, 0);
  52:FML/Src/SX1278.c **** 	SX1278_hw_SPICommand(module->hw, addr | 0x80);
  53:FML/Src/SX1278.c **** 	SX1278_hw_SPICommand(module->hw, cmd);
  54:FML/Src/SX1278.c **** 	SX1278_hw_SetNSS(module->hw, 1);
  55:FML/Src/SX1278.c **** }
  56:FML/Src/SX1278.c **** 
  57:FML/Src/SX1278.c **** void SX1278_SPIBurstRead(SX1278_t *module, uint8_t addr, uint8_t *rxBuf,
  58:FML/Src/SX1278.c **** 		uint8_t length) {
  59:FML/Src/SX1278.c **** 	uint8_t i;
  60:FML/Src/SX1278.c **** 	if (length <= 1) {
  61:FML/Src/SX1278.c **** 		return;
  62:FML/Src/SX1278.c **** 	} else {
  63:FML/Src/SX1278.c **** 		SX1278_hw_SetNSS(module->hw, 0);
  64:FML/Src/SX1278.c **** 		SX1278_hw_SPICommand(module->hw, addr);
  65:FML/Src/SX1278.c **** 		for (i = 0; i < length; i++) {
  66:FML/Src/SX1278.c **** 			*(rxBuf + i) = SX1278_hw_SPIReadByte(module->hw);
  67:FML/Src/SX1278.c **** 		}
  68:FML/Src/SX1278.c **** 		SX1278_hw_SetNSS(module->hw, 1);
  69:FML/Src/SX1278.c **** 	}
  70:FML/Src/SX1278.c **** }
  71:FML/Src/SX1278.c **** 
  72:FML/Src/SX1278.c **** void SX1278_SPIBurstWrite(SX1278_t *module, uint8_t addr, uint8_t *txBuf,
  29              		.loc 1 72 6 view -0
  30              		.cfi_startproc
  31              		@ args = 0, pretend = 0, frame = 0
  32              		@ frame_needed = 0, uses_anonymous_args = 0
  33              		.loc 1 72 6 is_stmt 0 view .LVU1
  34 0000 F8B5     		push	{r3, r4, r5, r6, r7, lr}
  35              	.LCFI0:
  36              		.cfi_def_cfa_offset 24
  37              		.cfi_offset 3, -24
  38              		.cfi_offset 4, -20
  39              		.cfi_offset 5, -16
  40              		.cfi_offset 6, -12
  41              		.cfi_offset 7, -8
  42              		.cfi_offset 14, -4
  43              		.loc 1 72 6 view .LVU2
ARM GAS  C:\Users\CL\AppData\Local\Temp\ccg4mYET.s 			page 3


  44 0002 0646     		mov	r6, r0
  45 0004 0F46     		mov	r7, r1
  73:FML/Src/SX1278.c **** 		uint8_t length) {
  74:FML/Src/SX1278.c **** 	unsigned char i;
  75:FML/Src/SX1278.c **** 	if (length <= 1) {
  76:FML/Src/SX1278.c **** 		return;
  77:FML/Src/SX1278.c **** 	} else {
  78:FML/Src/SX1278.c **** 		SX1278_hw_SetNSS(module->hw, 0);
  46              		.loc 1 78 3 is_stmt 1 view .LVU3
  47 0006 0068     		ldr	r0, [r0]
  48              	.LVL1:
  49              		.loc 1 78 3 is_stmt 0 view .LVU4
  50 0008 0021     		movs	r1, #0
  51              	.LVL2:
  72:FML/Src/SX1278.c **** 		uint8_t length) {
  52              		.loc 1 72 6 view .LVU5
  53 000a 1446     		mov	r4, r2
  54 000c 1D46     		mov	r5, r3
  55              		.loc 1 78 3 view .LVU6
  56 000e FFF7FEFF 		bl	SX1278_hw_SetNSS
  57              	.LVL3:
  79:FML/Src/SX1278.c **** 		SX1278_hw_SPICommand(module->hw, addr | 0x80);
  58              		.loc 1 79 3 is_stmt 1 view .LVU7
  59 0012 3068     		ldr	r0, [r6]
  60 0014 47F08001 		orr	r1, r7, #128
  61 0018 FFF7FEFF 		bl	SX1278_hw_SPICommand
  62              	.LVL4:
  80:FML/Src/SX1278.c **** 		for (i = 0; i < length; i++) {
  63              		.loc 1 80 3 view .LVU8
  64              		.loc 1 80 3 is_stmt 0 view .LVU9
  65 001c 2544     		add	r5, r5, r4
  66              	.LVL5:
  67              	.L2:
  68              		.loc 1 80 15 is_stmt 1 view .LVU10
  69              		.loc 1 80 3 is_stmt 0 view .LVU11
  70 001e AC42     		cmp	r4, r5
  81:FML/Src/SX1278.c **** 			SX1278_hw_SPICommand(module->hw, *(txBuf + i));
  71              		.loc 1 81 4 view .LVU12
  72 0020 3068     		ldr	r0, [r6]
  80:FML/Src/SX1278.c **** 		for (i = 0; i < length; i++) {
  73              		.loc 1 80 3 view .LVU13
  74 0022 04D1     		bne	.L3
  82:FML/Src/SX1278.c **** 		}
  83:FML/Src/SX1278.c **** 		SX1278_hw_SetNSS(module->hw, 1);
  75              		.loc 1 83 3 is_stmt 1 view .LVU14
  84:FML/Src/SX1278.c **** 	}
  85:FML/Src/SX1278.c **** }
  76              		.loc 1 85 1 is_stmt 0 view .LVU15
  77 0024 BDE8F840 		pop	{r3, r4, r5, r6, r7, lr}
  78              	.LCFI1:
  79              		.cfi_remember_state
  80              		.cfi_restore 14
  81              		.cfi_restore 7
  82              		.cfi_restore 6
  83              		.cfi_restore 5
  84              		.cfi_restore 4
  85              		.cfi_restore 3
ARM GAS  C:\Users\CL\AppData\Local\Temp\ccg4mYET.s 			page 4


  86              		.cfi_def_cfa_offset 0
  87              	.LVL6:
  83:FML/Src/SX1278.c **** 	}
  88              		.loc 1 83 3 view .LVU16
  89 0028 0121     		movs	r1, #1
  90 002a FFF7FEBF 		b	SX1278_hw_SetNSS
  91              	.LVL7:
  92              	.L3:
  93              	.LCFI2:
  94              		.cfi_restore_state
  81:FML/Src/SX1278.c **** 		}
  95              		.loc 1 81 4 is_stmt 1 view .LVU17
  96 002e 14F8011B 		ldrb	r1, [r4], #1	@ zero_extendqisi2
  97              	.LVL8:
  81:FML/Src/SX1278.c **** 		}
  98              		.loc 1 81 4 is_stmt 0 view .LVU18
  99 0032 FFF7FEFF 		bl	SX1278_hw_SPICommand
 100              	.LVL9:
  80:FML/Src/SX1278.c **** 			SX1278_hw_SPICommand(module->hw, *(txBuf + i));
 101              		.loc 1 80 27 is_stmt 1 view .LVU19
  80:FML/Src/SX1278.c **** 			SX1278_hw_SPICommand(module->hw, *(txBuf + i));
 102              		.loc 1 80 27 is_stmt 0 view .LVU20
 103 0036 F2E7     		b	.L2
 104              		.cfi_endproc
 105              	.LFE311:
 107              		.section	.text.SX1278_SPIRead,"ax",%progbits
 108              		.align	1
 109              		.global	SX1278_SPIRead
 110              		.syntax unified
 111              		.thumb
 112              		.thumb_func
 114              	SX1278_SPIRead:
 115              	.LVL10:
 116              	.LFB288:
  42:FML/Src/SX1278.c **** 	uint8_t tmp;
 117              		.loc 1 42 56 is_stmt 1 view -0
 118              		.cfi_startproc
 119              		@ args = 0, pretend = 0, frame = 0
 120              		@ frame_needed = 0, uses_anonymous_args = 0
  43:FML/Src/SX1278.c **** 	SX1278_hw_SPICommand(module->hw, addr);
 121              		.loc 1 43 2 view .LVU22
  44:FML/Src/SX1278.c **** 	tmp = SX1278_hw_SPIReadByte(module->hw);
 122              		.loc 1 44 2 view .LVU23
  42:FML/Src/SX1278.c **** 	uint8_t tmp;
 123              		.loc 1 42 56 is_stmt 0 view .LVU24
 124 0000 38B5     		push	{r3, r4, r5, lr}
 125              	.LCFI3:
 126              		.cfi_def_cfa_offset 16
 127              		.cfi_offset 3, -16
 128              		.cfi_offset 4, -12
 129              		.cfi_offset 5, -8
 130              		.cfi_offset 14, -4
  42:FML/Src/SX1278.c **** 	uint8_t tmp;
 131              		.loc 1 42 56 view .LVU25
 132 0002 0446     		mov	r4, r0
  44:FML/Src/SX1278.c **** 	tmp = SX1278_hw_SPIReadByte(module->hw);
 133              		.loc 1 44 2 view .LVU26
ARM GAS  C:\Users\CL\AppData\Local\Temp\ccg4mYET.s 			page 5


 134 0004 0068     		ldr	r0, [r0]
 135              	.LVL11:
  44:FML/Src/SX1278.c **** 	tmp = SX1278_hw_SPIReadByte(module->hw);
 136              		.loc 1 44 2 view .LVU27
 137 0006 FFF7FEFF 		bl	SX1278_hw_SPICommand
 138              	.LVL12:
  45:FML/Src/SX1278.c **** 	SX1278_hw_SetNSS(module->hw, 1);
 139              		.loc 1 45 2 is_stmt 1 view .LVU28
  45:FML/Src/SX1278.c **** 	SX1278_hw_SetNSS(module->hw, 1);
 140              		.loc 1 45 8 is_stmt 0 view .LVU29
 141 000a 2068     		ldr	r0, [r4]
 142 000c FFF7FEFF 		bl	SX1278_hw_SPIReadByte
 143              	.LVL13:
  46:FML/Src/SX1278.c **** 	return tmp;
 144              		.loc 1 46 2 view .LVU30
 145 0010 0121     		movs	r1, #1
  45:FML/Src/SX1278.c **** 	SX1278_hw_SetNSS(module->hw, 1);
 146              		.loc 1 45 8 view .LVU31
 147 0012 0546     		mov	r5, r0
 148              	.LVL14:
  46:FML/Src/SX1278.c **** 	return tmp;
 149              		.loc 1 46 2 is_stmt 1 view .LVU32
 150 0014 2068     		ldr	r0, [r4]
 151 0016 FFF7FEFF 		bl	SX1278_hw_SetNSS
 152              	.LVL15:
  47:FML/Src/SX1278.c **** }
 153              		.loc 1 47 2 view .LVU33
  48:FML/Src/SX1278.c **** 
 154              		.loc 1 48 1 is_stmt 0 view .LVU34
 155 001a 2846     		mov	r0, r5
 156 001c 38BD     		pop	{r3, r4, r5, pc}
  48:FML/Src/SX1278.c **** 
 157              		.loc 1 48 1 view .LVU35
 158              		.cfi_endproc
 159              	.LFE288:
 161              		.section	.text.SX1278_SPIWrite,"ax",%progbits
 162              		.align	1
 163              		.global	SX1278_SPIWrite
 164              		.syntax unified
 165              		.thumb
 166              		.thumb_func
 168              	SX1278_SPIWrite:
 169              	.LVL16:
 170              	.LFB289:
  50:FML/Src/SX1278.c **** 	SX1278_hw_SetNSS(module->hw, 0);
 171              		.loc 1 50 67 is_stmt 1 view -0
 172              		.cfi_startproc
 173              		@ args = 0, pretend = 0, frame = 0
 174              		@ frame_needed = 0, uses_anonymous_args = 0
  51:FML/Src/SX1278.c **** 	SX1278_hw_SPICommand(module->hw, addr | 0x80);
 175              		.loc 1 51 2 view .LVU37
  50:FML/Src/SX1278.c **** 	SX1278_hw_SetNSS(module->hw, 0);
 176              		.loc 1 50 67 is_stmt 0 view .LVU38
 177 0000 70B5     		push	{r4, r5, r6, lr}
 178              	.LCFI4:
 179              		.cfi_def_cfa_offset 16
 180              		.cfi_offset 4, -16
ARM GAS  C:\Users\CL\AppData\Local\Temp\ccg4mYET.s 			page 6


 181              		.cfi_offset 5, -12
 182              		.cfi_offset 6, -8
 183              		.cfi_offset 14, -4
  50:FML/Src/SX1278.c **** 	SX1278_hw_SetNSS(module->hw, 0);
 184              		.loc 1 50 67 view .LVU39
 185 0002 0446     		mov	r4, r0
 186 0004 0E46     		mov	r6, r1
  51:FML/Src/SX1278.c **** 	SX1278_hw_SPICommand(module->hw, addr | 0x80);
 187              		.loc 1 51 2 view .LVU40
 188 0006 0068     		ldr	r0, [r0]
 189              	.LVL17:
  51:FML/Src/SX1278.c **** 	SX1278_hw_SPICommand(module->hw, addr | 0x80);
 190              		.loc 1 51 2 view .LVU41
 191 0008 0021     		movs	r1, #0
 192              	.LVL18:
  50:FML/Src/SX1278.c **** 	SX1278_hw_SetNSS(module->hw, 0);
 193              		.loc 1 50 67 view .LVU42
 194 000a 1546     		mov	r5, r2
  51:FML/Src/SX1278.c **** 	SX1278_hw_SPICommand(module->hw, addr | 0x80);
 195              		.loc 1 51 2 view .LVU43
 196 000c FFF7FEFF 		bl	SX1278_hw_SetNSS
 197              	.LVL19:
  52:FML/Src/SX1278.c **** 	SX1278_hw_SPICommand(module->hw, cmd);
 198              		.loc 1 52 2 is_stmt 1 view .LVU44
 199 0010 2068     		ldr	r0, [r4]
 200 0012 46F08001 		orr	r1, r6, #128
 201 0016 FFF7FEFF 		bl	SX1278_hw_SPICommand
 202              	.LVL20:
  53:FML/Src/SX1278.c **** 	SX1278_hw_SetNSS(module->hw, 1);
 203              		.loc 1 53 2 view .LVU45
 204 001a 2068     		ldr	r0, [r4]
 205 001c 2946     		mov	r1, r5
 206 001e FFF7FEFF 		bl	SX1278_hw_SPICommand
 207              	.LVL21:
  54:FML/Src/SX1278.c **** }
 208              		.loc 1 54 2 view .LVU46
 209 0022 2068     		ldr	r0, [r4]
 210 0024 0121     		movs	r1, #1
  55:FML/Src/SX1278.c **** 
 211              		.loc 1 55 1 is_stmt 0 view .LVU47
 212 0026 BDE87040 		pop	{r4, r5, r6, lr}
 213              	.LCFI5:
 214              		.cfi_restore 14
 215              		.cfi_restore 6
 216              		.cfi_restore 5
 217              		.cfi_restore 4
 218              		.cfi_def_cfa_offset 0
 219              	.LVL22:
  54:FML/Src/SX1278.c **** }
 220              		.loc 1 54 2 view .LVU48
 221 002a FFF7FEBF 		b	SX1278_hw_SetNSS
 222              	.LVL23:
 223              		.cfi_endproc
 224              	.LFE289:
 226              		.section	.text.SX1278_SPIBurstRead,"ax",%progbits
 227              		.align	1
 228              		.global	SX1278_SPIBurstRead
ARM GAS  C:\Users\CL\AppData\Local\Temp\ccg4mYET.s 			page 7


 229              		.syntax unified
 230              		.thumb
 231              		.thumb_func
 233              	SX1278_SPIBurstRead:
 234              	.LVL24:
 235              	.LFB290:
  58:FML/Src/SX1278.c **** 	uint8_t i;
 236              		.loc 1 58 19 is_stmt 1 view -0
 237              		.cfi_startproc
 238              		@ args = 0, pretend = 0, frame = 0
 239              		@ frame_needed = 0, uses_anonymous_args = 0
  60:FML/Src/SX1278.c **** 		return;
 240              		.loc 1 60 5 is_stmt 0 view .LVU50
 241 0000 012B     		cmp	r3, #1
  58:FML/Src/SX1278.c **** 	uint8_t i;
 242              		.loc 1 58 19 view .LVU51
 243 0002 F8B5     		push	{r3, r4, r5, r6, r7, lr}
 244              	.LCFI6:
 245              		.cfi_def_cfa_offset 24
 246              		.cfi_offset 3, -24
 247              		.cfi_offset 4, -20
 248              		.cfi_offset 5, -16
 249              		.cfi_offset 6, -12
 250              		.cfi_offset 7, -8
 251              		.cfi_offset 14, -4
  58:FML/Src/SX1278.c **** 	uint8_t i;
 252              		.loc 1 58 19 view .LVU52
 253 0004 0546     		mov	r5, r0
 254 0006 0F46     		mov	r7, r1
  59:FML/Src/SX1278.c **** 	if (length <= 1) {
 255              		.loc 1 59 2 is_stmt 1 view .LVU53
  60:FML/Src/SX1278.c **** 		return;
 256              		.loc 1 60 2 view .LVU54
  58:FML/Src/SX1278.c **** 	uint8_t i;
 257              		.loc 1 58 19 is_stmt 0 view .LVU55
 258 0008 1646     		mov	r6, r2
 259 000a 1C46     		mov	r4, r3
  60:FML/Src/SX1278.c **** 		return;
 260              		.loc 1 60 5 view .LVU56
 261 000c 18D9     		bls	.L6
 262              	.LVL25:
 263              	.LBB7:
 264              	.LBI7:
  57:FML/Src/SX1278.c **** 		uint8_t length) {
 265              		.loc 1 57 6 is_stmt 1 view .LVU57
 266              	.LBB8:
  63:FML/Src/SX1278.c **** 		SX1278_hw_SPICommand(module->hw, addr);
 267              		.loc 1 63 3 view .LVU58
 268 000e 0068     		ldr	r0, [r0]
 269              	.LVL26:
  63:FML/Src/SX1278.c **** 		SX1278_hw_SPICommand(module->hw, addr);
 270              		.loc 1 63 3 is_stmt 0 view .LVU59
 271 0010 0021     		movs	r1, #0
 272              	.LVL27:
  63:FML/Src/SX1278.c **** 		SX1278_hw_SPICommand(module->hw, addr);
 273              		.loc 1 63 3 view .LVU60
 274 0012 FFF7FEFF 		bl	SX1278_hw_SetNSS
ARM GAS  C:\Users\CL\AppData\Local\Temp\ccg4mYET.s 			page 8


 275              	.LVL28:
  64:FML/Src/SX1278.c **** 		for (i = 0; i < length; i++) {
 276              		.loc 1 64 3 is_stmt 1 view .LVU61
 277 0016 3946     		mov	r1, r7
 278 0018 2868     		ldr	r0, [r5]
 279 001a FFF7FEFF 		bl	SX1278_hw_SPICommand
 280              	.LVL29:
  65:FML/Src/SX1278.c **** 			*(rxBuf + i) = SX1278_hw_SPIReadByte(module->hw);
 281              		.loc 1 65 3 view .LVU62
  65:FML/Src/SX1278.c **** 			*(rxBuf + i) = SX1278_hw_SPIReadByte(module->hw);
 282              		.loc 1 65 15 view .LVU63
 283 001e 631E     		subs	r3, r4, #1
 284 0020 771E     		subs	r7, r6, #1
 285              	.LVL30:
  65:FML/Src/SX1278.c **** 			*(rxBuf + i) = SX1278_hw_SPIReadByte(module->hw);
 286              		.loc 1 65 15 is_stmt 0 view .LVU64
 287 0022 56FA83F6 		uxtab	r6, r6, r3
 288              	.LVL31:
 289              	.L8:
  66:FML/Src/SX1278.c **** 		}
 290              		.loc 1 66 4 is_stmt 1 view .LVU65
  66:FML/Src/SX1278.c **** 		}
 291              		.loc 1 66 19 is_stmt 0 view .LVU66
 292 0026 2868     		ldr	r0, [r5]
 293 0028 FFF7FEFF 		bl	SX1278_hw_SPIReadByte
 294              	.LVL32:
  66:FML/Src/SX1278.c **** 		}
 295              		.loc 1 66 17 view .LVU67
 296 002c 07F8010F 		strb	r0, [r7, #1]!
 297              	.LVL33:
  65:FML/Src/SX1278.c **** 			*(rxBuf + i) = SX1278_hw_SPIReadByte(module->hw);
 298              		.loc 1 65 27 is_stmt 1 view .LVU68
  65:FML/Src/SX1278.c **** 			*(rxBuf + i) = SX1278_hw_SPIReadByte(module->hw);
 299              		.loc 1 65 15 view .LVU69
  65:FML/Src/SX1278.c **** 			*(rxBuf + i) = SX1278_hw_SPIReadByte(module->hw);
 300              		.loc 1 65 3 is_stmt 0 view .LVU70
 301 0030 B742     		cmp	r7, r6
 302 0032 F8D1     		bne	.L8
  68:FML/Src/SX1278.c **** 	}
 303              		.loc 1 68 3 is_stmt 1 view .LVU71
 304 0034 2868     		ldr	r0, [r5]
 305 0036 0121     		movs	r1, #1
 306              	.LBE8:
 307              	.LBE7:
  70:FML/Src/SX1278.c **** 
 308              		.loc 1 70 1 is_stmt 0 view .LVU72
 309 0038 BDE8F840 		pop	{r3, r4, r5, r6, r7, lr}
 310              	.LCFI7:
 311              		.cfi_remember_state
 312              		.cfi_restore 14
 313              		.cfi_restore 7
 314              		.cfi_restore 6
 315              		.cfi_restore 5
 316              		.cfi_restore 4
 317              		.cfi_restore 3
 318              		.cfi_def_cfa_offset 0
 319              	.LVL34:
ARM GAS  C:\Users\CL\AppData\Local\Temp\ccg4mYET.s 			page 9


 320              	.LBB10:
 321              	.LBB9:
  68:FML/Src/SX1278.c **** 	}
 322              		.loc 1 68 3 view .LVU73
 323 003c FFF7FEBF 		b	SX1278_hw_SetNSS
 324              	.LVL35:
 325              	.L6:
 326              	.LCFI8:
 327              		.cfi_restore_state
  68:FML/Src/SX1278.c **** 	}
 328              		.loc 1 68 3 view .LVU74
 329              	.LBE9:
 330              	.LBE10:
  70:FML/Src/SX1278.c **** 
 331              		.loc 1 70 1 view .LVU75
 332 0040 F8BD     		pop	{r3, r4, r5, r6, r7, pc}
  70:FML/Src/SX1278.c **** 
 333              		.loc 1 70 1 view .LVU76
 334              		.cfi_endproc
 335              	.LFE290:
 337              		.section	.text.SX1278_SPIBurstWrite,"ax",%progbits
 338              		.align	1
 339              		.global	SX1278_SPIBurstWrite
 340              		.syntax unified
 341              		.thumb
 342              		.thumb_func
 344              	SX1278_SPIBurstWrite:
 345              	.LVL36:
 346              	.LFB291:
  73:FML/Src/SX1278.c **** 	unsigned char i;
 347              		.loc 1 73 19 is_stmt 1 view -0
 348              		.cfi_startproc
 349              		@ args = 0, pretend = 0, frame = 0
 350              		@ frame_needed = 0, uses_anonymous_args = 0
 351              		@ link register save eliminated.
  74:FML/Src/SX1278.c **** 	if (length <= 1) {
 352              		.loc 1 74 2 view .LVU78
  75:FML/Src/SX1278.c **** 		return;
 353              		.loc 1 75 2 view .LVU79
  75:FML/Src/SX1278.c **** 		return;
 354              		.loc 1 75 5 is_stmt 0 view .LVU80
 355 0000 012B     		cmp	r3, #1
 356 0002 01D9     		bls	.L10
 357 0004 FFF7FEBF 		b	SX1278_SPIBurstWrite.part.0
 358              	.LVL37:
 359              	.L10:
 360              		.loc 1 85 1 view .LVU81
 361 0008 7047     		bx	lr
 362              		.cfi_endproc
 363              	.LFE291:
 365              		.section	.text.SX1278_standby,"ax",%progbits
 366              		.align	1
 367              		.global	SX1278_standby
 368              		.syntax unified
 369              		.thumb
 370              		.thumb_func
 372              	SX1278_standby:
ARM GAS  C:\Users\CL\AppData\Local\Temp\ccg4mYET.s 			page 10


 373              	.LVL38:
 374              	.LFB293:
  86:FML/Src/SX1278.c **** 
  87:FML/Src/SX1278.c **** void SX1278_config(SX1278_t *module) {
  88:FML/Src/SX1278.c **** 	SX1278_sleep(module); //Change modem mode Must in Sleep mode
  89:FML/Src/SX1278.c **** 	SX1278_hw_DelayMs(15);
  90:FML/Src/SX1278.c **** 
  91:FML/Src/SX1278.c **** 	SX1278_entryLoRa(module);
  92:FML/Src/SX1278.c **** 	//SX1278_SPIWrite(module, 0x5904); //?? Change digital regulator form 1.6V to 1.47V: see errata no
  93:FML/Src/SX1278.c **** 
  94:FML/Src/SX1278.c **** 	uint64_t freq = ((uint64_t) module->frequency << 19) / 32000000;
  95:FML/Src/SX1278.c **** 	uint8_t freq_reg[3];
  96:FML/Src/SX1278.c **** 	freq_reg[0] = (uint8_t) (freq >> 16);
  97:FML/Src/SX1278.c **** 	freq_reg[1] = (uint8_t) (freq >> 8);
  98:FML/Src/SX1278.c **** 	freq_reg[2] = (uint8_t) (freq >> 0);
  99:FML/Src/SX1278.c **** 	SX1278_SPIBurstWrite(module, LR_RegFrMsb, (uint8_t*) freq_reg, 3); //setting  frequency parameter
 100:FML/Src/SX1278.c **** 
 101:FML/Src/SX1278.c **** 	SX1278_SPIWrite(module, RegSyncWord, 0x34);
 102:FML/Src/SX1278.c **** 
 103:FML/Src/SX1278.c **** 	//setting base parameter
 104:FML/Src/SX1278.c **** 	SX1278_SPIWrite(module, LR_RegPaConfig, SX1278_Power[module->power]); //Setting output power param
 105:FML/Src/SX1278.c **** 
 106:FML/Src/SX1278.c **** 	SX1278_SPIWrite(module, LR_RegOcp, 0x0B);			//RegOcp,Close Ocp
 107:FML/Src/SX1278.c **** 	SX1278_SPIWrite(module, LR_RegLna, 0x23);		//RegLNA,High & LNA Enable
 108:FML/Src/SX1278.c **** 	if (SX1278_SpreadFactor[module->LoRa_SF] == 6) {	//SFactor=6
 109:FML/Src/SX1278.c **** 		uint8_t tmp;
 110:FML/Src/SX1278.c **** 		SX1278_SPIWrite(module,
 111:FML/Src/SX1278.c **** 		LR_RegModemConfig1,
 112:FML/Src/SX1278.c **** 				((SX1278_LoRaBandwidth[module->LoRa_BW] << 4)
 113:FML/Src/SX1278.c **** 						+ (SX1278_CodingRate[module->LoRa_CR] << 1) + 0x01)); //Implicit Enable CRC Enable(0x02) & Er
 114:FML/Src/SX1278.c **** 
 115:FML/Src/SX1278.c **** 		SX1278_SPIWrite(module,
 116:FML/Src/SX1278.c **** 		LR_RegModemConfig2,
 117:FML/Src/SX1278.c **** 				((SX1278_SpreadFactor[module->LoRa_SF] << 4)
 118:FML/Src/SX1278.c **** 						+ (SX1278_CRC_Sum[module->LoRa_CRC_sum] << 2) + 0x03));
 119:FML/Src/SX1278.c **** 
 120:FML/Src/SX1278.c **** 		tmp = SX1278_SPIRead(module, 0x31);
 121:FML/Src/SX1278.c **** 		tmp &= 0xF8;
 122:FML/Src/SX1278.c **** 		tmp |= 0x05;
 123:FML/Src/SX1278.c **** 		SX1278_SPIWrite(module, 0x31, tmp);
 124:FML/Src/SX1278.c **** 		SX1278_SPIWrite(module, 0x37, 0x0C);
 125:FML/Src/SX1278.c **** 	} else {
 126:FML/Src/SX1278.c **** 		SX1278_SPIWrite(module,
 127:FML/Src/SX1278.c **** 		LR_RegModemConfig1,
 128:FML/Src/SX1278.c **** 				((SX1278_LoRaBandwidth[module->LoRa_BW] << 4)
 129:FML/Src/SX1278.c **** 						+ (SX1278_CodingRate[module->LoRa_CR] << 1) + 0x00)); //Explicit Enable CRC Enable(0x02) & Er
 130:FML/Src/SX1278.c **** 
 131:FML/Src/SX1278.c **** 		SX1278_SPIWrite(module,
 132:FML/Src/SX1278.c **** 		LR_RegModemConfig2,
 133:FML/Src/SX1278.c **** 				((SX1278_SpreadFactor[module->LoRa_SF] << 4)
 134:FML/Src/SX1278.c **** 						+ (SX1278_CRC_Sum[module->LoRa_CRC_sum] << 2) + 0x00)); //SFactor &  LNA gain set by the inte
 135:FML/Src/SX1278.c **** 	}
 136:FML/Src/SX1278.c **** 
 137:FML/Src/SX1278.c **** 	SX1278_SPIWrite(module, LR_RegModemConfig3, 0x04);
 138:FML/Src/SX1278.c **** 	SX1278_SPIWrite(module, LR_RegSymbTimeoutLsb, 0x08); //RegSymbTimeoutLsb Timeout = 0x3FF(Max)
 139:FML/Src/SX1278.c **** 	SX1278_SPIWrite(module, LR_RegPreambleMsb, 0x00); //RegPreambleMsb
 140:FML/Src/SX1278.c **** 	SX1278_SPIWrite(module, LR_RegPreambleLsb, 8); //RegPreambleLsb 8+4=12byte Preamble
ARM GAS  C:\Users\CL\AppData\Local\Temp\ccg4mYET.s 			page 11


 141:FML/Src/SX1278.c **** 	SX1278_SPIWrite(module, REG_LR_DIOMAPPING2, 0x01); //RegDioMapping2 DIO5=00, DIO4=01
 142:FML/Src/SX1278.c **** 	module->readBytes = 0;
 143:FML/Src/SX1278.c **** 	SX1278_standby(module); //Entry standby mode
 144:FML/Src/SX1278.c **** }
 145:FML/Src/SX1278.c **** 
 146:FML/Src/SX1278.c **** void SX1278_standby(SX1278_t *module) {
 375              		.loc 1 146 39 is_stmt 1 view -0
 376              		.cfi_startproc
 377              		@ args = 0, pretend = 0, frame = 0
 378              		@ frame_needed = 0, uses_anonymous_args = 0
 147:FML/Src/SX1278.c **** 	SX1278_SPIWrite(module, LR_RegOpMode, 0x09);
 379              		.loc 1 147 2 view .LVU83
 146:FML/Src/SX1278.c **** 	SX1278_SPIWrite(module, LR_RegOpMode, 0x09);
 380              		.loc 1 146 39 is_stmt 0 view .LVU84
 381 0000 10B5     		push	{r4, lr}
 382              	.LCFI9:
 383              		.cfi_def_cfa_offset 8
 384              		.cfi_offset 4, -8
 385              		.cfi_offset 14, -4
 386              		.loc 1 147 2 view .LVU85
 387 0002 0922     		movs	r2, #9
 146:FML/Src/SX1278.c **** 	SX1278_SPIWrite(module, LR_RegOpMode, 0x09);
 388              		.loc 1 146 39 view .LVU86
 389 0004 0446     		mov	r4, r0
 390              		.loc 1 147 2 view .LVU87
 391 0006 0121     		movs	r1, #1
 392 0008 FFF7FEFF 		bl	SX1278_SPIWrite
 393              	.LVL39:
 148:FML/Src/SX1278.c **** 	module->status = STANDBY;
 394              		.loc 1 148 2 is_stmt 1 view .LVU88
 395              		.loc 1 148 17 is_stmt 0 view .LVU89
 396 000c 0123     		movs	r3, #1
 397 000e A375     		strb	r3, [r4, #22]
 149:FML/Src/SX1278.c **** }
 398              		.loc 1 149 1 view .LVU90
 399 0010 10BD     		pop	{r4, pc}
 400              		.loc 1 149 1 view .LVU91
 401              		.cfi_endproc
 402              	.LFE293:
 404              		.section	.text.SX1278_sleep,"ax",%progbits
 405              		.align	1
 406              		.global	SX1278_sleep
 407              		.syntax unified
 408              		.thumb
 409              		.thumb_func
 411              	SX1278_sleep:
 412              	.LVL40:
 413              	.LFB294:
 150:FML/Src/SX1278.c **** 
 151:FML/Src/SX1278.c **** void SX1278_sleep(SX1278_t *module) {
 414              		.loc 1 151 37 is_stmt 1 view -0
 415              		.cfi_startproc
 416              		@ args = 0, pretend = 0, frame = 0
 417              		@ frame_needed = 0, uses_anonymous_args = 0
 152:FML/Src/SX1278.c **** 	SX1278_SPIWrite(module, LR_RegOpMode, 0x08);
 418              		.loc 1 152 2 view .LVU93
 151:FML/Src/SX1278.c **** 	SX1278_SPIWrite(module, LR_RegOpMode, 0x08);
ARM GAS  C:\Users\CL\AppData\Local\Temp\ccg4mYET.s 			page 12


 419              		.loc 1 151 37 is_stmt 0 view .LVU94
 420 0000 10B5     		push	{r4, lr}
 421              	.LCFI10:
 422              		.cfi_def_cfa_offset 8
 423              		.cfi_offset 4, -8
 424              		.cfi_offset 14, -4
 425              		.loc 1 152 2 view .LVU95
 426 0002 0822     		movs	r2, #8
 151:FML/Src/SX1278.c **** 	SX1278_SPIWrite(module, LR_RegOpMode, 0x08);
 427              		.loc 1 151 37 view .LVU96
 428 0004 0446     		mov	r4, r0
 429              		.loc 1 152 2 view .LVU97
 430 0006 0121     		movs	r1, #1
 431 0008 FFF7FEFF 		bl	SX1278_SPIWrite
 432              	.LVL41:
 153:FML/Src/SX1278.c **** 	module->status = SLEEP;
 433              		.loc 1 153 2 is_stmt 1 view .LVU98
 434              		.loc 1 153 17 is_stmt 0 view .LVU99
 435 000c 0023     		movs	r3, #0
 436 000e A375     		strb	r3, [r4, #22]
 154:FML/Src/SX1278.c **** }
 437              		.loc 1 154 1 view .LVU100
 438 0010 10BD     		pop	{r4, pc}
 439              		.loc 1 154 1 view .LVU101
 440              		.cfi_endproc
 441              	.LFE294:
 443              		.section	.text.SX1278_entryLoRa,"ax",%progbits
 444              		.align	1
 445              		.global	SX1278_entryLoRa
 446              		.syntax unified
 447              		.thumb
 448              		.thumb_func
 450              	SX1278_entryLoRa:
 451              	.LVL42:
 452              	.LFB295:
 155:FML/Src/SX1278.c **** 
 156:FML/Src/SX1278.c **** void SX1278_entryLoRa(SX1278_t *module) {
 453              		.loc 1 156 41 is_stmt 1 view -0
 454              		.cfi_startproc
 455              		@ args = 0, pretend = 0, frame = 0
 456              		@ frame_needed = 0, uses_anonymous_args = 0
 457              		@ link register save eliminated.
 157:FML/Src/SX1278.c **** 	SX1278_SPIWrite(module, LR_RegOpMode, 0x88);
 458              		.loc 1 157 2 view .LVU103
 459 0000 8822     		movs	r2, #136
 460 0002 0121     		movs	r1, #1
 461 0004 FFF7FEBF 		b	SX1278_SPIWrite
 462              	.LVL43:
 463              		.loc 1 157 2 is_stmt 0 view .LVU104
 464              		.cfi_endproc
 465              	.LFE295:
 467              		.global	__aeabi_uldivmod
 468              		.section	.text.SX1278_config,"ax",%progbits
 469              		.align	1
 470              		.global	SX1278_config
 471              		.syntax unified
 472              		.thumb
ARM GAS  C:\Users\CL\AppData\Local\Temp\ccg4mYET.s 			page 13


 473              		.thumb_func
 475              	SX1278_config:
 476              	.LVL44:
 477              	.LFB292:
  87:FML/Src/SX1278.c **** 	SX1278_sleep(module); //Change modem mode Must in Sleep mode
 478              		.loc 1 87 38 is_stmt 1 view -0
 479              		.cfi_startproc
 480              		@ args = 0, pretend = 0, frame = 8
 481              		@ frame_needed = 0, uses_anonymous_args = 0
  88:FML/Src/SX1278.c **** 	SX1278_hw_DelayMs(15);
 482              		.loc 1 88 2 view .LVU106
  87:FML/Src/SX1278.c **** 	SX1278_sleep(module); //Change modem mode Must in Sleep mode
 483              		.loc 1 87 38 is_stmt 0 view .LVU107
 484 0000 73B5     		push	{r0, r1, r4, r5, r6, lr}
 485              	.LCFI11:
 486              		.cfi_def_cfa_offset 24
 487              		.cfi_offset 4, -16
 488              		.cfi_offset 5, -12
 489              		.cfi_offset 6, -8
 490              		.cfi_offset 14, -4
  87:FML/Src/SX1278.c **** 	SX1278_sleep(module); //Change modem mode Must in Sleep mode
 491              		.loc 1 87 38 view .LVU108
 492 0002 0446     		mov	r4, r0
  88:FML/Src/SX1278.c **** 	SX1278_hw_DelayMs(15);
 493              		.loc 1 88 2 view .LVU109
 494 0004 FFF7FEFF 		bl	SX1278_sleep
 495              	.LVL45:
  89:FML/Src/SX1278.c **** 
 496              		.loc 1 89 2 is_stmt 1 view .LVU110
 497 0008 0F20     		movs	r0, #15
 498 000a FFF7FEFF 		bl	SX1278_hw_DelayMs
 499              	.LVL46:
  91:FML/Src/SX1278.c **** 	//SX1278_SPIWrite(module, 0x5904); //?? Change digital regulator form 1.6V to 1.47V: see errata no
 500              		.loc 1 91 2 view .LVU111
 501 000e 2046     		mov	r0, r4
 502 0010 FFF7FEFF 		bl	SX1278_entryLoRa
 503              	.LVL47:
  94:FML/Src/SX1278.c **** 	uint8_t freq_reg[3];
 504              		.loc 1 94 2 view .LVU112
  94:FML/Src/SX1278.c **** 	uint8_t freq_reg[3];
 505              		.loc 1 94 48 is_stmt 0 view .LVU113
 506 0014 D4E90253 		ldrd	r5, r3, [r4, #8]
 507 0018 D904     		lsls	r1, r3, #19
  94:FML/Src/SX1278.c **** 	uint8_t freq_reg[3];
 508              		.loc 1 94 11 view .LVU114
 509 001a 484A     		ldr	r2, .L19
 108:FML/Src/SX1278.c **** 		uint8_t tmp;
 510              		.loc 1 108 25 view .LVU115
 511 001c 484E     		ldr	r6, .L19+4
  94:FML/Src/SX1278.c **** 	uint8_t freq_reg[3];
 512              		.loc 1 94 11 view .LVU116
 513 001e 0023     		movs	r3, #0
 514 0020 E804     		lsls	r0, r5, #19
 515 0022 41EA5531 		orr	r1, r1, r5, lsr #13
 516 0026 FFF7FEFF 		bl	__aeabi_uldivmod
 517              	.LVL48:
  95:FML/Src/SX1278.c **** 	freq_reg[0] = (uint8_t) (freq >> 16);
ARM GAS  C:\Users\CL\AppData\Local\Temp\ccg4mYET.s 			page 14


 518              		.loc 1 95 2 is_stmt 1 view .LVU117
  96:FML/Src/SX1278.c **** 	freq_reg[1] = (uint8_t) (freq >> 8);
 519              		.loc 1 96 2 view .LVU118
  96:FML/Src/SX1278.c **** 	freq_reg[1] = (uint8_t) (freq >> 8);
 520              		.loc 1 96 32 is_stmt 0 view .LVU119
 521 002a 030C     		lsrs	r3, r0, #16
  96:FML/Src/SX1278.c **** 	freq_reg[1] = (uint8_t) (freq >> 8);
 522              		.loc 1 96 16 view .LVU120
 523 002c 8DF80430 		strb	r3, [sp, #4]
  97:FML/Src/SX1278.c **** 	freq_reg[2] = (uint8_t) (freq >> 0);
 524              		.loc 1 97 2 is_stmt 1 view .LVU121
  97:FML/Src/SX1278.c **** 	freq_reg[2] = (uint8_t) (freq >> 0);
 525              		.loc 1 97 32 is_stmt 0 view .LVU122
 526 0030 030A     		lsrs	r3, r0, #8
  97:FML/Src/SX1278.c **** 	freq_reg[2] = (uint8_t) (freq >> 0);
 527              		.loc 1 97 16 view .LVU123
 528 0032 8DF80530 		strb	r3, [sp, #5]
  98:FML/Src/SX1278.c **** 	SX1278_SPIBurstWrite(module, LR_RegFrMsb, (uint8_t*) freq_reg, 3); //setting  frequency parameter
 529              		.loc 1 98 2 is_stmt 1 view .LVU124
  98:FML/Src/SX1278.c **** 	SX1278_SPIBurstWrite(module, LR_RegFrMsb, (uint8_t*) freq_reg, 3); //setting  frequency parameter
 530              		.loc 1 98 16 is_stmt 0 view .LVU125
 531 0036 8DF80600 		strb	r0, [sp, #6]
  99:FML/Src/SX1278.c **** 
 532              		.loc 1 99 2 is_stmt 1 view .LVU126
 533              	.LVL49:
 534              	.LBB11:
 535              	.LBI11:
  72:FML/Src/SX1278.c **** 		uint8_t length) {
 536              		.loc 1 72 6 view .LVU127
 537              	.LBB12:
  74:FML/Src/SX1278.c **** 	if (length <= 1) {
 538              		.loc 1 74 2 view .LVU128
  75:FML/Src/SX1278.c **** 		return;
 539              		.loc 1 75 2 view .LVU129
 540 003a 0323     		movs	r3, #3
 541 003c 01AA     		add	r2, sp, #4
 542              	.LVL50:
  75:FML/Src/SX1278.c **** 		return;
 543              		.loc 1 75 2 is_stmt 0 view .LVU130
 544 003e 0621     		movs	r1, #6
 545              	.LVL51:
  75:FML/Src/SX1278.c **** 		return;
 546              		.loc 1 75 2 view .LVU131
 547 0040 2046     		mov	r0, r4
  75:FML/Src/SX1278.c **** 		return;
 548              		.loc 1 75 2 view .LVU132
 549 0042 FFF7FEFF 		bl	SX1278_SPIBurstWrite.part.0
 550              	.LVL52:
  75:FML/Src/SX1278.c **** 		return;
 551              		.loc 1 75 2 view .LVU133
 552              	.LBE12:
 553              	.LBE11:
 101:FML/Src/SX1278.c **** 
 554              		.loc 1 101 2 is_stmt 1 view .LVU134
 555 0046 3422     		movs	r2, #52
 556 0048 3921     		movs	r1, #57
 557 004a 2046     		mov	r0, r4
ARM GAS  C:\Users\CL\AppData\Local\Temp\ccg4mYET.s 			page 15


 558 004c FFF7FEFF 		bl	SX1278_SPIWrite
 559              	.LVL53:
 104:FML/Src/SX1278.c **** 
 560              		.loc 1 104 2 view .LVU135
 104:FML/Src/SX1278.c **** 
 561              		.loc 1 104 61 is_stmt 0 view .LVU136
 562 0050 237C     		ldrb	r3, [r4, #16]	@ zero_extendqisi2
 104:FML/Src/SX1278.c **** 
 563              		.loc 1 104 2 view .LVU137
 564 0052 3C4A     		ldr	r2, .L19+8
 565 0054 3C4D     		ldr	r5, .L19+12
 566 0056 D25C     		ldrb	r2, [r2, r3]	@ zero_extendqisi2
 567 0058 0921     		movs	r1, #9
 568 005a 2046     		mov	r0, r4
 569 005c FFF7FEFF 		bl	SX1278_SPIWrite
 570              	.LVL54:
 106:FML/Src/SX1278.c **** 	SX1278_SPIWrite(module, LR_RegLna, 0x23);		//RegLNA,High & LNA Enable
 571              		.loc 1 106 2 is_stmt 1 view .LVU138
 572 0060 0B22     		movs	r2, #11
 573 0062 1146     		mov	r1, r2
 574 0064 2046     		mov	r0, r4
 575 0066 FFF7FEFF 		bl	SX1278_SPIWrite
 576              	.LVL55:
 107:FML/Src/SX1278.c **** 	if (SX1278_SpreadFactor[module->LoRa_SF] == 6) {	//SFactor=6
 577              		.loc 1 107 2 view .LVU139
 578 006a 2322     		movs	r2, #35
 579 006c 0C21     		movs	r1, #12
 580 006e 2046     		mov	r0, r4
 581 0070 FFF7FEFF 		bl	SX1278_SPIWrite
 582              	.LVL56:
 108:FML/Src/SX1278.c **** 		uint8_t tmp;
 583              		.loc 1 108 2 view .LVU140
 108:FML/Src/SX1278.c **** 		uint8_t tmp;
 584              		.loc 1 108 32 is_stmt 0 view .LVU141
 585 0074 637C     		ldrb	r3, [r4, #17]	@ zero_extendqisi2
 586 0076 A27C     		ldrb	r2, [r4, #18]	@ zero_extendqisi2
 108:FML/Src/SX1278.c **** 		uint8_t tmp;
 587              		.loc 1 108 5 view .LVU142
 588 0078 F35C     		ldrb	r3, [r6, r3]	@ zero_extendqisi2
 589 007a 3448     		ldr	r0, .L19+16
 590 007c 3449     		ldr	r1, .L19+20
 591              	.LBB13:
 112:FML/Src/SX1278.c **** 						+ (SX1278_CodingRate[module->LoRa_CR] << 1) + 0x01)); //Implicit Enable CRC Enable(0x02) & Er
 592              		.loc 1 112 45 view .LVU143
 593 007e 805C     		ldrb	r0, [r0, r2]	@ zero_extendqisi2
 594              	.LBE13:
 108:FML/Src/SX1278.c **** 		uint8_t tmp;
 595              		.loc 1 108 5 view .LVU144
 596 0080 062B     		cmp	r3, #6
 597 0082 E37C     		ldrb	r3, [r4, #19]	@ zero_extendqisi2
 598              	.LBB14:
 113:FML/Src/SX1278.c **** 
 599              		.loc 1 113 45 view .LVU145
 600 0084 CA5C     		ldrb	r2, [r1, r3]	@ zero_extendqisi2
 601 0086 4FEA4202 		lsl	r2, r2, #1
 113:FML/Src/SX1278.c **** 
 602              		.loc 1 113 7 view .LVU146
ARM GAS  C:\Users\CL\AppData\Local\Temp\ccg4mYET.s 			page 16


 603 008a 02EB0012 		add	r2, r2, r0, lsl #4
 604              	.LBE14:
 108:FML/Src/SX1278.c **** 		uint8_t tmp;
 605              		.loc 1 108 5 view .LVU147
 606 008e 44D1     		bne	.L16
 607              	.LBB15:
 109:FML/Src/SX1278.c **** 		SX1278_SPIWrite(module,
 608              		.loc 1 109 3 is_stmt 1 view .LVU148
 110:FML/Src/SX1278.c **** 		LR_RegModemConfig1,
 609              		.loc 1 110 3 view .LVU149
 610 0090 0132     		adds	r2, r2, #1
 611 0092 D2B2     		uxtb	r2, r2
 612 0094 1D21     		movs	r1, #29
 613 0096 2046     		mov	r0, r4
 614 0098 FFF7FEFF 		bl	SX1278_SPIWrite
 615              	.LVL57:
 115:FML/Src/SX1278.c **** 		LR_RegModemConfig2,
 616              		.loc 1 115 3 view .LVU150
 118:FML/Src/SX1278.c **** 
 617              		.loc 1 118 31 is_stmt 0 view .LVU151
 618 009c 227D     		ldrb	r2, [r4, #20]	@ zero_extendqisi2
 117:FML/Src/SX1278.c **** 						+ (SX1278_CRC_Sum[module->LoRa_CRC_sum] << 2) + 0x03));
 619              		.loc 1 117 33 view .LVU152
 620 009e 637C     		ldrb	r3, [r4, #17]	@ zero_extendqisi2
 118:FML/Src/SX1278.c **** 
 621              		.loc 1 118 47 view .LVU153
 622 00a0 AA5C     		ldrb	r2, [r5, r2]	@ zero_extendqisi2
 117:FML/Src/SX1278.c **** 						+ (SX1278_CRC_Sum[module->LoRa_CRC_sum] << 2) + 0x03));
 623              		.loc 1 117 44 view .LVU154
 624 00a2 F35C     		ldrb	r3, [r6, r3]	@ zero_extendqisi2
 118:FML/Src/SX1278.c **** 
 625              		.loc 1 118 47 view .LVU155
 626 00a4 9200     		lsls	r2, r2, #2
 118:FML/Src/SX1278.c **** 
 627              		.loc 1 118 7 view .LVU156
 628 00a6 02EB0312 		add	r2, r2, r3, lsl #4
 115:FML/Src/SX1278.c **** 		LR_RegModemConfig2,
 629              		.loc 1 115 3 view .LVU157
 630 00aa 0332     		adds	r2, r2, #3
 631 00ac D2B2     		uxtb	r2, r2
 632 00ae 1E21     		movs	r1, #30
 633 00b0 2046     		mov	r0, r4
 634 00b2 FFF7FEFF 		bl	SX1278_SPIWrite
 635              	.LVL58:
 120:FML/Src/SX1278.c **** 		tmp &= 0xF8;
 636              		.loc 1 120 3 is_stmt 1 view .LVU158
 120:FML/Src/SX1278.c **** 		tmp &= 0xF8;
 637              		.loc 1 120 9 is_stmt 0 view .LVU159
 638 00b6 3121     		movs	r1, #49
 639 00b8 2046     		mov	r0, r4
 640 00ba FFF7FEFF 		bl	SX1278_SPIRead
 641              	.LVL59:
 121:FML/Src/SX1278.c **** 		tmp |= 0x05;
 642              		.loc 1 121 3 is_stmt 1 view .LVU160
 121:FML/Src/SX1278.c **** 		tmp |= 0x05;
 643              		.loc 1 121 7 is_stmt 0 view .LVU161
 644 00be 00F0F800 		and	r0, r0, #248
ARM GAS  C:\Users\CL\AppData\Local\Temp\ccg4mYET.s 			page 17


 645              	.LVL60:
 122:FML/Src/SX1278.c **** 		SX1278_SPIWrite(module, 0x31, tmp);
 646              		.loc 1 122 3 is_stmt 1 view .LVU162
 123:FML/Src/SX1278.c **** 		SX1278_SPIWrite(module, 0x37, 0x0C);
 647              		.loc 1 123 3 view .LVU163
 648 00c2 40F00502 		orr	r2, r0, #5
 649 00c6 3121     		movs	r1, #49
 650 00c8 2046     		mov	r0, r4
 651              	.LVL61:
 123:FML/Src/SX1278.c **** 		SX1278_SPIWrite(module, 0x37, 0x0C);
 652              		.loc 1 123 3 is_stmt 0 view .LVU164
 653 00ca FFF7FEFF 		bl	SX1278_SPIWrite
 654              	.LVL62:
 124:FML/Src/SX1278.c **** 	} else {
 655              		.loc 1 124 3 is_stmt 1 view .LVU165
 656 00ce 0C22     		movs	r2, #12
 657 00d0 3721     		movs	r1, #55
 658              	.L18:
 124:FML/Src/SX1278.c **** 	} else {
 659              		.loc 1 124 3 is_stmt 0 view .LVU166
 660              	.LBE15:
 131:FML/Src/SX1278.c **** 		LR_RegModemConfig2,
 661              		.loc 1 131 3 view .LVU167
 662 00d2 2046     		mov	r0, r4
 663 00d4 FFF7FEFF 		bl	SX1278_SPIWrite
 664              	.LVL63:
 137:FML/Src/SX1278.c **** 	SX1278_SPIWrite(module, LR_RegSymbTimeoutLsb, 0x08); //RegSymbTimeoutLsb Timeout = 0x3FF(Max)
 665              		.loc 1 137 2 is_stmt 1 view .LVU168
 666 00d8 2046     		mov	r0, r4
 667 00da 0422     		movs	r2, #4
 668 00dc 2621     		movs	r1, #38
 669 00de FFF7FEFF 		bl	SX1278_SPIWrite
 670              	.LVL64:
 138:FML/Src/SX1278.c **** 	SX1278_SPIWrite(module, LR_RegPreambleMsb, 0x00); //RegPreambleMsb
 671              		.loc 1 138 2 view .LVU169
 672 00e2 2046     		mov	r0, r4
 673 00e4 0822     		movs	r2, #8
 674 00e6 1F21     		movs	r1, #31
 675 00e8 FFF7FEFF 		bl	SX1278_SPIWrite
 676              	.LVL65:
 139:FML/Src/SX1278.c **** 	SX1278_SPIWrite(module, LR_RegPreambleLsb, 8); //RegPreambleLsb 8+4=12byte Preamble
 677              		.loc 1 139 2 view .LVU170
 678 00ec 2046     		mov	r0, r4
 679 00ee 0022     		movs	r2, #0
 680 00f0 2021     		movs	r1, #32
 681 00f2 FFF7FEFF 		bl	SX1278_SPIWrite
 682              	.LVL66:
 140:FML/Src/SX1278.c **** 	SX1278_SPIWrite(module, REG_LR_DIOMAPPING2, 0x01); //RegDioMapping2 DIO5=00, DIO4=01
 683              		.loc 1 140 2 view .LVU171
 684 00f6 2046     		mov	r0, r4
 685 00f8 0822     		movs	r2, #8
 686 00fa 2121     		movs	r1, #33
 687 00fc FFF7FEFF 		bl	SX1278_SPIWrite
 688              	.LVL67:
 141:FML/Src/SX1278.c **** 	module->readBytes = 0;
 689              		.loc 1 141 2 view .LVU172
 690 0100 0122     		movs	r2, #1
ARM GAS  C:\Users\CL\AppData\Local\Temp\ccg4mYET.s 			page 18


 691 0102 4121     		movs	r1, #65
 692 0104 2046     		mov	r0, r4
 693 0106 FFF7FEFF 		bl	SX1278_SPIWrite
 694              	.LVL68:
 142:FML/Src/SX1278.c **** 	SX1278_standby(module); //Entry standby mode
 695              		.loc 1 142 2 view .LVU173
 142:FML/Src/SX1278.c **** 	SX1278_standby(module); //Entry standby mode
 696              		.loc 1 142 20 is_stmt 0 view .LVU174
 697 010a 0023     		movs	r3, #0
 698 010c 84F81731 		strb	r3, [r4, #279]
 143:FML/Src/SX1278.c **** }
 699              		.loc 1 143 2 is_stmt 1 view .LVU175
 700 0110 2046     		mov	r0, r4
 701 0112 FFF7FEFF 		bl	SX1278_standby
 702              	.LVL69:
 144:FML/Src/SX1278.c **** 
 703              		.loc 1 144 1 is_stmt 0 view .LVU176
 704 0116 02B0     		add	sp, sp, #8
 705              	.LCFI12:
 706              		.cfi_remember_state
 707              		.cfi_def_cfa_offset 16
 708              		@ sp needed
 709 0118 70BD     		pop	{r4, r5, r6, pc}
 710              	.LVL70:
 711              	.L16:
 712              	.LCFI13:
 713              		.cfi_restore_state
 126:FML/Src/SX1278.c **** 		LR_RegModemConfig1,
 714              		.loc 1 126 3 is_stmt 1 view .LVU177
 715 011a 02F0FE02 		and	r2, r2, #254
 716 011e 1D21     		movs	r1, #29
 717 0120 2046     		mov	r0, r4
 718 0122 FFF7FEFF 		bl	SX1278_SPIWrite
 719              	.LVL71:
 131:FML/Src/SX1278.c **** 		LR_RegModemConfig2,
 720              		.loc 1 131 3 view .LVU178
 134:FML/Src/SX1278.c **** 	}
 721              		.loc 1 134 31 is_stmt 0 view .LVU179
 722 0126 227D     		ldrb	r2, [r4, #20]	@ zero_extendqisi2
 133:FML/Src/SX1278.c **** 						+ (SX1278_CRC_Sum[module->LoRa_CRC_sum] << 2) + 0x00)); //SFactor &  LNA gain set by the inte
 723              		.loc 1 133 33 view .LVU180
 724 0128 637C     		ldrb	r3, [r4, #17]	@ zero_extendqisi2
 134:FML/Src/SX1278.c **** 	}
 725              		.loc 1 134 47 view .LVU181
 726 012a AA5C     		ldrb	r2, [r5, r2]	@ zero_extendqisi2
 133:FML/Src/SX1278.c **** 						+ (SX1278_CRC_Sum[module->LoRa_CRC_sum] << 2) + 0x00)); //SFactor &  LNA gain set by the inte
 727              		.loc 1 133 44 view .LVU182
 728 012c F35C     		ldrb	r3, [r6, r3]	@ zero_extendqisi2
 134:FML/Src/SX1278.c **** 	}
 729              		.loc 1 134 47 view .LVU183
 730 012e 9200     		lsls	r2, r2, #2
 131:FML/Src/SX1278.c **** 		LR_RegModemConfig2,
 731              		.loc 1 131 3 view .LVU184
 732 0130 02EB0312 		add	r2, r2, r3, lsl #4
 733 0134 02F0FC02 		and	r2, r2, #252
 734 0138 1E21     		movs	r1, #30
 735 013a CAE7     		b	.L18
ARM GAS  C:\Users\CL\AppData\Local\Temp\ccg4mYET.s 			page 19


 736              	.L20:
 737              		.align	2
 738              	.L19:
 739 013c 0048E801 		.word	32000000
 740 0140 00000000 		.word	.LANCHOR1
 741 0144 00000000 		.word	.LANCHOR0
 742 0148 00000000 		.word	.LANCHOR4
 743 014c 00000000 		.word	.LANCHOR2
 744 0150 00000000 		.word	.LANCHOR3
 745              		.cfi_endproc
 746              	.LFE292:
 748              		.section	.text.SX1278_clearLoRaIrq,"ax",%progbits
 749              		.align	1
 750              		.global	SX1278_clearLoRaIrq
 751              		.syntax unified
 752              		.thumb
 753              		.thumb_func
 755              	SX1278_clearLoRaIrq:
 756              	.LVL72:
 757              	.LFB296:
 158:FML/Src/SX1278.c **** }
 159:FML/Src/SX1278.c **** 
 160:FML/Src/SX1278.c **** void SX1278_clearLoRaIrq(SX1278_t *module) {
 758              		.loc 1 160 44 is_stmt 1 view -0
 759              		.cfi_startproc
 760              		@ args = 0, pretend = 0, frame = 0
 761              		@ frame_needed = 0, uses_anonymous_args = 0
 762              		@ link register save eliminated.
 161:FML/Src/SX1278.c **** 	SX1278_SPIWrite(module, LR_RegIrqFlags, 0xFF);
 763              		.loc 1 161 2 view .LVU186
 764 0000 FF22     		movs	r2, #255
 765 0002 1221     		movs	r1, #18
 766 0004 FFF7FEBF 		b	SX1278_SPIWrite
 767              	.LVL73:
 768              		.loc 1 161 2 is_stmt 0 view .LVU187
 769              		.cfi_endproc
 770              	.LFE296:
 772              		.section	.text.SX1278_LoRaEntryRx,"ax",%progbits
 773              		.align	1
 774              		.global	SX1278_LoRaEntryRx
 775              		.syntax unified
 776              		.thumb
 777              		.thumb_func
 779              	SX1278_LoRaEntryRx:
 780              	.LVL74:
 781              	.LFB297:
 162:FML/Src/SX1278.c **** }
 163:FML/Src/SX1278.c **** 
 164:FML/Src/SX1278.c **** int SX1278_LoRaEntryRx(SX1278_t *module, uint8_t length, uint32_t timeout) {
 782              		.loc 1 164 76 is_stmt 1 view -0
 783              		.cfi_startproc
 784              		@ args = 0, pretend = 0, frame = 0
 785              		@ frame_needed = 0, uses_anonymous_args = 0
 165:FML/Src/SX1278.c **** 	uint8_t addr;
 786              		.loc 1 165 2 view .LVU189
 166:FML/Src/SX1278.c **** 
 167:FML/Src/SX1278.c **** 	module->packetLength = length;
ARM GAS  C:\Users\CL\AppData\Local\Temp\ccg4mYET.s 			page 20


 787              		.loc 1 167 2 view .LVU190
 164:FML/Src/SX1278.c **** 	uint8_t addr;
 788              		.loc 1 164 76 is_stmt 0 view .LVU191
 789 0000 70B5     		push	{r4, r5, r6, lr}
 790              	.LCFI14:
 791              		.cfi_def_cfa_offset 16
 792              		.cfi_offset 4, -16
 793              		.cfi_offset 5, -12
 794              		.cfi_offset 6, -8
 795              		.cfi_offset 14, -4
 164:FML/Src/SX1278.c **** 	uint8_t addr;
 796              		.loc 1 164 76 view .LVU192
 797 0002 0446     		mov	r4, r0
 798              		.loc 1 167 23 view .LVU193
 799 0004 4175     		strb	r1, [r0, #21]
 168:FML/Src/SX1278.c **** 
 169:FML/Src/SX1278.c **** 	SX1278_config(module);		//Setting base parameter
 800              		.loc 1 169 2 is_stmt 1 view .LVU194
 164:FML/Src/SX1278.c **** 	uint8_t addr;
 801              		.loc 1 164 76 is_stmt 0 view .LVU195
 802 0006 0E46     		mov	r6, r1
 803 0008 1546     		mov	r5, r2
 804              		.loc 1 169 2 view .LVU196
 805 000a FFF7FEFF 		bl	SX1278_config
 806              	.LVL75:
 170:FML/Src/SX1278.c **** 	SX1278_SPIWrite(module, REG_LR_PADAC, 0x84);	//Normal and RX
 807              		.loc 1 170 2 is_stmt 1 view .LVU197
 808 000e 8422     		movs	r2, #132
 809 0010 4D21     		movs	r1, #77
 810 0012 2046     		mov	r0, r4
 811 0014 FFF7FEFF 		bl	SX1278_SPIWrite
 812              	.LVL76:
 171:FML/Src/SX1278.c **** 	SX1278_SPIWrite(module, LR_RegHopPeriod, 0xFF);	//No FHSS
 813              		.loc 1 171 2 view .LVU198
 814 0018 FF22     		movs	r2, #255
 815 001a 2421     		movs	r1, #36
 816 001c 2046     		mov	r0, r4
 817 001e FFF7FEFF 		bl	SX1278_SPIWrite
 818              	.LVL77:
 172:FML/Src/SX1278.c **** 	SX1278_SPIWrite(module, REG_LR_DIOMAPPING1, 0x01);//DIO=00,DIO1=00,DIO2=00, DIO3=01 (DIO0  RxDone)
 819              		.loc 1 172 2 view .LVU199
 820 0022 0122     		movs	r2, #1
 821 0024 4021     		movs	r1, #64
 822 0026 2046     		mov	r0, r4
 823 0028 FFF7FEFF 		bl	SX1278_SPIWrite
 824              	.LVL78:
 173:FML/Src/SX1278.c **** 	SX1278_SPIWrite(module, LR_RegIrqFlagsMask, 0x3F);//Open RxDone interrupt & Timeout 0011 1111
 825              		.loc 1 173 2 view .LVU200
 826 002c 3F22     		movs	r2, #63
 827 002e 1121     		movs	r1, #17
 828 0030 2046     		mov	r0, r4
 829 0032 FFF7FEFF 		bl	SX1278_SPIWrite
 830              	.LVL79:
 174:FML/Src/SX1278.c **** 	SX1278_clearLoRaIrq(module);
 831              		.loc 1 174 2 view .LVU201
 832 0036 2046     		mov	r0, r4
 833 0038 FFF7FEFF 		bl	SX1278_clearLoRaIrq
ARM GAS  C:\Users\CL\AppData\Local\Temp\ccg4mYET.s 			page 21


 834              	.LVL80:
 175:FML/Src/SX1278.c **** 	SX1278_SPIWrite(module, LR_RegPayloadLength, length);//Payload Length 21byte(this register must di
 835              		.loc 1 175 2 view .LVU202
 836 003c 3246     		mov	r2, r6
 837 003e 2221     		movs	r1, #34
 838 0040 2046     		mov	r0, r4
 839 0042 FFF7FEFF 		bl	SX1278_SPIWrite
 840              	.LVL81:
 176:FML/Src/SX1278.c **** 	addr = SX1278_SPIRead(module, LR_RegFifoRxBaseAddr); //Read RxBaseAddr
 841              		.loc 1 176 2 view .LVU203
 842              		.loc 1 176 9 is_stmt 0 view .LVU204
 843 0046 0F21     		movs	r1, #15
 844 0048 2046     		mov	r0, r4
 845 004a FFF7FEFF 		bl	SX1278_SPIRead
 846              	.LVL82:
 177:FML/Src/SX1278.c **** 	SX1278_SPIWrite(module, LR_RegFifoAddrPtr, addr); //RxBaseAddr->FiFoAddrPtr
 847              		.loc 1 177 2 view .LVU205
 848 004e 0D21     		movs	r1, #13
 176:FML/Src/SX1278.c **** 	addr = SX1278_SPIRead(module, LR_RegFifoRxBaseAddr); //Read RxBaseAddr
 849              		.loc 1 176 9 view .LVU206
 850 0050 0246     		mov	r2, r0
 851              	.LVL83:
 852              		.loc 1 177 2 is_stmt 1 view .LVU207
 853 0052 2046     		mov	r0, r4
 854 0054 FFF7FEFF 		bl	SX1278_SPIWrite
 855              	.LVL84:
 178:FML/Src/SX1278.c **** 	SX1278_SPIWrite(module, LR_RegOpMode, 0x8d);	//Mode//Low Frequency Mode
 856              		.loc 1 178 2 view .LVU208
 857 0058 8D22     		movs	r2, #141
 858 005a 0121     		movs	r1, #1
 859 005c 2046     		mov	r0, r4
 860 005e FFF7FEFF 		bl	SX1278_SPIWrite
 861              	.LVL85:
 179:FML/Src/SX1278.c **** 	//SX1278_SPIWrite(module, LR_RegOpMode,0x05);	//Continuous Rx Mode //High Frequency Mode
 180:FML/Src/SX1278.c **** 	module->readBytes = 0;
 862              		.loc 1 180 2 view .LVU209
 863              		.loc 1 180 20 is_stmt 0 view .LVU210
 864 0062 0023     		movs	r3, #0
 865 0064 84F81731 		strb	r3, [r4, #279]
 866              	.L26:
 181:FML/Src/SX1278.c **** 
 182:FML/Src/SX1278.c **** 	while (1) {
 867              		.loc 1 182 2 is_stmt 1 view .LVU211
 183:FML/Src/SX1278.c **** 		if ((SX1278_SPIRead(module, LR_RegModemStat) & 0x04) == 0x04) {	//Rx-on going RegModemStat
 868              		.loc 1 183 3 view .LVU212
 869              		.loc 1 183 8 is_stmt 0 view .LVU213
 870 0068 1821     		movs	r1, #24
 871 006a 2046     		mov	r0, r4
 872 006c FFF7FEFF 		bl	SX1278_SPIRead
 873              	.LVL86:
 874              		.loc 1 183 6 view .LVU214
 875 0070 4307     		lsls	r3, r0, #29
 876 0072 03D5     		bpl	.L23
 184:FML/Src/SX1278.c **** 			module->status = RX;
 877              		.loc 1 184 4 is_stmt 1 view .LVU215
 878              		.loc 1 184 19 is_stmt 0 view .LVU216
 879 0074 0323     		movs	r3, #3
ARM GAS  C:\Users\CL\AppData\Local\Temp\ccg4mYET.s 			page 22


 880 0076 A375     		strb	r3, [r4, #22]
 185:FML/Src/SX1278.c **** 			return 1;
 881              		.loc 1 185 4 is_stmt 1 view .LVU217
 882              		.loc 1 185 11 is_stmt 0 view .LVU218
 883 0078 0120     		movs	r0, #1
 884              	.L22:
 186:FML/Src/SX1278.c **** 		}
 187:FML/Src/SX1278.c **** 		if (--timeout == 0) {
 188:FML/Src/SX1278.c **** 			SX1278_hw_Reset(module->hw);
 189:FML/Src/SX1278.c **** 			SX1278_config(module);
 190:FML/Src/SX1278.c **** 			return 0;
 191:FML/Src/SX1278.c **** 		}
 192:FML/Src/SX1278.c **** 		SX1278_hw_DelayMs(1);
 193:FML/Src/SX1278.c **** 	}
 194:FML/Src/SX1278.c **** }
 885              		.loc 1 194 1 view .LVU219
 886 007a 70BD     		pop	{r4, r5, r6, pc}
 887              	.LVL87:
 888              	.L23:
 187:FML/Src/SX1278.c **** 			SX1278_hw_Reset(module->hw);
 889              		.loc 1 187 3 is_stmt 1 view .LVU220
 187:FML/Src/SX1278.c **** 			SX1278_hw_Reset(module->hw);
 890              		.loc 1 187 6 is_stmt 0 view .LVU221
 891 007c 013D     		subs	r5, r5, #1
 892              	.LVL88:
 187:FML/Src/SX1278.c **** 			SX1278_hw_Reset(module->hw);
 893              		.loc 1 187 6 view .LVU222
 894 007e 07D1     		bne	.L25
 188:FML/Src/SX1278.c **** 			SX1278_config(module);
 895              		.loc 1 188 4 is_stmt 1 view .LVU223
 896 0080 2068     		ldr	r0, [r4]
 897 0082 FFF7FEFF 		bl	SX1278_hw_Reset
 898              	.LVL89:
 189:FML/Src/SX1278.c **** 			return 0;
 899              		.loc 1 189 4 view .LVU224
 900 0086 2046     		mov	r0, r4
 901 0088 FFF7FEFF 		bl	SX1278_config
 902              	.LVL90:
 190:FML/Src/SX1278.c **** 		}
 903              		.loc 1 190 4 view .LVU225
 190:FML/Src/SX1278.c **** 		}
 904              		.loc 1 190 11 is_stmt 0 view .LVU226
 905 008c 2846     		mov	r0, r5
 906 008e F4E7     		b	.L22
 907              	.L25:
 192:FML/Src/SX1278.c **** 	}
 908              		.loc 1 192 3 is_stmt 1 view .LVU227
 909 0090 0120     		movs	r0, #1
 910 0092 FFF7FEFF 		bl	SX1278_hw_DelayMs
 911              	.LVL91:
 182:FML/Src/SX1278.c **** 		if ((SX1278_SPIRead(module, LR_RegModemStat) & 0x04) == 0x04) {	//Rx-on going RegModemStat
 912              		.loc 1 182 8 view .LVU228
 183:FML/Src/SX1278.c **** 			module->status = RX;
 913              		.loc 1 183 6 is_stmt 0 view .LVU229
 914 0096 E7E7     		b	.L26
 915              		.cfi_endproc
 916              	.LFE297:
ARM GAS  C:\Users\CL\AppData\Local\Temp\ccg4mYET.s 			page 23


 918              		.section	.text.SX1278_LoRaRxPacket,"ax",%progbits
 919              		.align	1
 920              		.global	SX1278_LoRaRxPacket
 921              		.syntax unified
 922              		.thumb
 923              		.thumb_func
 925              	SX1278_LoRaRxPacket:
 926              	.LVL92:
 927              	.LFB299:
 195:FML/Src/SX1278.c **** 
 196:FML/Src/SX1278.c **** //static _Bool tx_complete  = 0;
 197:FML/Src/SX1278.c **** /**
 198:FML/Src/SX1278.c ****  * @brief DIO0
 199:FML/Src/SX1278.c ****  * 
 200:FML/Src/SX1278.c ****  * @param module 
 201:FML/Src/SX1278.c ****  * @return uint8_t 
 202:FML/Src/SX1278.c ****  */
 203:FML/Src/SX1278.c **** void SX1278_DIO0IRQ_Handler(SX1278_t *module)
 204:FML/Src/SX1278.c **** {
 205:FML/Src/SX1278.c **** 
 206:FML/Src/SX1278.c **** 	switch (module->status)
 207:FML/Src/SX1278.c **** 	{
 208:FML/Src/SX1278.c **** 		case TX:
 209:FML/Src/SX1278.c **** 			// if (SX1278_hw_GetDIO0(module->hw))
 210:FML/Src/SX1278.c **** 			// 	tx_complete = 1;
 211:FML/Src/SX1278.c **** 			break;
 212:FML/Src/SX1278.c **** 		case RX:
 213:FML/Src/SX1278.c **** 			SX1278_LoRaRxPacket(module);
 214:FML/Src/SX1278.c **** 			/* code */
 215:FML/Src/SX1278.c **** 			break;
 216:FML/Src/SX1278.c **** 		default:
 217:FML/Src/SX1278.c **** 			break;
 218:FML/Src/SX1278.c **** 	}
 219:FML/Src/SX1278.c **** }
 220:FML/Src/SX1278.c **** /**
 221:FML/Src/SX1278.c ****  * @brief DIO0RxDoneDIO0
 222:FML/Src/SX1278.c ****  * 
 223:FML/Src/SX1278.c ****  * @param module 
 224:FML/Src/SX1278.c ****  * @return uint8_t 
 225:FML/Src/SX1278.c ****  */
 226:FML/Src/SX1278.c **** uint8_t SX1278_LoRaRxPacket(SX1278_t *module) {
 928              		.loc 1 226 47 is_stmt 1 view -0
 929              		.cfi_startproc
 930              		@ args = 0, pretend = 0, frame = 0
 931              		@ frame_needed = 0, uses_anonymous_args = 0
 227:FML/Src/SX1278.c **** 	unsigned char addr;
 932              		.loc 1 227 2 view .LVU231
 228:FML/Src/SX1278.c **** 	unsigned char packet_size;
 933              		.loc 1 228 2 view .LVU232
 229:FML/Src/SX1278.c **** 	unsigned char modele_sn;
 934              		.loc 1 229 2 view .LVU233
 230:FML/Src/SX1278.c **** 
 231:FML/Src/SX1278.c **** 	if (SX1278_hw_GetDIO0(module->hw)) {
 935              		.loc 1 231 2 view .LVU234
 226:FML/Src/SX1278.c **** 	unsigned char addr;
 936              		.loc 1 226 47 is_stmt 0 view .LVU235
 937 0000 70B5     		push	{r4, r5, r6, lr}
ARM GAS  C:\Users\CL\AppData\Local\Temp\ccg4mYET.s 			page 24


 938              	.LCFI15:
 939              		.cfi_def_cfa_offset 16
 940              		.cfi_offset 4, -16
 941              		.cfi_offset 5, -12
 942              		.cfi_offset 6, -8
 943              		.cfi_offset 14, -4
 226:FML/Src/SX1278.c **** 	unsigned char addr;
 944              		.loc 1 226 47 view .LVU236
 945 0002 0446     		mov	r4, r0
 946              		.loc 1 231 6 view .LVU237
 947 0004 0068     		ldr	r0, [r0]
 948              	.LVL93:
 949              		.loc 1 231 6 view .LVU238
 950 0006 FFF7FEFF 		bl	SX1278_hw_GetDIO0
 951              	.LVL94:
 952              		.loc 1 231 5 view .LVU239
 953 000a F0B1     		cbz	r0, .L28
 232:FML/Src/SX1278.c **** 		memset(module->rxBuffer, 0x00, SX1278_MAX_PACKET);
 954              		.loc 1 232 3 is_stmt 1 view .LVU240
 955              		.loc 1 232 16 is_stmt 0 view .LVU241
 956 000c 04F11706 		add	r6, r4, #23
 957              		.loc 1 232 3 view .LVU242
 958 0010 4FF48072 		mov	r2, #256
 959 0014 0021     		movs	r1, #0
 960 0016 3046     		mov	r0, r6
 961 0018 FFF7FEFF 		bl	memset
 962              	.LVL95:
 233:FML/Src/SX1278.c **** 
 234:FML/Src/SX1278.c **** 		addr = SX1278_SPIRead(module, LR_RegFifoRxCurrentaddr); //last packet addr
 963              		.loc 1 234 3 is_stmt 1 view .LVU243
 964              		.loc 1 234 10 is_stmt 0 view .LVU244
 965 001c 1021     		movs	r1, #16
 966 001e 2046     		mov	r0, r4
 967 0020 FFF7FEFF 		bl	SX1278_SPIRead
 968              	.LVL96:
 235:FML/Src/SX1278.c **** 		SX1278_SPIWrite(module, LR_RegFifoAddrPtr, addr); //RxBaseAddr -> FiFoAddrPtr
 969              		.loc 1 235 3 view .LVU245
 970 0024 0D21     		movs	r1, #13
 234:FML/Src/SX1278.c **** 		SX1278_SPIWrite(module, LR_RegFifoAddrPtr, addr); //RxBaseAddr -> FiFoAddrPtr
 971              		.loc 1 234 10 view .LVU246
 972 0026 0246     		mov	r2, r0
 973              	.LVL97:
 974              		.loc 1 235 3 is_stmt 1 view .LVU247
 975 0028 2046     		mov	r0, r4
 976 002a FFF7FEFF 		bl	SX1278_SPIWrite
 977              	.LVL98:
 236:FML/Src/SX1278.c **** 
 237:FML/Src/SX1278.c **** 		if (module->LoRa_SF == SX1278_LORA_SF_6) { //When SpreadFactor is six,will used Implicit Header m
 978              		.loc 1 237 3 view .LVU248
 979              		.loc 1 237 6 is_stmt 0 view .LVU249
 980 002e 637C     		ldrb	r3, [r4, #17]	@ zero_extendqisi2
 981 0030 33BB     		cbnz	r3, .L29
 238:FML/Src/SX1278.c **** 			packet_size = module->packetLength;
 982              		.loc 1 238 4 is_stmt 1 view .LVU250
 983              		.loc 1 238 16 is_stmt 0 view .LVU251
 984 0032 657D     		ldrb	r5, [r4, #21]	@ zero_extendqisi2
 985              	.LVL99:
ARM GAS  C:\Users\CL\AppData\Local\Temp\ccg4mYET.s 			page 25


 986              	.L30:
 239:FML/Src/SX1278.c **** 		} else {
 240:FML/Src/SX1278.c **** 			packet_size = SX1278_SPIRead(module, LR_RegRxNbBytes); //Number for received bytes
 241:FML/Src/SX1278.c **** 		}
 242:FML/Src/SX1278.c **** 
 243:FML/Src/SX1278.c **** 		SX1278_SPIBurstRead(module, 0x00, module->rxBuffer, packet_size);
 987              		.loc 1 243 3 is_stmt 1 view .LVU252
 988 0034 2046     		mov	r0, r4
 989 0036 2B46     		mov	r3, r5
 990 0038 3246     		mov	r2, r6
 991 003a 0021     		movs	r1, #0
 992 003c FFF7FEFF 		bl	SX1278_SPIBurstRead
 993              	.LVL100:
 244:FML/Src/SX1278.c **** 		module->readBytes = packet_size;
 994              		.loc 1 244 3 view .LVU253
 995              		.loc 1 244 21 is_stmt 0 view .LVU254
 996 0040 84F81751 		strb	r5, [r4, #279]
 245:FML/Src/SX1278.c **** 		SX1278_clearLoRaIrq(module);
 997              		.loc 1 245 3 is_stmt 1 view .LVU255
 998 0044 2046     		mov	r0, r4
 999 0046 FFF7FEFF 		bl	SX1278_clearLoRaIrq
 1000              	.LVL101:
 1001              	.L28:
 246:FML/Src/SX1278.c **** 	}
 247:FML/Src/SX1278.c **** 	if(module->readBytes != 0)
 1002              		.loc 1 247 2 view .LVU256
 1003              		.loc 1 247 4 is_stmt 0 view .LVU257
 1004 004a 94F81731 		ldrb	r3, [r4, #279]	@ zero_extendqisi2
 1005 004e A3B1     		cbz	r3, .L31
 248:FML/Src/SX1278.c **** 	{
 249:FML/Src/SX1278.c **** 		modele_sn = ((uint32_t)module - (uint32_t)&Lora_dev[0])/((uint32_t)sizeof(Lora_dev[0]));
 1006              		.loc 1 249 3 is_stmt 1 view .LVU258
 1007              	.LVL102:
 250:FML/Src/SX1278.c **** 		memset(lora_cache[modele_sn],0x00,30);
 1008              		.loc 1 250 3 view .LVU259
 249:FML/Src/SX1278.c **** 		memset(lora_cache[modele_sn],0x00,30);
 1009              		.loc 1 249 35 is_stmt 0 view .LVU260
 1010 0050 0E4B     		ldr	r3, .L38
 1011              		.loc 1 250 20 view .LVU261
 1012 0052 0F49     		ldr	r1, .L38+4
 249:FML/Src/SX1278.c **** 		memset(lora_cache[modele_sn],0x00,30);
 1013              		.loc 1 249 58 view .LVU262
 1014 0054 4FF48C72 		mov	r2, #280
 249:FML/Src/SX1278.c **** 		memset(lora_cache[modele_sn],0x00,30);
 1015              		.loc 1 249 33 view .LVU263
 1016 0058 E31A     		subs	r3, r4, r3
 249:FML/Src/SX1278.c **** 		memset(lora_cache[modele_sn],0x00,30);
 1017              		.loc 1 249 58 view .LVU264
 1018 005a B3FBF2F3 		udiv	r3, r3, r2
 1019              		.loc 1 250 20 view .LVU265
 1020 005e 1E22     		movs	r2, #30
 1021 0060 DBB2     		uxtb	r3, r3
 1022 0062 02FB0313 		mla	r3, r2, r3, r1
 1023              		.loc 1 250 3 view .LVU266
 1024 0066 1846     		mov	r0, r3
 1025 0068 0021     		movs	r1, #0
 1026 006a FFF7FEFF 		bl	memset
ARM GAS  C:\Users\CL\AppData\Local\Temp\ccg4mYET.s 			page 26


 1027              	.LVL103:
 251:FML/Src/SX1278.c **** 		memcpy(lora_cache[modele_sn],module->rxBuffer,module->readBytes);
 1028              		.loc 1 251 3 is_stmt 1 view .LVU267
 1029 006e 94F81721 		ldrb	r2, [r4, #279]	@ zero_extendqisi2
 1030 0072 04F11701 		add	r1, r4, #23
 1031 0076 FFF7FEFF 		bl	memcpy
 1032              	.LVL104:
 1033              	.L31:
 252:FML/Src/SX1278.c **** 
 253:FML/Src/SX1278.c **** 	}
 254:FML/Src/SX1278.c **** // 	modele_sn = ((uint32_t)module - (uint32_t)&Lora_dev[0])/((uint32_t)sizeof(Lora_dev[0]));
 255:FML/Src/SX1278.c **** // 	shellPrint(&shell,"Lora%d has received %dbytes,\r\nRx_Str:%s\r\n\
 256:FML/Src/SX1278.c **** // Lora%d RX Test OK\r\n",2 - modele_sn,module->readBytes,module->rxBuffer,2 - modele_sn);
 257:FML/Src/SX1278.c **** //     test_ok_cnt++;
 258:FML/Src/SX1278.c **** 	return module->readBytes;
 1034              		.loc 1 258 2 view .LVU268
 259:FML/Src/SX1278.c **** }
 1035              		.loc 1 259 1 is_stmt 0 view .LVU269
 1036 007a 94F81701 		ldrb	r0, [r4, #279]	@ zero_extendqisi2
 1037 007e 70BD     		pop	{r4, r5, r6, pc}
 1038              	.LVL105:
 1039              	.L29:
 240:FML/Src/SX1278.c **** 		}
 1040              		.loc 1 240 4 is_stmt 1 view .LVU270
 240:FML/Src/SX1278.c **** 		}
 1041              		.loc 1 240 18 is_stmt 0 view .LVU271
 1042 0080 1321     		movs	r1, #19
 1043 0082 2046     		mov	r0, r4
 1044 0084 FFF7FEFF 		bl	SX1278_SPIRead
 1045              	.LVL106:
 1046 0088 0546     		mov	r5, r0
 1047              	.LVL107:
 240:FML/Src/SX1278.c **** 		}
 1048              		.loc 1 240 18 view .LVU272
 1049 008a D3E7     		b	.L30
 1050              	.L39:
 1051              		.align	2
 1052              	.L38:
 1053 008c 00000000 		.word	.LANCHOR6
 1054 0090 00000000 		.word	.LANCHOR5
 1055              		.cfi_endproc
 1056              	.LFE299:
 1058              		.section	.text.SX1278_DIO0IRQ_Handler,"ax",%progbits
 1059              		.align	1
 1060              		.global	SX1278_DIO0IRQ_Handler
 1061              		.syntax unified
 1062              		.thumb
 1063              		.thumb_func
 1065              	SX1278_DIO0IRQ_Handler:
 1066              	.LVL108:
 1067              	.LFB298:
 204:FML/Src/SX1278.c **** 
 1068              		.loc 1 204 1 is_stmt 1 view -0
 1069              		.cfi_startproc
 1070              		@ args = 0, pretend = 0, frame = 0
 1071              		@ frame_needed = 0, uses_anonymous_args = 0
 1072              		@ link register save eliminated.
ARM GAS  C:\Users\CL\AppData\Local\Temp\ccg4mYET.s 			page 27


 206:FML/Src/SX1278.c **** 	{
 1073              		.loc 1 206 2 view .LVU274
 1074 0000 837D     		ldrb	r3, [r0, #22]	@ zero_extendqisi2
 1075 0002 032B     		cmp	r3, #3
 1076 0004 01D1     		bne	.L40
 213:FML/Src/SX1278.c **** 			/* code */
 1077              		.loc 1 213 4 view .LVU275
 1078 0006 FFF7FEBF 		b	SX1278_LoRaRxPacket
 1079              	.LVL109:
 1080              	.L40:
 219:FML/Src/SX1278.c **** /**
 1081              		.loc 1 219 1 is_stmt 0 view .LVU276
 1082 000a 7047     		bx	lr
 1083              		.cfi_endproc
 1084              	.LFE298:
 1086              		.section	.text.SX1278_LoRaEntryTx,"ax",%progbits
 1087              		.align	1
 1088              		.global	SX1278_LoRaEntryTx
 1089              		.syntax unified
 1090              		.thumb
 1091              		.thumb_func
 1093              	SX1278_LoRaEntryTx:
 1094              	.LVL110:
 1095              	.LFB300:
 260:FML/Src/SX1278.c **** 
 261:FML/Src/SX1278.c **** int SX1278_LoRaEntryTx(SX1278_t *module, uint8_t length, uint32_t timeout) {
 1096              		.loc 1 261 76 is_stmt 1 view -0
 1097              		.cfi_startproc
 1098              		@ args = 0, pretend = 0, frame = 0
 1099              		@ frame_needed = 0, uses_anonymous_args = 0
 262:FML/Src/SX1278.c **** 	uint8_t addr;
 1100              		.loc 1 262 2 view .LVU278
 263:FML/Src/SX1278.c **** 	uint8_t temp;
 1101              		.loc 1 263 2 view .LVU279
 264:FML/Src/SX1278.c **** 
 265:FML/Src/SX1278.c **** 	module->packetLength = length;
 1102              		.loc 1 265 2 view .LVU280
 261:FML/Src/SX1278.c **** 	uint8_t addr;
 1103              		.loc 1 261 76 is_stmt 0 view .LVU281
 1104 0000 70B5     		push	{r4, r5, r6, lr}
 1105              	.LCFI16:
 1106              		.cfi_def_cfa_offset 16
 1107              		.cfi_offset 4, -16
 1108              		.cfi_offset 5, -12
 1109              		.cfi_offset 6, -8
 1110              		.cfi_offset 14, -4
 261:FML/Src/SX1278.c **** 	uint8_t addr;
 1111              		.loc 1 261 76 view .LVU282
 1112 0002 0446     		mov	r4, r0
 1113              		.loc 1 265 23 view .LVU283
 1114 0004 4175     		strb	r1, [r0, #21]
 266:FML/Src/SX1278.c **** 
 267:FML/Src/SX1278.c **** 	SX1278_config(module); //setting base parameter
 1115              		.loc 1 267 2 is_stmt 1 view .LVU284
 261:FML/Src/SX1278.c **** 	uint8_t addr;
 1116              		.loc 1 261 76 is_stmt 0 view .LVU285
 1117 0006 0E46     		mov	r6, r1
ARM GAS  C:\Users\CL\AppData\Local\Temp\ccg4mYET.s 			page 28


 1118 0008 1546     		mov	r5, r2
 1119              		.loc 1 267 2 view .LVU286
 1120 000a FFF7FEFF 		bl	SX1278_config
 1121              	.LVL111:
 268:FML/Src/SX1278.c **** 	//SX1278_standby(module);
 269:FML/Src/SX1278.c **** 	SX1278_SPIWrite(module, REG_LR_PADAC, 0x87);	//Tx for 20dBm
 1122              		.loc 1 269 2 is_stmt 1 view .LVU287
 1123 000e 8722     		movs	r2, #135
 1124 0010 4D21     		movs	r1, #77
 1125 0012 2046     		mov	r0, r4
 1126 0014 FFF7FEFF 		bl	SX1278_SPIWrite
 1127              	.LVL112:
 270:FML/Src/SX1278.c **** 	SX1278_SPIWrite(module, LR_RegHopPeriod, 0x00); //RegHopPeriod NO FHSS
 1128              		.loc 1 270 2 view .LVU288
 1129 0018 0022     		movs	r2, #0
 1130 001a 2421     		movs	r1, #36
 1131 001c 2046     		mov	r0, r4
 1132 001e FFF7FEFF 		bl	SX1278_SPIWrite
 1133              	.LVL113:
 271:FML/Src/SX1278.c **** 	SX1278_SPIWrite(module, REG_LR_DIOMAPPING1, 0x41); //DIO0=01, DIO1=00,DIO2=00, DIO3=01
 1134              		.loc 1 271 2 view .LVU289
 1135 0022 4122     		movs	r2, #65
 1136 0024 4021     		movs	r1, #64
 1137 0026 2046     		mov	r0, r4
 1138 0028 FFF7FEFF 		bl	SX1278_SPIWrite
 1139              	.LVL114:
 272:FML/Src/SX1278.c **** 	SX1278_clearLoRaIrq(module);
 1140              		.loc 1 272 2 view .LVU290
 1141 002c 2046     		mov	r0, r4
 1142 002e FFF7FEFF 		bl	SX1278_clearLoRaIrq
 1143              	.LVL115:
 273:FML/Src/SX1278.c **** 	SX1278_SPIWrite(module, LR_RegIrqFlagsMask, 0xF7); //Open TxDone interrupt
 1144              		.loc 1 273 2 view .LVU291
 1145 0032 F722     		movs	r2, #247
 1146 0034 1121     		movs	r1, #17
 1147 0036 2046     		mov	r0, r4
 1148 0038 FFF7FEFF 		bl	SX1278_SPIWrite
 1149              	.LVL116:
 274:FML/Src/SX1278.c **** 	SX1278_SPIWrite(module, LR_RegPayloadLength, length); //RegPayloadLength 21byte
 1150              		.loc 1 274 2 view .LVU292
 1151 003c 3246     		mov	r2, r6
 1152 003e 2221     		movs	r1, #34
 1153 0040 2046     		mov	r0, r4
 1154 0042 FFF7FEFF 		bl	SX1278_SPIWrite
 1155              	.LVL117:
 275:FML/Src/SX1278.c **** 	addr = SX1278_SPIRead(module, LR_RegFifoTxBaseAddr); //RegFiFoTxBaseAddr
 1156              		.loc 1 275 2 view .LVU293
 1157              		.loc 1 275 9 is_stmt 0 view .LVU294
 1158 0046 0E21     		movs	r1, #14
 1159 0048 2046     		mov	r0, r4
 1160 004a FFF7FEFF 		bl	SX1278_SPIRead
 1161              	.LVL118:
 276:FML/Src/SX1278.c **** 	SX1278_SPIWrite(module, LR_RegFifoAddrPtr, addr); //RegFifoAddrPtr
 1162              		.loc 1 276 2 view .LVU295
 1163 004e 0D21     		movs	r1, #13
 275:FML/Src/SX1278.c **** 	addr = SX1278_SPIRead(module, LR_RegFifoTxBaseAddr); //RegFiFoTxBaseAddr
 1164              		.loc 1 275 9 view .LVU296
ARM GAS  C:\Users\CL\AppData\Local\Temp\ccg4mYET.s 			page 29


 1165 0050 0246     		mov	r2, r0
 1166              	.LVL119:
 1167              		.loc 1 276 2 is_stmt 1 view .LVU297
 1168 0052 2046     		mov	r0, r4
 1169 0054 FFF7FEFF 		bl	SX1278_SPIWrite
 1170              	.LVL120:
 1171              	.L45:
 277:FML/Src/SX1278.c **** 
 278:FML/Src/SX1278.c **** 	while (1) {
 1172              		.loc 1 278 2 view .LVU298
 279:FML/Src/SX1278.c **** 		temp = SX1278_SPIRead(module, LR_RegPayloadLength);
 1173              		.loc 1 279 3 view .LVU299
 1174              		.loc 1 279 10 is_stmt 0 view .LVU300
 1175 0058 2221     		movs	r1, #34
 1176 005a 2046     		mov	r0, r4
 1177 005c FFF7FEFF 		bl	SX1278_SPIRead
 1178              	.LVL121:
 280:FML/Src/SX1278.c **** 		if (temp == length) {
 1179              		.loc 1 280 3 is_stmt 1 view .LVU301
 1180              		.loc 1 280 6 is_stmt 0 view .LVU302
 1181 0060 8642     		cmp	r6, r0
 1182 0062 03D1     		bne	.L43
 281:FML/Src/SX1278.c **** 			module->status = TX;
 1183              		.loc 1 281 4 is_stmt 1 view .LVU303
 1184              		.loc 1 281 19 is_stmt 0 view .LVU304
 1185 0064 0223     		movs	r3, #2
 1186 0066 A375     		strb	r3, [r4, #22]
 282:FML/Src/SX1278.c **** 			return 1;
 1187              		.loc 1 282 4 is_stmt 1 view .LVU305
 1188              		.loc 1 282 11 is_stmt 0 view .LVU306
 1189 0068 0120     		movs	r0, #1
 1190              	.LVL122:
 1191              	.L42:
 283:FML/Src/SX1278.c **** 			
 284:FML/Src/SX1278.c **** 		}
 285:FML/Src/SX1278.c **** 
 286:FML/Src/SX1278.c **** 		if (--timeout == 0) {
 287:FML/Src/SX1278.c **** 			SX1278_hw_Reset(module->hw);
 288:FML/Src/SX1278.c **** 			SX1278_config(module);
 289:FML/Src/SX1278.c **** 			return 0;
 290:FML/Src/SX1278.c **** 		}
 291:FML/Src/SX1278.c **** 	}
 292:FML/Src/SX1278.c **** }
 1192              		.loc 1 292 1 view .LVU307
 1193 006a 70BD     		pop	{r4, r5, r6, pc}
 1194              	.LVL123:
 1195              	.L43:
 286:FML/Src/SX1278.c **** 			SX1278_hw_Reset(module->hw);
 1196              		.loc 1 286 3 is_stmt 1 view .LVU308
 286:FML/Src/SX1278.c **** 			SX1278_hw_Reset(module->hw);
 1197              		.loc 1 286 6 is_stmt 0 view .LVU309
 1198 006c 013D     		subs	r5, r5, #1
 1199              	.LVL124:
 286:FML/Src/SX1278.c **** 			SX1278_hw_Reset(module->hw);
 1200              		.loc 1 286 6 view .LVU310
 1201 006e F3D1     		bne	.L45
 287:FML/Src/SX1278.c **** 			SX1278_config(module);
ARM GAS  C:\Users\CL\AppData\Local\Temp\ccg4mYET.s 			page 30


 1202              		.loc 1 287 4 is_stmt 1 view .LVU311
 1203 0070 2068     		ldr	r0, [r4]
 1204              	.LVL125:
 287:FML/Src/SX1278.c **** 			SX1278_config(module);
 1205              		.loc 1 287 4 is_stmt 0 view .LVU312
 1206 0072 FFF7FEFF 		bl	SX1278_hw_Reset
 1207              	.LVL126:
 288:FML/Src/SX1278.c **** 			return 0;
 1208              		.loc 1 288 4 is_stmt 1 view .LVU313
 1209 0076 2046     		mov	r0, r4
 1210 0078 FFF7FEFF 		bl	SX1278_config
 1211              	.LVL127:
 289:FML/Src/SX1278.c **** 		}
 1212              		.loc 1 289 4 view .LVU314
 289:FML/Src/SX1278.c **** 		}
 1213              		.loc 1 289 11 is_stmt 0 view .LVU315
 1214 007c 2846     		mov	r0, r5
 1215 007e F4E7     		b	.L42
 1216              		.cfi_endproc
 1217              	.LFE300:
 1219              		.section	.text.SX1278_LoRaTxPacket,"ax",%progbits
 1220              		.align	1
 1221              		.global	SX1278_LoRaTxPacket
 1222              		.syntax unified
 1223              		.thumb
 1224              		.thumb_func
 1226              	SX1278_LoRaTxPacket:
 1227              	.LVL128:
 1228              	.LFB301:
 293:FML/Src/SX1278.c **** 
 294:FML/Src/SX1278.c **** int SX1278_LoRaTxPacket(SX1278_t *module, uint8_t *txBuffer, uint8_t length,
 295:FML/Src/SX1278.c **** 		uint32_t timeout) {
 1229              		.loc 1 295 21 is_stmt 1 view -0
 1230              		.cfi_startproc
 1231              		@ args = 0, pretend = 0, frame = 0
 1232              		@ frame_needed = 0, uses_anonymous_args = 0
 296:FML/Src/SX1278.c **** 	SX1278_SPIBurstWrite(module, 0x00, txBuffer, length);
 1233              		.loc 1 296 2 view .LVU317
 295:FML/Src/SX1278.c **** 	SX1278_SPIBurstWrite(module, 0x00, txBuffer, length);
 1234              		.loc 1 295 21 is_stmt 0 view .LVU318
 1235 0000 70B5     		push	{r4, r5, r6, lr}
 1236              	.LCFI17:
 1237              		.cfi_def_cfa_offset 16
 1238              		.cfi_offset 4, -16
 1239              		.cfi_offset 5, -12
 1240              		.cfi_offset 6, -8
 1241              		.cfi_offset 14, -4
 295:FML/Src/SX1278.c **** 	SX1278_SPIBurstWrite(module, 0x00, txBuffer, length);
 1242              		.loc 1 295 21 view .LVU319
 1243 0002 0446     		mov	r4, r0
 1244 0004 1E46     		mov	r6, r3
 1245              		.loc 1 296 2 view .LVU320
 1246 0006 1346     		mov	r3, r2
 1247              	.LVL129:
 1248              		.loc 1 296 2 view .LVU321
 1249 0008 0A46     		mov	r2, r1
 1250              	.LVL130:
ARM GAS  C:\Users\CL\AppData\Local\Temp\ccg4mYET.s 			page 31


 1251              		.loc 1 296 2 view .LVU322
 1252 000a 0021     		movs	r1, #0
 1253              	.LVL131:
 1254              		.loc 1 296 2 view .LVU323
 1255 000c FFF7FEFF 		bl	SX1278_SPIBurstWrite
 1256              	.LVL132:
 297:FML/Src/SX1278.c **** 	//tx_complete = 0;
 298:FML/Src/SX1278.c **** 	SX1278_SPIWrite(module, LR_RegOpMode, 0x8b);	//Tx Mode
 1257              		.loc 1 298 2 is_stmt 1 view .LVU324
 1258 0010 2046     		mov	r0, r4
 1259 0012 8B22     		movs	r2, #139
 1260 0014 0121     		movs	r1, #1
 1261 0016 FFF7FEFF 		bl	SX1278_SPIWrite
 1262              	.LVL133:
 299:FML/Src/SX1278.c **** 	SX1278_hw_DelayMs(300);
 1263              		.loc 1 299 2 view .LVU325
 1264 001a 4FF49670 		mov	r0, #300
 1265              	.L52:
 1266              		.loc 1 299 2 is_stmt 0 view .LVU326
 1267 001e FFF7FEFF 		bl	SX1278_hw_DelayMs
 1268              	.LVL134:
 300:FML/Src/SX1278.c **** 	while (1) {
 1269              		.loc 1 300 2 is_stmt 1 view .LVU327
 301:FML/Src/SX1278.c **** 		if (SX1278_hw_GetDIO0(module->hw)) { //if(Get_NIRQ()) //Packet send over
 1270              		.loc 1 301 3 view .LVU328
 1271              		.loc 1 301 7 is_stmt 0 view .LVU329
 1272 0022 2068     		ldr	r0, [r4]
 1273 0024 FFF7FEFF 		bl	SX1278_hw_GetDIO0
 1274              	.LVL135:
 1275              		.loc 1 301 6 view .LVU330
 1276 0028 0546     		mov	r5, r0
 1277 002a 60B1     		cbz	r0, .L48
 302:FML/Src/SX1278.c **** 		//if (tx_complete) { //if(Get_NIRQ()) //Packet send over
 303:FML/Src/SX1278.c **** 			SX1278_SPIRead(module, LR_RegIrqFlags);
 1278              		.loc 1 303 4 is_stmt 1 view .LVU331
 1279 002c 1221     		movs	r1, #18
 1280 002e 2046     		mov	r0, r4
 1281 0030 FFF7FEFF 		bl	SX1278_SPIRead
 1282              	.LVL136:
 304:FML/Src/SX1278.c **** 			SX1278_clearLoRaIrq(module); //Clear irq
 1283              		.loc 1 304 4 view .LVU332
 1284 0034 2046     		mov	r0, r4
 1285 0036 FFF7FEFF 		bl	SX1278_clearLoRaIrq
 1286              	.LVL137:
 305:FML/Src/SX1278.c **** 			SX1278_standby(module); //Entry Standby mode
 1287              		.loc 1 305 4 view .LVU333
 1288 003a 2046     		mov	r0, r4
 1289 003c FFF7FEFF 		bl	SX1278_standby
 1290              	.LVL138:
 306:FML/Src/SX1278.c **** 			return 1;
 1291              		.loc 1 306 4 view .LVU334
 1292              		.loc 1 306 11 is_stmt 0 view .LVU335
 1293 0040 0125     		movs	r5, #1
 1294              	.L47:
 307:FML/Src/SX1278.c **** 		}
 308:FML/Src/SX1278.c **** 		if (--timeout == 0) {
 309:FML/Src/SX1278.c **** 			SX1278_hw_Reset(module->hw);
ARM GAS  C:\Users\CL\AppData\Local\Temp\ccg4mYET.s 			page 32


 310:FML/Src/SX1278.c **** 			SX1278_config(module);
 311:FML/Src/SX1278.c **** 			return 0;
 312:FML/Src/SX1278.c **** 		}
 313:FML/Src/SX1278.c **** 		SX1278_hw_DelayMs(1);
 314:FML/Src/SX1278.c **** 	}
 315:FML/Src/SX1278.c **** }
 1295              		.loc 1 315 1 view .LVU336
 1296 0042 2846     		mov	r0, r5
 1297 0044 70BD     		pop	{r4, r5, r6, pc}
 1298              	.LVL139:
 1299              	.L48:
 308:FML/Src/SX1278.c **** 			SX1278_hw_Reset(module->hw);
 1300              		.loc 1 308 3 is_stmt 1 view .LVU337
 308:FML/Src/SX1278.c **** 			SX1278_hw_Reset(module->hw);
 1301              		.loc 1 308 6 is_stmt 0 view .LVU338
 1302 0046 013E     		subs	r6, r6, #1
 1303              	.LVL140:
 308:FML/Src/SX1278.c **** 			SX1278_hw_Reset(module->hw);
 1304              		.loc 1 308 6 view .LVU339
 1305 0048 06D1     		bne	.L50
 309:FML/Src/SX1278.c **** 			SX1278_config(module);
 1306              		.loc 1 309 4 is_stmt 1 view .LVU340
 1307 004a 2068     		ldr	r0, [r4]
 1308 004c FFF7FEFF 		bl	SX1278_hw_Reset
 1309              	.LVL141:
 310:FML/Src/SX1278.c **** 			return 0;
 1310              		.loc 1 310 4 view .LVU341
 1311 0050 2046     		mov	r0, r4
 1312 0052 FFF7FEFF 		bl	SX1278_config
 1313              	.LVL142:
 311:FML/Src/SX1278.c **** 		}
 1314              		.loc 1 311 4 view .LVU342
 311:FML/Src/SX1278.c **** 		}
 1315              		.loc 1 311 11 is_stmt 0 view .LVU343
 1316 0056 F4E7     		b	.L47
 1317              	.L50:
 313:FML/Src/SX1278.c **** 	}
 1318              		.loc 1 313 3 is_stmt 1 view .LVU344
 1319 0058 0120     		movs	r0, #1
 1320 005a E0E7     		b	.L52
 1321              		.cfi_endproc
 1322              	.LFE301:
 1324              		.section	.text.SX1278_init,"ax",%progbits
 1325              		.align	1
 1326              		.global	SX1278_init
 1327              		.syntax unified
 1328              		.thumb
 1329              		.thumb_func
 1331              	SX1278_init:
 1332              	.LVL143:
 1333              	.LFB302:
 316:FML/Src/SX1278.c **** 
 317:FML/Src/SX1278.c **** void SX1278_init(SX1278_t *module, uint64_t frequency, uint8_t power,
 318:FML/Src/SX1278.c **** 		uint8_t LoRa_SF, uint8_t LoRa_BW, uint8_t LoRa_CR,
 319:FML/Src/SX1278.c **** 		uint8_t LoRa_CRC_sum, uint8_t packetLength) {
 1334              		.loc 1 319 47 view -0
 1335              		.cfi_startproc
ARM GAS  C:\Users\CL\AppData\Local\Temp\ccg4mYET.s 			page 33


 1336              		@ args = 24, pretend = 0, frame = 8
 1337              		@ frame_needed = 0, uses_anonymous_args = 0
 320:FML/Src/SX1278.c **** 	SX1278_hw_init(module->hw);
 1338              		.loc 1 320 2 view .LVU346
 319:FML/Src/SX1278.c **** 	SX1278_hw_init(module->hw);
 1339              		.loc 1 319 47 is_stmt 0 view .LVU347
 1340 0000 2DE9F74F 		push	{r0, r1, r2, r4, r5, r6, r7, r8, r9, r10, fp, lr}
 1341              	.LCFI18:
 1342              		.cfi_def_cfa_offset 48
 1343              		.cfi_offset 4, -36
 1344              		.cfi_offset 5, -32
 1345              		.cfi_offset 6, -28
 1346              		.cfi_offset 7, -24
 1347              		.cfi_offset 8, -20
 1348              		.cfi_offset 9, -16
 1349              		.cfi_offset 10, -12
 1350              		.cfi_offset 11, -8
 1351              		.cfi_offset 14, -4
 319:FML/Src/SX1278.c **** 	SX1278_hw_init(module->hw);
 1352              		.loc 1 319 47 view .LVU348
 1353 0004 0446     		mov	r4, r0
 1354 0006 1D46     		mov	r5, r3
 1355              		.loc 1 320 2 view .LVU349
 1356 0008 0068     		ldr	r0, [r0]
 1357              	.LVL144:
 319:FML/Src/SX1278.c **** 	SX1278_hw_init(module->hw);
 1358              		.loc 1 319 47 view .LVU350
 1359 000a 9DF83030 		ldrb	r3, [sp, #48]	@ zero_extendqisi2
 1360 000e 9DF834B0 		ldrb	fp, [sp, #52]	@ zero_extendqisi2
 1361 0012 9DF838A0 		ldrb	r10, [sp, #56]	@ zero_extendqisi2
 1362 0016 9DF83C90 		ldrb	r9, [sp, #60]	@ zero_extendqisi2
 1363 001a 9DF84080 		ldrb	r8, [sp, #64]	@ zero_extendqisi2
 1364 001e 9DF84470 		ldrb	r7, [sp, #68]	@ zero_extendqisi2
 1365 0022 0193     		str	r3, [sp, #4]
 1366 0024 1646     		mov	r6, r2
 1367              		.loc 1 320 2 view .LVU351
 1368 0026 FFF7FEFF 		bl	SX1278_hw_init
 1369              	.LVL145:
 321:FML/Src/SX1278.c **** 	module->frequency = frequency;
 1370              		.loc 1 321 2 is_stmt 1 view .LVU352
 322:FML/Src/SX1278.c **** 	module->power = power;
 1371              		.loc 1 322 16 is_stmt 0 view .LVU353
 1372 002a 019B     		ldr	r3, [sp, #4]
 1373 002c 2374     		strb	r3, [r4, #16]
 323:FML/Src/SX1278.c **** 	module->LoRa_SF = LoRa_SF;
 324:FML/Src/SX1278.c **** 	module->LoRa_BW = LoRa_BW;
 325:FML/Src/SX1278.c **** 	module->LoRa_CR = LoRa_CR;
 326:FML/Src/SX1278.c **** 	module->LoRa_CRC_sum = LoRa_CRC_sum;
 327:FML/Src/SX1278.c **** 	module->packetLength = packetLength;
 328:FML/Src/SX1278.c **** 	SX1278_config(module);
 1374              		.loc 1 328 2 view .LVU354
 1375 002e 2046     		mov	r0, r4
 321:FML/Src/SX1278.c **** 	module->power = power;
 1376              		.loc 1 321 20 view .LVU355
 1377 0030 C4E90265 		strd	r6, r5, [r4, #8]
 322:FML/Src/SX1278.c **** 	module->power = power;
 1378              		.loc 1 322 2 is_stmt 1 view .LVU356
ARM GAS  C:\Users\CL\AppData\Local\Temp\ccg4mYET.s 			page 34


 323:FML/Src/SX1278.c **** 	module->LoRa_SF = LoRa_SF;
 1379              		.loc 1 323 2 view .LVU357
 323:FML/Src/SX1278.c **** 	module->LoRa_SF = LoRa_SF;
 1380              		.loc 1 323 18 is_stmt 0 view .LVU358
 1381 0034 84F811B0 		strb	fp, [r4, #17]
 324:FML/Src/SX1278.c **** 	module->LoRa_CR = LoRa_CR;
 1382              		.loc 1 324 2 is_stmt 1 view .LVU359
 324:FML/Src/SX1278.c **** 	module->LoRa_CR = LoRa_CR;
 1383              		.loc 1 324 18 is_stmt 0 view .LVU360
 1384 0038 84F812A0 		strb	r10, [r4, #18]
 325:FML/Src/SX1278.c **** 	module->LoRa_CRC_sum = LoRa_CRC_sum;
 1385              		.loc 1 325 2 is_stmt 1 view .LVU361
 325:FML/Src/SX1278.c **** 	module->LoRa_CRC_sum = LoRa_CRC_sum;
 1386              		.loc 1 325 18 is_stmt 0 view .LVU362
 1387 003c 84F81390 		strb	r9, [r4, #19]
 326:FML/Src/SX1278.c **** 	module->packetLength = packetLength;
 1388              		.loc 1 326 2 is_stmt 1 view .LVU363
 326:FML/Src/SX1278.c **** 	module->packetLength = packetLength;
 1389              		.loc 1 326 23 is_stmt 0 view .LVU364
 1390 0040 84F81480 		strb	r8, [r4, #20]
 327:FML/Src/SX1278.c **** 	SX1278_config(module);
 1391              		.loc 1 327 2 is_stmt 1 view .LVU365
 327:FML/Src/SX1278.c **** 	SX1278_config(module);
 1392              		.loc 1 327 23 is_stmt 0 view .LVU366
 1393 0044 6775     		strb	r7, [r4, #21]
 1394              		.loc 1 328 2 is_stmt 1 view .LVU367
 329:FML/Src/SX1278.c **** }
 1395              		.loc 1 329 1 is_stmt 0 view .LVU368
 1396 0046 03B0     		add	sp, sp, #12
 1397              	.LCFI19:
 1398              		.cfi_def_cfa_offset 36
 1399              		@ sp needed
 1400 0048 BDE8F04F 		pop	{r4, r5, r6, r7, r8, r9, r10, fp, lr}
 1401              	.LCFI20:
 1402              		.cfi_restore 14
 1403              		.cfi_restore 11
 1404              		.cfi_restore 10
 1405              		.cfi_restore 9
 1406              		.cfi_restore 8
 1407              		.cfi_restore 7
 1408              		.cfi_restore 6
 1409              		.cfi_restore 5
 1410              		.cfi_restore 4
 1411              		.cfi_def_cfa_offset 0
 1412              	.LVL146:
 328:FML/Src/SX1278.c **** }
 1413              		.loc 1 328 2 view .LVU369
 1414 004c FFF7FEBF 		b	SX1278_config
 1415              	.LVL147:
 328:FML/Src/SX1278.c **** }
 1416              		.loc 1 328 2 view .LVU370
 1417              		.cfi_endproc
 1418              	.LFE302:
 1420              		.section	.text.SX1278_transmit,"ax",%progbits
 1421              		.align	1
 1422              		.global	SX1278_transmit
 1423              		.syntax unified
ARM GAS  C:\Users\CL\AppData\Local\Temp\ccg4mYET.s 			page 35


 1424              		.thumb
 1425              		.thumb_func
 1427              	SX1278_transmit:
 1428              	.LVL148:
 1429              	.LFB303:
 330:FML/Src/SX1278.c **** 
 331:FML/Src/SX1278.c **** int SX1278_transmit(SX1278_t *module, uint8_t *txBuf, uint8_t length,
 332:FML/Src/SX1278.c **** 		uint32_t timeout) {
 1430              		.loc 1 332 21 is_stmt 1 view -0
 1431              		.cfi_startproc
 1432              		@ args = 0, pretend = 0, frame = 8
 1433              		@ frame_needed = 0, uses_anonymous_args = 0
 333:FML/Src/SX1278.c **** 	if (SX1278_LoRaEntryTx(module, length, timeout)) {
 1434              		.loc 1 333 2 view .LVU372
 332:FML/Src/SX1278.c **** 	if (SX1278_LoRaEntryTx(module, length, timeout)) {
 1435              		.loc 1 332 21 is_stmt 0 view .LVU373
 1436 0000 73B5     		push	{r0, r1, r4, r5, r6, lr}
 1437              	.LCFI21:
 1438              		.cfi_def_cfa_offset 24
 1439              		.cfi_offset 4, -16
 1440              		.cfi_offset 5, -12
 1441              		.cfi_offset 6, -8
 1442              		.cfi_offset 14, -4
 332:FML/Src/SX1278.c **** 	if (SX1278_LoRaEntryTx(module, length, timeout)) {
 1443              		.loc 1 332 21 view .LVU374
 1444 0002 1446     		mov	r4, r2
 1445 0004 0E46     		mov	r6, r1
 1446              		.loc 1 333 6 view .LVU375
 1447 0006 1A46     		mov	r2, r3
 1448              	.LVL149:
 1449              		.loc 1 333 6 view .LVU376
 1450 0008 2146     		mov	r1, r4
 1451              	.LVL150:
 1452              		.loc 1 333 6 view .LVU377
 1453 000a 0193     		str	r3, [sp, #4]
 332:FML/Src/SX1278.c **** 	if (SX1278_LoRaEntryTx(module, length, timeout)) {
 1454              		.loc 1 332 21 view .LVU378
 1455 000c 0546     		mov	r5, r0
 1456              		.loc 1 333 6 view .LVU379
 1457 000e FFF7FEFF 		bl	SX1278_LoRaEntryTx
 1458              	.LVL151:
 1459              		.loc 1 333 5 view .LVU380
 1460 0012 019B     		ldr	r3, [sp, #4]
 1461 0014 38B1     		cbz	r0, .L54
 334:FML/Src/SX1278.c **** 		return SX1278_LoRaTxPacket(module, txBuf, length, timeout);
 1462              		.loc 1 334 3 is_stmt 1 view .LVU381
 1463              		.loc 1 334 10 is_stmt 0 view .LVU382
 1464 0016 2246     		mov	r2, r4
 1465 0018 3146     		mov	r1, r6
 1466 001a 2846     		mov	r0, r5
 335:FML/Src/SX1278.c **** 	}
 336:FML/Src/SX1278.c **** 	return 0;
 337:FML/Src/SX1278.c **** }
 1467              		.loc 1 337 1 view .LVU383
 1468 001c 02B0     		add	sp, sp, #8
 1469              	.LCFI22:
 1470              		.cfi_remember_state
ARM GAS  C:\Users\CL\AppData\Local\Temp\ccg4mYET.s 			page 36


 1471              		.cfi_def_cfa_offset 16
 1472              		@ sp needed
 1473 001e BDE87040 		pop	{r4, r5, r6, lr}
 1474              	.LCFI23:
 1475              		.cfi_restore 14
 1476              		.cfi_restore 6
 1477              		.cfi_restore 5
 1478              		.cfi_restore 4
 1479              		.cfi_def_cfa_offset 0
 1480              	.LVL152:
 334:FML/Src/SX1278.c **** 		return SX1278_LoRaTxPacket(module, txBuf, length, timeout);
 1481              		.loc 1 334 10 view .LVU384
 1482 0022 FFF7FEBF 		b	SX1278_LoRaTxPacket
 1483              	.LVL153:
 1484              	.L54:
 1485              	.LCFI24:
 1486              		.cfi_restore_state
 1487              		.loc 1 337 1 view .LVU385
 1488 0026 02B0     		add	sp, sp, #8
 1489              	.LCFI25:
 1490              		.cfi_def_cfa_offset 16
 1491              		@ sp needed
 1492 0028 70BD     		pop	{r4, r5, r6, pc}
 1493              		.loc 1 337 1 view .LVU386
 1494              		.cfi_endproc
 1495              	.LFE303:
 1497              		.section	.text.SX1278_receive,"ax",%progbits
 1498              		.align	1
 1499              		.global	SX1278_receive
 1500              		.syntax unified
 1501              		.thumb
 1502              		.thumb_func
 1504              	SX1278_receive:
 1505              	.LVL154:
 1506              	.LFB304:
 338:FML/Src/SX1278.c **** 
 339:FML/Src/SX1278.c **** int SX1278_receive(SX1278_t *module, uint8_t length, uint32_t timeout) {
 1507              		.loc 1 339 72 is_stmt 1 view -0
 1508              		.cfi_startproc
 1509              		@ args = 0, pretend = 0, frame = 0
 1510              		@ frame_needed = 0, uses_anonymous_args = 0
 1511              		@ link register save eliminated.
 340:FML/Src/SX1278.c **** 	return SX1278_LoRaEntryRx(module, length, timeout);
 1512              		.loc 1 340 2 view .LVU388
 1513              		.loc 1 340 9 is_stmt 0 view .LVU389
 1514 0000 FFF7FEBF 		b	SX1278_LoRaEntryRx
 1515              	.LVL155:
 1516              		.loc 1 340 9 view .LVU390
 1517              		.cfi_endproc
 1518              	.LFE304:
 1520              		.section	.rodata.LORA_Send.str1.1,"aMS",%progbits,1
 1521              	.LC0:
 1522 0000 4C6F7261 		.ascii	"Lora %d TX Test OK\015\012\000"
 1522      20256420 
 1522      54582054 
 1522      65737420 
 1522      4F4B0D0A 
ARM GAS  C:\Users\CL\AppData\Local\Temp\ccg4mYET.s 			page 37


 1523              	.LC1:
 1524 0015 4C6F7261 		.ascii	"Lora %d TX Test Failed\015\012\000"
 1524      20256420 
 1524      54582054 
 1524      65737420 
 1524      4661696C 
 1525              		.section	.text.LORA_Send,"ax",%progbits
 1526              		.align	1
 1527              		.global	LORA_Send
 1528              		.syntax unified
 1529              		.thumb
 1530              		.thumb_func
 1532              	LORA_Send:
 1533              	.LVL156:
 1534              	.LFB309:
 341:FML/Src/SX1278.c **** }
 342:FML/Src/SX1278.c **** 
 343:FML/Src/SX1278.c **** uint8_t SX1278_available(SX1278_t *module) {
 344:FML/Src/SX1278.c **** 	return SX1278_LoRaRxPacket(module);
 345:FML/Src/SX1278.c **** }
 346:FML/Src/SX1278.c **** 
 347:FML/Src/SX1278.c **** uint8_t SX1278_read(SX1278_t *module, uint8_t *rxBuf, uint8_t length) {
 348:FML/Src/SX1278.c **** 	if (length != module->readBytes)
 349:FML/Src/SX1278.c **** 		length = module->readBytes;
 350:FML/Src/SX1278.c **** 	memcpy(rxBuf, module->rxBuffer, length);
 351:FML/Src/SX1278.c **** 	rxBuf[length] = '\0';
 352:FML/Src/SX1278.c **** 	module->readBytes = 0;
 353:FML/Src/SX1278.c **** 	return length;
 354:FML/Src/SX1278.c **** }
 355:FML/Src/SX1278.c **** 
 356:FML/Src/SX1278.c **** uint8_t SX1278_RSSI_LoRa(SX1278_t *module) {
 357:FML/Src/SX1278.c **** 	uint32_t temp = 10;
 358:FML/Src/SX1278.c **** 	temp = SX1278_SPIRead(module, LR_RegRssiValue); //Read RegRssiValue, Rssi value
 359:FML/Src/SX1278.c **** 	temp = temp + 127 - 137; //127:Max RSSI, 137:RSSI offset
 360:FML/Src/SX1278.c **** 	return (uint8_t) temp;
 361:FML/Src/SX1278.c **** }
 362:FML/Src/SX1278.c **** 
 363:FML/Src/SX1278.c **** uint8_t SX1278_RSSI(SX1278_t *module) {
 364:FML/Src/SX1278.c **** 	uint8_t temp = 0xff;
 365:FML/Src/SX1278.c **** 	temp = SX1278_SPIRead(module, RegRssiValue);
 366:FML/Src/SX1278.c **** 	temp = 127 - (temp >> 1);	//127:Max RSSI
 367:FML/Src/SX1278.c **** 	return temp;
 368:FML/Src/SX1278.c **** }
 369:FML/Src/SX1278.c **** 
 370:FML/Src/SX1278.c **** /**
 371:FML/Src/SX1278.c ****  * @brief 
 372:FML/Src/SX1278.c ****  * 
 373:FML/Src/SX1278.c ****  * @param fd 
 374:FML/Src/SX1278.c ****  * @param tx_buff 
 375:FML/Src/SX1278.c ****  * @param expect_reply 
 376:FML/Src/SX1278.c ****  * @param timeout 
 377:FML/Src/SX1278.c ****  */
 378:FML/Src/SX1278.c **** void LORA_Send(char fd,char *tx_buff,uint32_t timeout)
 379:FML/Src/SX1278.c **** {
 1535              		.loc 1 379 1 is_stmt 1 view -0
 1536              		.cfi_startproc
 1537              		@ args = 0, pretend = 0, frame = 8
ARM GAS  C:\Users\CL\AppData\Local\Temp\ccg4mYET.s 			page 38


 1538              		@ frame_needed = 0, uses_anonymous_args = 0
 380:FML/Src/SX1278.c ****     uint8_t *tx_data,len=0;
 1539              		.loc 1 380 5 view .LVU392
 381:FML/Src/SX1278.c **** 	memset(lora_cache[fd],0x00,30);
 1540              		.loc 1 381 2 view .LVU393
 379:FML/Src/SX1278.c ****     uint8_t *tx_data,len=0;
 1541              		.loc 1 379 1 is_stmt 0 view .LVU394
 1542 0000 73B5     		push	{r0, r1, r4, r5, r6, lr}
 1543              	.LCFI26:
 1544              		.cfi_def_cfa_offset 24
 1545              		.cfi_offset 4, -16
 1546              		.cfi_offset 5, -12
 1547              		.cfi_offset 6, -8
 1548              		.cfi_offset 14, -4
 379:FML/Src/SX1278.c ****     uint8_t *tx_data,len=0;
 1549              		.loc 1 379 1 view .LVU395
 1550 0002 0446     		mov	r4, r0
 1551              		.loc 1 381 19 view .LVU396
 1552 0004 C0EB0016 		rsb	r6, r0, r0, lsl #4
 1553              		.loc 1 381 2 view .LVU397
 1554 0008 1A48     		ldr	r0, .L61
 1555              	.LVL157:
 379:FML/Src/SX1278.c ****     uint8_t *tx_data,len=0;
 1556              		.loc 1 379 1 view .LVU398
 1557 000a 0192     		str	r2, [sp, #4]
 1558 000c 0D46     		mov	r5, r1
 1559              		.loc 1 381 2 view .LVU399
 1560 000e 1E22     		movs	r2, #30
 1561              	.LVL158:
 1562              		.loc 1 381 2 view .LVU400
 1563 0010 0021     		movs	r1, #0
 1564              	.LVL159:
 1565              		.loc 1 381 2 view .LVU401
 1566 0012 00EB4600 		add	r0, r0, r6, lsl #1
 1567 0016 FFF7FEFF 		bl	memset
 1568              	.LVL160:
 382:FML/Src/SX1278.c ****     len = strlen(tx_buff);
 1569              		.loc 1 382 5 is_stmt 1 view .LVU402
 1570              		.loc 1 382 11 is_stmt 0 view .LVU403
 1571 001a 2846     		mov	r0, r5
 1572 001c FFF7FEFF 		bl	strlen
 1573              	.LVL161:
 383:FML/Src/SX1278.c **** 
 384:FML/Src/SX1278.c ****     tx_data = (char *)malloc((len)*sizeof(uint8_t));
 1574              		.loc 1 384 5 is_stmt 1 view .LVU404
 1575 0020 C2B2     		uxtb	r2, r0
 1576              		.loc 1 384 23 is_stmt 0 view .LVU405
 1577 0022 1046     		mov	r0, r2
 1578              		.loc 1 384 23 view .LVU406
 1579 0024 0092     		str	r2, [sp]
 1580 0026 FFF7FEFF 		bl	malloc
 1581              	.LVL162:
 385:FML/Src/SX1278.c ****     memcpy(tx_data,tx_buff,len);
 1582              		.loc 1 385 5 view .LVU407
 1583 002a 2946     		mov	r1, r5
 1584 002c 009A     		ldr	r2, [sp]
 386:FML/Src/SX1278.c **** 	
ARM GAS  C:\Users\CL\AppData\Local\Temp\ccg4mYET.s 			page 39


 387:FML/Src/SX1278.c **** 
 388:FML/Src/SX1278.c ****     if(SX1278_transmit(&Lora_dev[fd],tx_data,len,timeout))
 1585              		.loc 1 388 8 view .LVU408
 1586 002e 124D     		ldr	r5, .L61+4
 1587              	.LVL163:
 384:FML/Src/SX1278.c ****     memcpy(tx_data,tx_buff,len);
 1588              		.loc 1 384 23 view .LVU409
 1589 0030 0646     		mov	r6, r0
 1590              	.LVL164:
 385:FML/Src/SX1278.c ****     memcpy(tx_data,tx_buff,len);
 1591              		.loc 1 385 5 is_stmt 1 view .LVU410
 1592 0032 FFF7FEFF 		bl	memcpy
 1593              	.LVL165:
 1594              		.loc 1 388 5 view .LVU411
 1595              		.loc 1 388 8 is_stmt 0 view .LVU412
 1596 0036 4FF48C71 		mov	r1, #280
 1597 003a 01FB0455 		mla	r5, r1, r4, r5
 1598 003e DDE90023 		ldrd	r2, r3, [sp]
 1599 0042 3146     		mov	r1, r6
 1600 0044 2846     		mov	r0, r5
 1601 0046 FFF7FEFF 		bl	SX1278_transmit
 1602              	.LVL166:
 389:FML/Src/SX1278.c **** 		shellPrint(&shell,"Lora %d TX Test OK\r\n",2-fd);
 1603              		.loc 1 389 3 view .LVU413
 1604 004a C4F10202 		rsb	r2, r4, #2
 388:FML/Src/SX1278.c **** 		shellPrint(&shell,"Lora %d TX Test OK\r\n",2-fd);
 1605              		.loc 1 388 7 view .LVU414
 1606 004e 70B1     		cbz	r0, .L58
 1607              		.loc 1 389 3 is_stmt 1 view .LVU415
 1608 0050 0A49     		ldr	r1, .L61+8
 1609              	.L60:
 390:FML/Src/SX1278.c **** 	else
 391:FML/Src/SX1278.c **** 		shellPrint(&shell,"Lora %d TX Test Failed\r\n",2-fd);
 1610              		.loc 1 391 3 is_stmt 0 view .LVU416
 1611 0052 0B48     		ldr	r0, .L61+12
 1612 0054 FFF7FEFF 		bl	shellPrint
 1613              	.LVL167:
 392:FML/Src/SX1278.c ****     free(tx_data);
 1614              		.loc 1 392 5 is_stmt 1 view .LVU417
 1615 0058 3046     		mov	r0, r6
 1616 005a FFF7FEFF 		bl	free
 1617              	.LVL168:
 393:FML/Src/SX1278.c ****     tx_data = NULL;
 1618              		.loc 1 393 5 view .LVU418
 394:FML/Src/SX1278.c ****     SX1278_receive(&Lora_dev[fd],100,100);
 1619              		.loc 1 394 5 view .LVU419
 1620 005e 6422     		movs	r2, #100
 1621 0060 1146     		mov	r1, r2
 1622 0062 2846     		mov	r0, r5
 395:FML/Src/SX1278.c **** }
 1623              		.loc 1 395 1 is_stmt 0 view .LVU420
 1624 0064 02B0     		add	sp, sp, #8
 1625              	.LCFI27:
 1626              		.cfi_remember_state
 1627              		.cfi_def_cfa_offset 16
 1628              	.LVL169:
 1629              		.loc 1 395 1 view .LVU421
ARM GAS  C:\Users\CL\AppData\Local\Temp\ccg4mYET.s 			page 40


 1630              		@ sp needed
 1631 0066 BDE87040 		pop	{r4, r5, r6, lr}
 1632              	.LCFI28:
 1633              		.cfi_restore 14
 1634              		.cfi_restore 6
 1635              		.cfi_restore 5
 1636              		.cfi_restore 4
 1637              		.cfi_def_cfa_offset 0
 1638              	.LVL170:
 394:FML/Src/SX1278.c ****     SX1278_receive(&Lora_dev[fd],100,100);
 1639              		.loc 1 394 5 view .LVU422
 1640 006a FFF7FEBF 		b	SX1278_receive
 1641              	.LVL171:
 1642              	.L58:
 1643              	.LCFI29:
 1644              		.cfi_restore_state
 391:FML/Src/SX1278.c ****     free(tx_data);
 1645              		.loc 1 391 3 is_stmt 1 view .LVU423
 1646 006e 0549     		ldr	r1, .L61+16
 1647 0070 EFE7     		b	.L60
 1648              	.L62:
 1649 0072 00BF     		.align	2
 1650              	.L61:
 1651 0074 00000000 		.word	.LANCHOR5
 1652 0078 00000000 		.word	.LANCHOR6
 1653 007c 00000000 		.word	.LC0
 1654 0080 00000000 		.word	shell
 1655 0084 15000000 		.word	.LC1
 1656              		.cfi_endproc
 1657              	.LFE309:
 1659              		.section	.text.SX1278_available,"ax",%progbits
 1660              		.align	1
 1661              		.global	SX1278_available
 1662              		.syntax unified
 1663              		.thumb
 1664              		.thumb_func
 1666              	SX1278_available:
 1667              	.LVL172:
 1668              	.LFB305:
 343:FML/Src/SX1278.c **** 	return SX1278_LoRaRxPacket(module);
 1669              		.loc 1 343 44 view -0
 1670              		.cfi_startproc
 1671              		@ args = 0, pretend = 0, frame = 0
 1672              		@ frame_needed = 0, uses_anonymous_args = 0
 1673              		@ link register save eliminated.
 344:FML/Src/SX1278.c **** }
 1674              		.loc 1 344 2 view .LVU425
 344:FML/Src/SX1278.c **** }
 1675              		.loc 1 344 9 is_stmt 0 view .LVU426
 1676 0000 FFF7FEBF 		b	SX1278_LoRaRxPacket
 1677              	.LVL173:
 344:FML/Src/SX1278.c **** }
 1678              		.loc 1 344 9 view .LVU427
 1679              		.cfi_endproc
 1680              	.LFE305:
 1682              		.section	.text.SX1278_read,"ax",%progbits
 1683              		.align	1
ARM GAS  C:\Users\CL\AppData\Local\Temp\ccg4mYET.s 			page 41


 1684              		.global	SX1278_read
 1685              		.syntax unified
 1686              		.thumb
 1687              		.thumb_func
 1689              	SX1278_read:
 1690              	.LVL174:
 1691              	.LFB306:
 347:FML/Src/SX1278.c **** 	if (length != module->readBytes)
 1692              		.loc 1 347 71 is_stmt 1 view -0
 1693              		.cfi_startproc
 1694              		@ args = 0, pretend = 0, frame = 0
 1695              		@ frame_needed = 0, uses_anonymous_args = 0
 348:FML/Src/SX1278.c **** 		length = module->readBytes;
 1696              		.loc 1 348 2 view .LVU429
 347:FML/Src/SX1278.c **** 	if (length != module->readBytes)
 1697              		.loc 1 347 71 is_stmt 0 view .LVU430
 1698 0000 38B5     		push	{r3, r4, r5, lr}
 1699              	.LCFI30:
 1700              		.cfi_def_cfa_offset 16
 1701              		.cfi_offset 3, -16
 1702              		.cfi_offset 4, -12
 1703              		.cfi_offset 5, -8
 1704              		.cfi_offset 14, -4
 348:FML/Src/SX1278.c **** 		length = module->readBytes;
 1705              		.loc 1 348 22 view .LVU431
 1706 0002 90F81751 		ldrb	r5, [r0, #279]	@ zero_extendqisi2
 1707              	.LVL175:
 350:FML/Src/SX1278.c **** 	rxBuf[length] = '\0';
 1708              		.loc 1 350 2 is_stmt 1 view .LVU432
 347:FML/Src/SX1278.c **** 	if (length != module->readBytes)
 1709              		.loc 1 347 71 is_stmt 0 view .LVU433
 1710 0006 0B46     		mov	r3, r1
 1711 0008 0446     		mov	r4, r0
 350:FML/Src/SX1278.c **** 	rxBuf[length] = '\0';
 1712              		.loc 1 350 2 view .LVU434
 1713 000a 2A46     		mov	r2, r5
 1714 000c 00F11701 		add	r1, r0, #23
 1715              	.LVL176:
 350:FML/Src/SX1278.c **** 	rxBuf[length] = '\0';
 1716              		.loc 1 350 2 view .LVU435
 1717 0010 1846     		mov	r0, r3
 1718              	.LVL177:
 350:FML/Src/SX1278.c **** 	rxBuf[length] = '\0';
 1719              		.loc 1 350 2 view .LVU436
 1720 0012 FFF7FEFF 		bl	memcpy
 1721              	.LVL178:
 351:FML/Src/SX1278.c **** 	module->readBytes = 0;
 1722              		.loc 1 351 2 is_stmt 1 view .LVU437
 351:FML/Src/SX1278.c **** 	module->readBytes = 0;
 1723              		.loc 1 351 16 is_stmt 0 view .LVU438
 1724 0016 0022     		movs	r2, #0
 1725 0018 4255     		strb	r2, [r0, r5]
 352:FML/Src/SX1278.c **** 	return length;
 1726              		.loc 1 352 2 is_stmt 1 view .LVU439
 352:FML/Src/SX1278.c **** 	return length;
 1727              		.loc 1 352 20 is_stmt 0 view .LVU440
 1728 001a 84F81721 		strb	r2, [r4, #279]
ARM GAS  C:\Users\CL\AppData\Local\Temp\ccg4mYET.s 			page 42


 353:FML/Src/SX1278.c **** }
 1729              		.loc 1 353 2 is_stmt 1 view .LVU441
 354:FML/Src/SX1278.c **** 
 1730              		.loc 1 354 1 is_stmt 0 view .LVU442
 1731 001e 2846     		mov	r0, r5
 1732 0020 38BD     		pop	{r3, r4, r5, pc}
 354:FML/Src/SX1278.c **** 
 1733              		.loc 1 354 1 view .LVU443
 1734              		.cfi_endproc
 1735              	.LFE306:
 1737              		.section	.text.SX1278_RSSI_LoRa,"ax",%progbits
 1738              		.align	1
 1739              		.global	SX1278_RSSI_LoRa
 1740              		.syntax unified
 1741              		.thumb
 1742              		.thumb_func
 1744              	SX1278_RSSI_LoRa:
 1745              	.LVL179:
 1746              	.LFB307:
 356:FML/Src/SX1278.c **** 	uint32_t temp = 10;
 1747              		.loc 1 356 44 is_stmt 1 view -0
 1748              		.cfi_startproc
 1749              		@ args = 0, pretend = 0, frame = 0
 1750              		@ frame_needed = 0, uses_anonymous_args = 0
 357:FML/Src/SX1278.c **** 	temp = SX1278_SPIRead(module, LR_RegRssiValue); //Read RegRssiValue, Rssi value
 1751              		.loc 1 357 2 view .LVU445
 358:FML/Src/SX1278.c **** 	temp = temp + 127 - 137; //127:Max RSSI, 137:RSSI offset
 1752              		.loc 1 358 2 view .LVU446
 356:FML/Src/SX1278.c **** 	uint32_t temp = 10;
 1753              		.loc 1 356 44 is_stmt 0 view .LVU447
 1754 0000 08B5     		push	{r3, lr}
 1755              	.LCFI31:
 1756              		.cfi_def_cfa_offset 8
 1757              		.cfi_offset 3, -8
 1758              		.cfi_offset 14, -4
 358:FML/Src/SX1278.c **** 	temp = temp + 127 - 137; //127:Max RSSI, 137:RSSI offset
 1759              		.loc 1 358 9 view .LVU448
 1760 0002 1B21     		movs	r1, #27
 1761 0004 FFF7FEFF 		bl	SX1278_SPIRead
 1762              	.LVL180:
 359:FML/Src/SX1278.c **** 	return (uint8_t) temp;
 1763              		.loc 1 359 2 is_stmt 1 view .LVU449
 360:FML/Src/SX1278.c **** }
 1764              		.loc 1 360 2 view .LVU450
 360:FML/Src/SX1278.c **** }
 1765              		.loc 1 360 9 is_stmt 0 view .LVU451
 1766 0008 0A38     		subs	r0, r0, #10
 1767              	.LVL181:
 361:FML/Src/SX1278.c **** 
 1768              		.loc 1 361 1 view .LVU452
 1769 000a C0B2     		uxtb	r0, r0
 1770 000c 08BD     		pop	{r3, pc}
 1771              		.cfi_endproc
 1772              	.LFE307:
 1774              		.section	.text.SX1278_RSSI,"ax",%progbits
 1775              		.align	1
 1776              		.global	SX1278_RSSI
ARM GAS  C:\Users\CL\AppData\Local\Temp\ccg4mYET.s 			page 43


 1777              		.syntax unified
 1778              		.thumb
 1779              		.thumb_func
 1781              	SX1278_RSSI:
 1782              	.LVL182:
 1783              	.LFB308:
 363:FML/Src/SX1278.c **** 	uint8_t temp = 0xff;
 1784              		.loc 1 363 39 is_stmt 1 view -0
 1785              		.cfi_startproc
 1786              		@ args = 0, pretend = 0, frame = 0
 1787              		@ frame_needed = 0, uses_anonymous_args = 0
 364:FML/Src/SX1278.c **** 	temp = SX1278_SPIRead(module, RegRssiValue);
 1788              		.loc 1 364 2 view .LVU454
 365:FML/Src/SX1278.c **** 	temp = 127 - (temp >> 1);	//127:Max RSSI
 1789              		.loc 1 365 2 view .LVU455
 363:FML/Src/SX1278.c **** 	uint8_t temp = 0xff;
 1790              		.loc 1 363 39 is_stmt 0 view .LVU456
 1791 0000 08B5     		push	{r3, lr}
 1792              	.LCFI32:
 1793              		.cfi_def_cfa_offset 8
 1794              		.cfi_offset 3, -8
 1795              		.cfi_offset 14, -4
 365:FML/Src/SX1278.c **** 	temp = 127 - (temp >> 1);	//127:Max RSSI
 1796              		.loc 1 365 9 view .LVU457
 1797 0002 1121     		movs	r1, #17
 1798 0004 FFF7FEFF 		bl	SX1278_SPIRead
 1799              	.LVL183:
 366:FML/Src/SX1278.c **** 	return temp;
 1800              		.loc 1 366 2 is_stmt 1 view .LVU458
 366:FML/Src/SX1278.c **** 	return temp;
 1801              		.loc 1 366 13 is_stmt 0 view .LVU459
 1802 0008 C0F34700 		ubfx	r0, r0, #1, #8
 1803              	.LVL184:
 367:FML/Src/SX1278.c **** }
 1804              		.loc 1 367 2 is_stmt 1 view .LVU460
 366:FML/Src/SX1278.c **** 	return temp;
 1805              		.loc 1 366 7 is_stmt 0 view .LVU461
 1806 000c C0F17F00 		rsb	r0, r0, #127
 1807              	.LVL185:
 368:FML/Src/SX1278.c **** 
 1808              		.loc 1 368 1 view .LVU462
 1809 0010 C0B2     		uxtb	r0, r0
 1810 0012 08BD     		pop	{r3, pc}
 1811              		.cfi_endproc
 1812              	.LFE308:
 1814              		.global	shellCommandlora_test
 1815              		.global	shellDesclora_test
 1816              		.global	shellCmdlora_test
 1817              		.global	Lora_dev
 1818              		.global	lora_cache
 1819              		.section	.data.Lora_dev,"aw"
 1820              		.align	3
 1821              		.set	.LANCHOR6,. + 0
 1824              	Lora_dev:
 1825 0000 00000000 		.word	lora_dev_hw
 1826 0004 00000000 		.space	4
 1827 0008 40170C1A 		.word	437000000
ARM GAS  C:\Users\CL\AppData\Local\Temp\ccg4mYET.s 			page 44


 1828 000c 00000000 		.word	0
 1829 0010 14       		.byte	20
 1830 0011 01       		.byte	1
 1831 0012 02       		.byte	2
 1832 0013 01       		.byte	1
 1833 0014 00       		.byte	0
 1834 0015 00       		.byte	0
 1835 0016 00000000 		.space	257
 1835      00000000 
 1835      00000000 
 1835      00000000 
 1835      00000000 
 1836 0117 00       		.byte	0
 1837 0118 24000000 		.word	lora_dev_hw+36
 1838 011c 00000000 		.space	4
 1839 0120 40170C1A 		.word	437000000
 1840 0124 00000000 		.word	0
 1841 0128 14       		.byte	20
 1842 0129 01       		.byte	1
 1843 012a 02       		.byte	2
 1844 012b 01       		.byte	1
 1845 012c 00       		.byte	0
 1846 012d 00       		.byte	0
 1847 012e 00000000 		.space	257
 1847      00000000 
 1847      00000000 
 1847      00000000 
 1847      00000000 
 1848 022f 00       		.byte	0
 1849              		.section	.data.lora_cache,"aw"
 1850              		.set	.LANCHOR5,. + 0
 1853              	lora_cache:
 1854 0000 FF00     		.ascii	"\377\000"
 1855 0002 00000000 		.space	28
 1855      00000000 
 1855      00000000 
 1855      00000000 
 1855      00000000 
 1856 001e 00000000 		.space	30
 1856      00000000 
 1856      00000000 
 1856      00000000 
 1856      00000000 
 1857              		.section	.rodata.SX1278_CRC_Sum,"a"
 1858              		.set	.LANCHOR4,. + 0
 1861              	SX1278_CRC_Sum:
 1862 0000 0100     		.ascii	"\001\000"
 1863              		.section	.rodata.SX1278_CodingRate,"a"
 1864              		.set	.LANCHOR3,. + 0
 1867              	SX1278_CodingRate:
 1868 0000 01020304 		.ascii	"\001\002\003\004"
 1869              		.section	.rodata.SX1278_LoRaBandwidth,"a"
 1870              		.set	.LANCHOR2,. + 0
 1873              	SX1278_LoRaBandwidth:
 1874 0000 00010203 		.ascii	"\000\001\002\003\004\005\006\007\010\011"
 1874      04050607 
 1874      0809
ARM GAS  C:\Users\CL\AppData\Local\Temp\ccg4mYET.s 			page 45


 1875              		.section	.rodata.SX1278_Power,"a"
 1876              		.set	.LANCHOR0,. + 0
 1879              	SX1278_Power:
 1880 0000 FFFCF9F6 		.ascii	"\377\374\371\366"
 1881              		.section	.rodata.SX1278_SpreadFactor,"a"
 1882              		.set	.LANCHOR1,. + 0
 1885              	SX1278_SpreadFactor:
 1886 0000 06070809 		.ascii	"\006\007\010\011\012\013\014"
 1886      0A0B0C
 1887              		.section	.rodata.shellCmdlora_test,"a"
 1890              	shellCmdlora_test:
 1891 0000 6C6F7261 		.ascii	"lora_test\000"
 1891      5F746573 
 1891      7400
 1892              		.section	.rodata.shellDesclora_test,"a"
 1895              	shellDesclora_test:
 1896 0000 6C6F7261 		.ascii	"lora device send test\000"
 1896      20646576 
 1896      69636520 
 1896      73656E64 
 1896      20746573 
 1897              		.section	shellCommand,"a"
 1900              	shellCommandlora_test:
 1901 0000 00210000 		.4byte	8448
 1902 0004 00000000 		.4byte	shellCmdlora_test
 1903 0008 00000000 		.4byte	LORA_Send
 1904 000c 00000000 		.4byte	shellDesclora_test
 1905              		.text
 1906              	.Letext0:
 1907              		.file 2 "e:\\gcc-arm-none-eabi-10.3-2021.10-win32\\gcc-arm-none-eabi-10.3-2021.10\\arm-none-eabi\\
 1908              		.file 3 "e:\\gcc-arm-none-eabi-10.3-2021.10-win32\\gcc-arm-none-eabi-10.3-2021.10\\arm-none-eabi\\
 1909              		.file 4 "HAL/Inc/SX1278_hw.h"
 1910              		.file 5 "FML/Inc/SX1278.h"
 1911              		.file 6 "ThirdParty/Letter-shell/Inc/shell.h"
 1912              		.file 7 "ThirdParty/Letter-shell/Inc/shell_port.h"
 1913              		.file 8 "<built-in>"
 1914              		.file 9 "e:\\gcc-arm-none-eabi-10.3-2021.10-win32\\gcc-arm-none-eabi-10.3-2021.10\\arm-none-eabi\\
ARM GAS  C:\Users\CL\AppData\Local\Temp\ccg4mYET.s 			page 46


DEFINED SYMBOLS
                            *ABS*:00000000 SX1278.c
C:\Users\CL\AppData\Local\Temp\ccg4mYET.s:20     .text.SX1278_SPIBurstWrite.part.0:00000000 $t
C:\Users\CL\AppData\Local\Temp\ccg4mYET.s:25     .text.SX1278_SPIBurstWrite.part.0:00000000 SX1278_SPIBurstWrite.part.0
C:\Users\CL\AppData\Local\Temp\ccg4mYET.s:108    .text.SX1278_SPIRead:00000000 $t
C:\Users\CL\AppData\Local\Temp\ccg4mYET.s:114    .text.SX1278_SPIRead:00000000 SX1278_SPIRead
C:\Users\CL\AppData\Local\Temp\ccg4mYET.s:162    .text.SX1278_SPIWrite:00000000 $t
C:\Users\CL\AppData\Local\Temp\ccg4mYET.s:168    .text.SX1278_SPIWrite:00000000 SX1278_SPIWrite
C:\Users\CL\AppData\Local\Temp\ccg4mYET.s:227    .text.SX1278_SPIBurstRead:00000000 $t
C:\Users\CL\AppData\Local\Temp\ccg4mYET.s:233    .text.SX1278_SPIBurstRead:00000000 SX1278_SPIBurstRead
C:\Users\CL\AppData\Local\Temp\ccg4mYET.s:338    .text.SX1278_SPIBurstWrite:00000000 $t
C:\Users\CL\AppData\Local\Temp\ccg4mYET.s:344    .text.SX1278_SPIBurstWrite:00000000 SX1278_SPIBurstWrite
C:\Users\CL\AppData\Local\Temp\ccg4mYET.s:366    .text.SX1278_standby:00000000 $t
C:\Users\CL\AppData\Local\Temp\ccg4mYET.s:372    .text.SX1278_standby:00000000 SX1278_standby
C:\Users\CL\AppData\Local\Temp\ccg4mYET.s:405    .text.SX1278_sleep:00000000 $t
C:\Users\CL\AppData\Local\Temp\ccg4mYET.s:411    .text.SX1278_sleep:00000000 SX1278_sleep
C:\Users\CL\AppData\Local\Temp\ccg4mYET.s:444    .text.SX1278_entryLoRa:00000000 $t
C:\Users\CL\AppData\Local\Temp\ccg4mYET.s:450    .text.SX1278_entryLoRa:00000000 SX1278_entryLoRa
C:\Users\CL\AppData\Local\Temp\ccg4mYET.s:469    .text.SX1278_config:00000000 $t
C:\Users\CL\AppData\Local\Temp\ccg4mYET.s:475    .text.SX1278_config:00000000 SX1278_config
C:\Users\CL\AppData\Local\Temp\ccg4mYET.s:739    .text.SX1278_config:0000013c $d
C:\Users\CL\AppData\Local\Temp\ccg4mYET.s:749    .text.SX1278_clearLoRaIrq:00000000 $t
C:\Users\CL\AppData\Local\Temp\ccg4mYET.s:755    .text.SX1278_clearLoRaIrq:00000000 SX1278_clearLoRaIrq
C:\Users\CL\AppData\Local\Temp\ccg4mYET.s:773    .text.SX1278_LoRaEntryRx:00000000 $t
C:\Users\CL\AppData\Local\Temp\ccg4mYET.s:779    .text.SX1278_LoRaEntryRx:00000000 SX1278_LoRaEntryRx
C:\Users\CL\AppData\Local\Temp\ccg4mYET.s:919    .text.SX1278_LoRaRxPacket:00000000 $t
C:\Users\CL\AppData\Local\Temp\ccg4mYET.s:925    .text.SX1278_LoRaRxPacket:00000000 SX1278_LoRaRxPacket
C:\Users\CL\AppData\Local\Temp\ccg4mYET.s:1053   .text.SX1278_LoRaRxPacket:0000008c $d
C:\Users\CL\AppData\Local\Temp\ccg4mYET.s:1059   .text.SX1278_DIO0IRQ_Handler:00000000 $t
C:\Users\CL\AppData\Local\Temp\ccg4mYET.s:1065   .text.SX1278_DIO0IRQ_Handler:00000000 SX1278_DIO0IRQ_Handler
C:\Users\CL\AppData\Local\Temp\ccg4mYET.s:1087   .text.SX1278_LoRaEntryTx:00000000 $t
C:\Users\CL\AppData\Local\Temp\ccg4mYET.s:1093   .text.SX1278_LoRaEntryTx:00000000 SX1278_LoRaEntryTx
C:\Users\CL\AppData\Local\Temp\ccg4mYET.s:1220   .text.SX1278_LoRaTxPacket:00000000 $t
C:\Users\CL\AppData\Local\Temp\ccg4mYET.s:1226   .text.SX1278_LoRaTxPacket:00000000 SX1278_LoRaTxPacket
C:\Users\CL\AppData\Local\Temp\ccg4mYET.s:1325   .text.SX1278_init:00000000 $t
C:\Users\CL\AppData\Local\Temp\ccg4mYET.s:1331   .text.SX1278_init:00000000 SX1278_init
C:\Users\CL\AppData\Local\Temp\ccg4mYET.s:1421   .text.SX1278_transmit:00000000 $t
C:\Users\CL\AppData\Local\Temp\ccg4mYET.s:1427   .text.SX1278_transmit:00000000 SX1278_transmit
C:\Users\CL\AppData\Local\Temp\ccg4mYET.s:1498   .text.SX1278_receive:00000000 $t
C:\Users\CL\AppData\Local\Temp\ccg4mYET.s:1504   .text.SX1278_receive:00000000 SX1278_receive
C:\Users\CL\AppData\Local\Temp\ccg4mYET.s:1526   .text.LORA_Send:00000000 $t
C:\Users\CL\AppData\Local\Temp\ccg4mYET.s:1532   .text.LORA_Send:00000000 LORA_Send
C:\Users\CL\AppData\Local\Temp\ccg4mYET.s:1651   .text.LORA_Send:00000074 $d
C:\Users\CL\AppData\Local\Temp\ccg4mYET.s:1660   .text.SX1278_available:00000000 $t
C:\Users\CL\AppData\Local\Temp\ccg4mYET.s:1666   .text.SX1278_available:00000000 SX1278_available
C:\Users\CL\AppData\Local\Temp\ccg4mYET.s:1683   .text.SX1278_read:00000000 $t
C:\Users\CL\AppData\Local\Temp\ccg4mYET.s:1689   .text.SX1278_read:00000000 SX1278_read
C:\Users\CL\AppData\Local\Temp\ccg4mYET.s:1738   .text.SX1278_RSSI_LoRa:00000000 $t
C:\Users\CL\AppData\Local\Temp\ccg4mYET.s:1744   .text.SX1278_RSSI_LoRa:00000000 SX1278_RSSI_LoRa
C:\Users\CL\AppData\Local\Temp\ccg4mYET.s:1775   .text.SX1278_RSSI:00000000 $t
C:\Users\CL\AppData\Local\Temp\ccg4mYET.s:1781   .text.SX1278_RSSI:00000000 SX1278_RSSI
C:\Users\CL\AppData\Local\Temp\ccg4mYET.s:1900   shellCommand:00000000 shellCommandlora_test
C:\Users\CL\AppData\Local\Temp\ccg4mYET.s:1895   .rodata.shellDesclora_test:00000000 shellDesclora_test
C:\Users\CL\AppData\Local\Temp\ccg4mYET.s:1890   .rodata.shellCmdlora_test:00000000 shellCmdlora_test
C:\Users\CL\AppData\Local\Temp\ccg4mYET.s:1824   .data.Lora_dev:00000000 Lora_dev
C:\Users\CL\AppData\Local\Temp\ccg4mYET.s:1853   .data.lora_cache:00000000 lora_cache
C:\Users\CL\AppData\Local\Temp\ccg4mYET.s:1820   .data.Lora_dev:00000000 $d
ARM GAS  C:\Users\CL\AppData\Local\Temp\ccg4mYET.s 			page 47


C:\Users\CL\AppData\Local\Temp\ccg4mYET.s:1855   .data.lora_cache:00000002 $d
C:\Users\CL\AppData\Local\Temp\ccg4mYET.s:1861   .rodata.SX1278_CRC_Sum:00000000 SX1278_CRC_Sum
C:\Users\CL\AppData\Local\Temp\ccg4mYET.s:1867   .rodata.SX1278_CodingRate:00000000 SX1278_CodingRate
C:\Users\CL\AppData\Local\Temp\ccg4mYET.s:1873   .rodata.SX1278_LoRaBandwidth:00000000 SX1278_LoRaBandwidth
C:\Users\CL\AppData\Local\Temp\ccg4mYET.s:1879   .rodata.SX1278_Power:00000000 SX1278_Power
C:\Users\CL\AppData\Local\Temp\ccg4mYET.s:1885   .rodata.SX1278_SpreadFactor:00000000 SX1278_SpreadFactor

UNDEFINED SYMBOLS
SX1278_hw_SetNSS
SX1278_hw_SPICommand
SX1278_hw_SPIReadByte
__aeabi_uldivmod
SX1278_hw_DelayMs
SX1278_hw_Reset
SX1278_hw_GetDIO0
memset
memcpy
SX1278_hw_init
strlen
malloc
shellPrint
free
shell
lora_dev_hw
