ARM GAS  C:\Users\CL\AppData\Local\Temp\ccpOwT0h.s 			page 1


   1              		.cpu cortex-m4
   2              		.arch armv7e-m
   3              		.fpu fpv4-sp-d16
   4              		.eabi_attribute 27, 1
   5              		.eabi_attribute 28, 1
   6              		.eabi_attribute 20, 1
   7              		.eabi_attribute 21, 1
   8              		.eabi_attribute 23, 3
   9              		.eabi_attribute 24, 1
  10              		.eabi_attribute 25, 1
  11              		.eabi_attribute 26, 1
  12              		.eabi_attribute 30, 4
  13              		.eabi_attribute 34, 1
  14              		.eabi_attribute 18, 4
  15              		.file	"SX1278_hw.c"
  16              		.text
  17              		.section	.text.SX1278_hw_SetNSS,"ax",%progbits
  18              		.align	1
  19              		.weak	SX1278_hw_SetNSS
  20              		.syntax unified
  21              		.thumb
  22              		.thumb_func
  24              	SX1278_hw_SetNSS:
  25              		@ args = 0, pretend = 0, frame = 0
  26              		@ frame_needed = 0, uses_anonymous_args = 0
  27              		@ link register save eliminated.
  28 0000 4B1E     		subs	r3, r1, #1
  29 0002 5A42     		rsbs	r2, r3, #0
  30 0004 018B     		ldrh	r1, [r0, #24]
  31 0006 C069     		ldr	r0, [r0, #28]
  32 0008 5A41     		adcs	r2, r2, r3
  33 000a FFF7FEBF 		b	HAL_GPIO_WritePin
  35              		.section	.text.SX1278_hw_SPICommand,"ax",%progbits
  36              		.align	1
  37              		.weak	SX1278_hw_SPICommand
  38              		.syntax unified
  39              		.thumb
  40              		.thumb_func
  42              	SX1278_hw_SPICommand:
  43              		@ args = 0, pretend = 0, frame = 8
  44              		@ frame_needed = 0, uses_anonymous_args = 0
  45 0000 13B5     		push	{r0, r1, r4, lr}
  46 0002 0446     		mov	r4, r0
  47 0004 8DF80710 		strb	r1, [sp, #7]
  48 0008 0021     		movs	r1, #0
  49 000a FFF7FEFF 		bl	SX1278_hw_SetNSS
  50 000e 206A     		ldr	r0, [r4, #32]
  51 0010 4FF47A73 		mov	r3, #1000
  52 0014 0122     		movs	r2, #1
  53 0016 0DF10701 		add	r1, sp, #7
  54 001a FFF7FEFF 		bl	HAL_SPI_Transmit
  55              	.L3:
  56 001e 206A     		ldr	r0, [r4, #32]
  57 0020 FFF7FEFF 		bl	HAL_SPI_GetState
  58 0024 0128     		cmp	r0, #1
  59 0026 FAD1     		bne	.L3
  60 0028 02B0     		add	sp, sp, #8
ARM GAS  C:\Users\CL\AppData\Local\Temp\ccpOwT0h.s 			page 2


  61              		@ sp needed
  62 002a 10BD     		pop	{r4, pc}
  64              		.section	.text.SX1278_hw_SPIReadByte,"ax",%progbits
  65              		.align	1
  66              		.weak	SX1278_hw_SPIReadByte
  67              		.syntax unified
  68              		.thumb
  69              		.thumb_func
  71              	SX1278_hw_SPIReadByte:
  72              		@ args = 0, pretend = 0, frame = 8
  73              		@ frame_needed = 0, uses_anonymous_args = 0
  74 0000 1FB5     		push	{r0, r1, r2, r3, r4, lr}
  75 0002 0021     		movs	r1, #0
  76 0004 0446     		mov	r4, r0
  77 0006 8DF80E10 		strb	r1, [sp, #14]
  78 000a 8DF80F10 		strb	r1, [sp, #15]
  79 000e FFF7FEFF 		bl	SX1278_hw_SetNSS
  80 0012 4FF47A73 		mov	r3, #1000
  81 0016 0093     		str	r3, [sp]
  82 0018 206A     		ldr	r0, [r4, #32]
  83 001a 0123     		movs	r3, #1
  84 001c 0DF10F02 		add	r2, sp, #15
  85 0020 0DF10E01 		add	r1, sp, #14
  86 0024 FFF7FEFF 		bl	HAL_SPI_TransmitReceive
  87              	.L6:
  88 0028 206A     		ldr	r0, [r4, #32]
  89 002a FFF7FEFF 		bl	HAL_SPI_GetState
  90 002e 0128     		cmp	r0, #1
  91 0030 FAD1     		bne	.L6
  92 0032 9DF80F00 		ldrb	r0, [sp, #15]	@ zero_extendqisi2
  93 0036 04B0     		add	sp, sp, #16
  94              		@ sp needed
  95 0038 10BD     		pop	{r4, pc}
  97              		.section	.text.SX1278_hw_DelayMs,"ax",%progbits
  98              		.align	1
  99              		.weak	SX1278_hw_DelayMs
 100              		.syntax unified
 101              		.thumb
 102              		.thumb_func
 104              	SX1278_hw_DelayMs:
 105              		@ args = 0, pretend = 0, frame = 0
 106              		@ frame_needed = 0, uses_anonymous_args = 0
 107              		@ link register save eliminated.
 108 0000 FFF7FEBF 		b	Delay_ms
 110              		.section	.text.SX1278_hw_Reset,"ax",%progbits
 111              		.align	1
 112              		.weak	SX1278_hw_Reset
 113              		.syntax unified
 114              		.thumb
 115              		.thumb_func
 117              	SX1278_hw_Reset:
 118              		@ args = 0, pretend = 0, frame = 0
 119              		@ frame_needed = 0, uses_anonymous_args = 0
 120 0000 10B5     		push	{r4, lr}
 121 0002 0446     		mov	r4, r0
 122 0004 0121     		movs	r1, #1
 123 0006 FFF7FEFF 		bl	SX1278_hw_SetNSS
ARM GAS  C:\Users\CL\AppData\Local\Temp\ccpOwT0h.s 			page 3


 124 000a 2189     		ldrh	r1, [r4, #8]
 125 000c E068     		ldr	r0, [r4, #12]
 126 000e 0022     		movs	r2, #0
 127 0010 FFF7FEFF 		bl	HAL_GPIO_WritePin
 128 0014 0120     		movs	r0, #1
 129 0016 FFF7FEFF 		bl	SX1278_hw_DelayMs
 130 001a E068     		ldr	r0, [r4, #12]
 131 001c 2189     		ldrh	r1, [r4, #8]
 132 001e 0122     		movs	r2, #1
 133 0020 FFF7FEFF 		bl	HAL_GPIO_WritePin
 134 0024 6420     		movs	r0, #100
 135 0026 FFF7FEFF 		bl	SX1278_hw_DelayMs
 136 002a 10BD     		pop	{r4, pc}
 138              		.section	.text.SX1278_hw_init,"ax",%progbits
 139              		.align	1
 140              		.weak	SX1278_hw_init
 141              		.syntax unified
 142              		.thumb
 143              		.thumb_func
 145              	SX1278_hw_init:
 146              		@ args = 0, pretend = 0, frame = 0
 147              		@ frame_needed = 0, uses_anonymous_args = 0
 148 0000 10B5     		push	{r4, lr}
 149 0002 0121     		movs	r1, #1
 150 0004 0446     		mov	r4, r0
 151 0006 FFF7FEFF 		bl	SX1278_hw_SetNSS
 152 000a 2046     		mov	r0, r4
 153 000c FFF7FEFF 		bl	SX1278_hw_Reset
 154 0010 10BD     		pop	{r4, pc}
 156              		.section	.text.SX1278_hw_GetDIO0,"ax",%progbits
 157              		.align	1
 158              		.weak	SX1278_hw_GetDIO0
 159              		.syntax unified
 160              		.thumb
 161              		.thumb_func
 163              	SX1278_hw_GetDIO0:
 164              		@ args = 0, pretend = 0, frame = 0
 165              		@ frame_needed = 0, uses_anonymous_args = 0
 166 0000 08B5     		push	{r3, lr}
 167 0002 018A     		ldrh	r1, [r0, #16]
 168 0004 4069     		ldr	r0, [r0, #20]
 169 0006 FFF7FEFF 		bl	HAL_GPIO_ReadPin
 170 000a 431E     		subs	r3, r0, #1
 171 000c 5842     		rsbs	r0, r3, #0
 172 000e 5841     		adcs	r0, r0, r3
 173 0010 08BD     		pop	{r3, pc}
 175              		.global	lora_dev_hw
 176              		.section	.data.lora_dev_hw,"aw"
 177              		.align	2
 180              	lora_dev_hw:
 181 0000 00000000 		.space	8
 181      00000000 
 182 0008 02000000 		.word	2
 183 000c 00040048 		.word	1207960576
 184 0010 40000000 		.word	64
 185 0014 00000048 		.word	1207959552
 186 0018 00100000 		.word	4096
ARM GAS  C:\Users\CL\AppData\Local\Temp\ccpOwT0h.s 			page 4


 187 001c 00040048 		.word	1207960576
 188 0020 00000000 		.word	hspi2
 189 0024 00000000 		.space	8
 189      00000000 
 190 002c 40000000 		.word	64
 191 0030 00040048 		.word	1207960576
 192 0034 00020000 		.word	512
 193 0038 00040048 		.word	1207960576
 194 003c 00800000 		.word	32768
 195 0040 00000048 		.word	1207959552
 196 0044 00000000 		.word	hspi3
 197              		.ident	"GCC: (GNU Arm Embedded Toolchain 10.3-2021.10) 10.3.1 20210824 (release)"
ARM GAS  C:\Users\CL\AppData\Local\Temp\ccpOwT0h.s 			page 5

