ARM GAS  C:\Users\CL\AppData\Local\Temp\ccWEXt8f.s 			page 1


   1              		.cpu cortex-m4
   2              		.arch armv7e-m
   3              		.fpu fpv4-sp-d16
   4              		.eabi_attribute 27, 1
   5              		.eabi_attribute 28, 1
   6              		.eabi_attribute 20, 1
   7              		.eabi_attribute 21, 1
   8              		.eabi_attribute 23, 3
   9              		.eabi_attribute 24, 1
  10              		.eabi_attribute 25, 1
  11              		.eabi_attribute 26, 1
  12              		.eabi_attribute 30, 1
  13              		.eabi_attribute 34, 1
  14              		.eabi_attribute 18, 4
  15              		.file	"SX1278_hw.c"
  16              		.text
  17              	.Ltext0:
  18              		.cfi_sections	.debug_frame
  19              		.section	.text.SX1278_hw_SetNSS,"ax",%progbits
  20              		.align	1
  21              		.weak	SX1278_hw_SetNSS
  22              		.syntax unified
  23              		.thumb
  24              		.thumb_func
  26              	SX1278_hw_SetNSS:
  27              	.LVL0:
  28              	.LFB289:
  29              		.file 1 "HAL/Src/SX1278_hw.c"
   1:HAL/Src/SX1278_hw.c **** /**
   2:HAL/Src/SX1278_hw.c ****  * Author Wojciech Domski <Wojciech.Domski@gmail.com>
   3:HAL/Src/SX1278_hw.c ****  * www: www.Domski.pl
   4:HAL/Src/SX1278_hw.c ****  *
   5:HAL/Src/SX1278_hw.c ****  * Hardware layer for SX1278 LoRa module
   6:HAL/Src/SX1278_hw.c ****  */
   7:HAL/Src/SX1278_hw.c **** 
   8:HAL/Src/SX1278_hw.c **** #include "SX1278_hw.h"
   9:HAL/Src/SX1278_hw.c **** #include <string.h>
  10:HAL/Src/SX1278_hw.c **** 
  11:HAL/Src/SX1278_hw.c **** #include "gpio.h"
  12:HAL/Src/SX1278_hw.c **** #include "spi.h"
  13:HAL/Src/SX1278_hw.c **** 
  14:HAL/Src/SX1278_hw.c **** 
  15:HAL/Src/SX1278_hw.c **** SX1278_hw_t lora_dev_hw[] = {
  16:HAL/Src/SX1278_hw.c **** 	{
  17:HAL/Src/SX1278_hw.c **** 		.reset.pin = LORA2_RST_Pin,
  18:HAL/Src/SX1278_hw.c **** 		.reset.port = LORA2_RST_GPIO_Port,
  19:HAL/Src/SX1278_hw.c **** 		.dio0.pin = LORA2_DIO0_Pin,
  20:HAL/Src/SX1278_hw.c **** 		.dio0.port = LORA2_DIO0_GPIO_Port,
  21:HAL/Src/SX1278_hw.c **** 		.nss.pin = LORA2_SPI_NSS_Pin,
  22:HAL/Src/SX1278_hw.c **** 		.nss.port = LORA2_SPI_NSS_GPIO_Port,
  23:HAL/Src/SX1278_hw.c **** 		.spi = &hspi2,
  24:HAL/Src/SX1278_hw.c **** 	},
  25:HAL/Src/SX1278_hw.c **** 	{
  26:HAL/Src/SX1278_hw.c **** 		.reset.pin = LORA1_RST_Pin,
  27:HAL/Src/SX1278_hw.c **** 		.reset.port = LORA1_RST_GPIO_Port,
  28:HAL/Src/SX1278_hw.c **** 		.dio0.pin = LORA1_DIO0_Pin,
  29:HAL/Src/SX1278_hw.c **** 		.dio0.port = LORA1_DIO0_GPIO_Port,
ARM GAS  C:\Users\CL\AppData\Local\Temp\ccWEXt8f.s 			page 2


  30:HAL/Src/SX1278_hw.c **** 		.nss.pin = LORA1_SPI_NSS_Pin,
  31:HAL/Src/SX1278_hw.c **** 		.nss.port = LORA1_SPI_NSS_GPIO_Port,
  32:HAL/Src/SX1278_hw.c **** 		.spi = &hspi3,
  33:HAL/Src/SX1278_hw.c **** 	}
  34:HAL/Src/SX1278_hw.c **** };
  35:HAL/Src/SX1278_hw.c **** 
  36:HAL/Src/SX1278_hw.c **** __weak void SX1278_hw_init(SX1278_hw_t *hw) {
  37:HAL/Src/SX1278_hw.c **** 	SX1278_hw_SetNSS(hw, 1);
  38:HAL/Src/SX1278_hw.c **** 	SX1278_hw_Reset(hw);
  39:HAL/Src/SX1278_hw.c **** }
  40:HAL/Src/SX1278_hw.c **** 
  41:HAL/Src/SX1278_hw.c **** __weak void SX1278_hw_SetNSS(SX1278_hw_t *hw, int value) {
  30              		.loc 1 41 58 view -0
  31              		.cfi_startproc
  32              		@ args = 0, pretend = 0, frame = 0
  33              		@ frame_needed = 0, uses_anonymous_args = 0
  34              		.loc 1 41 58 is_stmt 0 view .LVU1
  35 0000 08B5     		push	{r3, lr}
  36              	.LCFI0:
  37              		.cfi_def_cfa_offset 8
  38              		.cfi_offset 3, -8
  39              		.cfi_offset 14, -4
  42:HAL/Src/SX1278_hw.c **** 	HAL_GPIO_WritePin(hw->nss.port, hw->nss.pin,
  40              		.loc 1 42 2 is_stmt 1 view .LVU2
  41 0002 0129     		cmp	r1, #1
  42 0004 14BF     		ite	ne
  43 0006 0022     		movne	r2, #0
  44 0008 0122     		moveq	r2, #1
  45 000a 018B     		ldrh	r1, [r0, #24]
  46              	.LVL1:
  47              		.loc 1 42 2 is_stmt 0 view .LVU3
  48 000c C069     		ldr	r0, [r0, #28]
  49              	.LVL2:
  50              		.loc 1 42 2 view .LVU4
  51 000e FFF7FEFF 		bl	HAL_GPIO_WritePin
  52              	.LVL3:
  43:HAL/Src/SX1278_hw.c **** 			(value == 1) ? GPIO_PIN_SET : GPIO_PIN_RESET);
  44:HAL/Src/SX1278_hw.c **** }
  53              		.loc 1 44 1 view .LVU5
  54 0012 08BD     		pop	{r3, pc}
  55              		.cfi_endproc
  56              	.LFE289:
  58              		.section	.text.SX1278_hw_SPICommand,"ax",%progbits
  59              		.align	1
  60              		.weak	SX1278_hw_SPICommand
  61              		.syntax unified
  62              		.thumb
  63              		.thumb_func
  65              	SX1278_hw_SPICommand:
  66              	.LVL4:
  67              	.LFB291:
  45:HAL/Src/SX1278_hw.c **** 
  46:HAL/Src/SX1278_hw.c **** __weak void SX1278_hw_Reset(SX1278_hw_t *hw) {
  47:HAL/Src/SX1278_hw.c **** 	SX1278_hw_SetNSS(hw, 1);
  48:HAL/Src/SX1278_hw.c **** 	HAL_GPIO_WritePin(hw->reset.port, hw->reset.pin, GPIO_PIN_RESET);
  49:HAL/Src/SX1278_hw.c **** 
  50:HAL/Src/SX1278_hw.c **** 	SX1278_hw_DelayMs(1);
ARM GAS  C:\Users\CL\AppData\Local\Temp\ccWEXt8f.s 			page 3


  51:HAL/Src/SX1278_hw.c **** 
  52:HAL/Src/SX1278_hw.c **** 	HAL_GPIO_WritePin(hw->reset.port, hw->reset.pin, GPIO_PIN_SET);
  53:HAL/Src/SX1278_hw.c **** 
  54:HAL/Src/SX1278_hw.c **** 	SX1278_hw_DelayMs(100);
  55:HAL/Src/SX1278_hw.c **** }
  56:HAL/Src/SX1278_hw.c **** 
  57:HAL/Src/SX1278_hw.c **** __weak void SX1278_hw_SPICommand(SX1278_hw_t *hw, uint8_t cmd) {
  68              		.loc 1 57 64 is_stmt 1 view -0
  69              		.cfi_startproc
  70              		@ args = 0, pretend = 0, frame = 8
  71              		@ frame_needed = 0, uses_anonymous_args = 0
  72              		.loc 1 57 64 is_stmt 0 view .LVU7
  73 0000 10B5     		push	{r4, lr}
  74              	.LCFI1:
  75              		.cfi_def_cfa_offset 8
  76              		.cfi_offset 4, -8
  77              		.cfi_offset 14, -4
  78 0002 82B0     		sub	sp, sp, #8
  79              	.LCFI2:
  80              		.cfi_def_cfa_offset 16
  81 0004 0446     		mov	r4, r0
  82 0006 8DF80710 		strb	r1, [sp, #7]
  58:HAL/Src/SX1278_hw.c **** 	SX1278_hw_SetNSS(hw, 0);
  83              		.loc 1 58 2 is_stmt 1 view .LVU8
  84 000a 0021     		movs	r1, #0
  85              	.LVL5:
  86              		.loc 1 58 2 is_stmt 0 view .LVU9
  87 000c FFF7FEFF 		bl	SX1278_hw_SetNSS
  88              	.LVL6:
  59:HAL/Src/SX1278_hw.c **** 	HAL_SPI_Transmit(hw->spi, &cmd, 1, 1000);
  89              		.loc 1 59 2 is_stmt 1 view .LVU10
  90 0010 4FF47A73 		mov	r3, #1000
  91 0014 0122     		movs	r2, #1
  92 0016 0DF10701 		add	r1, sp, #7
  93 001a 206A     		ldr	r0, [r4, #32]
  94 001c FFF7FEFF 		bl	HAL_SPI_Transmit
  95              	.LVL7:
  60:HAL/Src/SX1278_hw.c **** 	while (HAL_SPI_GetState(hw->spi) != HAL_SPI_STATE_READY)
  96              		.loc 1 60 2 view .LVU11
  97              	.L4:
  61:HAL/Src/SX1278_hw.c **** 		;
  98              		.loc 1 61 3 discriminator 1 view .LVU12
  60:HAL/Src/SX1278_hw.c **** 	while (HAL_SPI_GetState(hw->spi) != HAL_SPI_STATE_READY)
  99              		.loc 1 60 8 discriminator 1 view .LVU13
  60:HAL/Src/SX1278_hw.c **** 	while (HAL_SPI_GetState(hw->spi) != HAL_SPI_STATE_READY)
 100              		.loc 1 60 9 is_stmt 0 discriminator 1 view .LVU14
 101 0020 206A     		ldr	r0, [r4, #32]
 102 0022 FFF7FEFF 		bl	HAL_SPI_GetState
 103              	.LVL8:
  60:HAL/Src/SX1278_hw.c **** 	while (HAL_SPI_GetState(hw->spi) != HAL_SPI_STATE_READY)
 104              		.loc 1 60 8 discriminator 1 view .LVU15
 105 0026 0128     		cmp	r0, #1
 106 0028 FAD1     		bne	.L4
  62:HAL/Src/SX1278_hw.c **** }
 107              		.loc 1 62 1 view .LVU16
 108 002a 02B0     		add	sp, sp, #8
 109              	.LCFI3:
ARM GAS  C:\Users\CL\AppData\Local\Temp\ccWEXt8f.s 			page 4


 110              		.cfi_def_cfa_offset 8
 111              		@ sp needed
 112 002c 10BD     		pop	{r4, pc}
 113              		.loc 1 62 1 view .LVU17
 114              		.cfi_endproc
 115              	.LFE291:
 117              		.section	.text.SX1278_hw_SPIReadByte,"ax",%progbits
 118              		.align	1
 119              		.weak	SX1278_hw_SPIReadByte
 120              		.syntax unified
 121              		.thumb
 122              		.thumb_func
 124              	SX1278_hw_SPIReadByte:
 125              	.LVL9:
 126              	.LFB292:
  63:HAL/Src/SX1278_hw.c **** 
  64:HAL/Src/SX1278_hw.c **** __weak uint8_t SX1278_hw_SPIReadByte(SX1278_hw_t *hw) {
 127              		.loc 1 64 55 is_stmt 1 view -0
 128              		.cfi_startproc
 129              		@ args = 0, pretend = 0, frame = 8
 130              		@ frame_needed = 0, uses_anonymous_args = 0
 131              		.loc 1 64 55 is_stmt 0 view .LVU19
 132 0000 10B5     		push	{r4, lr}
 133              	.LCFI4:
 134              		.cfi_def_cfa_offset 8
 135              		.cfi_offset 4, -8
 136              		.cfi_offset 14, -4
 137 0002 84B0     		sub	sp, sp, #16
 138              	.LCFI5:
 139              		.cfi_def_cfa_offset 24
 140 0004 0446     		mov	r4, r0
  65:HAL/Src/SX1278_hw.c **** 	uint8_t txByte = 0x00;
 141              		.loc 1 65 2 is_stmt 1 view .LVU20
 142              		.loc 1 65 10 is_stmt 0 view .LVU21
 143 0006 0021     		movs	r1, #0
 144 0008 8DF80F10 		strb	r1, [sp, #15]
  66:HAL/Src/SX1278_hw.c **** 	uint8_t rxByte = 0x00;
 145              		.loc 1 66 2 is_stmt 1 view .LVU22
 146              		.loc 1 66 10 is_stmt 0 view .LVU23
 147 000c 8DF80E10 		strb	r1, [sp, #14]
  67:HAL/Src/SX1278_hw.c **** 
  68:HAL/Src/SX1278_hw.c **** 	SX1278_hw_SetNSS(hw, 0);
 148              		.loc 1 68 2 is_stmt 1 view .LVU24
 149 0010 FFF7FEFF 		bl	SX1278_hw_SetNSS
 150              	.LVL10:
  69:HAL/Src/SX1278_hw.c **** 	HAL_SPI_TransmitReceive(hw->spi, &txByte, &rxByte, 1, 1000);
 151              		.loc 1 69 2 view .LVU25
 152 0014 4FF47A73 		mov	r3, #1000
 153 0018 0093     		str	r3, [sp]
 154 001a 0123     		movs	r3, #1
 155 001c 0DF10E02 		add	r2, sp, #14
 156 0020 0DF10F01 		add	r1, sp, #15
 157 0024 206A     		ldr	r0, [r4, #32]
 158 0026 FFF7FEFF 		bl	HAL_SPI_TransmitReceive
 159              	.LVL11:
  70:HAL/Src/SX1278_hw.c **** 	while (HAL_SPI_GetState(hw->spi) != HAL_SPI_STATE_READY)
 160              		.loc 1 70 2 view .LVU26
ARM GAS  C:\Users\CL\AppData\Local\Temp\ccWEXt8f.s 			page 5


 161              	.L7:
  71:HAL/Src/SX1278_hw.c **** 		;
 162              		.loc 1 71 3 discriminator 1 view .LVU27
  70:HAL/Src/SX1278_hw.c **** 	while (HAL_SPI_GetState(hw->spi) != HAL_SPI_STATE_READY)
 163              		.loc 1 70 8 discriminator 1 view .LVU28
  70:HAL/Src/SX1278_hw.c **** 	while (HAL_SPI_GetState(hw->spi) != HAL_SPI_STATE_READY)
 164              		.loc 1 70 9 is_stmt 0 discriminator 1 view .LVU29
 165 002a 206A     		ldr	r0, [r4, #32]
 166 002c FFF7FEFF 		bl	HAL_SPI_GetState
 167              	.LVL12:
  70:HAL/Src/SX1278_hw.c **** 	while (HAL_SPI_GetState(hw->spi) != HAL_SPI_STATE_READY)
 168              		.loc 1 70 8 discriminator 1 view .LVU30
 169 0030 0128     		cmp	r0, #1
 170 0032 FAD1     		bne	.L7
  72:HAL/Src/SX1278_hw.c **** 	return rxByte;
 171              		.loc 1 72 2 is_stmt 1 view .LVU31
  73:HAL/Src/SX1278_hw.c **** }
 172              		.loc 1 73 1 is_stmt 0 view .LVU32
 173 0034 9DF80E00 		ldrb	r0, [sp, #14]	@ zero_extendqisi2
 174 0038 04B0     		add	sp, sp, #16
 175              	.LCFI6:
 176              		.cfi_def_cfa_offset 8
 177              		@ sp needed
 178 003a 10BD     		pop	{r4, pc}
 179              		.loc 1 73 1 view .LVU33
 180              		.cfi_endproc
 181              	.LFE292:
 183              		.section	.text.SX1278_hw_DelayMs,"ax",%progbits
 184              		.align	1
 185              		.weak	SX1278_hw_DelayMs
 186              		.syntax unified
 187              		.thumb
 188              		.thumb_func
 190              	SX1278_hw_DelayMs:
 191              	.LVL13:
 192              	.LFB293:
  74:HAL/Src/SX1278_hw.c **** 
  75:HAL/Src/SX1278_hw.c **** __weak void SX1278_hw_DelayMs(uint32_t msec) {
 193              		.loc 1 75 46 is_stmt 1 view -0
 194              		.cfi_startproc
 195              		@ args = 0, pretend = 0, frame = 0
 196              		@ frame_needed = 0, uses_anonymous_args = 0
 197              		.loc 1 75 46 is_stmt 0 view .LVU35
 198 0000 08B5     		push	{r3, lr}
 199              	.LCFI7:
 200              		.cfi_def_cfa_offset 8
 201              		.cfi_offset 3, -8
 202              		.cfi_offset 14, -4
  76:HAL/Src/SX1278_hw.c **** 	HAL_Delay(msec);
 203              		.loc 1 76 2 is_stmt 1 view .LVU36
 204 0002 FFF7FEFF 		bl	HAL_Delay
 205              	.LVL14:
  77:HAL/Src/SX1278_hw.c **** }
 206              		.loc 1 77 1 is_stmt 0 view .LVU37
 207 0006 08BD     		pop	{r3, pc}
 208              		.cfi_endproc
 209              	.LFE293:
ARM GAS  C:\Users\CL\AppData\Local\Temp\ccWEXt8f.s 			page 6


 211              		.section	.text.SX1278_hw_Reset,"ax",%progbits
 212              		.align	1
 213              		.weak	SX1278_hw_Reset
 214              		.syntax unified
 215              		.thumb
 216              		.thumb_func
 218              	SX1278_hw_Reset:
 219              	.LVL15:
 220              	.LFB290:
  46:HAL/Src/SX1278_hw.c **** 	SX1278_hw_SetNSS(hw, 1);
 221              		.loc 1 46 46 is_stmt 1 view -0
 222              		.cfi_startproc
 223              		@ args = 0, pretend = 0, frame = 0
 224              		@ frame_needed = 0, uses_anonymous_args = 0
  46:HAL/Src/SX1278_hw.c **** 	SX1278_hw_SetNSS(hw, 1);
 225              		.loc 1 46 46 is_stmt 0 view .LVU39
 226 0000 10B5     		push	{r4, lr}
 227              	.LCFI8:
 228              		.cfi_def_cfa_offset 8
 229              		.cfi_offset 4, -8
 230              		.cfi_offset 14, -4
 231 0002 0446     		mov	r4, r0
  47:HAL/Src/SX1278_hw.c **** 	HAL_GPIO_WritePin(hw->reset.port, hw->reset.pin, GPIO_PIN_RESET);
 232              		.loc 1 47 2 is_stmt 1 view .LVU40
 233 0004 0121     		movs	r1, #1
 234 0006 FFF7FEFF 		bl	SX1278_hw_SetNSS
 235              	.LVL16:
  48:HAL/Src/SX1278_hw.c **** 
 236              		.loc 1 48 2 view .LVU41
 237 000a 0022     		movs	r2, #0
 238 000c 2189     		ldrh	r1, [r4, #8]
 239 000e E068     		ldr	r0, [r4, #12]
 240 0010 FFF7FEFF 		bl	HAL_GPIO_WritePin
 241              	.LVL17:
  50:HAL/Src/SX1278_hw.c **** 
 242              		.loc 1 50 2 view .LVU42
 243 0014 0120     		movs	r0, #1
 244 0016 FFF7FEFF 		bl	SX1278_hw_DelayMs
 245              	.LVL18:
  52:HAL/Src/SX1278_hw.c **** 
 246              		.loc 1 52 2 view .LVU43
 247 001a 0122     		movs	r2, #1
 248 001c 2189     		ldrh	r1, [r4, #8]
 249 001e E068     		ldr	r0, [r4, #12]
 250 0020 FFF7FEFF 		bl	HAL_GPIO_WritePin
 251              	.LVL19:
  54:HAL/Src/SX1278_hw.c **** }
 252              		.loc 1 54 2 view .LVU44
 253 0024 6420     		movs	r0, #100
 254 0026 FFF7FEFF 		bl	SX1278_hw_DelayMs
 255              	.LVL20:
  55:HAL/Src/SX1278_hw.c **** 
 256              		.loc 1 55 1 is_stmt 0 view .LVU45
 257 002a 10BD     		pop	{r4, pc}
  55:HAL/Src/SX1278_hw.c **** 
 258              		.loc 1 55 1 view .LVU46
 259              		.cfi_endproc
ARM GAS  C:\Users\CL\AppData\Local\Temp\ccWEXt8f.s 			page 7


 260              	.LFE290:
 262              		.section	.text.SX1278_hw_init,"ax",%progbits
 263              		.align	1
 264              		.weak	SX1278_hw_init
 265              		.syntax unified
 266              		.thumb
 267              		.thumb_func
 269              	SX1278_hw_init:
 270              	.LVL21:
 271              	.LFB288:
  36:HAL/Src/SX1278_hw.c **** 	SX1278_hw_SetNSS(hw, 1);
 272              		.loc 1 36 45 is_stmt 1 view -0
 273              		.cfi_startproc
 274              		@ args = 0, pretend = 0, frame = 0
 275              		@ frame_needed = 0, uses_anonymous_args = 0
  36:HAL/Src/SX1278_hw.c **** 	SX1278_hw_SetNSS(hw, 1);
 276              		.loc 1 36 45 is_stmt 0 view .LVU48
 277 0000 10B5     		push	{r4, lr}
 278              	.LCFI9:
 279              		.cfi_def_cfa_offset 8
 280              		.cfi_offset 4, -8
 281              		.cfi_offset 14, -4
 282 0002 0446     		mov	r4, r0
  37:HAL/Src/SX1278_hw.c **** 	SX1278_hw_Reset(hw);
 283              		.loc 1 37 2 is_stmt 1 view .LVU49
 284 0004 0121     		movs	r1, #1
 285 0006 FFF7FEFF 		bl	SX1278_hw_SetNSS
 286              	.LVL22:
  38:HAL/Src/SX1278_hw.c **** }
 287              		.loc 1 38 2 view .LVU50
 288 000a 2046     		mov	r0, r4
 289 000c FFF7FEFF 		bl	SX1278_hw_Reset
 290              	.LVL23:
  39:HAL/Src/SX1278_hw.c **** 
 291              		.loc 1 39 1 is_stmt 0 view .LVU51
 292 0010 10BD     		pop	{r4, pc}
  39:HAL/Src/SX1278_hw.c **** 
 293              		.loc 1 39 1 view .LVU52
 294              		.cfi_endproc
 295              	.LFE288:
 297              		.section	.text.SX1278_hw_GetDIO0,"ax",%progbits
 298              		.align	1
 299              		.weak	SX1278_hw_GetDIO0
 300              		.syntax unified
 301              		.thumb
 302              		.thumb_func
 304              	SX1278_hw_GetDIO0:
 305              	.LVL24:
 306              	.LFB294:
  78:HAL/Src/SX1278_hw.c **** 
  79:HAL/Src/SX1278_hw.c **** __weak int SX1278_hw_GetDIO0(SX1278_hw_t *hw) {
 307              		.loc 1 79 47 is_stmt 1 view -0
 308              		.cfi_startproc
 309              		@ args = 0, pretend = 0, frame = 0
 310              		@ frame_needed = 0, uses_anonymous_args = 0
 311              		.loc 1 79 47 is_stmt 0 view .LVU54
 312 0000 08B5     		push	{r3, lr}
ARM GAS  C:\Users\CL\AppData\Local\Temp\ccWEXt8f.s 			page 8


 313              	.LCFI10:
 314              		.cfi_def_cfa_offset 8
 315              		.cfi_offset 3, -8
 316              		.cfi_offset 14, -4
  80:HAL/Src/SX1278_hw.c **** 	return (HAL_GPIO_ReadPin(hw->dio0.port, hw->dio0.pin) == GPIO_PIN_SET);
 317              		.loc 1 80 2 is_stmt 1 view .LVU55
 318              		.loc 1 80 10 is_stmt 0 view .LVU56
 319 0002 018A     		ldrh	r1, [r0, #16]
 320 0004 4069     		ldr	r0, [r0, #20]
 321              	.LVL25:
 322              		.loc 1 80 10 view .LVU57
 323 0006 FFF7FEFF 		bl	HAL_GPIO_ReadPin
 324              	.LVL26:
  81:HAL/Src/SX1278_hw.c **** }
 325              		.loc 1 81 1 view .LVU58
 326 000a 0128     		cmp	r0, #1
 327 000c 14BF     		ite	ne
 328 000e 0020     		movne	r0, #0
 329 0010 0120     		moveq	r0, #1
 330 0012 08BD     		pop	{r3, pc}
 331              		.cfi_endproc
 332              	.LFE294:
 334              		.global	lora_dev_hw
 335              		.section	.data.lora_dev_hw,"aw"
 336              		.align	2
 339              	lora_dev_hw:
 340 0000 00000000 		.space	8
 340      00000000 
 341 0008 02000000 		.word	2
 342 000c 00040048 		.word	1207960576
 343 0010 40000000 		.word	64
 344 0014 00000048 		.word	1207959552
 345 0018 00100000 		.word	4096
 346 001c 00040048 		.word	1207960576
 347 0020 00000000 		.word	hspi2
 348 0024 00000000 		.space	8
 348      00000000 
 349 002c 40000000 		.word	64
 350 0030 00040048 		.word	1207960576
 351 0034 00020000 		.word	512
 352 0038 00040048 		.word	1207960576
 353 003c 00800000 		.word	32768
 354 0040 00000048 		.word	1207959552
 355 0044 00000000 		.word	hspi3
 356              		.text
 357              	.Letext0:
 358              		.file 2 "e:\\gcc-arm-none-eabi-10.3-2021.10-win32\\gcc-arm-none-eabi-10.3-2021.10\\arm-none-eabi\\
 359              		.file 3 "e:\\gcc-arm-none-eabi-10.3-2021.10-win32\\gcc-arm-none-eabi-10.3-2021.10\\arm-none-eabi\\
 360              		.file 4 "HAL/Inc/SX1278_hw.h"
 361              		.file 5 "Drivers/CMSIS/Device/ST/STM32L4xx/Include/stm32l431xx.h"
 362              		.file 6 "Drivers/STM32L4xx_HAL_Driver/Inc/stm32l4xx_hal_def.h"
 363              		.file 7 "Drivers/STM32L4xx_HAL_Driver/Inc/stm32l4xx_hal_gpio.h"
 364              		.file 8 "Drivers/STM32L4xx_HAL_Driver/Inc/stm32l4xx_hal_dma.h"
 365              		.file 9 "Drivers/STM32L4xx_HAL_Driver/Inc/stm32l4xx_hal_spi.h"
 366              		.file 10 "HAL/Inc/spi.h"
 367              		.file 11 "Drivers/STM32L4xx_HAL_Driver/Inc/stm32l4xx_hal.h"
ARM GAS  C:\Users\CL\AppData\Local\Temp\ccWEXt8f.s 			page 9


DEFINED SYMBOLS
                            *ABS*:00000000 SX1278_hw.c
C:\Users\CL\AppData\Local\Temp\ccWEXt8f.s:20     .text.SX1278_hw_SetNSS:00000000 $t
C:\Users\CL\AppData\Local\Temp\ccWEXt8f.s:26     .text.SX1278_hw_SetNSS:00000000 SX1278_hw_SetNSS
C:\Users\CL\AppData\Local\Temp\ccWEXt8f.s:59     .text.SX1278_hw_SPICommand:00000000 $t
C:\Users\CL\AppData\Local\Temp\ccWEXt8f.s:65     .text.SX1278_hw_SPICommand:00000000 SX1278_hw_SPICommand
C:\Users\CL\AppData\Local\Temp\ccWEXt8f.s:118    .text.SX1278_hw_SPIReadByte:00000000 $t
C:\Users\CL\AppData\Local\Temp\ccWEXt8f.s:124    .text.SX1278_hw_SPIReadByte:00000000 SX1278_hw_SPIReadByte
C:\Users\CL\AppData\Local\Temp\ccWEXt8f.s:184    .text.SX1278_hw_DelayMs:00000000 $t
C:\Users\CL\AppData\Local\Temp\ccWEXt8f.s:190    .text.SX1278_hw_DelayMs:00000000 SX1278_hw_DelayMs
C:\Users\CL\AppData\Local\Temp\ccWEXt8f.s:212    .text.SX1278_hw_Reset:00000000 $t
C:\Users\CL\AppData\Local\Temp\ccWEXt8f.s:218    .text.SX1278_hw_Reset:00000000 SX1278_hw_Reset
C:\Users\CL\AppData\Local\Temp\ccWEXt8f.s:263    .text.SX1278_hw_init:00000000 $t
C:\Users\CL\AppData\Local\Temp\ccWEXt8f.s:269    .text.SX1278_hw_init:00000000 SX1278_hw_init
C:\Users\CL\AppData\Local\Temp\ccWEXt8f.s:298    .text.SX1278_hw_GetDIO0:00000000 $t
C:\Users\CL\AppData\Local\Temp\ccWEXt8f.s:304    .text.SX1278_hw_GetDIO0:00000000 SX1278_hw_GetDIO0
C:\Users\CL\AppData\Local\Temp\ccWEXt8f.s:339    .data.lora_dev_hw:00000000 lora_dev_hw
C:\Users\CL\AppData\Local\Temp\ccWEXt8f.s:336    .data.lora_dev_hw:00000000 $d

UNDEFINED SYMBOLS
HAL_GPIO_WritePin
HAL_SPI_Transmit
HAL_SPI_GetState
HAL_SPI_TransmitReceive
HAL_Delay
HAL_GPIO_ReadPin
hspi2
hspi3
