ARM GAS  C:\Users\CL\AppData\Local\Temp\cc68DuQY.s 			page 1


   1              		.cpu cortex-m4
   2              		.arch armv7e-m
   3              		.fpu fpv4-sp-d16
   4              		.eabi_attribute 27, 1
   5              		.eabi_attribute 28, 1
   6              		.eabi_attribute 20, 1
   7              		.eabi_attribute 21, 1
   8              		.eabi_attribute 23, 3
   9              		.eabi_attribute 24, 1
  10              		.eabi_attribute 25, 1
  11              		.eabi_attribute 26, 1
  12              		.eabi_attribute 30, 4
  13              		.eabi_attribute 34, 1
  14              		.eabi_attribute 18, 4
  15              		.file	"SX1278.c"
  16              		.text
  17              		.section	.text.SX1278_SPIBurstWrite.part.0,"ax",%progbits
  18              		.align	1
  19              		.syntax unified
  20              		.thumb
  21              		.thumb_func
  23              	SX1278_SPIBurstWrite.part.0:
  24              		@ args = 0, pretend = 0, frame = 0
  25              		@ frame_needed = 0, uses_anonymous_args = 0
  26 0000 F8B5     		push	{r3, r4, r5, r6, r7, lr}
  27 0002 0646     		mov	r6, r0
  28 0004 0F46     		mov	r7, r1
  29 0006 0068     		ldr	r0, [r0]
  30 0008 0021     		movs	r1, #0
  31 000a 1446     		mov	r4, r2
  32 000c 1D46     		mov	r5, r3
  33 000e FFF7FEFF 		bl	SX1278_hw_SetNSS
  34 0012 3068     		ldr	r0, [r6]
  35 0014 47F08001 		orr	r1, r7, #128
  36 0018 FFF7FEFF 		bl	SX1278_hw_SPICommand
  37 001c 2544     		add	r5, r5, r4
  38              	.L2:
  39 001e AC42     		cmp	r4, r5
  40 0020 3068     		ldr	r0, [r6]
  41 0022 04D1     		bne	.L3
  42 0024 BDE8F840 		pop	{r3, r4, r5, r6, r7, lr}
  43 0028 0121     		movs	r1, #1
  44 002a FFF7FEBF 		b	SX1278_hw_SetNSS
  45              	.L3:
  46 002e 14F8011B 		ldrb	r1, [r4], #1	@ zero_extendqisi2
  47 0032 FFF7FEFF 		bl	SX1278_hw_SPICommand
  48 0036 F2E7     		b	.L2
  50              		.section	.text.SX1278_SPIRead,"ax",%progbits
  51              		.align	1
  52              		.global	SX1278_SPIRead
  53              		.syntax unified
  54              		.thumb
  55              		.thumb_func
  57              	SX1278_SPIRead:
  58              		@ args = 0, pretend = 0, frame = 0
  59              		@ frame_needed = 0, uses_anonymous_args = 0
  60 0000 38B5     		push	{r3, r4, r5, lr}
ARM GAS  C:\Users\CL\AppData\Local\Temp\cc68DuQY.s 			page 2


  61 0002 0446     		mov	r4, r0
  62 0004 0068     		ldr	r0, [r0]
  63 0006 FFF7FEFF 		bl	SX1278_hw_SPICommand
  64 000a 2068     		ldr	r0, [r4]
  65 000c FFF7FEFF 		bl	SX1278_hw_SPIReadByte
  66 0010 0121     		movs	r1, #1
  67 0012 0546     		mov	r5, r0
  68 0014 2068     		ldr	r0, [r4]
  69 0016 FFF7FEFF 		bl	SX1278_hw_SetNSS
  70 001a 2846     		mov	r0, r5
  71 001c 38BD     		pop	{r3, r4, r5, pc}
  73              		.section	.text.SX1278_SPIWrite,"ax",%progbits
  74              		.align	1
  75              		.global	SX1278_SPIWrite
  76              		.syntax unified
  77              		.thumb
  78              		.thumb_func
  80              	SX1278_SPIWrite:
  81              		@ args = 0, pretend = 0, frame = 0
  82              		@ frame_needed = 0, uses_anonymous_args = 0
  83 0000 70B5     		push	{r4, r5, r6, lr}
  84 0002 0446     		mov	r4, r0
  85 0004 0E46     		mov	r6, r1
  86 0006 0068     		ldr	r0, [r0]
  87 0008 0021     		movs	r1, #0
  88 000a 1546     		mov	r5, r2
  89 000c FFF7FEFF 		bl	SX1278_hw_SetNSS
  90 0010 2068     		ldr	r0, [r4]
  91 0012 46F08001 		orr	r1, r6, #128
  92 0016 FFF7FEFF 		bl	SX1278_hw_SPICommand
  93 001a 2068     		ldr	r0, [r4]
  94 001c 2946     		mov	r1, r5
  95 001e FFF7FEFF 		bl	SX1278_hw_SPICommand
  96 0022 2068     		ldr	r0, [r4]
  97 0024 0121     		movs	r1, #1
  98 0026 BDE87040 		pop	{r4, r5, r6, lr}
  99 002a FFF7FEBF 		b	SX1278_hw_SetNSS
 101              		.section	.text.SX1278_SPIBurstRead,"ax",%progbits
 102              		.align	1
 103              		.global	SX1278_SPIBurstRead
 104              		.syntax unified
 105              		.thumb
 106              		.thumb_func
 108              	SX1278_SPIBurstRead:
 109              		@ args = 0, pretend = 0, frame = 0
 110              		@ frame_needed = 0, uses_anonymous_args = 0
 111 0000 012B     		cmp	r3, #1
 112 0002 F8B5     		push	{r3, r4, r5, r6, r7, lr}
 113 0004 0546     		mov	r5, r0
 114 0006 0F46     		mov	r7, r1
 115 0008 1646     		mov	r6, r2
 116 000a 1C46     		mov	r4, r3
 117 000c 18D9     		bls	.L6
 118 000e 0068     		ldr	r0, [r0]
 119 0010 0021     		movs	r1, #0
 120 0012 FFF7FEFF 		bl	SX1278_hw_SetNSS
 121 0016 3946     		mov	r1, r7
ARM GAS  C:\Users\CL\AppData\Local\Temp\cc68DuQY.s 			page 3


 122 0018 2868     		ldr	r0, [r5]
 123 001a FFF7FEFF 		bl	SX1278_hw_SPICommand
 124 001e 631E     		subs	r3, r4, #1
 125 0020 771E     		subs	r7, r6, #1
 126 0022 56FA83F6 		uxtab	r6, r6, r3
 127              	.L8:
 128 0026 2868     		ldr	r0, [r5]
 129 0028 FFF7FEFF 		bl	SX1278_hw_SPIReadByte
 130 002c 07F8010F 		strb	r0, [r7, #1]!
 131 0030 B742     		cmp	r7, r6
 132 0032 F8D1     		bne	.L8
 133 0034 2868     		ldr	r0, [r5]
 134 0036 0121     		movs	r1, #1
 135 0038 BDE8F840 		pop	{r3, r4, r5, r6, r7, lr}
 136 003c FFF7FEBF 		b	SX1278_hw_SetNSS
 137              	.L6:
 138 0040 F8BD     		pop	{r3, r4, r5, r6, r7, pc}
 140              		.section	.text.SX1278_SPIBurstWrite,"ax",%progbits
 141              		.align	1
 142              		.global	SX1278_SPIBurstWrite
 143              		.syntax unified
 144              		.thumb
 145              		.thumb_func
 147              	SX1278_SPIBurstWrite:
 148              		@ args = 0, pretend = 0, frame = 0
 149              		@ frame_needed = 0, uses_anonymous_args = 0
 150              		@ link register save eliminated.
 151 0000 012B     		cmp	r3, #1
 152 0002 01D9     		bls	.L10
 153 0004 FFF7FEBF 		b	SX1278_SPIBurstWrite.part.0
 154              	.L10:
 155 0008 7047     		bx	lr
 157              		.section	.text.SX1278_standby,"ax",%progbits
 158              		.align	1
 159              		.global	SX1278_standby
 160              		.syntax unified
 161              		.thumb
 162              		.thumb_func
 164              	SX1278_standby:
 165              		@ args = 0, pretend = 0, frame = 0
 166              		@ frame_needed = 0, uses_anonymous_args = 0
 167 0000 10B5     		push	{r4, lr}
 168 0002 0922     		movs	r2, #9
 169 0004 0446     		mov	r4, r0
 170 0006 0121     		movs	r1, #1
 171 0008 FFF7FEFF 		bl	SX1278_SPIWrite
 172 000c 0123     		movs	r3, #1
 173 000e A375     		strb	r3, [r4, #22]
 174 0010 10BD     		pop	{r4, pc}
 176              		.section	.text.SX1278_sleep,"ax",%progbits
 177              		.align	1
 178              		.global	SX1278_sleep
 179              		.syntax unified
 180              		.thumb
 181              		.thumb_func
 183              	SX1278_sleep:
 184              		@ args = 0, pretend = 0, frame = 0
ARM GAS  C:\Users\CL\AppData\Local\Temp\cc68DuQY.s 			page 4


 185              		@ frame_needed = 0, uses_anonymous_args = 0
 186 0000 10B5     		push	{r4, lr}
 187 0002 0822     		movs	r2, #8
 188 0004 0446     		mov	r4, r0
 189 0006 0121     		movs	r1, #1
 190 0008 FFF7FEFF 		bl	SX1278_SPIWrite
 191 000c 0023     		movs	r3, #0
 192 000e A375     		strb	r3, [r4, #22]
 193 0010 10BD     		pop	{r4, pc}
 195              		.section	.text.SX1278_entryLoRa,"ax",%progbits
 196              		.align	1
 197              		.global	SX1278_entryLoRa
 198              		.syntax unified
 199              		.thumb
 200              		.thumb_func
 202              	SX1278_entryLoRa:
 203              		@ args = 0, pretend = 0, frame = 0
 204              		@ frame_needed = 0, uses_anonymous_args = 0
 205              		@ link register save eliminated.
 206 0000 8822     		movs	r2, #136
 207 0002 0121     		movs	r1, #1
 208 0004 FFF7FEBF 		b	SX1278_SPIWrite
 210              		.global	__aeabi_uldivmod
 211              		.section	.text.SX1278_config,"ax",%progbits
 212              		.align	1
 213              		.global	SX1278_config
 214              		.syntax unified
 215              		.thumb
 216              		.thumb_func
 218              	SX1278_config:
 219              		@ args = 0, pretend = 0, frame = 8
 220              		@ frame_needed = 0, uses_anonymous_args = 0
 221 0000 73B5     		push	{r0, r1, r4, r5, r6, lr}
 222 0002 0446     		mov	r4, r0
 223 0004 FFF7FEFF 		bl	SX1278_sleep
 224 0008 0F20     		movs	r0, #15
 225 000a FFF7FEFF 		bl	SX1278_hw_DelayMs
 226 000e 2046     		mov	r0, r4
 227 0010 FFF7FEFF 		bl	SX1278_entryLoRa
 228 0014 D4E90253 		ldrd	r5, r3, [r4, #8]
 229 0018 D904     		lsls	r1, r3, #19
 230 001a 484A     		ldr	r2, .L19
 231 001c 484E     		ldr	r6, .L19+4
 232 001e 0023     		movs	r3, #0
 233 0020 E804     		lsls	r0, r5, #19
 234 0022 41EA5531 		orr	r1, r1, r5, lsr #13
 235 0026 FFF7FEFF 		bl	__aeabi_uldivmod
 236 002a 030C     		lsrs	r3, r0, #16
 237 002c 8DF80430 		strb	r3, [sp, #4]
 238 0030 030A     		lsrs	r3, r0, #8
 239 0032 8DF80530 		strb	r3, [sp, #5]
 240 0036 8DF80600 		strb	r0, [sp, #6]
 241 003a 0323     		movs	r3, #3
 242 003c 01AA     		add	r2, sp, #4
 243 003e 0621     		movs	r1, #6
 244 0040 2046     		mov	r0, r4
 245 0042 FFF7FEFF 		bl	SX1278_SPIBurstWrite.part.0
ARM GAS  C:\Users\CL\AppData\Local\Temp\cc68DuQY.s 			page 5


 246 0046 3422     		movs	r2, #52
 247 0048 3921     		movs	r1, #57
 248 004a 2046     		mov	r0, r4
 249 004c FFF7FEFF 		bl	SX1278_SPIWrite
 250 0050 237C     		ldrb	r3, [r4, #16]	@ zero_extendqisi2
 251 0052 3C4A     		ldr	r2, .L19+8
 252 0054 3C4D     		ldr	r5, .L19+12
 253 0056 D25C     		ldrb	r2, [r2, r3]	@ zero_extendqisi2
 254 0058 0921     		movs	r1, #9
 255 005a 2046     		mov	r0, r4
 256 005c FFF7FEFF 		bl	SX1278_SPIWrite
 257 0060 0B22     		movs	r2, #11
 258 0062 1146     		mov	r1, r2
 259 0064 2046     		mov	r0, r4
 260 0066 FFF7FEFF 		bl	SX1278_SPIWrite
 261 006a 2322     		movs	r2, #35
 262 006c 0C21     		movs	r1, #12
 263 006e 2046     		mov	r0, r4
 264 0070 FFF7FEFF 		bl	SX1278_SPIWrite
 265 0074 637C     		ldrb	r3, [r4, #17]	@ zero_extendqisi2
 266 0076 A27C     		ldrb	r2, [r4, #18]	@ zero_extendqisi2
 267 0078 F35C     		ldrb	r3, [r6, r3]	@ zero_extendqisi2
 268 007a 3448     		ldr	r0, .L19+16
 269 007c 3449     		ldr	r1, .L19+20
 270 007e 805C     		ldrb	r0, [r0, r2]	@ zero_extendqisi2
 271 0080 062B     		cmp	r3, #6
 272 0082 E37C     		ldrb	r3, [r4, #19]	@ zero_extendqisi2
 273 0084 CA5C     		ldrb	r2, [r1, r3]	@ zero_extendqisi2
 274 0086 4FEA4202 		lsl	r2, r2, #1
 275 008a 02EB0012 		add	r2, r2, r0, lsl #4
 276 008e 44D1     		bne	.L16
 277 0090 0132     		adds	r2, r2, #1
 278 0092 D2B2     		uxtb	r2, r2
 279 0094 1D21     		movs	r1, #29
 280 0096 2046     		mov	r0, r4
 281 0098 FFF7FEFF 		bl	SX1278_SPIWrite
 282 009c 227D     		ldrb	r2, [r4, #20]	@ zero_extendqisi2
 283 009e 637C     		ldrb	r3, [r4, #17]	@ zero_extendqisi2
 284 00a0 AA5C     		ldrb	r2, [r5, r2]	@ zero_extendqisi2
 285 00a2 F35C     		ldrb	r3, [r6, r3]	@ zero_extendqisi2
 286 00a4 9200     		lsls	r2, r2, #2
 287 00a6 02EB0312 		add	r2, r2, r3, lsl #4
 288 00aa 0332     		adds	r2, r2, #3
 289 00ac D2B2     		uxtb	r2, r2
 290 00ae 1E21     		movs	r1, #30
 291 00b0 2046     		mov	r0, r4
 292 00b2 FFF7FEFF 		bl	SX1278_SPIWrite
 293 00b6 3121     		movs	r1, #49
 294 00b8 2046     		mov	r0, r4
 295 00ba FFF7FEFF 		bl	SX1278_SPIRead
 296 00be 00F0F800 		and	r0, r0, #248
 297 00c2 40F00502 		orr	r2, r0, #5
 298 00c6 3121     		movs	r1, #49
 299 00c8 2046     		mov	r0, r4
 300 00ca FFF7FEFF 		bl	SX1278_SPIWrite
 301 00ce 0C22     		movs	r2, #12
 302 00d0 3721     		movs	r1, #55
ARM GAS  C:\Users\CL\AppData\Local\Temp\cc68DuQY.s 			page 6


 303              	.L18:
 304 00d2 2046     		mov	r0, r4
 305 00d4 FFF7FEFF 		bl	SX1278_SPIWrite
 306 00d8 2046     		mov	r0, r4
 307 00da 0422     		movs	r2, #4
 308 00dc 2621     		movs	r1, #38
 309 00de FFF7FEFF 		bl	SX1278_SPIWrite
 310 00e2 2046     		mov	r0, r4
 311 00e4 0822     		movs	r2, #8
 312 00e6 1F21     		movs	r1, #31
 313 00e8 FFF7FEFF 		bl	SX1278_SPIWrite
 314 00ec 2046     		mov	r0, r4
 315 00ee 0022     		movs	r2, #0
 316 00f0 2021     		movs	r1, #32
 317 00f2 FFF7FEFF 		bl	SX1278_SPIWrite
 318 00f6 2046     		mov	r0, r4
 319 00f8 0822     		movs	r2, #8
 320 00fa 2121     		movs	r1, #33
 321 00fc FFF7FEFF 		bl	SX1278_SPIWrite
 322 0100 0122     		movs	r2, #1
 323 0102 4121     		movs	r1, #65
 324 0104 2046     		mov	r0, r4
 325 0106 FFF7FEFF 		bl	SX1278_SPIWrite
 326 010a 0023     		movs	r3, #0
 327 010c 84F81731 		strb	r3, [r4, #279]
 328 0110 2046     		mov	r0, r4
 329 0112 FFF7FEFF 		bl	SX1278_standby
 330 0116 02B0     		add	sp, sp, #8
 331              		@ sp needed
 332 0118 70BD     		pop	{r4, r5, r6, pc}
 333              	.L16:
 334 011a 02F0FE02 		and	r2, r2, #254
 335 011e 1D21     		movs	r1, #29
 336 0120 2046     		mov	r0, r4
 337 0122 FFF7FEFF 		bl	SX1278_SPIWrite
 338 0126 227D     		ldrb	r2, [r4, #20]	@ zero_extendqisi2
 339 0128 637C     		ldrb	r3, [r4, #17]	@ zero_extendqisi2
 340 012a AA5C     		ldrb	r2, [r5, r2]	@ zero_extendqisi2
 341 012c F35C     		ldrb	r3, [r6, r3]	@ zero_extendqisi2
 342 012e 9200     		lsls	r2, r2, #2
 343 0130 02EB0312 		add	r2, r2, r3, lsl #4
 344 0134 02F0FC02 		and	r2, r2, #252
 345 0138 1E21     		movs	r1, #30
 346 013a CAE7     		b	.L18
 347              	.L20:
 348              		.align	2
 349              	.L19:
 350 013c 0048E801 		.word	32000000
 351 0140 00000000 		.word	.LANCHOR1
 352 0144 00000000 		.word	.LANCHOR0
 353 0148 00000000 		.word	.LANCHOR4
 354 014c 00000000 		.word	.LANCHOR2
 355 0150 00000000 		.word	.LANCHOR3
 357              		.section	.text.SX1278_clearLoRaIrq,"ax",%progbits
 358              		.align	1
 359              		.global	SX1278_clearLoRaIrq
 360              		.syntax unified
ARM GAS  C:\Users\CL\AppData\Local\Temp\cc68DuQY.s 			page 7


 361              		.thumb
 362              		.thumb_func
 364              	SX1278_clearLoRaIrq:
 365              		@ args = 0, pretend = 0, frame = 0
 366              		@ frame_needed = 0, uses_anonymous_args = 0
 367              		@ link register save eliminated.
 368 0000 FF22     		movs	r2, #255
 369 0002 1221     		movs	r1, #18
 370 0004 FFF7FEBF 		b	SX1278_SPIWrite
 372              		.section	.text.SX1278_LoRaEntryRx,"ax",%progbits
 373              		.align	1
 374              		.global	SX1278_LoRaEntryRx
 375              		.syntax unified
 376              		.thumb
 377              		.thumb_func
 379              	SX1278_LoRaEntryRx:
 380              		@ args = 0, pretend = 0, frame = 0
 381              		@ frame_needed = 0, uses_anonymous_args = 0
 382 0000 70B5     		push	{r4, r5, r6, lr}
 383 0002 0446     		mov	r4, r0
 384 0004 4175     		strb	r1, [r0, #21]
 385 0006 0E46     		mov	r6, r1
 386 0008 1546     		mov	r5, r2
 387 000a FFF7FEFF 		bl	SX1278_config
 388 000e 8422     		movs	r2, #132
 389 0010 4D21     		movs	r1, #77
 390 0012 2046     		mov	r0, r4
 391 0014 FFF7FEFF 		bl	SX1278_SPIWrite
 392 0018 FF22     		movs	r2, #255
 393 001a 2421     		movs	r1, #36
 394 001c 2046     		mov	r0, r4
 395 001e FFF7FEFF 		bl	SX1278_SPIWrite
 396 0022 0122     		movs	r2, #1
 397 0024 4021     		movs	r1, #64
 398 0026 2046     		mov	r0, r4
 399 0028 FFF7FEFF 		bl	SX1278_SPIWrite
 400 002c 3F22     		movs	r2, #63
 401 002e 1121     		movs	r1, #17
 402 0030 2046     		mov	r0, r4
 403 0032 FFF7FEFF 		bl	SX1278_SPIWrite
 404 0036 2046     		mov	r0, r4
 405 0038 FFF7FEFF 		bl	SX1278_clearLoRaIrq
 406 003c 3246     		mov	r2, r6
 407 003e 2221     		movs	r1, #34
 408 0040 2046     		mov	r0, r4
 409 0042 FFF7FEFF 		bl	SX1278_SPIWrite
 410 0046 0F21     		movs	r1, #15
 411 0048 2046     		mov	r0, r4
 412 004a FFF7FEFF 		bl	SX1278_SPIRead
 413 004e 0D21     		movs	r1, #13
 414 0050 0246     		mov	r2, r0
 415 0052 2046     		mov	r0, r4
 416 0054 FFF7FEFF 		bl	SX1278_SPIWrite
 417 0058 8D22     		movs	r2, #141
 418 005a 0121     		movs	r1, #1
 419 005c 2046     		mov	r0, r4
 420 005e FFF7FEFF 		bl	SX1278_SPIWrite
ARM GAS  C:\Users\CL\AppData\Local\Temp\cc68DuQY.s 			page 8


 421 0062 0023     		movs	r3, #0
 422 0064 84F81731 		strb	r3, [r4, #279]
 423              	.L26:
 424 0068 1821     		movs	r1, #24
 425 006a 2046     		mov	r0, r4
 426 006c FFF7FEFF 		bl	SX1278_SPIRead
 427 0070 4307     		lsls	r3, r0, #29
 428 0072 03D5     		bpl	.L23
 429 0074 0323     		movs	r3, #3
 430 0076 A375     		strb	r3, [r4, #22]
 431 0078 0120     		movs	r0, #1
 432              	.L22:
 433 007a 70BD     		pop	{r4, r5, r6, pc}
 434              	.L23:
 435 007c 013D     		subs	r5, r5, #1
 436 007e 07D1     		bne	.L25
 437 0080 2068     		ldr	r0, [r4]
 438 0082 FFF7FEFF 		bl	SX1278_hw_Reset
 439 0086 2046     		mov	r0, r4
 440 0088 FFF7FEFF 		bl	SX1278_config
 441 008c 2846     		mov	r0, r5
 442 008e F4E7     		b	.L22
 443              	.L25:
 444 0090 0120     		movs	r0, #1
 445 0092 FFF7FEFF 		bl	SX1278_hw_DelayMs
 446 0096 E7E7     		b	.L26
 448              		.section	.rodata.SX1278_LoRaRxPacket.str1.1,"aMS",%progbits,1
 449              	.LC0:
 450 0000 4C6F7261 		.ascii	"Lora%d has received %dbytes,\015\012Rx_Str:%s\015\012"
 450      25642068 
 450      61732072 
 450      65636569 
 450      76656420 
 451 0029 4C6F7261 		.ascii	"Lora%d RX Test OK\015\012\000"
 451      25642052 
 451      58205465 
 451      7374204F 
 451      4B0D0A00 
 452              		.section	.text.SX1278_LoRaRxPacket,"ax",%progbits
 453              		.align	1
 454              		.global	SX1278_LoRaRxPacket
 455              		.syntax unified
 456              		.thumb
 457              		.thumb_func
 459              	SX1278_LoRaRxPacket:
 460              		@ args = 0, pretend = 0, frame = 0
 461              		@ frame_needed = 0, uses_anonymous_args = 0
 462 0000 73B5     		push	{r0, r1, r4, r5, r6, lr}
 463 0002 0546     		mov	r5, r0
 464 0004 0446     		mov	r4, r0
 465 0006 55F8170B 		ldr	r0, [r5], #23
 466 000a FFF7FEFF 		bl	SX1278_hw_GetDIO0
 467 000e E0B1     		cbz	r0, .L28
 468 0010 4FF48072 		mov	r2, #256
 469 0014 0021     		movs	r1, #0
 470 0016 2846     		mov	r0, r5
 471 0018 FFF7FEFF 		bl	memset
ARM GAS  C:\Users\CL\AppData\Local\Temp\cc68DuQY.s 			page 9


 472 001c 1021     		movs	r1, #16
 473 001e 2046     		mov	r0, r4
 474 0020 FFF7FEFF 		bl	SX1278_SPIRead
 475 0024 0D21     		movs	r1, #13
 476 0026 0246     		mov	r2, r0
 477 0028 2046     		mov	r0, r4
 478 002a FFF7FEFF 		bl	SX1278_SPIWrite
 479 002e 637C     		ldrb	r3, [r4, #17]	@ zero_extendqisi2
 480 0030 13BB     		cbnz	r3, .L29
 481 0032 667D     		ldrb	r6, [r4, #21]	@ zero_extendqisi2
 482              	.L30:
 483 0034 2046     		mov	r0, r4
 484 0036 3346     		mov	r3, r6
 485 0038 2A46     		mov	r2, r5
 486 003a 0021     		movs	r1, #0
 487 003c FFF7FEFF 		bl	SX1278_SPIBurstRead
 488 0040 84F81761 		strb	r6, [r4, #279]
 489 0044 2046     		mov	r0, r4
 490 0046 FFF7FEFF 		bl	SX1278_clearLoRaIrq
 491              	.L28:
 492 004a 0E4A     		ldr	r2, .L34
 493 004c 0E49     		ldr	r1, .L34+4
 494 004e 0F48     		ldr	r0, .L34+8
 495 0050 A21A     		subs	r2, r4, r2
 496 0052 4FF48C73 		mov	r3, #280
 497 0056 B2FBF3F2 		udiv	r2, r2, r3
 498 005a D2B2     		uxtb	r2, r2
 499 005c CDE90052 		strd	r5, r2, [sp]
 500 0060 94F81731 		ldrb	r3, [r4, #279]	@ zero_extendqisi2
 501 0064 FFF7FEFF 		bl	shellPrint
 502 0068 094A     		ldr	r2, .L34+12
 503 006a 94F81701 		ldrb	r0, [r4, #279]	@ zero_extendqisi2
 504 006e 1378     		ldrb	r3, [r2]	@ zero_extendqisi2
 505 0070 0133     		adds	r3, r3, #1
 506 0072 1370     		strb	r3, [r2]
 507 0074 02B0     		add	sp, sp, #8
 508              		@ sp needed
 509 0076 70BD     		pop	{r4, r5, r6, pc}
 510              	.L29:
 511 0078 1321     		movs	r1, #19
 512 007a 2046     		mov	r0, r4
 513 007c FFF7FEFF 		bl	SX1278_SPIRead
 514 0080 0646     		mov	r6, r0
 515 0082 D7E7     		b	.L30
 516              	.L35:
 517              		.align	2
 518              	.L34:
 519 0084 00000000 		.word	.LANCHOR5
 520 0088 00000000 		.word	.LC0
 521 008c 00000000 		.word	shell
 522 0090 00000000 		.word	test_ok_cnt
 524              		.section	.text.SX1278_DIO0IRQ_Handler,"ax",%progbits
 525              		.align	1
 526              		.global	SX1278_DIO0IRQ_Handler
 527              		.syntax unified
 528              		.thumb
 529              		.thumb_func
ARM GAS  C:\Users\CL\AppData\Local\Temp\cc68DuQY.s 			page 10


 531              	SX1278_DIO0IRQ_Handler:
 532              		@ args = 0, pretend = 0, frame = 0
 533              		@ frame_needed = 0, uses_anonymous_args = 0
 534              		@ link register save eliminated.
 535 0000 837D     		ldrb	r3, [r0, #22]	@ zero_extendqisi2
 536 0002 032B     		cmp	r3, #3
 537 0004 01D1     		bne	.L36
 538 0006 FFF7FEBF 		b	SX1278_LoRaRxPacket
 539              	.L36:
 540 000a 7047     		bx	lr
 542              		.section	.text.SX1278_LoRaEntryTx,"ax",%progbits
 543              		.align	1
 544              		.global	SX1278_LoRaEntryTx
 545              		.syntax unified
 546              		.thumb
 547              		.thumb_func
 549              	SX1278_LoRaEntryTx:
 550              		@ args = 0, pretend = 0, frame = 0
 551              		@ frame_needed = 0, uses_anonymous_args = 0
 552 0000 70B5     		push	{r4, r5, r6, lr}
 553 0002 0446     		mov	r4, r0
 554 0004 4175     		strb	r1, [r0, #21]
 555 0006 0E46     		mov	r6, r1
 556 0008 1546     		mov	r5, r2
 557 000a FFF7FEFF 		bl	SX1278_config
 558 000e 8722     		movs	r2, #135
 559 0010 4D21     		movs	r1, #77
 560 0012 2046     		mov	r0, r4
 561 0014 FFF7FEFF 		bl	SX1278_SPIWrite
 562 0018 0022     		movs	r2, #0
 563 001a 2421     		movs	r1, #36
 564 001c 2046     		mov	r0, r4
 565 001e FFF7FEFF 		bl	SX1278_SPIWrite
 566 0022 4122     		movs	r2, #65
 567 0024 4021     		movs	r1, #64
 568 0026 2046     		mov	r0, r4
 569 0028 FFF7FEFF 		bl	SX1278_SPIWrite
 570 002c 2046     		mov	r0, r4
 571 002e FFF7FEFF 		bl	SX1278_clearLoRaIrq
 572 0032 F722     		movs	r2, #247
 573 0034 1121     		movs	r1, #17
 574 0036 2046     		mov	r0, r4
 575 0038 FFF7FEFF 		bl	SX1278_SPIWrite
 576 003c 3246     		mov	r2, r6
 577 003e 2221     		movs	r1, #34
 578 0040 2046     		mov	r0, r4
 579 0042 FFF7FEFF 		bl	SX1278_SPIWrite
 580 0046 0E21     		movs	r1, #14
 581 0048 2046     		mov	r0, r4
 582 004a FFF7FEFF 		bl	SX1278_SPIRead
 583 004e 0D21     		movs	r1, #13
 584 0050 0246     		mov	r2, r0
 585 0052 2046     		mov	r0, r4
 586 0054 FFF7FEFF 		bl	SX1278_SPIWrite
 587              	.L41:
 588 0058 2221     		movs	r1, #34
 589 005a 2046     		mov	r0, r4
ARM GAS  C:\Users\CL\AppData\Local\Temp\cc68DuQY.s 			page 11


 590 005c FFF7FEFF 		bl	SX1278_SPIRead
 591 0060 8642     		cmp	r6, r0
 592 0062 03D1     		bne	.L39
 593 0064 0223     		movs	r3, #2
 594 0066 A375     		strb	r3, [r4, #22]
 595 0068 0120     		movs	r0, #1
 596              	.L38:
 597 006a 70BD     		pop	{r4, r5, r6, pc}
 598              	.L39:
 599 006c 013D     		subs	r5, r5, #1
 600 006e F3D1     		bne	.L41
 601 0070 2068     		ldr	r0, [r4]
 602 0072 FFF7FEFF 		bl	SX1278_hw_Reset
 603 0076 2046     		mov	r0, r4
 604 0078 FFF7FEFF 		bl	SX1278_config
 605 007c 2846     		mov	r0, r5
 606 007e F4E7     		b	.L38
 608              		.section	.text.SX1278_LoRaTxPacket,"ax",%progbits
 609              		.align	1
 610              		.global	SX1278_LoRaTxPacket
 611              		.syntax unified
 612              		.thumb
 613              		.thumb_func
 615              	SX1278_LoRaTxPacket:
 616              		@ args = 0, pretend = 0, frame = 0
 617              		@ frame_needed = 0, uses_anonymous_args = 0
 618 0000 70B5     		push	{r4, r5, r6, lr}
 619 0002 0446     		mov	r4, r0
 620 0004 1E46     		mov	r6, r3
 621 0006 1346     		mov	r3, r2
 622 0008 0A46     		mov	r2, r1
 623 000a 0021     		movs	r1, #0
 624 000c FFF7FEFF 		bl	SX1278_SPIBurstWrite
 625 0010 2046     		mov	r0, r4
 626 0012 8B22     		movs	r2, #139
 627 0014 0121     		movs	r1, #1
 628 0016 FFF7FEFF 		bl	SX1278_SPIWrite
 629 001a 4FF49670 		mov	r0, #300
 630              	.L48:
 631 001e FFF7FEFF 		bl	SX1278_hw_DelayMs
 632 0022 2068     		ldr	r0, [r4]
 633 0024 FFF7FEFF 		bl	SX1278_hw_GetDIO0
 634 0028 0546     		mov	r5, r0
 635 002a 60B1     		cbz	r0, .L44
 636 002c 1221     		movs	r1, #18
 637 002e 2046     		mov	r0, r4
 638 0030 FFF7FEFF 		bl	SX1278_SPIRead
 639 0034 2046     		mov	r0, r4
 640 0036 FFF7FEFF 		bl	SX1278_clearLoRaIrq
 641 003a 2046     		mov	r0, r4
 642 003c FFF7FEFF 		bl	SX1278_standby
 643 0040 0125     		movs	r5, #1
 644              	.L43:
 645 0042 2846     		mov	r0, r5
 646 0044 70BD     		pop	{r4, r5, r6, pc}
 647              	.L44:
 648 0046 013E     		subs	r6, r6, #1
ARM GAS  C:\Users\CL\AppData\Local\Temp\cc68DuQY.s 			page 12


 649 0048 06D1     		bne	.L46
 650 004a 2068     		ldr	r0, [r4]
 651 004c FFF7FEFF 		bl	SX1278_hw_Reset
 652 0050 2046     		mov	r0, r4
 653 0052 FFF7FEFF 		bl	SX1278_config
 654 0056 F4E7     		b	.L43
 655              	.L46:
 656 0058 0120     		movs	r0, #1
 657 005a E0E7     		b	.L48
 659              		.section	.text.SX1278_init,"ax",%progbits
 660              		.align	1
 661              		.global	SX1278_init
 662              		.syntax unified
 663              		.thumb
 664              		.thumb_func
 666              	SX1278_init:
 667              		@ args = 24, pretend = 0, frame = 8
 668              		@ frame_needed = 0, uses_anonymous_args = 0
 669 0000 2DE9F74F 		push	{r0, r1, r2, r4, r5, r6, r7, r8, r9, r10, fp, lr}
 670 0004 0446     		mov	r4, r0
 671 0006 1D46     		mov	r5, r3
 672 0008 0068     		ldr	r0, [r0]
 673 000a 9DF83030 		ldrb	r3, [sp, #48]	@ zero_extendqisi2
 674 000e 9DF834B0 		ldrb	fp, [sp, #52]	@ zero_extendqisi2
 675 0012 9DF838A0 		ldrb	r10, [sp, #56]	@ zero_extendqisi2
 676 0016 9DF83C90 		ldrb	r9, [sp, #60]	@ zero_extendqisi2
 677 001a 9DF84080 		ldrb	r8, [sp, #64]	@ zero_extendqisi2
 678 001e 9DF84470 		ldrb	r7, [sp, #68]	@ zero_extendqisi2
 679 0022 0193     		str	r3, [sp, #4]
 680 0024 1646     		mov	r6, r2
 681 0026 FFF7FEFF 		bl	SX1278_hw_init
 682 002a 019B     		ldr	r3, [sp, #4]
 683 002c 2374     		strb	r3, [r4, #16]
 684 002e 2046     		mov	r0, r4
 685 0030 C4E90265 		strd	r6, r5, [r4, #8]
 686 0034 84F811B0 		strb	fp, [r4, #17]
 687 0038 84F812A0 		strb	r10, [r4, #18]
 688 003c 84F81390 		strb	r9, [r4, #19]
 689 0040 84F81480 		strb	r8, [r4, #20]
 690 0044 6775     		strb	r7, [r4, #21]
 691 0046 03B0     		add	sp, sp, #12
 692              		@ sp needed
 693 0048 BDE8F04F 		pop	{r4, r5, r6, r7, r8, r9, r10, fp, lr}
 694 004c FFF7FEBF 		b	SX1278_config
 696              		.section	.text.SX1278_transmit,"ax",%progbits
 697              		.align	1
 698              		.global	SX1278_transmit
 699              		.syntax unified
 700              		.thumb
 701              		.thumb_func
 703              	SX1278_transmit:
 704              		@ args = 0, pretend = 0, frame = 8
 705              		@ frame_needed = 0, uses_anonymous_args = 0
 706 0000 73B5     		push	{r0, r1, r4, r5, r6, lr}
 707 0002 1446     		mov	r4, r2
 708 0004 0E46     		mov	r6, r1
 709 0006 1A46     		mov	r2, r3
ARM GAS  C:\Users\CL\AppData\Local\Temp\cc68DuQY.s 			page 13


 710 0008 2146     		mov	r1, r4
 711 000a 0193     		str	r3, [sp, #4]
 712 000c 0546     		mov	r5, r0
 713 000e FFF7FEFF 		bl	SX1278_LoRaEntryTx
 714 0012 019B     		ldr	r3, [sp, #4]
 715 0014 38B1     		cbz	r0, .L50
 716 0016 2246     		mov	r2, r4
 717 0018 3146     		mov	r1, r6
 718 001a 2846     		mov	r0, r5
 719 001c 02B0     		add	sp, sp, #8
 720              		@ sp needed
 721 001e BDE87040 		pop	{r4, r5, r6, lr}
 722 0022 FFF7FEBF 		b	SX1278_LoRaTxPacket
 723              	.L50:
 724 0026 02B0     		add	sp, sp, #8
 725              		@ sp needed
 726 0028 70BD     		pop	{r4, r5, r6, pc}
 728              		.section	.text.SX1278_receive,"ax",%progbits
 729              		.align	1
 730              		.global	SX1278_receive
 731              		.syntax unified
 732              		.thumb
 733              		.thumb_func
 735              	SX1278_receive:
 736              		@ args = 0, pretend = 0, frame = 0
 737              		@ frame_needed = 0, uses_anonymous_args = 0
 738              		@ link register save eliminated.
 739 0000 FFF7FEBF 		b	SX1278_LoRaEntryRx
 741              		.section	.rodata.LORA_Send.str1.1,"aMS",%progbits,1
 742              	.LC1:
 743 0000 4C6F7261 		.ascii	"Lora %d TX Test OK\015\012\000"
 743      20256420 
 743      54582054 
 743      65737420 
 743      4F4B0D0A 
 744              	.LC2:
 745 0015 4C6F7261 		.ascii	"Lora %d TX Test Failed\015\012\000"
 745      20256420 
 745      54582054 
 745      65737420 
 745      4661696C 
 746              		.section	.text.LORA_Send,"ax",%progbits
 747              		.align	1
 748              		.global	LORA_Send
 749              		.syntax unified
 750              		.thumb
 751              		.thumb_func
 753              	LORA_Send:
 754              		@ args = 0, pretend = 0, frame = 16
 755              		@ frame_needed = 0, uses_anonymous_args = 0
 756 0000 7FB5     		push	{r0, r1, r2, r3, r4, r5, r6, lr}
 757 0002 0446     		mov	r4, r0
 758 0004 0846     		mov	r0, r1
 759 0006 0291     		str	r1, [sp, #8]
 760 0008 0392     		str	r2, [sp, #12]
 761 000a FFF7FEFF 		bl	strlen
 762 000e C2B2     		uxtb	r2, r0
ARM GAS  C:\Users\CL\AppData\Local\Temp\cc68DuQY.s 			page 14


 763 0010 1046     		mov	r0, r2
 764 0012 0192     		str	r2, [sp, #4]
 765 0014 FFF7FEFF 		bl	malloc
 766 0018 114D     		ldr	r5, .L57
 767 001a DDE90121 		ldrd	r2, r1, [sp, #4]
 768 001e 0646     		mov	r6, r0
 769 0020 FFF7FEFF 		bl	memcpy
 770 0024 4FF48C71 		mov	r1, #280
 771 0028 01FB0455 		mla	r5, r1, r4, r5
 772 002c 019A     		ldr	r2, [sp, #4]
 773 002e 039B     		ldr	r3, [sp, #12]
 774 0030 3146     		mov	r1, r6
 775 0032 2846     		mov	r0, r5
 776 0034 FFF7FEFF 		bl	SX1278_transmit
 777 0038 2246     		mov	r2, r4
 778 003a 70B1     		cbz	r0, .L54
 779 003c 0949     		ldr	r1, .L57+4
 780              	.L56:
 781 003e 0A48     		ldr	r0, .L57+8
 782 0040 FFF7FEFF 		bl	shellPrint
 783 0044 3046     		mov	r0, r6
 784 0046 FFF7FEFF 		bl	free
 785 004a 6422     		movs	r2, #100
 786 004c 1146     		mov	r1, r2
 787 004e 2846     		mov	r0, r5
 788 0050 04B0     		add	sp, sp, #16
 789              		@ sp needed
 790 0052 BDE87040 		pop	{r4, r5, r6, lr}
 791 0056 FFF7FEBF 		b	SX1278_receive
 792              	.L54:
 793 005a 0449     		ldr	r1, .L57+12
 794 005c EFE7     		b	.L56
 795              	.L58:
 796 005e 00BF     		.align	2
 797              	.L57:
 798 0060 00000000 		.word	.LANCHOR5
 799 0064 00000000 		.word	.LC1
 800 0068 00000000 		.word	shell
 801 006c 15000000 		.word	.LC2
 803              		.section	.text.SX1278_available,"ax",%progbits
 804              		.align	1
 805              		.global	SX1278_available
 806              		.syntax unified
 807              		.thumb
 808              		.thumb_func
 810              	SX1278_available:
 811              		@ args = 0, pretend = 0, frame = 0
 812              		@ frame_needed = 0, uses_anonymous_args = 0
 813              		@ link register save eliminated.
 814 0000 FFF7FEBF 		b	SX1278_LoRaRxPacket
 816              		.section	.text.SX1278_read,"ax",%progbits
 817              		.align	1
 818              		.global	SX1278_read
 819              		.syntax unified
 820              		.thumb
 821              		.thumb_func
 823              	SX1278_read:
ARM GAS  C:\Users\CL\AppData\Local\Temp\cc68DuQY.s 			page 15


 824              		@ args = 0, pretend = 0, frame = 0
 825              		@ frame_needed = 0, uses_anonymous_args = 0
 826 0000 38B5     		push	{r3, r4, r5, lr}
 827 0002 90F81751 		ldrb	r5, [r0, #279]	@ zero_extendqisi2
 828 0006 0B46     		mov	r3, r1
 829 0008 0446     		mov	r4, r0
 830 000a 2A46     		mov	r2, r5
 831 000c 00F11701 		add	r1, r0, #23
 832 0010 1846     		mov	r0, r3
 833 0012 FFF7FEFF 		bl	memcpy
 834 0016 0022     		movs	r2, #0
 835 0018 4255     		strb	r2, [r0, r5]
 836 001a 84F81721 		strb	r2, [r4, #279]
 837 001e 2846     		mov	r0, r5
 838 0020 38BD     		pop	{r3, r4, r5, pc}
 840              		.section	.text.SX1278_RSSI_LoRa,"ax",%progbits
 841              		.align	1
 842              		.global	SX1278_RSSI_LoRa
 843              		.syntax unified
 844              		.thumb
 845              		.thumb_func
 847              	SX1278_RSSI_LoRa:
 848              		@ args = 0, pretend = 0, frame = 0
 849              		@ frame_needed = 0, uses_anonymous_args = 0
 850 0000 08B5     		push	{r3, lr}
 851 0002 1B21     		movs	r1, #27
 852 0004 FFF7FEFF 		bl	SX1278_SPIRead
 853 0008 0A38     		subs	r0, r0, #10
 854 000a C0B2     		uxtb	r0, r0
 855 000c 08BD     		pop	{r3, pc}
 857              		.section	.text.SX1278_RSSI,"ax",%progbits
 858              		.align	1
 859              		.global	SX1278_RSSI
 860              		.syntax unified
 861              		.thumb
 862              		.thumb_func
 864              	SX1278_RSSI:
 865              		@ args = 0, pretend = 0, frame = 0
 866              		@ frame_needed = 0, uses_anonymous_args = 0
 867 0000 08B5     		push	{r3, lr}
 868 0002 1121     		movs	r1, #17
 869 0004 FFF7FEFF 		bl	SX1278_SPIRead
 870 0008 C0F34700 		ubfx	r0, r0, #1, #8
 871 000c C0F17F00 		rsb	r0, r0, #127
 872 0010 C0B2     		uxtb	r0, r0
 873 0012 08BD     		pop	{r3, pc}
 875              		.global	shellCommandlora_test
 876              		.global	shellDesclora_test
 877              		.global	shellCmdlora_test
 878              		.global	Lora_dev
 879              		.section	.data.Lora_dev,"aw"
 880              		.align	3
 881              		.set	.LANCHOR5,. + 0
 884              	Lora_dev:
 885 0000 00000000 		.word	lora_dev_hw
 886 0004 00000000 		.space	4
 887 0008 40170C1A 		.word	437000000
ARM GAS  C:\Users\CL\AppData\Local\Temp\cc68DuQY.s 			page 16


 888 000c 00000000 		.word	0
 889 0010 14       		.byte	20
 890 0011 01       		.byte	1
 891 0012 02       		.byte	2
 892 0013 01       		.byte	1
 893 0014 00       		.byte	0
 894 0015 00       		.byte	0
 895 0016 00000000 		.space	257
 895      00000000 
 895      00000000 
 895      00000000 
 895      00000000 
 896 0117 00       		.byte	0
 897 0118 24000000 		.word	lora_dev_hw+36
 898 011c 00000000 		.space	4
 899 0120 40170C1A 		.word	437000000
 900 0124 00000000 		.word	0
 901 0128 14       		.byte	20
 902 0129 01       		.byte	1
 903 012a 02       		.byte	2
 904 012b 01       		.byte	1
 905 012c 00       		.byte	0
 906 012d 00       		.byte	0
 907 012e 00000000 		.space	257
 907      00000000 
 907      00000000 
 907      00000000 
 907      00000000 
 908 022f 00       		.byte	0
 909              		.section	.rodata.SX1278_CRC_Sum,"a"
 910              		.set	.LANCHOR4,. + 0
 913              	SX1278_CRC_Sum:
 914 0000 0100     		.ascii	"\001\000"
 915              		.section	.rodata.SX1278_CodingRate,"a"
 916              		.set	.LANCHOR3,. + 0
 919              	SX1278_CodingRate:
 920 0000 01020304 		.ascii	"\001\002\003\004"
 921              		.section	.rodata.SX1278_LoRaBandwidth,"a"
 922              		.set	.LANCHOR2,. + 0
 925              	SX1278_LoRaBandwidth:
 926 0000 00010203 		.ascii	"\000\001\002\003\004\005\006\007\010\011"
 926      04050607 
 926      0809
 927              		.section	.rodata.SX1278_Power,"a"
 928              		.set	.LANCHOR0,. + 0
 931              	SX1278_Power:
 932 0000 FFFCF9F6 		.ascii	"\377\374\371\366"
 933              		.section	.rodata.SX1278_SpreadFactor,"a"
 934              		.set	.LANCHOR1,. + 0
 937              	SX1278_SpreadFactor:
 938 0000 06070809 		.ascii	"\006\007\010\011\012\013\014"
 938      0A0B0C
 939              		.section	.rodata.shellCmdlora_test,"a"
 942              	shellCmdlora_test:
 943 0000 6C6F7261 		.ascii	"lora_test\000"
 943      5F746573 
 943      7400
ARM GAS  C:\Users\CL\AppData\Local\Temp\cc68DuQY.s 			page 17


 944              		.section	.rodata.shellDesclora_test,"a"
 947              	shellDesclora_test:
 948 0000 6C6F7261 		.ascii	"lora device send test\000"
 948      20646576 
 948      69636520 
 948      73656E64 
 948      20746573 
 949              		.section	shellCommand,"a"
 952              	shellCommandlora_test:
 953 0000 00210000 		.4byte	8448
 954 0004 00000000 		.4byte	shellCmdlora_test
 955 0008 00000000 		.4byte	LORA_Send
 956 000c 00000000 		.4byte	shellDesclora_test
 957              		.ident	"GCC: (GNU Arm Embedded Toolchain 10.3-2021.10) 10.3.1 20210824 (release)"
ARM GAS  C:\Users\CL\AppData\Local\Temp\cc68DuQY.s 			page 18

