ARM GAS  C:\Users\CL\AppData\Local\Temp\cc9dNt6C.s 			page 1


   1              		.cpu cortex-m4
   2              		.arch armv7e-m
   3              		.fpu fpv4-sp-d16
   4              		.eabi_attribute 27, 1
   5              		.eabi_attribute 28, 1
   6              		.eabi_attribute 20, 1
   7              		.eabi_attribute 21, 1
   8              		.eabi_attribute 23, 3
   9              		.eabi_attribute 24, 1
  10              		.eabi_attribute 25, 1
  11              		.eabi_attribute 26, 1
  12              		.eabi_attribute 30, 1
  13              		.eabi_attribute 34, 1
  14              		.eabi_attribute 18, 4
  15              		.file	"timer.c"
  16              		.text
  17              	.Ltext0:
  18              		.cfi_sections	.debug_frame
  19              		.section	.text.timer_init,"ax",%progbits
  20              		.align	1
  21              		.global	timer_init
  22              		.syntax unified
  23              		.thumb
  24              		.thumb_func
  26              	timer_init:
  27              	.LFB288:
  28              		.file 1 "HAL/Src/timer.c"
   1:HAL/Src/timer.c **** /**
   2:HAL/Src/timer.c ****  ******************************************************************************
   3:HAL/Src/timer.c **** *
   4:HAL/Src/timer.c **** * @file   
   5:HAL/Src/timer.c **** *
   6:HAL/Src/timer.c **** * @brief   
   7:HAL/Src/timer.c **** *
   8:HAL/Src/timer.c **** * @attention
   9:HAL/Src/timer.c **** *
  10:HAL/Src/timer.c **** *Copyright (c) 2023 JiuTong.
  11:HAL/Src/timer.c **** *
  12:HAL/Src/timer.c **** *All rights reserved.
  13:HAL/Src/timer.c ****  ******************************************************************************
  14:HAL/Src/timer.c **** */
  15:HAL/Src/timer.c **** 
  16:HAL/Src/timer.c **** /*----------------------------------include-----------------------------------*/
  17:HAL/Src/timer.c **** #include "timer.h"
  18:HAL/Src/timer.c **** /*-----------------------------------macro------------------------------------*/
  19:HAL/Src/timer.c **** 
  20:HAL/Src/timer.c **** /*----------------------------------typedef-----------------------------------*/
  21:HAL/Src/timer.c **** 
  22:HAL/Src/timer.c **** /*----------------------------------variable----------------------------------*/
  23:HAL/Src/timer.c **** uint32_t base_tick = 0; //定义定时基准tick
  24:HAL/Src/timer.c **** 
  25:HAL/Src/timer.c **** Timer_HandleTypeDef *timer_list = NULL;
  26:HAL/Src/timer.c **** /*-------------------------------------os-------------------------------------*/
  27:HAL/Src/timer.c **** 
  28:HAL/Src/timer.c **** /*----------------------------------function----------------------------------*/
  29:HAL/Src/timer.c **** /**
  30:HAL/Src/timer.c ****  * @brief 定时列表初始化函数
ARM GAS  C:\Users\CL\AppData\Local\Temp\cc9dNt6C.s 			page 2


  31:HAL/Src/timer.c ****  * 
  32:HAL/Src/timer.c ****  */
  33:HAL/Src/timer.c **** void timer_init(void){
  29              		.loc 1 33 22 view -0
  30              		.cfi_startproc
  31              		@ args = 0, pretend = 0, frame = 0
  32              		@ frame_needed = 0, uses_anonymous_args = 0
  33 0000 08B5     		push	{r3, lr}
  34              	.LCFI0:
  35              		.cfi_def_cfa_offset 8
  36              		.cfi_offset 3, -8
  37              		.cfi_offset 14, -4
  34:HAL/Src/timer.c ****     timer_list = (Timer_HandleTypeDef *)malloc(sizeof(Timer_HandleTypeDef));
  38              		.loc 1 34 5 view .LVU1
  39              		.loc 1 34 41 is_stmt 0 view .LVU2
  40 0002 1C20     		movs	r0, #28
  41 0004 FFF7FEFF 		bl	malloc
  42              	.LVL0:
  43              		.loc 1 34 16 view .LVU3
  44 0008 024B     		ldr	r3, .L3
  45 000a 1860     		str	r0, [r3]
  35:HAL/Src/timer.c ****     timer_list->next = NULL;
  46              		.loc 1 35 5 is_stmt 1 view .LVU4
  47              		.loc 1 35 22 is_stmt 0 view .LVU5
  48 000c 0023     		movs	r3, #0
  49 000e 8361     		str	r3, [r0, #24]
  36:HAL/Src/timer.c ****     timer_list->block = 0;
  50              		.loc 1 36 5 is_stmt 1 view .LVU6
  51              		.loc 1 36 23 is_stmt 0 view .LVU7
  52 0010 0370     		strb	r3, [r0]
  37:HAL/Src/timer.c **** }
  53              		.loc 1 37 1 view .LVU8
  54 0012 08BD     		pop	{r3, pc}
  55              	.L4:
  56              		.align	2
  57              	.L3:
  58 0014 00000000 		.word	.LANCHOR0
  59              		.cfi_endproc
  60              	.LFE288:
  62              		.section	.text.timer_update,"ax",%progbits
  63              		.align	1
  64              		.global	timer_update
  65              		.syntax unified
  66              		.thumb
  67              		.thumb_func
  69              	timer_update:
  70              	.LFB289:
  38:HAL/Src/timer.c **** /**
  39:HAL/Src/timer.c ****  * @brief 定时器更新函数
  40:HAL/Src/timer.c ****  *        需要将此函数作为定时触发中断的回调函数，定时更新base_tick
  41:HAL/Src/timer.c ****  *        每次更新后比较链表中是否有定时到达，触发对应回调函数
  42:HAL/Src/timer.c ****  * 
  43:HAL/Src/timer.c ****  */
  44:HAL/Src/timer.c **** void timer_update(void){
  71              		.loc 1 44 24 is_stmt 1 view -0
  72              		.cfi_startproc
  73              		@ args = 0, pretend = 0, frame = 0
ARM GAS  C:\Users\CL\AppData\Local\Temp\cc9dNt6C.s 			page 3


  74              		@ frame_needed = 0, uses_anonymous_args = 0
  45:HAL/Src/timer.c ****     base_tick++;
  75              		.loc 1 45 5 view .LVU10
  76              		.loc 1 45 14 is_stmt 0 view .LVU11
  77 0000 1E4A     		ldr	r2, .L23
  78 0002 1368     		ldr	r3, [r2]
  79 0004 0133     		adds	r3, r3, #1
  80 0006 1360     		str	r3, [r2]
  46:HAL/Src/timer.c ****     Timer_HandleTypeDef *p  = timer_list, *q = NULL;
  81              		.loc 1 46 5 is_stmt 1 view .LVU12
  82              		.loc 1 46 26 is_stmt 0 view .LVU13
  83 0008 1D4B     		ldr	r3, .L23+4
  84 000a 1B68     		ldr	r3, [r3]
  85              	.LVL1:
  47:HAL/Src/timer.c ****     if(timer_list->block == 0){
  86              		.loc 1 47 5 is_stmt 1 view .LVU14
  87              		.loc 1 47 18 is_stmt 0 view .LVU15
  88 000c 1A78     		ldrb	r2, [r3]	@ zero_extendqisi2
  89              		.loc 1 47 7 view .LVU16
  90 000e 002A     		cmp	r2, #0
  91 0010 32D0     		beq	.L18
  92 0012 7047     		bx	lr
  93              	.LVL2:
  94              	.L8:
  95              	.LCFI1:
  96              		.cfi_def_cfa_offset 8
  97              		.cfi_offset 4, -8
  98              		.cfi_offset 14, -4
  99              	.LBB2:
  48:HAL/Src/timer.c **** 
  49:HAL/Src/timer.c ****         while(p->next !=NULL){
  50:HAL/Src/timer.c ****             uint32_t err_tick;
  51:HAL/Src/timer.c ****             err_tick = base_tick > p->next->init_tick ?  (base_tick - p->next->init_tick) :  (0xFFF
 100              		.loc 1 51 127 discriminator 2 view .LVU17
 101 0014 521A     		subs	r2, r2, r1
 102              		.loc 1 51 91 discriminator 2 view .LVU18
 103 0016 013A     		subs	r2, r2, #1
 104              	.L9:
 105              	.LVL3:
  52:HAL/Src/timer.c ****             if(err_tick >= p->next->timeout){
 106              		.loc 1 52 13 is_stmt 1 discriminator 4 view .LVU19
 107              		.loc 1 52 35 is_stmt 0 discriminator 4 view .LVU20
 108 0018 9968     		ldr	r1, [r3, #8]
 109              		.loc 1 52 15 discriminator 4 view .LVU21
 110 001a 9142     		cmp	r1, r2
 111 001c 09D9     		bls	.L19
 112              	.LVL4:
 113              	.L10:
 114              		.loc 1 52 15 discriminator 4 view .LVU22
 115              	.LBE2:
  49:HAL/Src/timer.c ****             uint32_t err_tick;
 116              		.loc 1 49 14 is_stmt 1 view .LVU23
 117 001e 1C46     		mov	r4, r3
  49:HAL/Src/timer.c ****             uint32_t err_tick;
 118              		.loc 1 49 16 is_stmt 0 view .LVU24
 119 0020 9B69     		ldr	r3, [r3, #24]
 120              	.LVL5:
ARM GAS  C:\Users\CL\AppData\Local\Temp\cc9dNt6C.s 			page 4


  49:HAL/Src/timer.c ****             uint32_t err_tick;
 121              		.loc 1 49 14 view .LVU25
 122 0022 43B3     		cbz	r3, .L20
 123              	.LBB4:
  50:HAL/Src/timer.c ****             err_tick = base_tick > p->next->init_tick ?  (base_tick - p->next->init_tick) :  (0xFFF
 124              		.loc 1 50 13 is_stmt 1 view .LVU26
  51:HAL/Src/timer.c ****             if(err_tick >= p->next->timeout){
 125              		.loc 1 51 13 view .LVU27
  51:HAL/Src/timer.c ****             if(err_tick >= p->next->timeout){
 126              		.loc 1 51 43 is_stmt 0 view .LVU28
 127 0024 5968     		ldr	r1, [r3, #4]
  51:HAL/Src/timer.c ****             if(err_tick >= p->next->timeout){
 128              		.loc 1 51 34 view .LVU29
 129 0026 154A     		ldr	r2, .L23
 130 0028 1268     		ldr	r2, [r2]
  51:HAL/Src/timer.c ****             if(err_tick >= p->next->timeout){
 131              		.loc 1 51 91 view .LVU30
 132 002a 9142     		cmp	r1, r2
 133 002c F2D2     		bcs	.L8
  51:HAL/Src/timer.c ****             if(err_tick >= p->next->timeout){
 134              		.loc 1 51 91 discriminator 1 view .LVU31
 135 002e 521A     		subs	r2, r2, r1
 136 0030 F2E7     		b	.L9
 137              	.LVL6:
 138              	.L19:
  53:HAL/Src/timer.c ****                 //执行回调函数，回调函数要求时间尽可能短
  54:HAL/Src/timer.c ****                 if(p->next->func != NULL)
 139              		.loc 1 54 17 is_stmt 1 view .LVU32
 140              		.loc 1 54 27 is_stmt 0 view .LVU33
 141 0032 1A69     		ldr	r2, [r3, #16]
 142              	.LVL7:
 143              		.loc 1 54 19 view .LVU34
 144 0034 0AB1     		cbz	r2, .L11
  55:HAL/Src/timer.c ****                     p->next->func(p->next->param);
 145              		.loc 1 55 21 is_stmt 1 view .LVU35
 146 0036 5869     		ldr	r0, [r3, #20]
 147 0038 9047     		blx	r2
 148              	.LVL8:
 149              	.L11:
  56:HAL/Src/timer.c ****                 if(p->next->reenter_times == 0){
 150              		.loc 1 56 17 view .LVU36
 151              		.loc 1 56 21 is_stmt 0 view .LVU37
 152 003a A069     		ldr	r0, [r4, #24]
 153              		.loc 1 56 27 view .LVU38
 154 003c 90F90C30 		ldrsb	r3, [r0, #12]
 155              		.loc 1 56 19 view .LVU39
 156 0040 53B1     		cbz	r3, .L21
  57:HAL/Src/timer.c ****                     q = p->next;  
  58:HAL/Src/timer.c ****                     p->next = q->next;
  59:HAL/Src/timer.c ****                     q->func = NULL;
  60:HAL/Src/timer.c ****                     q->param = NULL;
  61:HAL/Src/timer.c ****                     q->next = NULL;
  62:HAL/Src/timer.c ****                     free(q);
  63:HAL/Src/timer.c ****                     q = NULL;
  64:HAL/Src/timer.c ****                 }
  65:HAL/Src/timer.c ****                 else if(p->next->reenter_times == -1){
 157              		.loc 1 65 22 is_stmt 1 view .LVU40
ARM GAS  C:\Users\CL\AppData\Local\Temp\cc9dNt6C.s 			page 5


 158              		.loc 1 65 24 is_stmt 0 view .LVU41
 159 0042 B3F1FF3F 		cmp	r3, #-1
 160 0046 11D0     		beq	.L22
  66:HAL/Src/timer.c ****                     p->next->init_tick = base_tick;
  67:HAL/Src/timer.c ****                     p = p->next;
  68:HAL/Src/timer.c ****                 }
  69:HAL/Src/timer.c ****                 else{
  70:HAL/Src/timer.c ****                     p->next->reenter_times--;
 161              		.loc 1 70 21 is_stmt 1 view .LVU42
 162              		.loc 1 70 43 is_stmt 0 view .LVU43
 163 0048 013B     		subs	r3, r3, #1
 164 004a 0373     		strb	r3, [r0, #12]
  71:HAL/Src/timer.c ****                     p->next->init_tick = base_tick;
 165              		.loc 1 71 21 is_stmt 1 view .LVU44
 166              		.loc 1 71 22 is_stmt 0 view .LVU45
 167 004c A369     		ldr	r3, [r4, #24]
 168              		.loc 1 71 40 view .LVU46
 169 004e 0B4A     		ldr	r2, .L23
 170 0050 1268     		ldr	r2, [r2]
 171 0052 5A60     		str	r2, [r3, #4]
  72:HAL/Src/timer.c ****                     p = p->next;
 172              		.loc 1 72 21 is_stmt 1 view .LVU47
 173              		.loc 1 72 23 is_stmt 0 view .LVU48
 174 0054 A369     		ldr	r3, [r4, #24]
 175              	.LVL9:
 176              		.loc 1 72 23 view .LVU49
 177 0056 E2E7     		b	.L10
 178              	.LVL10:
 179              	.L21:
 180              	.LBB3:
  57:HAL/Src/timer.c ****                     p->next = q->next;
 181              		.loc 1 57 21 is_stmt 1 view .LVU50
  58:HAL/Src/timer.c ****                     q->func = NULL;
 182              		.loc 1 58 21 view .LVU51
  58:HAL/Src/timer.c ****                     q->func = NULL;
 183              		.loc 1 58 32 is_stmt 0 view .LVU52
 184 0058 8369     		ldr	r3, [r0, #24]
  58:HAL/Src/timer.c ****                     q->func = NULL;
 185              		.loc 1 58 29 view .LVU53
 186 005a A361     		str	r3, [r4, #24]
  59:HAL/Src/timer.c ****                     q->param = NULL;
 187              		.loc 1 59 21 is_stmt 1 view .LVU54
  59:HAL/Src/timer.c ****                     q->param = NULL;
 188              		.loc 1 59 29 is_stmt 0 view .LVU55
 189 005c 0023     		movs	r3, #0
 190 005e 0361     		str	r3, [r0, #16]
  60:HAL/Src/timer.c ****                     q->next = NULL;
 191              		.loc 1 60 21 is_stmt 1 view .LVU56
  60:HAL/Src/timer.c ****                     q->next = NULL;
 192              		.loc 1 60 30 is_stmt 0 view .LVU57
 193 0060 4361     		str	r3, [r0, #20]
  61:HAL/Src/timer.c ****                     free(q);
 194              		.loc 1 61 21 is_stmt 1 view .LVU58
  61:HAL/Src/timer.c ****                     free(q);
 195              		.loc 1 61 29 is_stmt 0 view .LVU59
 196 0062 8361     		str	r3, [r0, #24]
  62:HAL/Src/timer.c ****                     q = NULL;
ARM GAS  C:\Users\CL\AppData\Local\Temp\cc9dNt6C.s 			page 6


 197              		.loc 1 62 21 is_stmt 1 view .LVU60
 198 0064 FFF7FEFF 		bl	free
 199              	.LVL11:
  63:HAL/Src/timer.c ****                 }
 200              		.loc 1 63 21 view .LVU61
  63:HAL/Src/timer.c ****                 }
 201              		.loc 1 63 21 is_stmt 0 view .LVU62
 202              	.LBE3:
 203 0068 2346     		mov	r3, r4
 204 006a D8E7     		b	.L10
 205              	.L22:
  66:HAL/Src/timer.c ****                     p = p->next;
 206              		.loc 1 66 21 is_stmt 1 view .LVU63
  66:HAL/Src/timer.c ****                     p = p->next;
 207              		.loc 1 66 40 is_stmt 0 view .LVU64
 208 006c 034B     		ldr	r3, .L23
 209 006e 1B68     		ldr	r3, [r3]
 210 0070 4360     		str	r3, [r0, #4]
  67:HAL/Src/timer.c ****                 }
 211              		.loc 1 67 21 is_stmt 1 view .LVU65
  67:HAL/Src/timer.c ****                 }
 212              		.loc 1 67 23 is_stmt 0 view .LVU66
 213 0072 A369     		ldr	r3, [r4, #24]
 214              	.LVL12:
  67:HAL/Src/timer.c ****                 }
 215              		.loc 1 67 23 view .LVU67
 216 0074 D3E7     		b	.L10
 217              	.LVL13:
 218              	.L20:
  67:HAL/Src/timer.c ****                 }
 219              		.loc 1 67 23 view .LVU68
 220              	.LBE4:
  73:HAL/Src/timer.c ****                 }
  74:HAL/Src/timer.c ****             }
  75:HAL/Src/timer.c ****             else
  76:HAL/Src/timer.c ****                 p = p->next;
  77:HAL/Src/timer.c ****         }
  78:HAL/Src/timer.c ****     }
  79:HAL/Src/timer.c **** }
 221              		.loc 1 79 1 view .LVU69
 222 0076 10BD     		pop	{r4, pc}
 223              	.LVL14:
 224              	.L18:
 225              	.LCFI2:
 226              		.cfi_def_cfa_offset 0
 227              		.cfi_restore 4
 228              		.cfi_restore 14
  44:HAL/Src/timer.c ****     base_tick++;
 229              		.loc 1 44 24 view .LVU70
 230 0078 10B5     		push	{r4, lr}
 231              	.LCFI3:
 232              		.cfi_def_cfa_offset 8
 233              		.cfi_offset 4, -8
 234              		.cfi_offset 14, -4
 235 007a D0E7     		b	.L10
 236              	.L24:
 237              		.align	2
ARM GAS  C:\Users\CL\AppData\Local\Temp\cc9dNt6C.s 			page 7


 238              	.L23:
 239 007c 00000000 		.word	.LANCHOR1
 240 0080 00000000 		.word	.LANCHOR0
 241              		.cfi_endproc
 242              	.LFE289:
 244              		.section	.text.timer_insert,"ax",%progbits
 245              		.align	1
 246              		.global	timer_insert
 247              		.syntax unified
 248              		.thumb
 249              		.thumb_func
 251              	timer_insert:
 252              	.LVL15:
 253              	.LFB290:
  80:HAL/Src/timer.c **** 
  81:HAL/Src/timer.c **** /**
  82:HAL/Src/timer.c ****  * @brief 定时事件列表插入函数（尾插法）
  83:HAL/Src/timer.c ****  * 
  84:HAL/Src/timer.c ****  * @param timeout 定时时间
  85:HAL/Src/timer.c ****  * @param cycles 重入次数，-1 为无限循环，0为不可重入，正整数为重入次数（
  86:HAL/Src/timer.c ****  * @param func 回调函数
  87:HAL/Src/timer.c ****  */
  88:HAL/Src/timer.c **** void timer_insert(uint32_t timeout,int8_t cycles,void *func,void *param){
 254              		.loc 1 88 73 is_stmt 1 view -0
 255              		.cfi_startproc
 256              		@ args = 0, pretend = 0, frame = 0
 257              		@ frame_needed = 0, uses_anonymous_args = 0
 258              		.loc 1 88 73 is_stmt 0 view .LVU72
 259 0000 F8B5     		push	{r3, r4, r5, r6, r7, lr}
 260              	.LCFI4:
 261              		.cfi_def_cfa_offset 24
 262              		.cfi_offset 3, -24
 263              		.cfi_offset 4, -20
 264              		.cfi_offset 5, -16
 265              		.cfi_offset 6, -12
 266              		.cfi_offset 7, -8
 267              		.cfi_offset 14, -4
 268 0002 0546     		mov	r5, r0
 269 0004 0C46     		mov	r4, r1
 270 0006 1746     		mov	r7, r2
 271 0008 1E46     		mov	r6, r3
  89:HAL/Src/timer.c ****     Timer_HandleTypeDef *new,*p;
 272              		.loc 1 89 5 is_stmt 1 view .LVU73
  90:HAL/Src/timer.c ****     new = (Timer_HandleTypeDef *)malloc(sizeof(Timer_HandleTypeDef));
 273              		.loc 1 90 5 view .LVU74
 274              		.loc 1 90 34 is_stmt 0 view .LVU75
 275 000a 1C20     		movs	r0, #28
 276              	.LVL16:
 277              		.loc 1 90 34 view .LVU76
 278 000c FFF7FEFF 		bl	malloc
 279              	.LVL17:
  91:HAL/Src/timer.c ****     timer_list->block = 1;
 280              		.loc 1 91 5 is_stmt 1 view .LVU77
 281              		.loc 1 91 15 is_stmt 0 view .LVU78
 282 0010 0A4B     		ldr	r3, .L28
 283 0012 1A68     		ldr	r2, [r3]
 284              		.loc 1 91 23 view .LVU79
ARM GAS  C:\Users\CL\AppData\Local\Temp\cc9dNt6C.s 			page 8


 285 0014 0121     		movs	r1, #1
 286 0016 1170     		strb	r1, [r2]
  92:HAL/Src/timer.c ****     p = timer_list;
 287              		.loc 1 92 5 is_stmt 1 view .LVU80
 288              		.loc 1 92 7 is_stmt 0 view .LVU81
 289 0018 1968     		ldr	r1, [r3]
 290              	.LVL18:
  93:HAL/Src/timer.c ****     new->func = func;
 291              		.loc 1 93 5 is_stmt 1 view .LVU82
 292              		.loc 1 93 15 is_stmt 0 view .LVU83
 293 001a 0761     		str	r7, [r0, #16]
  94:HAL/Src/timer.c ****     new->param = param;
 294              		.loc 1 94 5 is_stmt 1 view .LVU84
 295              		.loc 1 94 16 is_stmt 0 view .LVU85
 296 001c 4661     		str	r6, [r0, #20]
  95:HAL/Src/timer.c ****     new->next = NULL;
 297              		.loc 1 95 5 is_stmt 1 view .LVU86
 298              		.loc 1 95 15 is_stmt 0 view .LVU87
 299 001e 0023     		movs	r3, #0
 300 0020 8361     		str	r3, [r0, #24]
  96:HAL/Src/timer.c ****     new->init_tick = base_tick;
 301              		.loc 1 96 5 is_stmt 1 view .LVU88
 302              		.loc 1 96 20 is_stmt 0 view .LVU89
 303 0022 074B     		ldr	r3, .L28+4
 304 0024 1B68     		ldr	r3, [r3]
 305 0026 4360     		str	r3, [r0, #4]
  97:HAL/Src/timer.c ****     new->timeout = timeout;
 306              		.loc 1 97 5 is_stmt 1 view .LVU90
 307              		.loc 1 97 18 is_stmt 0 view .LVU91
 308 0028 8560     		str	r5, [r0, #8]
  98:HAL/Src/timer.c ****     new->reenter_times = cycles;
 309              		.loc 1 98 5 is_stmt 1 view .LVU92
 310              		.loc 1 98 24 is_stmt 0 view .LVU93
 311 002a 0473     		strb	r4, [r0, #12]
  99:HAL/Src/timer.c **** 
 100:HAL/Src/timer.c ****     while(p->next != NULL)
 312              		.loc 1 100 5 is_stmt 1 view .LVU94
  92:HAL/Src/timer.c ****     new->func = func;
 313              		.loc 1 92 7 is_stmt 0 view .LVU95
 314 002c 0B46     		mov	r3, r1
 315              	.LVL19:
 316              	.L26:
 317              		.loc 1 100 10 is_stmt 1 view .LVU96
 318 002e 1A46     		mov	r2, r3
 319              		.loc 1 100 12 is_stmt 0 view .LVU97
 320 0030 9B69     		ldr	r3, [r3, #24]
 321              	.LVL20:
 322              		.loc 1 100 10 view .LVU98
 323 0032 002B     		cmp	r3, #0
 324 0034 FBD1     		bne	.L26
 101:HAL/Src/timer.c ****         p = p->next;
 102:HAL/Src/timer.c **** 
 103:HAL/Src/timer.c ****     p->next  = new;    
 325              		.loc 1 103 5 is_stmt 1 view .LVU99
 326              		.loc 1 103 14 is_stmt 0 view .LVU100
 327 0036 9061     		str	r0, [r2, #24]
 104:HAL/Src/timer.c ****     timer_list->block =0;
ARM GAS  C:\Users\CL\AppData\Local\Temp\cc9dNt6C.s 			page 9


 328              		.loc 1 104 5 is_stmt 1 view .LVU101
 329              		.loc 1 104 23 is_stmt 0 view .LVU102
 330 0038 0B70     		strb	r3, [r1]
 105:HAL/Src/timer.c **** };
 331              		.loc 1 105 1 view .LVU103
 332 003a F8BD     		pop	{r3, r4, r5, r6, r7, pc}
 333              	.LVL21:
 334              	.L29:
 335              		.loc 1 105 1 view .LVU104
 336              		.align	2
 337              	.L28:
 338 003c 00000000 		.word	.LANCHOR0
 339 0040 00000000 		.word	.LANCHOR1
 340              		.cfi_endproc
 341              	.LFE290:
 343              		.global	timer_list
 344              		.global	base_tick
 345              		.section	.bss.base_tick,"aw",%nobits
 346              		.align	2
 347              		.set	.LANCHOR1,. + 0
 350              	base_tick:
 351 0000 00000000 		.space	4
 352              		.section	.bss.timer_list,"aw",%nobits
 353              		.align	2
 354              		.set	.LANCHOR0,. + 0
 357              	timer_list:
 358 0000 00000000 		.space	4
 359              		.text
 360              	.Letext0:
 361              		.file 2 "e:\\gcc-arm-none-eabi-10.3-2021.10-win32\\gcc-arm-none-eabi-10.3-2021.10\\arm-none-eabi\\
 362              		.file 3 "e:\\gcc-arm-none-eabi-10.3-2021.10-win32\\gcc-arm-none-eabi-10.3-2021.10\\arm-none-eabi\\
 363              		.file 4 "HAL/Inc/timer.h"
 364              		.file 5 "<built-in>"
ARM GAS  C:\Users\CL\AppData\Local\Temp\cc9dNt6C.s 			page 10


DEFINED SYMBOLS
                            *ABS*:00000000 timer.c
C:\Users\CL\AppData\Local\Temp\cc9dNt6C.s:20     .text.timer_init:00000000 $t
C:\Users\CL\AppData\Local\Temp\cc9dNt6C.s:26     .text.timer_init:00000000 timer_init
C:\Users\CL\AppData\Local\Temp\cc9dNt6C.s:58     .text.timer_init:00000014 $d
C:\Users\CL\AppData\Local\Temp\cc9dNt6C.s:63     .text.timer_update:00000000 $t
C:\Users\CL\AppData\Local\Temp\cc9dNt6C.s:69     .text.timer_update:00000000 timer_update
C:\Users\CL\AppData\Local\Temp\cc9dNt6C.s:239    .text.timer_update:0000007c $d
C:\Users\CL\AppData\Local\Temp\cc9dNt6C.s:245    .text.timer_insert:00000000 $t
C:\Users\CL\AppData\Local\Temp\cc9dNt6C.s:251    .text.timer_insert:00000000 timer_insert
C:\Users\CL\AppData\Local\Temp\cc9dNt6C.s:338    .text.timer_insert:0000003c $d
C:\Users\CL\AppData\Local\Temp\cc9dNt6C.s:357    .bss.timer_list:00000000 timer_list
C:\Users\CL\AppData\Local\Temp\cc9dNt6C.s:350    .bss.base_tick:00000000 base_tick
C:\Users\CL\AppData\Local\Temp\cc9dNt6C.s:346    .bss.base_tick:00000000 $d
C:\Users\CL\AppData\Local\Temp\cc9dNt6C.s:353    .bss.timer_list:00000000 $d

UNDEFINED SYMBOLS
malloc
free
