ARM GAS  C:\Users\CL\AppData\Local\Temp\cczbWnoq.s 			page 1


   1              		.cpu cortex-m4
   2              		.arch armv7e-m
   3              		.fpu fpv4-sp-d16
   4              		.eabi_attribute 27, 1
   5              		.eabi_attribute 28, 1
   6              		.eabi_attribute 20, 1
   7              		.eabi_attribute 21, 1
   8              		.eabi_attribute 23, 3
   9              		.eabi_attribute 24, 1
  10              		.eabi_attribute 25, 1
  11              		.eabi_attribute 26, 1
  12              		.eabi_attribute 30, 4
  13              		.eabi_attribute 34, 1
  14              		.eabi_attribute 18, 4
  15              		.file	"timer.c"
  16              		.text
  17              		.section	.text.timer_init,"ax",%progbits
  18              		.align	1
  19              		.global	timer_init
  20              		.syntax unified
  21              		.thumb
  22              		.thumb_func
  24              	timer_init:
  25              		@ args = 0, pretend = 0, frame = 0
  26              		@ frame_needed = 0, uses_anonymous_args = 0
  27 0000 08B5     		push	{r3, lr}
  28 0002 1C20     		movs	r0, #28
  29 0004 FFF7FEFF 		bl	malloc
  30 0008 024B     		ldr	r3, .L2
  31 000a 1860     		str	r0, [r3]
  32 000c 0023     		movs	r3, #0
  33 000e 0370     		strb	r3, [r0]
  34 0010 8361     		str	r3, [r0, #24]
  35 0012 08BD     		pop	{r3, pc}
  36              	.L3:
  37              		.align	2
  38              	.L2:
  39 0014 00000000 		.word	.LANCHOR0
  41              		.section	.text.timer_update,"ax",%progbits
  42              		.align	1
  43              		.global	timer_update
  44              		.syntax unified
  45              		.thumb
  46              		.thumb_func
  48              	timer_update:
  49              		@ args = 0, pretend = 0, frame = 0
  50              		@ frame_needed = 0, uses_anonymous_args = 0
  51 0000 70B5     		push	{r4, r5, r6, lr}
  52 0002 164C     		ldr	r4, .L22
  53 0004 2368     		ldr	r3, [r4]
  54 0006 0133     		adds	r3, r3, #1
  55 0008 2360     		str	r3, [r4]
  56 000a 154B     		ldr	r3, .L22+4
  57 000c 1868     		ldr	r0, [r3]
  58 000e 0378     		ldrb	r3, [r0]	@ zero_extendqisi2
  59 0010 ABB1     		cbz	r3, .L5
  60              	.L4:
ARM GAS  C:\Users\CL\AppData\Local\Temp\cczbWnoq.s 			page 2


  61 0012 70BD     		pop	{r4, r5, r6, pc}
  62              	.L13:
  63 0014 4368     		ldr	r3, [r0, #4]
  64 0016 8668     		ldr	r6, [r0, #8]
  65 0018 9342     		cmp	r3, r2
  66 001a 34BF     		ite	cc
  67 001c D31A     		subcc	r3, r2, r3
  68 001e CB1A     		subcs	r3, r1, r3
  69 0020 9E42     		cmp	r6, r3
  70 0022 0ED8     		bhi	.L8
  71 0024 0369     		ldr	r3, [r0, #16]
  72 0026 0BB1     		cbz	r3, .L9
  73 0028 4069     		ldr	r0, [r0, #20]
  74 002a 9847     		blx	r3
  75              	.L9:
  76 002c A869     		ldr	r0, [r5, #24]
  77 002e 90F90C30 		ldrsb	r3, [r0, #12]
  78 0032 5BB9     		cbnz	r3, .L10
  79 0034 8369     		ldr	r3, [r0, #24]
  80 0036 AB61     		str	r3, [r5, #24]
  81 0038 FFF7FEFF 		bl	free
  82 003c 2846     		mov	r0, r5
  83              	.L5:
  84 003e 2268     		ldr	r2, [r4]
  85 0040 511E     		subs	r1, r2, #1
  86              	.L8:
  87 0042 0546     		mov	r5, r0
  88 0044 8069     		ldr	r0, [r0, #24]
  89 0046 0028     		cmp	r0, #0
  90 0048 E4D1     		bne	.L13
  91 004a E2E7     		b	.L4
  92              	.L10:
  93 004c 591C     		adds	r1, r3, #1
  94 004e 2268     		ldr	r2, [r4]
  95 0050 4260     		str	r2, [r0, #4]
  96 0052 1CBF     		itt	ne
  97 0054 03F1FF33 		addne	r3, r3, #-1
  98 0058 0373     		strbne	r3, [r0, #12]
  99 005a F0E7     		b	.L5
 100              	.L23:
 101              		.align	2
 102              	.L22:
 103 005c 00000000 		.word	.LANCHOR1
 104 0060 00000000 		.word	.LANCHOR0
 106              		.section	.text.timer_insert,"ax",%progbits
 107              		.align	1
 108              		.global	timer_insert
 109              		.syntax unified
 110              		.thumb
 111              		.thumb_func
 113              	timer_insert:
 114              		@ args = 0, pretend = 0, frame = 0
 115              		@ frame_needed = 0, uses_anonymous_args = 0
 116 0000 F8B5     		push	{r3, r4, r5, r6, r7, lr}
 117 0002 0546     		mov	r5, r0
 118 0004 1C20     		movs	r0, #28
 119 0006 1746     		mov	r7, r2
ARM GAS  C:\Users\CL\AppData\Local\Temp\cczbWnoq.s 			page 3


 120 0008 1E46     		mov	r6, r3
 121 000a 0C46     		mov	r4, r1
 122 000c FFF7FEFF 		bl	malloc
 123 0010 094B     		ldr	r3, .L27
 124 0012 0473     		strb	r4, [r0, #12]
 125 0014 1A68     		ldr	r2, [r3]
 126 0016 0023     		movs	r3, #0
 127 0018 8361     		str	r3, [r0, #24]
 128 001a 084B     		ldr	r3, .L27+4
 129 001c C0E90476 		strd	r7, r6, [r0, #16]
 130 0020 1B68     		ldr	r3, [r3]
 131 0022 C0E90135 		strd	r3, r5, [r0, #4]
 132 0026 1346     		mov	r3, r2
 133              	.L25:
 134 0028 1946     		mov	r1, r3
 135 002a 9B69     		ldr	r3, [r3, #24]
 136 002c 002B     		cmp	r3, #0
 137 002e FBD1     		bne	.L25
 138 0030 8861     		str	r0, [r1, #24]
 139 0032 1370     		strb	r3, [r2]
 140 0034 F8BD     		pop	{r3, r4, r5, r6, r7, pc}
 141              	.L28:
 142 0036 00BF     		.align	2
 143              	.L27:
 144 0038 00000000 		.word	.LANCHOR0
 145 003c 00000000 		.word	.LANCHOR1
 147              		.global	timer_list
 148              		.global	base_tick
 149              		.section	.bss.base_tick,"aw",%nobits
 150              		.align	2
 151              		.set	.LANCHOR1,. + 0
 154              	base_tick:
 155 0000 00000000 		.space	4
 156              		.section	.bss.timer_list,"aw",%nobits
 157              		.align	2
 158              		.set	.LANCHOR0,. + 0
 161              	timer_list:
 162 0000 00000000 		.space	4
 163              		.ident	"GCC: (GNU Arm Embedded Toolchain 10.3-2021.10) 10.3.1 20210824 (release)"
ARM GAS  C:\Users\CL\AppData\Local\Temp\cczbWnoq.s 			page 4


DEFINED SYMBOLS
                            *ABS*:00000000 timer.c
C:\Users\CL\AppData\Local\Temp\cczbWnoq.s:18     .text.timer_init:00000000 $t
C:\Users\CL\AppData\Local\Temp\cczbWnoq.s:24     .text.timer_init:00000000 timer_init
C:\Users\CL\AppData\Local\Temp\cczbWnoq.s:39     .text.timer_init:00000014 $d
C:\Users\CL\AppData\Local\Temp\cczbWnoq.s:42     .text.timer_update:00000000 $t
C:\Users\CL\AppData\Local\Temp\cczbWnoq.s:48     .text.timer_update:00000000 timer_update
C:\Users\CL\AppData\Local\Temp\cczbWnoq.s:103    .text.timer_update:0000005c $d
C:\Users\CL\AppData\Local\Temp\cczbWnoq.s:107    .text.timer_insert:00000000 $t
C:\Users\CL\AppData\Local\Temp\cczbWnoq.s:113    .text.timer_insert:00000000 timer_insert
C:\Users\CL\AppData\Local\Temp\cczbWnoq.s:144    .text.timer_insert:00000038 $d
C:\Users\CL\AppData\Local\Temp\cczbWnoq.s:161    .bss.timer_list:00000000 timer_list
C:\Users\CL\AppData\Local\Temp\cczbWnoq.s:154    .bss.base_tick:00000000 base_tick
C:\Users\CL\AppData\Local\Temp\cczbWnoq.s:150    .bss.base_tick:00000000 $d
C:\Users\CL\AppData\Local\Temp\cczbWnoq.s:157    .bss.timer_list:00000000 $d

UNDEFINED SYMBOLS
malloc
free
