ARM GAS  C:\Users\CL\AppData\Local\Temp\ccgxDLz5.s 			page 1


   1              		.cpu cortex-m4
   2              		.arch armv7e-m
   3              		.fpu fpv4-sp-d16
   4              		.eabi_attribute 27, 1
   5              		.eabi_attribute 28, 1
   6              		.eabi_attribute 20, 1
   7              		.eabi_attribute 21, 1
   8              		.eabi_attribute 23, 3
   9              		.eabi_attribute 24, 1
  10              		.eabi_attribute 25, 1
  11              		.eabi_attribute 26, 1
  12              		.eabi_attribute 30, 4
  13              		.eabi_attribute 34, 1
  14              		.eabi_attribute 18, 4
  15              		.file	"timer.c"
  16              		.text
  17              	.Ltext0:
  18              		.cfi_sections	.debug_frame
  19              		.section	.text.timer_init,"ax",%progbits
  20              		.align	1
  21              		.global	timer_init
  22              		.syntax unified
  23              		.thumb
  24              		.thumb_func
  26              	timer_init:
  27              	.LFB288:
  28              		.file 1 "HAL/Src/timer.c"
   1:HAL/Src/timer.c **** /**
   2:HAL/Src/timer.c ****  ******************************************************************************
   3:HAL/Src/timer.c **** *
   4:HAL/Src/timer.c **** * @file   
   5:HAL/Src/timer.c **** *
   6:HAL/Src/timer.c **** * @brief   
   7:HAL/Src/timer.c **** *
   8:HAL/Src/timer.c **** * @attention
   9:HAL/Src/timer.c **** *
  10:HAL/Src/timer.c **** *Copyright (c) 2023 JiuTong.
  11:HAL/Src/timer.c **** *
  12:HAL/Src/timer.c **** *All rights reserved.
  13:HAL/Src/timer.c ****  ******************************************************************************
  14:HAL/Src/timer.c **** */
  15:HAL/Src/timer.c **** 
  16:HAL/Src/timer.c **** /*----------------------------------include-----------------------------------*/
  17:HAL/Src/timer.c **** #include "timer.h"
  18:HAL/Src/timer.c **** /*-----------------------------------macro------------------------------------*/
  19:HAL/Src/timer.c **** 
  20:HAL/Src/timer.c **** /*----------------------------------typedef-----------------------------------*/
  21:HAL/Src/timer.c **** 
  22:HAL/Src/timer.c **** /*----------------------------------variable----------------------------------*/
  23:HAL/Src/timer.c **** uint32_t base_tick = 0; //定义定时基准tick
  24:HAL/Src/timer.c **** 
  25:HAL/Src/timer.c **** Timer_HandleTypeDef *timer_list = NULL;
  26:HAL/Src/timer.c **** /*-------------------------------------os-------------------------------------*/
  27:HAL/Src/timer.c **** 
  28:HAL/Src/timer.c **** /*----------------------------------function----------------------------------*/
  29:HAL/Src/timer.c **** /**
  30:HAL/Src/timer.c ****  * @brief 定时列表初始化函数
ARM GAS  C:\Users\CL\AppData\Local\Temp\ccgxDLz5.s 			page 2


  31:HAL/Src/timer.c ****  * 
  32:HAL/Src/timer.c ****  */
  33:HAL/Src/timer.c **** void timer_init(void){
  29              		.loc 1 33 22 view -0
  30              		.cfi_startproc
  31              		@ args = 0, pretend = 0, frame = 0
  32              		@ frame_needed = 0, uses_anonymous_args = 0
  34:HAL/Src/timer.c ****     timer_list = (Timer_HandleTypeDef *)malloc(sizeof(Timer_HandleTypeDef));
  33              		.loc 1 34 5 view .LVU1
  33:HAL/Src/timer.c ****     timer_list = (Timer_HandleTypeDef *)malloc(sizeof(Timer_HandleTypeDef));
  34              		.loc 1 33 22 is_stmt 0 view .LVU2
  35 0000 08B5     		push	{r3, lr}
  36              	.LCFI0:
  37              		.cfi_def_cfa_offset 8
  38              		.cfi_offset 3, -8
  39              		.cfi_offset 14, -4
  40              		.loc 1 34 41 view .LVU3
  41 0002 1C20     		movs	r0, #28
  42 0004 FFF7FEFF 		bl	malloc
  43              	.LVL0:
  44              		.loc 1 34 16 view .LVU4
  45 0008 024B     		ldr	r3, .L2
  46 000a 1860     		str	r0, [r3]
  35:HAL/Src/timer.c ****     timer_list->next = NULL;
  47              		.loc 1 35 5 is_stmt 1 view .LVU5
  48              		.loc 1 35 22 is_stmt 0 view .LVU6
  49 000c 0023     		movs	r3, #0
  36:HAL/Src/timer.c ****     timer_list->block = 0;
  50              		.loc 1 36 23 view .LVU7
  51 000e 0370     		strb	r3, [r0]
  35:HAL/Src/timer.c ****     timer_list->next = NULL;
  52              		.loc 1 35 22 view .LVU8
  53 0010 8361     		str	r3, [r0, #24]
  54              		.loc 1 36 5 is_stmt 1 view .LVU9
  37:HAL/Src/timer.c **** }
  55              		.loc 1 37 1 is_stmt 0 view .LVU10
  56 0012 08BD     		pop	{r3, pc}
  57              	.L3:
  58              		.align	2
  59              	.L2:
  60 0014 00000000 		.word	.LANCHOR0
  61              		.cfi_endproc
  62              	.LFE288:
  64              		.section	.text.timer_update,"ax",%progbits
  65              		.align	1
  66              		.global	timer_update
  67              		.syntax unified
  68              		.thumb
  69              		.thumb_func
  71              	timer_update:
  72              	.LFB289:
  38:HAL/Src/timer.c **** /**
  39:HAL/Src/timer.c ****  * @brief 定时器更新函数
  40:HAL/Src/timer.c ****  *        需要将此函数作为定时触发中断的回调函数，定时更新base_tick
  41:HAL/Src/timer.c ****  *        每次更新后比较链表中是否有定时到达，触发对应回调函数
  42:HAL/Src/timer.c ****  * 
  43:HAL/Src/timer.c ****  */
ARM GAS  C:\Users\CL\AppData\Local\Temp\ccgxDLz5.s 			page 3


  44:HAL/Src/timer.c **** void timer_update(void){
  73              		.loc 1 44 24 is_stmt 1 view -0
  74              		.cfi_startproc
  75              		@ args = 0, pretend = 0, frame = 0
  76              		@ frame_needed = 0, uses_anonymous_args = 0
  45:HAL/Src/timer.c ****     base_tick++;
  77              		.loc 1 45 5 view .LVU12
  44:HAL/Src/timer.c ****     base_tick++;
  78              		.loc 1 44 24 is_stmt 0 view .LVU13
  79 0000 70B5     		push	{r4, r5, r6, lr}
  80              	.LCFI1:
  81              		.cfi_def_cfa_offset 16
  82              		.cfi_offset 4, -16
  83              		.cfi_offset 5, -12
  84              		.cfi_offset 6, -8
  85              		.cfi_offset 14, -4
  86              		.loc 1 45 14 view .LVU14
  87 0002 164C     		ldr	r4, .L22
  88 0004 2368     		ldr	r3, [r4]
  89 0006 0133     		adds	r3, r3, #1
  90 0008 2360     		str	r3, [r4]
  46:HAL/Src/timer.c ****     Timer_HandleTypeDef *p  = timer_list, *q = NULL;
  91              		.loc 1 46 5 is_stmt 1 view .LVU15
  92              		.loc 1 46 26 is_stmt 0 view .LVU16
  93 000a 154B     		ldr	r3, .L22+4
  94 000c 1868     		ldr	r0, [r3]
  95              	.LVL1:
  47:HAL/Src/timer.c ****     if(timer_list->block == 0){
  96              		.loc 1 47 5 is_stmt 1 view .LVU17
  97              		.loc 1 47 7 is_stmt 0 view .LVU18
  98 000e 0378     		ldrb	r3, [r0]	@ zero_extendqisi2
  99 0010 ABB1     		cbz	r3, .L5
 100              	.LVL2:
 101              	.L4:
  48:HAL/Src/timer.c **** 
  49:HAL/Src/timer.c ****         while(p->next !=NULL){
  50:HAL/Src/timer.c ****             uint32_t err_tick;
  51:HAL/Src/timer.c ****             err_tick = base_tick > p->next->init_tick ?  (base_tick - p->next->init_tick) :  (0xFFF
  52:HAL/Src/timer.c ****             if(err_tick >= p->next->timeout){
  53:HAL/Src/timer.c ****                 //执行回调函数，回调函数要求时间尽可能短
  54:HAL/Src/timer.c ****                 if(p->next->func != NULL)
  55:HAL/Src/timer.c ****                     p->next->func(p->next->param);
  56:HAL/Src/timer.c ****                 if(p->next->reenter_times == 0){
  57:HAL/Src/timer.c ****                     q = p->next;  
  58:HAL/Src/timer.c ****                     p->next = q->next;
  59:HAL/Src/timer.c ****                     q->func = NULL;
  60:HAL/Src/timer.c ****                     //q->param = NULL;
  61:HAL/Src/timer.c ****                     q->next = NULL;
  62:HAL/Src/timer.c ****                     free(q);
  63:HAL/Src/timer.c ****                     q = NULL;
  64:HAL/Src/timer.c ****                 }
  65:HAL/Src/timer.c ****                 else if(p->next->reenter_times == -1){
  66:HAL/Src/timer.c ****                     p->next->init_tick = base_tick;
  67:HAL/Src/timer.c ****                     p = p->next;
  68:HAL/Src/timer.c ****                 }
  69:HAL/Src/timer.c ****                 else{
  70:HAL/Src/timer.c ****                     p->next->reenter_times--;
ARM GAS  C:\Users\CL\AppData\Local\Temp\ccgxDLz5.s 			page 4


  71:HAL/Src/timer.c ****                     p->next->init_tick = base_tick;
  72:HAL/Src/timer.c ****                     p = p->next;
  73:HAL/Src/timer.c ****                 }
  74:HAL/Src/timer.c ****             }
  75:HAL/Src/timer.c ****             else
  76:HAL/Src/timer.c ****                 p = p->next;
  77:HAL/Src/timer.c ****         }
  78:HAL/Src/timer.c ****     }
  79:HAL/Src/timer.c **** }
 102              		.loc 1 79 1 view .LVU19
 103 0012 70BD     		pop	{r4, r5, r6, pc}
 104              	.LVL3:
 105              	.L13:
 106              	.LBB2:
  50:HAL/Src/timer.c ****             err_tick = base_tick > p->next->init_tick ?  (base_tick - p->next->init_tick) :  (0xFFF
 107              		.loc 1 50 13 is_stmt 1 view .LVU20
  51:HAL/Src/timer.c ****             if(err_tick >= p->next->timeout){
 108              		.loc 1 51 13 view .LVU21
  51:HAL/Src/timer.c ****             if(err_tick >= p->next->timeout){
 109              		.loc 1 51 43 is_stmt 0 view .LVU22
 110 0014 4368     		ldr	r3, [r0, #4]
  52:HAL/Src/timer.c ****                 //执行回调函数，回调函数要求时间尽可能短
 111              		.loc 1 52 15 view .LVU23
 112 0016 8668     		ldr	r6, [r0, #8]
  51:HAL/Src/timer.c ****             if(err_tick >= p->next->timeout){
 113              		.loc 1 51 91 view .LVU24
 114 0018 9342     		cmp	r3, r2
 115 001a 34BF     		ite	cc
 116 001c D31A     		subcc	r3, r2, r3
 117 001e CB1A     		subcs	r3, r1, r3
 118              	.LVL4:
  52:HAL/Src/timer.c ****                 //执行回调函数，回调函数要求时间尽可能短
 119              		.loc 1 52 13 is_stmt 1 view .LVU25
  52:HAL/Src/timer.c ****                 //执行回调函数，回调函数要求时间尽可能短
 120              		.loc 1 52 15 is_stmt 0 view .LVU26
 121 0020 9E42     		cmp	r6, r3
 122 0022 0ED8     		bhi	.L8
  54:HAL/Src/timer.c ****                     p->next->func(p->next->param);
 123              		.loc 1 54 17 is_stmt 1 view .LVU27
  54:HAL/Src/timer.c ****                     p->next->func(p->next->param);
 124              		.loc 1 54 27 is_stmt 0 view .LVU28
 125 0024 0369     		ldr	r3, [r0, #16]
 126              	.LVL5:
  54:HAL/Src/timer.c ****                     p->next->func(p->next->param);
 127              		.loc 1 54 19 view .LVU29
 128 0026 0BB1     		cbz	r3, .L9
  55:HAL/Src/timer.c ****                 if(p->next->reenter_times == 0){
 129              		.loc 1 55 21 is_stmt 1 view .LVU30
 130 0028 4069     		ldr	r0, [r0, #20]
 131              	.LVL6:
  55:HAL/Src/timer.c ****                 if(p->next->reenter_times == 0){
 132              		.loc 1 55 21 is_stmt 0 view .LVU31
 133 002a 9847     		blx	r3
 134              	.LVL7:
 135              	.L9:
  56:HAL/Src/timer.c ****                     q = p->next;  
 136              		.loc 1 56 17 is_stmt 1 view .LVU32
ARM GAS  C:\Users\CL\AppData\Local\Temp\ccgxDLz5.s 			page 5


  56:HAL/Src/timer.c ****                     q = p->next;  
 137              		.loc 1 56 21 is_stmt 0 view .LVU33
 138 002c A869     		ldr	r0, [r5, #24]
  56:HAL/Src/timer.c ****                     q = p->next;  
 139              		.loc 1 56 27 view .LVU34
 140 002e 90F90C30 		ldrsb	r3, [r0, #12]
  56:HAL/Src/timer.c ****                     q = p->next;  
 141              		.loc 1 56 19 view .LVU35
 142 0032 5BB9     		cbnz	r3, .L10
 143              	.LBB3:
  58:HAL/Src/timer.c ****                     q->func = NULL;
 144              		.loc 1 58 32 view .LVU36
 145 0034 8369     		ldr	r3, [r0, #24]
  57:HAL/Src/timer.c ****                     p->next = q->next;
 146              		.loc 1 57 21 is_stmt 1 view .LVU37
 147              	.LVL8:
  58:HAL/Src/timer.c ****                     q->func = NULL;
 148              		.loc 1 58 21 view .LVU38
  58:HAL/Src/timer.c ****                     q->func = NULL;
 149              		.loc 1 58 29 is_stmt 0 view .LVU39
 150 0036 AB61     		str	r3, [r5, #24]
  59:HAL/Src/timer.c ****                     //q->param = NULL;
 151              		.loc 1 59 21 is_stmt 1 view .LVU40
  61:HAL/Src/timer.c ****                     free(q);
 152              		.loc 1 61 21 view .LVU41
  62:HAL/Src/timer.c ****                     q = NULL;
 153              		.loc 1 62 21 view .LVU42
 154 0038 FFF7FEFF 		bl	free
 155              	.LVL9:
  63:HAL/Src/timer.c ****                 }
 156              		.loc 1 63 21 view .LVU43
  63:HAL/Src/timer.c ****                 }
 157              		.loc 1 63 21 is_stmt 0 view .LVU44
 158              	.LBE3:
 159 003c 2846     		mov	r0, r5
 160              	.LVL10:
 161              	.L5:
  51:HAL/Src/timer.c ****             if(err_tick >= p->next->timeout){
 162              		.loc 1 51 34 view .LVU45
 163 003e 2268     		ldr	r2, [r4]
 164 0040 511E     		subs	r1, r2, #1
 165              	.LVL11:
 166              	.L8:
  51:HAL/Src/timer.c ****             if(err_tick >= p->next->timeout){
 167              		.loc 1 51 34 view .LVU46
 168              	.LBE2:
  49:HAL/Src/timer.c ****             uint32_t err_tick;
 169              		.loc 1 49 14 is_stmt 1 view .LVU47
 170 0042 0546     		mov	r5, r0
  49:HAL/Src/timer.c ****             uint32_t err_tick;
 171              		.loc 1 49 16 is_stmt 0 view .LVU48
 172 0044 8069     		ldr	r0, [r0, #24]
 173              	.LVL12:
  49:HAL/Src/timer.c ****             uint32_t err_tick;
 174              		.loc 1 49 14 view .LVU49
 175 0046 0028     		cmp	r0, #0
 176 0048 E4D1     		bne	.L13
ARM GAS  C:\Users\CL\AppData\Local\Temp\ccgxDLz5.s 			page 6


 177 004a E2E7     		b	.L4
 178              	.L10:
 179              	.LBB4:
  65:HAL/Src/timer.c ****                     p->next->init_tick = base_tick;
 180              		.loc 1 65 22 is_stmt 1 view .LVU50
  65:HAL/Src/timer.c ****                     p->next->init_tick = base_tick;
 181              		.loc 1 65 24 is_stmt 0 view .LVU51
 182 004c 591C     		adds	r1, r3, #1
  66:HAL/Src/timer.c ****                     p = p->next;
 183              		.loc 1 66 21 is_stmt 1 view .LVU52
  70:HAL/Src/timer.c ****                     p->next->init_tick = base_tick;
 184              		.loc 1 70 21 view .LVU53
  66:HAL/Src/timer.c ****                     p = p->next;
 185              		.loc 1 66 40 is_stmt 0 view .LVU54
 186 004e 2268     		ldr	r2, [r4]
  71:HAL/Src/timer.c ****                     p = p->next;
 187              		.loc 1 71 40 view .LVU55
 188 0050 4260     		str	r2, [r0, #4]
  70:HAL/Src/timer.c ****                     p->next->init_tick = base_tick;
 189              		.loc 1 70 43 view .LVU56
 190 0052 1CBF     		itt	ne
 191 0054 03F1FF33 		addne	r3, r3, #-1
 192 0058 0373     		strbne	r3, [r0, #12]
  71:HAL/Src/timer.c ****                     p = p->next;
 193              		.loc 1 71 21 is_stmt 1 view .LVU57
  72:HAL/Src/timer.c ****                 }
 194              		.loc 1 72 21 view .LVU58
 195              	.LVL13:
  72:HAL/Src/timer.c ****                 }
 196              		.loc 1 72 21 is_stmt 0 view .LVU59
 197 005a F0E7     		b	.L5
 198              	.L23:
 199              		.align	2
 200              	.L22:
 201 005c 00000000 		.word	.LANCHOR1
 202 0060 00000000 		.word	.LANCHOR0
 203              	.LBE4:
 204              		.cfi_endproc
 205              	.LFE289:
 207              		.section	.text.timer_insert,"ax",%progbits
 208              		.align	1
 209              		.global	timer_insert
 210              		.syntax unified
 211              		.thumb
 212              		.thumb_func
 214              	timer_insert:
 215              	.LVL14:
 216              	.LFB290:
  80:HAL/Src/timer.c **** 
  81:HAL/Src/timer.c **** /**
  82:HAL/Src/timer.c ****  * @brief 定时事件列表插入函数（尾插法）
  83:HAL/Src/timer.c ****  * 
  84:HAL/Src/timer.c ****  * @param timeout 定时时间
  85:HAL/Src/timer.c ****  * @param cycles 重入次数，-1 为无限循环，0为不可重入，正整数为重入次数（
  86:HAL/Src/timer.c ****  * @param func 回调函数
  87:HAL/Src/timer.c ****  */
  88:HAL/Src/timer.c **** void timer_insert(uint32_t timeout,int8_t cycles,void *func,void *param){
ARM GAS  C:\Users\CL\AppData\Local\Temp\ccgxDLz5.s 			page 7


 217              		.loc 1 88 73 is_stmt 1 view -0
 218              		.cfi_startproc
 219              		@ args = 0, pretend = 0, frame = 0
 220              		@ frame_needed = 0, uses_anonymous_args = 0
  89:HAL/Src/timer.c ****     Timer_HandleTypeDef *new,*p;
 221              		.loc 1 89 5 view .LVU61
  90:HAL/Src/timer.c ****     new = (Timer_HandleTypeDef *)malloc(sizeof(Timer_HandleTypeDef));
 222              		.loc 1 90 5 view .LVU62
  88:HAL/Src/timer.c ****     Timer_HandleTypeDef *new,*p;
 223              		.loc 1 88 73 is_stmt 0 view .LVU63
 224 0000 F8B5     		push	{r3, r4, r5, r6, r7, lr}
 225              	.LCFI2:
 226              		.cfi_def_cfa_offset 24
 227              		.cfi_offset 3, -24
 228              		.cfi_offset 4, -20
 229              		.cfi_offset 5, -16
 230              		.cfi_offset 6, -12
 231              		.cfi_offset 7, -8
 232              		.cfi_offset 14, -4
  88:HAL/Src/timer.c ****     Timer_HandleTypeDef *new,*p;
 233              		.loc 1 88 73 view .LVU64
 234 0002 0546     		mov	r5, r0
 235              		.loc 1 90 34 view .LVU65
 236 0004 1C20     		movs	r0, #28
 237              	.LVL15:
  88:HAL/Src/timer.c ****     Timer_HandleTypeDef *new,*p;
 238              		.loc 1 88 73 view .LVU66
 239 0006 1746     		mov	r7, r2
 240 0008 1E46     		mov	r6, r3
 241 000a 0C46     		mov	r4, r1
 242              		.loc 1 90 34 view .LVU67
 243 000c FFF7FEFF 		bl	malloc
 244              	.LVL16:
  91:HAL/Src/timer.c ****     timer_list->block = 1;
 245              		.loc 1 91 5 is_stmt 1 view .LVU68
 246              		.loc 1 91 15 is_stmt 0 view .LVU69
 247 0010 094B     		ldr	r3, .L27
  92:HAL/Src/timer.c ****     p = timer_list;
  93:HAL/Src/timer.c ****     new->func = func;
  94:HAL/Src/timer.c ****     new->param = param;
  95:HAL/Src/timer.c ****     new->next = NULL;
  96:HAL/Src/timer.c ****     new->init_tick = base_tick;
  97:HAL/Src/timer.c ****     new->timeout = timeout;
  98:HAL/Src/timer.c ****     new->reenter_times = cycles;
 248              		.loc 1 98 24 view .LVU70
 249 0012 0473     		strb	r4, [r0, #12]
  91:HAL/Src/timer.c ****     timer_list->block = 1;
 250              		.loc 1 91 15 view .LVU71
 251 0014 1A68     		ldr	r2, [r3]
  92:HAL/Src/timer.c ****     p = timer_list;
 252              		.loc 1 92 5 is_stmt 1 view .LVU72
 253              	.LVL17:
  93:HAL/Src/timer.c ****     new->param = param;
 254              		.loc 1 93 5 view .LVU73
  95:HAL/Src/timer.c ****     new->init_tick = base_tick;
 255              		.loc 1 95 15 is_stmt 0 view .LVU74
 256 0016 0023     		movs	r3, #0
ARM GAS  C:\Users\CL\AppData\Local\Temp\ccgxDLz5.s 			page 8


 257 0018 8361     		str	r3, [r0, #24]
  96:HAL/Src/timer.c ****     new->timeout = timeout;
 258              		.loc 1 96 20 view .LVU75
 259 001a 084B     		ldr	r3, .L27+4
  94:HAL/Src/timer.c ****     new->next = NULL;
 260              		.loc 1 94 16 view .LVU76
 261 001c C0E90476 		strd	r7, r6, [r0, #16]
  95:HAL/Src/timer.c ****     new->init_tick = base_tick;
 262              		.loc 1 95 5 is_stmt 1 view .LVU77
  96:HAL/Src/timer.c ****     new->timeout = timeout;
 263              		.loc 1 96 5 view .LVU78
  96:HAL/Src/timer.c ****     new->timeout = timeout;
 264              		.loc 1 96 20 is_stmt 0 view .LVU79
 265 0020 1B68     		ldr	r3, [r3]
  97:HAL/Src/timer.c ****     new->reenter_times = cycles;
 266              		.loc 1 97 18 view .LVU80
 267 0022 C0E90135 		strd	r3, r5, [r0, #4]
 268              		.loc 1 98 5 is_stmt 1 view .LVU81
  99:HAL/Src/timer.c **** 
 100:HAL/Src/timer.c ****     while(p->next != NULL)
 269              		.loc 1 100 5 view .LVU82
  92:HAL/Src/timer.c ****     new->func = func;
 270              		.loc 1 92 7 is_stmt 0 view .LVU83
 271 0026 1346     		mov	r3, r2
 272              	.LVL18:
 273              	.L25:
 274              		.loc 1 100 10 is_stmt 1 view .LVU84
 275 0028 1946     		mov	r1, r3
 276              		.loc 1 100 12 is_stmt 0 view .LVU85
 277 002a 9B69     		ldr	r3, [r3, #24]
 278              	.LVL19:
 279              		.loc 1 100 10 view .LVU86
 280 002c 002B     		cmp	r3, #0
 281 002e FBD1     		bne	.L25
 101:HAL/Src/timer.c ****         p = p->next;
 102:HAL/Src/timer.c **** 
 103:HAL/Src/timer.c ****     p->next  = new;    
 282              		.loc 1 103 5 is_stmt 1 view .LVU87
 283              		.loc 1 103 14 is_stmt 0 view .LVU88
 284 0030 8861     		str	r0, [r1, #24]
 104:HAL/Src/timer.c ****     timer_list->block =0;
 285              		.loc 1 104 5 is_stmt 1 view .LVU89
 286              		.loc 1 104 23 is_stmt 0 view .LVU90
 287 0032 1370     		strb	r3, [r2]
 105:HAL/Src/timer.c **** };
 288              		.loc 1 105 1 view .LVU91
 289 0034 F8BD     		pop	{r3, r4, r5, r6, r7, pc}
 290              	.LVL20:
 291              	.L28:
 292              		.loc 1 105 1 view .LVU92
 293 0036 00BF     		.align	2
 294              	.L27:
 295 0038 00000000 		.word	.LANCHOR0
 296 003c 00000000 		.word	.LANCHOR1
 297              		.cfi_endproc
 298              	.LFE290:
 300              		.global	timer_list
ARM GAS  C:\Users\CL\AppData\Local\Temp\ccgxDLz5.s 			page 9


 301              		.global	base_tick
 302              		.section	.bss.base_tick,"aw",%nobits
 303              		.align	2
 304              		.set	.LANCHOR1,. + 0
 307              	base_tick:
 308 0000 00000000 		.space	4
 309              		.section	.bss.timer_list,"aw",%nobits
 310              		.align	2
 311              		.set	.LANCHOR0,. + 0
 314              	timer_list:
 315 0000 00000000 		.space	4
 316              		.text
 317              	.Letext0:
 318              		.file 2 "e:\\gcc-arm-none-eabi-10.3-2021.10-win32\\gcc-arm-none-eabi-10.3-2021.10\\arm-none-eabi\\
 319              		.file 3 "e:\\gcc-arm-none-eabi-10.3-2021.10-win32\\gcc-arm-none-eabi-10.3-2021.10\\arm-none-eabi\\
 320              		.file 4 "HAL/Inc/timer.h"
 321              		.file 5 "<built-in>"
ARM GAS  C:\Users\CL\AppData\Local\Temp\ccgxDLz5.s 			page 10


DEFINED SYMBOLS
                            *ABS*:00000000 timer.c
C:\Users\CL\AppData\Local\Temp\ccgxDLz5.s:20     .text.timer_init:00000000 $t
C:\Users\CL\AppData\Local\Temp\ccgxDLz5.s:26     .text.timer_init:00000000 timer_init
C:\Users\CL\AppData\Local\Temp\ccgxDLz5.s:60     .text.timer_init:00000014 $d
C:\Users\CL\AppData\Local\Temp\ccgxDLz5.s:65     .text.timer_update:00000000 $t
C:\Users\CL\AppData\Local\Temp\ccgxDLz5.s:71     .text.timer_update:00000000 timer_update
C:\Users\CL\AppData\Local\Temp\ccgxDLz5.s:201    .text.timer_update:0000005c $d
C:\Users\CL\AppData\Local\Temp\ccgxDLz5.s:208    .text.timer_insert:00000000 $t
C:\Users\CL\AppData\Local\Temp\ccgxDLz5.s:214    .text.timer_insert:00000000 timer_insert
C:\Users\CL\AppData\Local\Temp\ccgxDLz5.s:295    .text.timer_insert:00000038 $d
C:\Users\CL\AppData\Local\Temp\ccgxDLz5.s:314    .bss.timer_list:00000000 timer_list
C:\Users\CL\AppData\Local\Temp\ccgxDLz5.s:307    .bss.base_tick:00000000 base_tick
C:\Users\CL\AppData\Local\Temp\ccgxDLz5.s:303    .bss.base_tick:00000000 $d
C:\Users\CL\AppData\Local\Temp\ccgxDLz5.s:310    .bss.timer_list:00000000 $d

UNDEFINED SYMBOLS
malloc
free
