ARM GAS  C:\Users\CL\AppData\Local\Temp\ccBouBiT.s 			page 1


   1              		.cpu cortex-m4
   2              		.arch armv7e-m
   3              		.fpu fpv4-sp-d16
   4              		.eabi_attribute 27, 1
   5              		.eabi_attribute 28, 1
   6              		.eabi_attribute 20, 1
   7              		.eabi_attribute 21, 1
   8              		.eabi_attribute 23, 3
   9              		.eabi_attribute 24, 1
  10              		.eabi_attribute 25, 1
  11              		.eabi_attribute 26, 1
  12              		.eabi_attribute 30, 4
  13              		.eabi_attribute 34, 1
  14              		.eabi_attribute 18, 4
  15              		.file	"usart.c"
  16              		.text
  17              		.section	.text.MX_USART1_UART_Init,"ax",%progbits
  18              		.align	1
  19              		.global	MX_USART1_UART_Init
  20              		.syntax unified
  21              		.thumb
  22              		.thumb_func
  24              	MX_USART1_UART_Init:
  25              		@ args = 0, pretend = 0, frame = 0
  26              		@ frame_needed = 0, uses_anonymous_args = 0
  27 0000 0E48     		ldr	r0, .L6
  28 0002 0F4A     		ldr	r2, .L6+4
  29 0004 08B5     		push	{r3, lr}
  30 0006 4FF4E133 		mov	r3, #115200
  31 000a C0E90023 		strd	r2, r3, [r0]
  32 000e 0023     		movs	r3, #0
  33 0010 0C22     		movs	r2, #12
  34 0012 C0E90233 		strd	r3, r3, [r0, #8]
  35 0016 C0E90523 		strd	r2, r3, [r0, #20]
  36 001a C0E90733 		strd	r3, r3, [r0, #28]
  37 001e 0361     		str	r3, [r0, #16]
  38 0020 4362     		str	r3, [r0, #36]
  39 0022 FFF7FEFF 		bl	HAL_UART_Init
  40 0026 08B1     		cbz	r0, .L2
  41 0028 FFF7FEFF 		bl	Error_Handler
  42              	.L2:
  43 002c BDE80840 		pop	{r3, lr}
  44 0030 0449     		ldr	r1, .L6+8
  45 0032 0248     		ldr	r0, .L6
  46 0034 C822     		movs	r2, #200
  47 0036 FFF7FEBF 		b	HAL_UARTEx_ReceiveToIdle_IT
  48              	.L7:
  49 003a 00BF     		.align	2
  50              	.L6:
  51 003c 00000000 		.word	.LANCHOR0
  52 0040 00380140 		.word	1073821696
  53 0044 00000000 		.word	.LANCHOR1
  55              		.section	.text.MX_USART2_UART_Init,"ax",%progbits
  56              		.align	1
  57              		.global	MX_USART2_UART_Init
  58              		.syntax unified
  59              		.thumb
ARM GAS  C:\Users\CL\AppData\Local\Temp\ccBouBiT.s 			page 2


  60              		.thumb_func
  62              	MX_USART2_UART_Init:
  63              		@ args = 0, pretend = 0, frame = 0
  64              		@ frame_needed = 0, uses_anonymous_args = 0
  65 0000 0E48     		ldr	r0, .L13
  66 0002 0F4A     		ldr	r2, .L13+4
  67 0004 08B5     		push	{r3, lr}
  68 0006 4FF41653 		mov	r3, #9600
  69 000a C0E90023 		strd	r2, r3, [r0]
  70 000e 0023     		movs	r3, #0
  71 0010 0422     		movs	r2, #4
  72 0012 C0E90233 		strd	r3, r3, [r0, #8]
  73 0016 C0E90523 		strd	r2, r3, [r0, #20]
  74 001a C0E90733 		strd	r3, r3, [r0, #28]
  75 001e 0361     		str	r3, [r0, #16]
  76 0020 4362     		str	r3, [r0, #36]
  77 0022 FFF7FEFF 		bl	HAL_UART_Init
  78 0026 08B1     		cbz	r0, .L9
  79 0028 FFF7FEFF 		bl	Error_Handler
  80              	.L9:
  81 002c BDE80840 		pop	{r3, lr}
  82 0030 0449     		ldr	r1, .L13+8
  83 0032 0248     		ldr	r0, .L13
  84 0034 C822     		movs	r2, #200
  85 0036 FFF7FEBF 		b	HAL_UARTEx_ReceiveToIdle_IT
  86              	.L14:
  87 003a 00BF     		.align	2
  88              	.L13:
  89 003c 00000000 		.word	.LANCHOR2
  90 0040 00440040 		.word	1073759232
  91 0044 00000000 		.word	.LANCHOR3
  93              		.section	.text.MX_USART3_UART_Init,"ax",%progbits
  94              		.align	1
  95              		.global	MX_USART3_UART_Init
  96              		.syntax unified
  97              		.thumb
  98              		.thumb_func
 100              	MX_USART3_UART_Init:
 101              		@ args = 0, pretend = 0, frame = 0
 102              		@ frame_needed = 0, uses_anonymous_args = 0
 103 0000 0E48     		ldr	r0, .L20
 104 0002 0F4A     		ldr	r2, .L20+4
 105 0004 08B5     		push	{r3, lr}
 106 0006 4FF4E133 		mov	r3, #115200
 107 000a C0E90023 		strd	r2, r3, [r0]
 108 000e 0023     		movs	r3, #0
 109 0010 0C22     		movs	r2, #12
 110 0012 C0E90233 		strd	r3, r3, [r0, #8]
 111 0016 C0E90523 		strd	r2, r3, [r0, #20]
 112 001a C0E90733 		strd	r3, r3, [r0, #28]
 113 001e 0361     		str	r3, [r0, #16]
 114 0020 4362     		str	r3, [r0, #36]
 115 0022 FFF7FEFF 		bl	HAL_UART_Init
 116 0026 08B1     		cbz	r0, .L16
 117 0028 FFF7FEFF 		bl	Error_Handler
 118              	.L16:
 119 002c BDE80840 		pop	{r3, lr}
ARM GAS  C:\Users\CL\AppData\Local\Temp\ccBouBiT.s 			page 3


 120 0030 0449     		ldr	r1, .L20+8
 121 0032 0248     		ldr	r0, .L20
 122 0034 0122     		movs	r2, #1
 123 0036 FFF7FEBF 		b	HAL_UART_Receive_IT
 124              	.L21:
 125 003a 00BF     		.align	2
 126              	.L20:
 127 003c 00000000 		.word	.LANCHOR4
 128 0040 00480040 		.word	1073760256
 129 0044 00000000 		.word	.LANCHOR5
 131              		.section	.text.HAL_UART_MspInit,"ax",%progbits
 132              		.align	1
 133              		.global	HAL_UART_MspInit
 134              		.syntax unified
 135              		.thumb
 136              		.thumb_func
 138              	HAL_UART_MspInit:
 139              		@ args = 0, pretend = 0, frame = 136
 140              		@ frame_needed = 0, uses_anonymous_args = 0
 141 0000 30B5     		push	{r4, r5, lr}
 142 0002 A3B0     		sub	sp, sp, #140
 143 0004 0446     		mov	r4, r0
 144 0006 1422     		movs	r2, #20
 145 0008 0021     		movs	r1, #0
 146 000a 06A8     		add	r0, sp, #24
 147 000c FFF7FEFF 		bl	memset
 148 0010 5C22     		movs	r2, #92
 149 0012 0021     		movs	r1, #0
 150 0014 0BA8     		add	r0, sp, #44
 151 0016 FFF7FEFF 		bl	memset
 152 001a 2368     		ldr	r3, [r4]
 153 001c 4F4A     		ldr	r2, .L39
 154 001e 9342     		cmp	r3, r2
 155 0020 34D1     		bne	.L23
 156 0022 0123     		movs	r3, #1
 157 0024 0BA8     		add	r0, sp, #44
 158 0026 0B93     		str	r3, [sp, #44]
 159 0028 FFF7FEFF 		bl	HAL_RCCEx_PeriphCLKConfig
 160 002c 08B1     		cbz	r0, .L24
 161 002e FFF7FEFF 		bl	Error_Handler
 162              	.L24:
 163 0032 4B4B     		ldr	r3, .L39+4
 164 0034 1A6E     		ldr	r2, [r3, #96]
 165 0036 42F48042 		orr	r2, r2, #16384
 166 003a 1A66     		str	r2, [r3, #96]
 167 003c 1A6E     		ldr	r2, [r3, #96]
 168 003e 02F48042 		and	r2, r2, #16384
 169 0042 0092     		str	r2, [sp]
 170 0044 009A     		ldr	r2, [sp]
 171 0046 DA6C     		ldr	r2, [r3, #76]
 172 0048 42F00102 		orr	r2, r2, #1
 173 004c DA64     		str	r2, [r3, #76]
 174 004e DB6C     		ldr	r3, [r3, #76]
 175 0050 03F00103 		and	r3, r3, #1
 176 0054 0193     		str	r3, [sp, #4]
 177 0056 019B     		ldr	r3, [sp, #4]
 178 0058 4FF4C061 		mov	r1, #1536
ARM GAS  C:\Users\CL\AppData\Local\Temp\ccBouBiT.s 			page 4


 179 005c 0223     		movs	r3, #2
 180 005e CDE90613 		strd	r1, r3, [sp, #24]
 181 0062 0024     		movs	r4, #0
 182 0064 0323     		movs	r3, #3
 183 0066 CDE90843 		strd	r4, r3, [sp, #32]
 184 006a 06A9     		add	r1, sp, #24
 185 006c 0723     		movs	r3, #7
 186 006e 4FF09040 		mov	r0, #1207959552
 187 0072 0A93     		str	r3, [sp, #40]
 188 0074 FFF7FEFF 		bl	HAL_GPIO_Init
 189 0078 2520     		movs	r0, #37
 190 007a 2246     		mov	r2, r4
 191 007c 0121     		movs	r1, #1
 192 007e FFF7FEFF 		bl	HAL_NVIC_SetPriority
 193 0082 2520     		movs	r0, #37
 194              	.L38:
 195 0084 FFF7FEFF 		bl	HAL_NVIC_EnableIRQ
 196              	.L22:
 197 0088 23B0     		add	sp, sp, #140
 198              		@ sp needed
 199 008a 30BD     		pop	{r4, r5, pc}
 200              	.L23:
 201 008c 354A     		ldr	r2, .L39+8
 202 008e 9342     		cmp	r3, r2
 203 0090 30D1     		bne	.L26
 204 0092 0223     		movs	r3, #2
 205 0094 0BA8     		add	r0, sp, #44
 206 0096 0B93     		str	r3, [sp, #44]
 207 0098 FFF7FEFF 		bl	HAL_RCCEx_PeriphCLKConfig
 208 009c 08B1     		cbz	r0, .L27
 209 009e FFF7FEFF 		bl	Error_Handler
 210              	.L27:
 211 00a2 2F4B     		ldr	r3, .L39+4
 212 00a4 9A6D     		ldr	r2, [r3, #88]
 213 00a6 42F40032 		orr	r2, r2, #131072
 214 00aa 9A65     		str	r2, [r3, #88]
 215 00ac 9A6D     		ldr	r2, [r3, #88]
 216 00ae 02F40032 		and	r2, r2, #131072
 217 00b2 0292     		str	r2, [sp, #8]
 218 00b4 029A     		ldr	r2, [sp, #8]
 219 00b6 DA6C     		ldr	r2, [r3, #76]
 220 00b8 42F00102 		orr	r2, r2, #1
 221 00bc DA64     		str	r2, [r3, #76]
 222 00be DB6C     		ldr	r3, [r3, #76]
 223 00c0 03F00103 		and	r3, r3, #1
 224 00c4 0393     		str	r3, [sp, #12]
 225 00c6 039B     		ldr	r3, [sp, #12]
 226 00c8 0224     		movs	r4, #2
 227 00ca 0823     		movs	r3, #8
 228 00cc CDE90634 		strd	r3, r4, [sp, #24]
 229 00d0 0025     		movs	r5, #0
 230 00d2 0323     		movs	r3, #3
 231 00d4 CDE90853 		strd	r5, r3, [sp, #32]
 232 00d8 06A9     		add	r1, sp, #24
 233 00da 0723     		movs	r3, #7
 234 00dc 4FF09040 		mov	r0, #1207959552
 235 00e0 0A93     		str	r3, [sp, #40]
ARM GAS  C:\Users\CL\AppData\Local\Temp\ccBouBiT.s 			page 5


 236 00e2 FFF7FEFF 		bl	HAL_GPIO_Init
 237 00e6 2620     		movs	r0, #38
 238 00e8 2A46     		mov	r2, r5
 239 00ea 2146     		mov	r1, r4
 240 00ec FFF7FEFF 		bl	HAL_NVIC_SetPriority
 241 00f0 2620     		movs	r0, #38
 242 00f2 C7E7     		b	.L38
 243              	.L26:
 244 00f4 1C4A     		ldr	r2, .L39+12
 245 00f6 9342     		cmp	r3, r2
 246 00f8 C6D1     		bne	.L22
 247 00fa 0423     		movs	r3, #4
 248 00fc 0BA8     		add	r0, sp, #44
 249 00fe 0B93     		str	r3, [sp, #44]
 250 0100 FFF7FEFF 		bl	HAL_RCCEx_PeriphCLKConfig
 251 0104 08B1     		cbz	r0, .L28
 252 0106 FFF7FEFF 		bl	Error_Handler
 253              	.L28:
 254 010a 154B     		ldr	r3, .L39+4
 255 010c 1748     		ldr	r0, .L39+16
 256 010e 9A6D     		ldr	r2, [r3, #88]
 257 0110 42F48022 		orr	r2, r2, #262144
 258 0114 9A65     		str	r2, [r3, #88]
 259 0116 9A6D     		ldr	r2, [r3, #88]
 260 0118 02F48022 		and	r2, r2, #262144
 261 011c 0492     		str	r2, [sp, #16]
 262 011e 049A     		ldr	r2, [sp, #16]
 263 0120 DA6C     		ldr	r2, [r3, #76]
 264 0122 42F00202 		orr	r2, r2, #2
 265 0126 DA64     		str	r2, [r3, #76]
 266 0128 DB6C     		ldr	r3, [r3, #76]
 267 012a 03F00203 		and	r3, r3, #2
 268 012e 0593     		str	r3, [sp, #20]
 269 0130 4FF44062 		mov	r2, #3072
 270 0134 059B     		ldr	r3, [sp, #20]
 271 0136 0223     		movs	r3, #2
 272 0138 CDE90623 		strd	r2, r3, [sp, #24]
 273 013c 0324     		movs	r4, #3
 274 013e 0023     		movs	r3, #0
 275 0140 CDE90834 		strd	r3, r4, [sp, #32]
 276 0144 06A9     		add	r1, sp, #24
 277 0146 0723     		movs	r3, #7
 278 0148 0A93     		str	r3, [sp, #40]
 279 014a FFF7FEFF 		bl	HAL_GPIO_Init
 280 014e 2720     		movs	r0, #39
 281 0150 0122     		movs	r2, #1
 282 0152 2146     		mov	r1, r4
 283 0154 FFF7FEFF 		bl	HAL_NVIC_SetPriority
 284 0158 2720     		movs	r0, #39
 285 015a 93E7     		b	.L38
 286              	.L40:
 287              		.align	2
 288              	.L39:
 289 015c 00380140 		.word	1073821696
 290 0160 00100240 		.word	1073876992
 291 0164 00440040 		.word	1073759232
 292 0168 00480040 		.word	1073760256
ARM GAS  C:\Users\CL\AppData\Local\Temp\ccBouBiT.s 			page 6


 293 016c 00040048 		.word	1207960576
 295              		.section	.text.HAL_UART_MspDeInit,"ax",%progbits
 296              		.align	1
 297              		.global	HAL_UART_MspDeInit
 298              		.syntax unified
 299              		.thumb
 300              		.thumb_func
 302              	HAL_UART_MspDeInit:
 303              		@ args = 0, pretend = 0, frame = 0
 304              		@ frame_needed = 0, uses_anonymous_args = 0
 305 0000 08B5     		push	{r3, lr}
 306 0002 1B4A     		ldr	r2, .L46
 307 0004 0368     		ldr	r3, [r0]
 308 0006 9342     		cmp	r3, r2
 309 0008 10D1     		bne	.L42
 310 000a 02F55842 		add	r2, r2, #55296
 311 000e 4FF09040 		mov	r0, #1207959552
 312 0012 136E     		ldr	r3, [r2, #96]
 313 0014 23F48043 		bic	r3, r3, #16384
 314 0018 1366     		str	r3, [r2, #96]
 315 001a 4FF4C061 		mov	r1, #1536
 316 001e FFF7FEFF 		bl	HAL_GPIO_DeInit
 317 0022 2520     		movs	r0, #37
 318              	.L45:
 319 0024 BDE80840 		pop	{r3, lr}
 320 0028 FFF7FEBF 		b	HAL_NVIC_DisableIRQ
 321              	.L42:
 322 002c 114A     		ldr	r2, .L46+4
 323 002e 9342     		cmp	r3, r2
 324 0030 0CD1     		bne	.L43
 325 0032 02F5E632 		add	r2, r2, #117760
 326 0036 4FF09040 		mov	r0, #1207959552
 327 003a 936D     		ldr	r3, [r2, #88]
 328 003c 23F40033 		bic	r3, r3, #131072
 329 0040 9365     		str	r3, [r2, #88]
 330 0042 0C21     		movs	r1, #12
 331 0044 FFF7FEFF 		bl	HAL_GPIO_DeInit
 332 0048 2620     		movs	r0, #38
 333 004a EBE7     		b	.L45
 334              	.L43:
 335 004c 0A4A     		ldr	r2, .L46+8
 336 004e 9342     		cmp	r3, r2
 337 0050 0CD1     		bne	.L41
 338 0052 02F5E432 		add	r2, r2, #116736
 339 0056 0948     		ldr	r0, .L46+12
 340 0058 936D     		ldr	r3, [r2, #88]
 341 005a 23F48023 		bic	r3, r3, #262144
 342 005e 9365     		str	r3, [r2, #88]
 343 0060 4FF44061 		mov	r1, #3072
 344 0064 FFF7FEFF 		bl	HAL_GPIO_DeInit
 345 0068 2720     		movs	r0, #39
 346 006a DBE7     		b	.L45
 347              	.L41:
 348 006c 08BD     		pop	{r3, pc}
 349              	.L47:
 350 006e 00BF     		.align	2
 351              	.L46:
ARM GAS  C:\Users\CL\AppData\Local\Temp\ccBouBiT.s 			page 7


 352 0070 00380140 		.word	1073821696
 353 0074 00440040 		.word	1073759232
 354 0078 00480040 		.word	1073760256
 355 007c 00040048 		.word	1207960576
 357              		.section	.text.HAL_UART_RxCpltCallback,"ax",%progbits
 358              		.align	1
 359              		.global	HAL_UART_RxCpltCallback
 360              		.syntax unified
 361              		.thumb
 362              		.thumb_func
 364              	HAL_UART_RxCpltCallback:
 365              		@ args = 0, pretend = 0, frame = 0
 366              		@ frame_needed = 0, uses_anonymous_args = 0
 367 0000 0268     		ldr	r2, [r0]
 368 0002 084B     		ldr	r3, .L50
 369 0004 9A42     		cmp	r2, r3
 370 0006 10B5     		push	{r4, lr}
 371 0008 0BD1     		bne	.L48
 372 000a 074C     		ldr	r4, .L50+4
 373 000c 0748     		ldr	r0, .L50+8
 374 000e 2178     		ldrb	r1, [r4]	@ zero_extendqisi2
 375 0010 FFF7FEFF 		bl	shellHandler
 376 0014 2146     		mov	r1, r4
 377 0016 0648     		ldr	r0, .L50+12
 378 0018 BDE81040 		pop	{r4, lr}
 379 001c 0122     		movs	r2, #1
 380 001e FFF7FEBF 		b	HAL_UART_Receive_IT
 381              	.L48:
 382 0022 10BD     		pop	{r4, pc}
 383              	.L51:
 384              		.align	2
 385              	.L50:
 386 0024 00480040 		.word	1073760256
 387 0028 00000000 		.word	.LANCHOR5
 388 002c 00000000 		.word	shell
 389 0030 00000000 		.word	.LANCHOR4
 391              		.section	.text.HAL_UART_TxCpltCallback,"ax",%progbits
 392              		.align	1
 393              		.global	HAL_UART_TxCpltCallback
 394              		.syntax unified
 395              		.thumb
 396              		.thumb_func
 398              	HAL_UART_TxCpltCallback:
 399              		@ args = 0, pretend = 0, frame = 0
 400              		@ frame_needed = 0, uses_anonymous_args = 0
 401              		@ link register save eliminated.
 402 0000 7047     		bx	lr
 404              		.section	.text.HAL_UARTEx_RxEventCallback,"ax",%progbits
 405              		.align	1
 406              		.global	HAL_UARTEx_RxEventCallback
 407              		.syntax unified
 408              		.thumb
 409              		.thumb_func
 411              	HAL_UARTEx_RxEventCallback:
 412              		@ args = 0, pretend = 0, frame = 8
 413              		@ frame_needed = 0, uses_anonymous_args = 0
 414 0000 07B5     		push	{r0, r1, r2, lr}
ARM GAS  C:\Users\CL\AppData\Local\Temp\ccBouBiT.s 			page 8


 415 0002 0368     		ldr	r3, [r0]
 416 0004 0A46     		mov	r2, r1
 417 0006 1349     		ldr	r1, .L57
 418 0008 8B42     		cmp	r3, r1
 419 000a 10D1     		bne	.L54
 420 000c 1249     		ldr	r1, .L57+4
 421 000e 0192     		str	r2, [sp, #4]
 422 0010 FFF7FEFF 		bl	ec2x_handler
 423 0014 019A     		ldr	r2, [sp, #4]
 424 0016 1048     		ldr	r0, .L57+4
 425 0018 0021     		movs	r1, #0
 426 001a FFF7FEFF 		bl	memset
 427 001e 0E49     		ldr	r1, .L57+4
 428 0020 0E48     		ldr	r0, .L57+8
 429 0022 C822     		movs	r2, #200
 430              	.L56:
 431 0024 03B0     		add	sp, sp, #12
 432              		@ sp needed
 433 0026 5DF804EB 		ldr	lr, [sp], #4
 434 002a FFF7FEBF 		b	HAL_UARTEx_ReceiveToIdle_IT
 435              	.L54:
 436 002e 0C49     		ldr	r1, .L57+12
 437 0030 8B42     		cmp	r3, r1
 438 0032 0CD1     		bne	.L53
 439 0034 0B49     		ldr	r1, .L57+16
 440 0036 0192     		str	r2, [sp, #4]
 441 0038 FFF7FEFF 		bl	atgm_handler
 442 003c 019A     		ldr	r2, [sp, #4]
 443 003e 0948     		ldr	r0, .L57+16
 444 0040 0021     		movs	r1, #0
 445 0042 FFF7FEFF 		bl	memset
 446 0046 0749     		ldr	r1, .L57+16
 447 0048 0748     		ldr	r0, .L57+20
 448 004a C822     		movs	r2, #200
 449 004c EAE7     		b	.L56
 450              	.L53:
 451 004e 03B0     		add	sp, sp, #12
 452              		@ sp needed
 453 0050 5DF804FB 		ldr	pc, [sp], #4
 454              	.L58:
 455              		.align	2
 456              	.L57:
 457 0054 00380140 		.word	1073821696
 458 0058 00000000 		.word	.LANCHOR1
 459 005c 00000000 		.word	.LANCHOR0
 460 0060 00440040 		.word	1073759232
 461 0064 00000000 		.word	.LANCHOR3
 462 0068 00000000 		.word	.LANCHOR2
 464              		.section	.text.HAL_UART_ErrorCallback,"ax",%progbits
 465              		.align	1
 466              		.global	HAL_UART_ErrorCallback
 467              		.syntax unified
 468              		.thumb
 469              		.thumb_func
 471              	HAL_UART_ErrorCallback:
 472              		@ args = 0, pretend = 0, frame = 0
 473              		@ frame_needed = 0, uses_anonymous_args = 0
ARM GAS  C:\Users\CL\AppData\Local\Temp\ccBouBiT.s 			page 9


 474              		@ link register save eliminated.
 475 0000 0368     		ldr	r3, [r0]
 476 0002 084A     		ldr	r2, .L63
 477 0004 9342     		cmp	r3, r2
 478 0006 04D1     		bne	.L60
 479 0008 0749     		ldr	r1, .L63+4
 480 000a 0848     		ldr	r0, .L63+8
 481 000c C822     		movs	r2, #200
 482              	.L62:
 483 000e FFF7FEBF 		b	HAL_UARTEx_ReceiveToIdle_IT
 484              	.L60:
 485 0012 074A     		ldr	r2, .L63+12
 486 0014 9342     		cmp	r3, r2
 487 0016 03D1     		bne	.L59
 488 0018 0649     		ldr	r1, .L63+16
 489 001a 0748     		ldr	r0, .L63+20
 490 001c C822     		movs	r2, #200
 491 001e F6E7     		b	.L62
 492              	.L59:
 493 0020 7047     		bx	lr
 494              	.L64:
 495 0022 00BF     		.align	2
 496              	.L63:
 497 0024 00440040 		.word	1073759232
 498 0028 00000000 		.word	.LANCHOR3
 499 002c 00000000 		.word	.LANCHOR2
 500 0030 00380140 		.word	1073821696
 501 0034 00000000 		.word	.LANCHOR1
 502 0038 00000000 		.word	.LANCHOR0
 504              		.global	huart3
 505              		.global	huart2
 506              		.global	huart1
 507              		.global	u3_cache
 508              		.global	u2_cache
 509              		.global	u1_cache
 510              		.section	.bss.huart1,"aw",%nobits
 511              		.align	2
 512              		.set	.LANCHOR0,. + 0
 515              	huart1:
 516 0000 00000000 		.space	132
 516      00000000 
 516      00000000 
 516      00000000 
 516      00000000 
 517              		.section	.bss.huart2,"aw",%nobits
 518              		.align	2
 519              		.set	.LANCHOR2,. + 0
 522              	huart2:
 523 0000 00000000 		.space	132
 523      00000000 
 523      00000000 
 523      00000000 
 523      00000000 
 524              		.section	.bss.huart3,"aw",%nobits
 525              		.align	2
 526              		.set	.LANCHOR4,. + 0
 529              	huart3:
ARM GAS  C:\Users\CL\AppData\Local\Temp\ccBouBiT.s 			page 10


 530 0000 00000000 		.space	132
 530      00000000 
 530      00000000 
 530      00000000 
 530      00000000 
 531              		.section	.bss.u1_cache,"aw",%nobits
 532              		.set	.LANCHOR1,. + 0
 535              	u1_cache:
 536 0000 00000000 		.space	200
 536      00000000 
 536      00000000 
 536      00000000 
 536      00000000 
 537              		.section	.bss.u2_cache,"aw",%nobits
 538              		.set	.LANCHOR3,. + 0
 541              	u2_cache:
 542 0000 00000000 		.space	200
 542      00000000 
 542      00000000 
 542      00000000 
 542      00000000 
 543              		.section	.bss.u3_cache,"aw",%nobits
 544              		.set	.LANCHOR5,. + 0
 547              	u3_cache:
 548 0000 00       		.space	1
 549              		.ident	"GCC: (GNU Arm Embedded Toolchain 10.3-2021.10) 10.3.1 20210824 (release)"
ARM GAS  C:\Users\CL\AppData\Local\Temp\ccBouBiT.s 			page 11

