ARM GAS  /var/folders/h7/llxr0vxd5sd9z74__7r6nx9r0000gn/T//cc7Yj8cp.s 			page 1


   1              		.cpu cortex-m4
   2              		.arch armv7e-m
   3              		.fpu fpv4-sp-d16
   4              		.eabi_attribute 27, 1
   5              		.eabi_attribute 28, 1
   6              		.eabi_attribute 20, 1
   7              		.eabi_attribute 21, 1
   8              		.eabi_attribute 23, 3
   9              		.eabi_attribute 24, 1
  10              		.eabi_attribute 25, 1
  11              		.eabi_attribute 26, 1
  12              		.eabi_attribute 30, 1
  13              		.eabi_attribute 34, 1
  14              		.eabi_attribute 18, 4
  15              		.file	"W25QXX.c"
  16              		.text
  17              	.Ltext0:
  18              		.cfi_sections	.debug_frame
  19              		.file 1 "FML/Src/W25QXX.c"
  20              		.section	.text.BSP_W25Qx_Reset,"ax",%progbits
  21              		.align	1
  22              		.syntax unified
  23              		.thumb
  24              		.thumb_func
  26              	BSP_W25Qx_Reset:
  27              	.LFB289:
   1:FML/Src/W25QXX.c **** /**************************************************************************************************
   2:FML/Src/W25QXX.c **** *
   3:FML/Src/W25QXX.c **** * File                : ws_W25Qx.c
   4:FML/Src/W25QXX.c **** * Hardware Environment: 
   5:FML/Src/W25QXX.c **** * Build Environment   : RealView MDK-ARM  Version: 4.20
   6:FML/Src/W25QXX.c **** * Version             : V1.0
   7:FML/Src/W25QXX.c **** * By                  : 
   8:FML/Src/W25QXX.c **** *
   9:FML/Src/W25QXX.c **** *                                  (c) Copyright 2005-2011, WaveShare
  10:FML/Src/W25QXX.c **** *                                       http://www.waveshare.net
  11:FML/Src/W25QXX.c **** *                                          All Rights Reserved
  12:FML/Src/W25QXX.c **** *
  13:FML/Src/W25QXX.c **** ***************************************************************************************************
  14:FML/Src/W25QXX.c **** 
  15:FML/Src/W25QXX.c **** #include "W25QXX.h"
  16:FML/Src/W25QXX.c **** 
  17:FML/Src/W25QXX.c **** /**
  18:FML/Src/W25QXX.c ****   * @brief  Initializes the W25Q128FV interface.
  19:FML/Src/W25QXX.c ****   * @retval None
  20:FML/Src/W25QXX.c ****   */
  21:FML/Src/W25QXX.c **** uint8_t BSP_W25Qx_Init(void)
  22:FML/Src/W25QXX.c **** { 
  23:FML/Src/W25QXX.c **** 	/* Reset W25Qxxx */
  24:FML/Src/W25QXX.c **** 	BSP_W25Qx_Reset();
  25:FML/Src/W25QXX.c **** 	
  26:FML/Src/W25QXX.c **** 	return BSP_W25Qx_GetStatus();
  27:FML/Src/W25QXX.c **** }
  28:FML/Src/W25QXX.c **** 
  29:FML/Src/W25QXX.c **** /**
  30:FML/Src/W25QXX.c ****   * @brief  This function reset the W25Qx.
  31:FML/Src/W25QXX.c ****   * @retval None
ARM GAS  /var/folders/h7/llxr0vxd5sd9z74__7r6nx9r0000gn/T//cc7Yj8cp.s 			page 2


  32:FML/Src/W25QXX.c ****   */
  33:FML/Src/W25QXX.c **** static void	BSP_W25Qx_Reset(void)
  34:FML/Src/W25QXX.c **** {
  28              		.loc 1 34 1 view -0
  29              		.cfi_startproc
  30              		@ args = 0, pretend = 0, frame = 8
  31              		@ frame_needed = 0, uses_anonymous_args = 0
  32 0000 00B5     		push	{lr}
  33              	.LCFI0:
  34              		.cfi_def_cfa_offset 4
  35              		.cfi_offset 14, -4
  36 0002 83B0     		sub	sp, sp, #12
  37              	.LCFI1:
  38              		.cfi_def_cfa_offset 16
  35:FML/Src/W25QXX.c **** 	uint8_t cmd[2] = {RESET_ENABLE_CMD,RESET_MEMORY_CMD};
  39              		.loc 1 35 2 view .LVU1
  40              		.loc 1 35 10 is_stmt 0 view .LVU2
  41 0004 49F66613 		movw	r3, #39270
  42 0008 ADF80430 		strh	r3, [sp, #4]	@ movhi
  36:FML/Src/W25QXX.c **** 	
  37:FML/Src/W25QXX.c **** 	W25Qx_Enable();
  43              		.loc 1 37 2 is_stmt 1 view .LVU3
  44 000c 0022     		movs	r2, #0
  45 000e 1021     		movs	r1, #16
  46 0010 4FF09040 		mov	r0, #1207959552
  47 0014 FFF7FEFF 		bl	HAL_GPIO_WritePin
  48              	.LVL0:
  38:FML/Src/W25QXX.c **** 	/* Send the reset command */
  39:FML/Src/W25QXX.c **** 	HAL_SPI_Transmit(&hspi3, cmd, 2, W25Qx_TIMEOUT_VALUE);	
  49              		.loc 1 39 2 view .LVU4
  50 0018 4FF47A73 		mov	r3, #1000
  51 001c 0222     		movs	r2, #2
  52 001e 01A9     		add	r1, sp, #4
  53 0020 0548     		ldr	r0, .L3
  54 0022 FFF7FEFF 		bl	HAL_SPI_Transmit
  55              	.LVL1:
  40:FML/Src/W25QXX.c **** 	W25Qx_Disable();
  56              		.loc 1 40 2 view .LVU5
  57 0026 0122     		movs	r2, #1
  58 0028 1021     		movs	r1, #16
  59 002a 4FF09040 		mov	r0, #1207959552
  60 002e FFF7FEFF 		bl	HAL_GPIO_WritePin
  61              	.LVL2:
  41:FML/Src/W25QXX.c **** 
  42:FML/Src/W25QXX.c **** }
  62              		.loc 1 42 1 is_stmt 0 view .LVU6
  63 0032 03B0     		add	sp, sp, #12
  64              	.LCFI2:
  65              		.cfi_def_cfa_offset 4
  66              		@ sp needed
  67 0034 5DF804FB 		ldr	pc, [sp], #4
  68              	.L4:
  69              		.align	2
  70              	.L3:
  71 0038 00000000 		.word	hspi3
  72              		.cfi_endproc
  73              	.LFE289:
ARM GAS  /var/folders/h7/llxr0vxd5sd9z74__7r6nx9r0000gn/T//cc7Yj8cp.s 			page 3


  75              		.section	.text.BSP_W25Qx_GetStatus,"ax",%progbits
  76              		.align	1
  77              		.syntax unified
  78              		.thumb
  79              		.thumb_func
  81              	BSP_W25Qx_GetStatus:
  82              	.LFB290:
  43:FML/Src/W25QXX.c **** 
  44:FML/Src/W25QXX.c **** /**
  45:FML/Src/W25QXX.c ****   * @brief  Reads current status of the W25Q128FV.
  46:FML/Src/W25QXX.c ****   * @retval W25Q128FV memory status
  47:FML/Src/W25QXX.c ****   */
  48:FML/Src/W25QXX.c **** static uint8_t BSP_W25Qx_GetStatus(void)
  49:FML/Src/W25QXX.c **** {
  83              		.loc 1 49 1 is_stmt 1 view -0
  84              		.cfi_startproc
  85              		@ args = 0, pretend = 0, frame = 8
  86              		@ frame_needed = 0, uses_anonymous_args = 0
  87 0000 10B5     		push	{r4, lr}
  88              	.LCFI3:
  89              		.cfi_def_cfa_offset 8
  90              		.cfi_offset 4, -8
  91              		.cfi_offset 14, -4
  92 0002 82B0     		sub	sp, sp, #8
  93              	.LCFI4:
  94              		.cfi_def_cfa_offset 16
  50:FML/Src/W25QXX.c **** 	uint8_t cmd[] = {READ_STATUS_REG1_CMD};
  95              		.loc 1 50 2 view .LVU8
  96              		.loc 1 50 10 is_stmt 0 view .LVU9
  97 0004 0523     		movs	r3, #5
  98 0006 8DF80430 		strb	r3, [sp, #4]
  51:FML/Src/W25QXX.c **** 	uint8_t status;
  99              		.loc 1 51 2 is_stmt 1 view .LVU10
  52:FML/Src/W25QXX.c **** 	
  53:FML/Src/W25QXX.c **** 	W25Qx_Enable();
 100              		.loc 1 53 2 view .LVU11
 101 000a 0022     		movs	r2, #0
 102 000c 1021     		movs	r1, #16
 103 000e 4FF09040 		mov	r0, #1207959552
 104 0012 FFF7FEFF 		bl	HAL_GPIO_WritePin
 105              	.LVL3:
  54:FML/Src/W25QXX.c **** 	/* Send the read status command */
  55:FML/Src/W25QXX.c **** 	HAL_SPI_Transmit(&hspi3, cmd, 1, W25Qx_TIMEOUT_VALUE);	
 106              		.loc 1 55 2 view .LVU12
 107 0016 0F4C     		ldr	r4, .L9
 108 0018 4FF47A73 		mov	r3, #1000
 109 001c 0122     		movs	r2, #1
 110 001e 01A9     		add	r1, sp, #4
 111 0020 2046     		mov	r0, r4
 112 0022 FFF7FEFF 		bl	HAL_SPI_Transmit
 113              	.LVL4:
  56:FML/Src/W25QXX.c **** 	/* Reception of the data */
  57:FML/Src/W25QXX.c **** 	HAL_SPI_Receive(&hspi3,&status, 1, W25Qx_TIMEOUT_VALUE);
 114              		.loc 1 57 2 view .LVU13
 115 0026 4FF47A73 		mov	r3, #1000
 116 002a 0122     		movs	r2, #1
 117 002c 0DF10301 		add	r1, sp, #3
ARM GAS  /var/folders/h7/llxr0vxd5sd9z74__7r6nx9r0000gn/T//cc7Yj8cp.s 			page 4


 118 0030 2046     		mov	r0, r4
 119 0032 FFF7FEFF 		bl	HAL_SPI_Receive
 120              	.LVL5:
  58:FML/Src/W25QXX.c **** 	W25Qx_Disable();
 121              		.loc 1 58 2 view .LVU14
 122 0036 0122     		movs	r2, #1
 123 0038 1021     		movs	r1, #16
 124 003a 4FF09040 		mov	r0, #1207959552
 125 003e FFF7FEFF 		bl	HAL_GPIO_WritePin
 126              	.LVL6:
  59:FML/Src/W25QXX.c **** 	
  60:FML/Src/W25QXX.c **** 	/* Check the value of the register */
  61:FML/Src/W25QXX.c ****   if((status & W25Q128FV_FSR_BUSY) != 0)
 127              		.loc 1 61 3 view .LVU15
 128              		.loc 1 61 14 is_stmt 0 view .LVU16
 129 0042 9DF80300 		ldrb	r0, [sp, #3]	@ zero_extendqisi2
 130              		.loc 1 61 5 view .LVU17
 131 0046 10F00100 		ands	r0, r0, #1
 132 004a 01D1     		bne	.L8
 133              	.L6:
  62:FML/Src/W25QXX.c ****   {
  63:FML/Src/W25QXX.c ****     return W25Qx_BUSY;
  64:FML/Src/W25QXX.c ****   }
  65:FML/Src/W25QXX.c **** 	else
  66:FML/Src/W25QXX.c **** 	{
  67:FML/Src/W25QXX.c **** 		return W25Qx_OK;
  68:FML/Src/W25QXX.c **** 	}		
  69:FML/Src/W25QXX.c **** }
 134              		.loc 1 69 1 view .LVU18
 135 004c 02B0     		add	sp, sp, #8
 136              	.LCFI5:
 137              		.cfi_remember_state
 138              		.cfi_def_cfa_offset 8
 139              		@ sp needed
 140 004e 10BD     		pop	{r4, pc}
 141              	.L8:
 142              	.LCFI6:
 143              		.cfi_restore_state
  63:FML/Src/W25QXX.c ****   }
 144              		.loc 1 63 12 view .LVU19
 145 0050 0220     		movs	r0, #2
 146 0052 FBE7     		b	.L6
 147              	.L10:
 148              		.align	2
 149              	.L9:
 150 0054 00000000 		.word	hspi3
 151              		.cfi_endproc
 152              	.LFE290:
 154              		.section	.text.BSP_W25Qx_Init,"ax",%progbits
 155              		.align	1
 156              		.global	BSP_W25Qx_Init
 157              		.syntax unified
 158              		.thumb
 159              		.thumb_func
 161              	BSP_W25Qx_Init:
 162              	.LFB288:
  22:FML/Src/W25QXX.c **** 	/* Reset W25Qxxx */
ARM GAS  /var/folders/h7/llxr0vxd5sd9z74__7r6nx9r0000gn/T//cc7Yj8cp.s 			page 5


 163              		.loc 1 22 1 is_stmt 1 view -0
 164              		.cfi_startproc
 165              		@ args = 0, pretend = 0, frame = 0
 166              		@ frame_needed = 0, uses_anonymous_args = 0
 167 0000 08B5     		push	{r3, lr}
 168              	.LCFI7:
 169              		.cfi_def_cfa_offset 8
 170              		.cfi_offset 3, -8
 171              		.cfi_offset 14, -4
  24:FML/Src/W25QXX.c **** 	
 172              		.loc 1 24 2 view .LVU21
 173 0002 FFF7FEFF 		bl	BSP_W25Qx_Reset
 174              	.LVL7:
  26:FML/Src/W25QXX.c **** }
 175              		.loc 1 26 2 view .LVU22
  26:FML/Src/W25QXX.c **** }
 176              		.loc 1 26 9 is_stmt 0 view .LVU23
 177 0006 FFF7FEFF 		bl	BSP_W25Qx_GetStatus
 178              	.LVL8:
  27:FML/Src/W25QXX.c **** 
 179              		.loc 1 27 1 view .LVU24
 180 000a 08BD     		pop	{r3, pc}
 181              		.cfi_endproc
 182              	.LFE288:
 184              		.section	.text.BSP_W25Qx_WriteEnable,"ax",%progbits
 185              		.align	1
 186              		.global	BSP_W25Qx_WriteEnable
 187              		.syntax unified
 188              		.thumb
 189              		.thumb_func
 191              	BSP_W25Qx_WriteEnable:
 192              	.LFB291:
  70:FML/Src/W25QXX.c **** 
  71:FML/Src/W25QXX.c **** /**
  72:FML/Src/W25QXX.c ****   * @brief  This function send a Write Enable and wait it is effective.
  73:FML/Src/W25QXX.c ****   * @retval None
  74:FML/Src/W25QXX.c ****   */
  75:FML/Src/W25QXX.c **** uint8_t BSP_W25Qx_WriteEnable(void)
  76:FML/Src/W25QXX.c **** {
 193              		.loc 1 76 1 is_stmt 1 view -0
 194              		.cfi_startproc
 195              		@ args = 0, pretend = 0, frame = 8
 196              		@ frame_needed = 0, uses_anonymous_args = 0
 197 0000 10B5     		push	{r4, lr}
 198              	.LCFI8:
 199              		.cfi_def_cfa_offset 8
 200              		.cfi_offset 4, -8
 201              		.cfi_offset 14, -4
 202 0002 82B0     		sub	sp, sp, #8
 203              	.LCFI9:
 204              		.cfi_def_cfa_offset 16
  77:FML/Src/W25QXX.c **** 	uint8_t cmd[] = {WRITE_ENABLE_CMD};
 205              		.loc 1 77 2 view .LVU26
 206              		.loc 1 77 10 is_stmt 0 view .LVU27
 207 0004 0623     		movs	r3, #6
 208 0006 8DF80430 		strb	r3, [sp, #4]
  78:FML/Src/W25QXX.c **** 	uint32_t tickstart = HAL_GetTick();
ARM GAS  /var/folders/h7/llxr0vxd5sd9z74__7r6nx9r0000gn/T//cc7Yj8cp.s 			page 6


 209              		.loc 1 78 2 is_stmt 1 view .LVU28
 210              		.loc 1 78 23 is_stmt 0 view .LVU29
 211 000a FFF7FEFF 		bl	HAL_GetTick
 212              	.LVL9:
 213 000e 0446     		mov	r4, r0
 214              	.LVL10:
  79:FML/Src/W25QXX.c **** 
  80:FML/Src/W25QXX.c **** 	/*Select the FLASH: Chip Select low */
  81:FML/Src/W25QXX.c **** 	W25Qx_Enable();
 215              		.loc 1 81 2 is_stmt 1 view .LVU30
 216 0010 0022     		movs	r2, #0
 217 0012 1021     		movs	r1, #16
 218 0014 4FF09040 		mov	r0, #1207959552
 219              	.LVL11:
 220              		.loc 1 81 2 is_stmt 0 view .LVU31
 221 0018 FFF7FEFF 		bl	HAL_GPIO_WritePin
 222              	.LVL12:
  82:FML/Src/W25QXX.c **** 	/* Send the read ID command */
  83:FML/Src/W25QXX.c **** 	HAL_SPI_Transmit(&hspi3, cmd, 1, W25Qx_TIMEOUT_VALUE);	
 223              		.loc 1 83 2 is_stmt 1 view .LVU32
 224 001c 4FF47A73 		mov	r3, #1000
 225 0020 0122     		movs	r2, #1
 226 0022 01A9     		add	r1, sp, #4
 227 0024 0B48     		ldr	r0, .L18
 228 0026 FFF7FEFF 		bl	HAL_SPI_Transmit
 229              	.LVL13:
  84:FML/Src/W25QXX.c **** 	/*Deselect the FLASH: Chip Select high */
  85:FML/Src/W25QXX.c **** 	W25Qx_Disable();
 230              		.loc 1 85 2 view .LVU33
 231 002a 0122     		movs	r2, #1
 232 002c 1021     		movs	r1, #16
 233 002e 4FF09040 		mov	r0, #1207959552
 234 0032 FFF7FEFF 		bl	HAL_GPIO_WritePin
 235              	.LVL14:
  86:FML/Src/W25QXX.c **** 	
  87:FML/Src/W25QXX.c **** 	/* Wait the end of Flash writing */
  88:FML/Src/W25QXX.c **** 	while(BSP_W25Qx_GetStatus() == W25Qx_BUSY);
 236              		.loc 1 88 2 view .LVU34
 237              	.L14:
 238              		.loc 1 88 30 discriminator 1 view .LVU35
 239              		.loc 1 88 8 is_stmt 0 discriminator 1 view .LVU36
 240 0036 FFF7FEFF 		bl	BSP_W25Qx_GetStatus
 241              	.LVL15:
 242              		.loc 1 88 30 discriminator 1 view .LVU37
 243 003a 0228     		cmp	r0, #2
 244 003c FBD0     		beq	.L14
  89:FML/Src/W25QXX.c **** 	{
  90:FML/Src/W25QXX.c **** 		/* Check for the Timeout */
  91:FML/Src/W25QXX.c ****     if((HAL_GetTick() - tickstart) > W25Qx_TIMEOUT_VALUE)
 245              		.loc 1 91 5 is_stmt 1 view .LVU38
 246              		.loc 1 91 9 is_stmt 0 view .LVU39
 247 003e FFF7FEFF 		bl	HAL_GetTick
 248              	.LVL16:
 249              		.loc 1 91 23 view .LVU40
 250 0042 001B     		subs	r0, r0, r4
 251              		.loc 1 91 7 view .LVU41
 252 0044 B0F57A7F 		cmp	r0, #1000
ARM GAS  /var/folders/h7/llxr0vxd5sd9z74__7r6nx9r0000gn/T//cc7Yj8cp.s 			page 7


 253 0048 02D8     		bhi	.L16
  92:FML/Src/W25QXX.c ****     {        
  93:FML/Src/W25QXX.c **** 			return W25Qx_TIMEOUT;
  94:FML/Src/W25QXX.c ****     }
  95:FML/Src/W25QXX.c **** 	}
  96:FML/Src/W25QXX.c **** 	
  97:FML/Src/W25QXX.c **** 	return W25Qx_OK;
 254              		.loc 1 97 9 view .LVU42
 255 004a 0020     		movs	r0, #0
 256              	.L15:
  98:FML/Src/W25QXX.c **** }
 257              		.loc 1 98 1 view .LVU43
 258 004c 02B0     		add	sp, sp, #8
 259              	.LCFI10:
 260              		.cfi_remember_state
 261              		.cfi_def_cfa_offset 8
 262              		@ sp needed
 263 004e 10BD     		pop	{r4, pc}
 264              	.LVL17:
 265              	.L16:
 266              	.LCFI11:
 267              		.cfi_restore_state
  93:FML/Src/W25QXX.c ****     }
 268              		.loc 1 93 11 view .LVU44
 269 0050 0320     		movs	r0, #3
 270 0052 FBE7     		b	.L15
 271              	.L19:
 272              		.align	2
 273              	.L18:
 274 0054 00000000 		.word	hspi3
 275              		.cfi_endproc
 276              	.LFE291:
 278              		.section	.text.BSP_W25Qx_Read_ID,"ax",%progbits
 279              		.align	1
 280              		.global	BSP_W25Qx_Read_ID
 281              		.syntax unified
 282              		.thumb
 283              		.thumb_func
 285              	BSP_W25Qx_Read_ID:
 286              	.LVL18:
 287              	.LFB292:
  99:FML/Src/W25QXX.c **** 
 100:FML/Src/W25QXX.c **** /**
 101:FML/Src/W25QXX.c ****   * @brief  Read Manufacture/Device ID.
 102:FML/Src/W25QXX.c **** 	* @param  return value address
 103:FML/Src/W25QXX.c ****   * @retval None
 104:FML/Src/W25QXX.c ****   */
 105:FML/Src/W25QXX.c **** void BSP_W25Qx_Read_ID(uint8_t *ID)
 106:FML/Src/W25QXX.c **** {
 288              		.loc 1 106 1 is_stmt 1 view -0
 289              		.cfi_startproc
 290              		@ args = 0, pretend = 0, frame = 8
 291              		@ frame_needed = 0, uses_anonymous_args = 0
 292              		.loc 1 106 1 is_stmt 0 view .LVU46
 293 0000 30B5     		push	{r4, r5, lr}
 294              	.LCFI12:
 295              		.cfi_def_cfa_offset 12
ARM GAS  /var/folders/h7/llxr0vxd5sd9z74__7r6nx9r0000gn/T//cc7Yj8cp.s 			page 8


 296              		.cfi_offset 4, -12
 297              		.cfi_offset 5, -8
 298              		.cfi_offset 14, -4
 299 0002 83B0     		sub	sp, sp, #12
 300              	.LCFI13:
 301              		.cfi_def_cfa_offset 24
 302 0004 0446     		mov	r4, r0
 107:FML/Src/W25QXX.c **** 	uint8_t cmd[4] = {READ_ID_CMD,0x00,0x00,0x00};
 303              		.loc 1 107 2 is_stmt 1 view .LVU47
 304              		.loc 1 107 10 is_stmt 0 view .LVU48
 305 0006 9023     		movs	r3, #144
 306 0008 0193     		str	r3, [sp, #4]
 108:FML/Src/W25QXX.c **** 	
 109:FML/Src/W25QXX.c **** 	W25Qx_Enable();
 307              		.loc 1 109 2 is_stmt 1 view .LVU49
 308 000a 0022     		movs	r2, #0
 309 000c 1021     		movs	r1, #16
 310 000e 4FF09040 		mov	r0, #1207959552
 311              	.LVL19:
 312              		.loc 1 109 2 is_stmt 0 view .LVU50
 313 0012 FFF7FEFF 		bl	HAL_GPIO_WritePin
 314              	.LVL20:
 110:FML/Src/W25QXX.c **** 	/* Send the read ID command */
 111:FML/Src/W25QXX.c **** 	HAL_SPI_Transmit(&hspi3, cmd, 4, W25Qx_TIMEOUT_VALUE);	
 315              		.loc 1 111 2 is_stmt 1 view .LVU51
 316 0016 0C4D     		ldr	r5, .L22
 317 0018 4FF47A73 		mov	r3, #1000
 318 001c 0422     		movs	r2, #4
 319 001e 0DEB0201 		add	r1, sp, r2
 320 0022 2846     		mov	r0, r5
 321 0024 FFF7FEFF 		bl	HAL_SPI_Transmit
 322              	.LVL21:
 112:FML/Src/W25QXX.c **** 	/* Reception of the data */
 113:FML/Src/W25QXX.c **** 	HAL_SPI_Receive(&hspi3,ID, 2, W25Qx_TIMEOUT_VALUE);
 323              		.loc 1 113 2 view .LVU52
 324 0028 4FF47A73 		mov	r3, #1000
 325 002c 0222     		movs	r2, #2
 326 002e 2146     		mov	r1, r4
 327 0030 2846     		mov	r0, r5
 328 0032 FFF7FEFF 		bl	HAL_SPI_Receive
 329              	.LVL22:
 114:FML/Src/W25QXX.c **** 	W25Qx_Disable();
 330              		.loc 1 114 2 view .LVU53
 331 0036 0122     		movs	r2, #1
 332 0038 1021     		movs	r1, #16
 333 003a 4FF09040 		mov	r0, #1207959552
 334 003e FFF7FEFF 		bl	HAL_GPIO_WritePin
 335              	.LVL23:
 115:FML/Src/W25QXX.c **** 		
 116:FML/Src/W25QXX.c **** }
 336              		.loc 1 116 1 is_stmt 0 view .LVU54
 337 0042 03B0     		add	sp, sp, #12
 338              	.LCFI14:
 339              		.cfi_def_cfa_offset 12
 340              		@ sp needed
 341 0044 30BD     		pop	{r4, r5, pc}
 342              	.LVL24:
ARM GAS  /var/folders/h7/llxr0vxd5sd9z74__7r6nx9r0000gn/T//cc7Yj8cp.s 			page 9


 343              	.L23:
 344              		.loc 1 116 1 view .LVU55
 345 0046 00BF     		.align	2
 346              	.L22:
 347 0048 00000000 		.word	hspi3
 348              		.cfi_endproc
 349              	.LFE292:
 351              		.section	.text.BSP_W25Qx_Read_JEDEC_ID,"ax",%progbits
 352              		.align	1
 353              		.global	BSP_W25Qx_Read_JEDEC_ID
 354              		.syntax unified
 355              		.thumb
 356              		.thumb_func
 358              	BSP_W25Qx_Read_JEDEC_ID:
 359              	.LVL25:
 360              	.LFB293:
 117:FML/Src/W25QXX.c **** 
 118:FML/Src/W25QXX.c **** /**
 119:FML/Src/W25QXX.c ****   * @brief  Read JEDEC ID.
 120:FML/Src/W25QXX.c **** 	* @param  return value address
 121:FML/Src/W25QXX.c ****   * @retval None
 122:FML/Src/W25QXX.c ****   */
 123:FML/Src/W25QXX.c **** void BSP_W25Qx_Read_JEDEC_ID(uint8_t *JDEDC_ID)
 124:FML/Src/W25QXX.c **** {
 361              		.loc 1 124 1 is_stmt 1 view -0
 362              		.cfi_startproc
 363              		@ args = 0, pretend = 0, frame = 8
 364              		@ frame_needed = 0, uses_anonymous_args = 0
 365              		.loc 1 124 1 is_stmt 0 view .LVU57
 366 0000 30B5     		push	{r4, r5, lr}
 367              	.LCFI15:
 368              		.cfi_def_cfa_offset 12
 369              		.cfi_offset 4, -12
 370              		.cfi_offset 5, -8
 371              		.cfi_offset 14, -4
 372 0002 83B0     		sub	sp, sp, #12
 373              	.LCFI16:
 374              		.cfi_def_cfa_offset 24
 375 0004 0446     		mov	r4, r0
 125:FML/Src/W25QXX.c **** 	uint8_t cmd[4] = {READ_JEDEC_ID_CMD,0x00,0x00,0x00};
 376              		.loc 1 125 2 is_stmt 1 view .LVU58
 377              		.loc 1 125 10 is_stmt 0 view .LVU59
 378 0006 9F23     		movs	r3, #159
 379 0008 0193     		str	r3, [sp, #4]
 126:FML/Src/W25QXX.c **** 	
 127:FML/Src/W25QXX.c **** 	W25Qx_Enable();
 380              		.loc 1 127 2 is_stmt 1 view .LVU60
 381 000a 0022     		movs	r2, #0
 382 000c 1021     		movs	r1, #16
 383 000e 4FF09040 		mov	r0, #1207959552
 384              	.LVL26:
 385              		.loc 1 127 2 is_stmt 0 view .LVU61
 386 0012 FFF7FEFF 		bl	HAL_GPIO_WritePin
 387              	.LVL27:
 128:FML/Src/W25QXX.c **** 	/* Send the read ID command */
 129:FML/Src/W25QXX.c **** 	HAL_SPI_Transmit(&hspi3, cmd, 1, W25Qx_TIMEOUT_VALUE);	
 388              		.loc 1 129 2 is_stmt 1 view .LVU62
ARM GAS  /var/folders/h7/llxr0vxd5sd9z74__7r6nx9r0000gn/T//cc7Yj8cp.s 			page 10


 389 0016 0B4D     		ldr	r5, .L26
 390 0018 4FF47A73 		mov	r3, #1000
 391 001c 0122     		movs	r2, #1
 392 001e 01A9     		add	r1, sp, #4
 393 0020 2846     		mov	r0, r5
 394 0022 FFF7FEFF 		bl	HAL_SPI_Transmit
 395              	.LVL28:
 130:FML/Src/W25QXX.c **** 	/* Reception of the data */
 131:FML/Src/W25QXX.c **** 	HAL_SPI_Receive(&hspi3,JDEDC_ID, 3, W25Qx_TIMEOUT_VALUE);
 396              		.loc 1 131 2 view .LVU63
 397 0026 4FF47A73 		mov	r3, #1000
 398 002a 0322     		movs	r2, #3
 399 002c 2146     		mov	r1, r4
 400 002e 2846     		mov	r0, r5
 401 0030 FFF7FEFF 		bl	HAL_SPI_Receive
 402              	.LVL29:
 132:FML/Src/W25QXX.c **** 	W25Qx_Disable();
 403              		.loc 1 132 2 view .LVU64
 404 0034 0122     		movs	r2, #1
 405 0036 1021     		movs	r1, #16
 406 0038 4FF09040 		mov	r0, #1207959552
 407 003c FFF7FEFF 		bl	HAL_GPIO_WritePin
 408              	.LVL30:
 133:FML/Src/W25QXX.c **** 		
 134:FML/Src/W25QXX.c **** }
 409              		.loc 1 134 1 is_stmt 0 view .LVU65
 410 0040 03B0     		add	sp, sp, #12
 411              	.LCFI17:
 412              		.cfi_def_cfa_offset 12
 413              		@ sp needed
 414 0042 30BD     		pop	{r4, r5, pc}
 415              	.LVL31:
 416              	.L27:
 417              		.loc 1 134 1 view .LVU66
 418              		.align	2
 419              	.L26:
 420 0044 00000000 		.word	hspi3
 421              		.cfi_endproc
 422              	.LFE293:
 424              		.section	.text.BSP_W25Qx_Read,"ax",%progbits
 425              		.align	1
 426              		.global	BSP_W25Qx_Read
 427              		.syntax unified
 428              		.thumb
 429              		.thumb_func
 431              	BSP_W25Qx_Read:
 432              	.LVL32:
 433              	.LFB294:
 135:FML/Src/W25QXX.c **** 
 136:FML/Src/W25QXX.c **** /**
 137:FML/Src/W25QXX.c ****   * @brief  Reads an amount of data from the QSPI memory.
 138:FML/Src/W25QXX.c ****   * @param  pData: Pointer to data to be read
 139:FML/Src/W25QXX.c ****   * @param  ReadAddr: Read start address
 140:FML/Src/W25QXX.c ****   * @param  Size: Size of data to read    
 141:FML/Src/W25QXX.c ****   * @retval QSPI memory status
 142:FML/Src/W25QXX.c ****   */
 143:FML/Src/W25QXX.c **** uint8_t BSP_W25Qx_Read(uint8_t* pData, uint32_t ReadAddr, uint32_t Size)
ARM GAS  /var/folders/h7/llxr0vxd5sd9z74__7r6nx9r0000gn/T//cc7Yj8cp.s 			page 11


 144:FML/Src/W25QXX.c **** {
 434              		.loc 1 144 1 is_stmt 1 view -0
 435              		.cfi_startproc
 436              		@ args = 0, pretend = 0, frame = 8
 437              		@ frame_needed = 0, uses_anonymous_args = 0
 438              		.loc 1 144 1 is_stmt 0 view .LVU68
 439 0000 70B5     		push	{r4, r5, r6, lr}
 440              	.LCFI18:
 441              		.cfi_def_cfa_offset 16
 442              		.cfi_offset 4, -16
 443              		.cfi_offset 5, -12
 444              		.cfi_offset 6, -8
 445              		.cfi_offset 14, -4
 446 0002 82B0     		sub	sp, sp, #8
 447              	.LCFI19:
 448              		.cfi_def_cfa_offset 24
 449 0004 0446     		mov	r4, r0
 450 0006 1546     		mov	r5, r2
 145:FML/Src/W25QXX.c **** 	uint8_t cmd[4];
 451              		.loc 1 145 2 is_stmt 1 view .LVU69
 146:FML/Src/W25QXX.c **** 
 147:FML/Src/W25QXX.c **** 	/* Configure the command */
 148:FML/Src/W25QXX.c **** 	cmd[0] = READ_CMD;
 452              		.loc 1 148 2 view .LVU70
 453              		.loc 1 148 9 is_stmt 0 view .LVU71
 454 0008 0323     		movs	r3, #3
 455 000a 8DF80430 		strb	r3, [sp, #4]
 149:FML/Src/W25QXX.c **** 	cmd[1] = (uint8_t)(ReadAddr >> 16);
 456              		.loc 1 149 2 is_stmt 1 view .LVU72
 457              		.loc 1 149 11 is_stmt 0 view .LVU73
 458 000e C1F30743 		ubfx	r3, r1, #16, #8
 459              		.loc 1 149 9 view .LVU74
 460 0012 8DF80530 		strb	r3, [sp, #5]
 150:FML/Src/W25QXX.c **** 	cmd[2] = (uint8_t)(ReadAddr >> 8);
 461              		.loc 1 150 2 is_stmt 1 view .LVU75
 462              		.loc 1 150 11 is_stmt 0 view .LVU76
 463 0016 C1F30723 		ubfx	r3, r1, #8, #8
 464              		.loc 1 150 9 view .LVU77
 465 001a 8DF80630 		strb	r3, [sp, #6]
 151:FML/Src/W25QXX.c **** 	cmd[3] = (uint8_t)(ReadAddr);
 466              		.loc 1 151 2 is_stmt 1 view .LVU78
 467              		.loc 1 151 9 is_stmt 0 view .LVU79
 468 001e 8DF80710 		strb	r1, [sp, #7]
 152:FML/Src/W25QXX.c **** 	
 153:FML/Src/W25QXX.c **** 	W25Qx_Enable();
 469              		.loc 1 153 2 is_stmt 1 view .LVU80
 470 0022 0022     		movs	r2, #0
 471              	.LVL33:
 472              		.loc 1 153 2 is_stmt 0 view .LVU81
 473 0024 1021     		movs	r1, #16
 474              	.LVL34:
 475              		.loc 1 153 2 view .LVU82
 476 0026 4FF09040 		mov	r0, #1207959552
 477              	.LVL35:
 478              		.loc 1 153 2 view .LVU83
 479 002a FFF7FEFF 		bl	HAL_GPIO_WritePin
 480              	.LVL36:
ARM GAS  /var/folders/h7/llxr0vxd5sd9z74__7r6nx9r0000gn/T//cc7Yj8cp.s 			page 12


 154:FML/Src/W25QXX.c **** 	/* Send the read ID command */
 155:FML/Src/W25QXX.c **** 	HAL_SPI_Transmit(&hspi3, cmd, 4, W25Qx_TIMEOUT_VALUE);	
 481              		.loc 1 155 2 is_stmt 1 view .LVU84
 482 002e 0E4E     		ldr	r6, .L33
 483 0030 4FF47A73 		mov	r3, #1000
 484 0034 0422     		movs	r2, #4
 485 0036 0DEB0201 		add	r1, sp, r2
 486 003a 3046     		mov	r0, r6
 487 003c FFF7FEFF 		bl	HAL_SPI_Transmit
 488              	.LVL37:
 156:FML/Src/W25QXX.c **** 	/* Reception of the data */
 157:FML/Src/W25QXX.c **** 	if (HAL_SPI_Receive(&hspi3, pData,Size,W25Qx_TIMEOUT_VALUE) != HAL_OK)
 489              		.loc 1 157 2 view .LVU85
 490              		.loc 1 157 6 is_stmt 0 view .LVU86
 491 0040 4FF47A73 		mov	r3, #1000
 492 0044 AAB2     		uxth	r2, r5
 493 0046 2146     		mov	r1, r4
 494 0048 3046     		mov	r0, r6
 495 004a FFF7FEFF 		bl	HAL_SPI_Receive
 496              	.LVL38:
 497              		.loc 1 157 5 view .LVU87
 498 004e 18B1     		cbz	r0, .L32
 158:FML/Src/W25QXX.c ****   {
 159:FML/Src/W25QXX.c ****     return W25Qx_ERROR;
 499              		.loc 1 159 12 view .LVU88
 500 0050 0124     		movs	r4, #1
 501              	.LVL39:
 502              	.L29:
 160:FML/Src/W25QXX.c ****   }
 161:FML/Src/W25QXX.c **** 	W25Qx_Disable();
 162:FML/Src/W25QXX.c **** 	return W25Qx_OK;
 163:FML/Src/W25QXX.c **** }
 503              		.loc 1 163 1 view .LVU89
 504 0052 2046     		mov	r0, r4
 505 0054 02B0     		add	sp, sp, #8
 506              	.LCFI20:
 507              		.cfi_remember_state
 508              		.cfi_def_cfa_offset 16
 509              		@ sp needed
 510 0056 70BD     		pop	{r4, r5, r6, pc}
 511              	.LVL40:
 512              	.L32:
 513              	.LCFI21:
 514              		.cfi_restore_state
 515              		.loc 1 163 1 view .LVU90
 516 0058 0446     		mov	r4, r0
 517              	.LVL41:
 161:FML/Src/W25QXX.c **** 	return W25Qx_OK;
 518              		.loc 1 161 2 is_stmt 1 view .LVU91
 519 005a 0122     		movs	r2, #1
 520 005c 1021     		movs	r1, #16
 521 005e 4FF09040 		mov	r0, #1207959552
 522 0062 FFF7FEFF 		bl	HAL_GPIO_WritePin
 523              	.LVL42:
 162:FML/Src/W25QXX.c **** }
 524              		.loc 1 162 2 view .LVU92
 162:FML/Src/W25QXX.c **** }
ARM GAS  /var/folders/h7/llxr0vxd5sd9z74__7r6nx9r0000gn/T//cc7Yj8cp.s 			page 13


 525              		.loc 1 162 9 is_stmt 0 view .LVU93
 526 0066 F4E7     		b	.L29
 527              	.L34:
 528              		.align	2
 529              	.L33:
 530 0068 00000000 		.word	hspi3
 531              		.cfi_endproc
 532              	.LFE294:
 534              		.section	.text.BSP_W25Qx_Write,"ax",%progbits
 535              		.align	1
 536              		.global	BSP_W25Qx_Write
 537              		.syntax unified
 538              		.thumb
 539              		.thumb_func
 541              	BSP_W25Qx_Write:
 542              	.LVL43:
 543              	.LFB295:
 164:FML/Src/W25QXX.c **** 
 165:FML/Src/W25QXX.c **** /**
 166:FML/Src/W25QXX.c ****   * @brief  Writes an amount of data to the QSPI memory.
 167:FML/Src/W25QXX.c ****   * @param  pData: Pointer to data to be written
 168:FML/Src/W25QXX.c ****   * @param  WriteAddr: Write start address
 169:FML/Src/W25QXX.c ****   * @param  Size: Size of data to write,No more than 256byte.    
 170:FML/Src/W25QXX.c ****   * @retval QSPI memory status
 171:FML/Src/W25QXX.c ****   */
 172:FML/Src/W25QXX.c **** uint8_t BSP_W25Qx_Write(uint8_t* pData, uint32_t WriteAddr, uint32_t Size)
 173:FML/Src/W25QXX.c **** {
 544              		.loc 1 173 1 is_stmt 1 view -0
 545              		.cfi_startproc
 546              		@ args = 0, pretend = 0, frame = 8
 547              		@ frame_needed = 0, uses_anonymous_args = 0
 548              		.loc 1 173 1 is_stmt 0 view .LVU95
 549 0000 2DE9F043 		push	{r4, r5, r6, r7, r8, r9, lr}
 550              	.LCFI22:
 551              		.cfi_def_cfa_offset 28
 552              		.cfi_offset 4, -28
 553              		.cfi_offset 5, -24
 554              		.cfi_offset 6, -20
 555              		.cfi_offset 7, -16
 556              		.cfi_offset 8, -12
 557              		.cfi_offset 9, -8
 558              		.cfi_offset 14, -4
 559 0004 83B0     		sub	sp, sp, #12
 560              	.LCFI23:
 561              		.cfi_def_cfa_offset 40
 562 0006 0646     		mov	r6, r0
 563 0008 0C46     		mov	r4, r1
 564 000a 1746     		mov	r7, r2
 174:FML/Src/W25QXX.c **** 	uint8_t cmd[4];
 565              		.loc 1 174 2 is_stmt 1 view .LVU96
 175:FML/Src/W25QXX.c **** 	uint32_t end_addr, current_size, current_addr;
 566              		.loc 1 175 2 view .LVU97
 176:FML/Src/W25QXX.c **** 	uint32_t tickstart = HAL_GetTick();
 567              		.loc 1 176 2 view .LVU98
 568              		.loc 1 176 23 is_stmt 0 view .LVU99
 569 000c FFF7FEFF 		bl	HAL_GetTick
 570              	.LVL44:
ARM GAS  /var/folders/h7/llxr0vxd5sd9z74__7r6nx9r0000gn/T//cc7Yj8cp.s 			page 14


 571              		.loc 1 176 23 view .LVU100
 572 0010 8046     		mov	r8, r0
 573              	.LVL45:
 177:FML/Src/W25QXX.c **** 	
 178:FML/Src/W25QXX.c **** 	/* Calculation of the size between the write address and the end of the page */
 179:FML/Src/W25QXX.c ****   current_addr = 0;
 574              		.loc 1 179 3 is_stmt 1 view .LVU101
 180:FML/Src/W25QXX.c **** 
 181:FML/Src/W25QXX.c ****   while (current_addr <= WriteAddr)
 575              		.loc 1 181 3 view .LVU102
 179:FML/Src/W25QXX.c **** 
 576              		.loc 1 179 16 is_stmt 0 view .LVU103
 577 0012 0025     		movs	r5, #0
 578              		.loc 1 181 9 view .LVU104
 579 0014 01E0     		b	.L36
 580              	.LVL46:
 581              	.L37:
 182:FML/Src/W25QXX.c ****   {
 183:FML/Src/W25QXX.c ****     current_addr += W25Q128FV_PAGE_SIZE;
 582              		.loc 1 183 5 is_stmt 1 view .LVU105
 583              		.loc 1 183 18 is_stmt 0 view .LVU106
 584 0016 05F58075 		add	r5, r5, #256
 585              	.LVL47:
 586              	.L36:
 181:FML/Src/W25QXX.c ****   {
 587              		.loc 1 181 23 is_stmt 1 view .LVU107
 588 001a A542     		cmp	r5, r4
 589 001c FBD9     		bls	.L37
 184:FML/Src/W25QXX.c ****   }
 185:FML/Src/W25QXX.c ****   current_size = current_addr - WriteAddr;
 590              		.loc 1 185 3 view .LVU108
 591              		.loc 1 185 16 is_stmt 0 view .LVU109
 592 001e 2D1B     		subs	r5, r5, r4
 593              	.LVL48:
 186:FML/Src/W25QXX.c **** 
 187:FML/Src/W25QXX.c ****   /* Check if the size of the data is less than the remaining place in the page */
 188:FML/Src/W25QXX.c ****   if (current_size > Size)
 594              		.loc 1 188 3 is_stmt 1 view .LVU110
 595              		.loc 1 188 6 is_stmt 0 view .LVU111
 596 0020 BD42     		cmp	r5, r7
 597 0022 00D9     		bls	.L38
 189:FML/Src/W25QXX.c ****   {
 190:FML/Src/W25QXX.c ****     current_size = Size;
 598              		.loc 1 190 18 view .LVU112
 599 0024 3D46     		mov	r5, r7
 600              	.LVL49:
 601              	.L38:
 191:FML/Src/W25QXX.c ****   }
 192:FML/Src/W25QXX.c **** 
 193:FML/Src/W25QXX.c ****   /* Initialize the adress variables */
 194:FML/Src/W25QXX.c ****   current_addr = WriteAddr;
 602              		.loc 1 194 3 is_stmt 1 view .LVU113
 195:FML/Src/W25QXX.c ****   end_addr = WriteAddr + Size;
 603              		.loc 1 195 3 view .LVU114
 604              		.loc 1 195 12 is_stmt 0 view .LVU115
 605 0026 2744     		add	r7, r7, r4
 606              	.LVL50:
ARM GAS  /var/folders/h7/llxr0vxd5sd9z74__7r6nx9r0000gn/T//cc7Yj8cp.s 			page 15


 607              		.loc 1 195 12 view .LVU116
 608 0028 03E0     		b	.L42
 609              	.LVL51:
 610              	.L47:
 196:FML/Src/W25QXX.c **** 	
 197:FML/Src/W25QXX.c ****   /* Perform the write page by page */
 198:FML/Src/W25QXX.c ****   do
 199:FML/Src/W25QXX.c ****   {
 200:FML/Src/W25QXX.c **** 		/* Configure the command */
 201:FML/Src/W25QXX.c **** 		cmd[0] = PAGE_PROG_CMD;
 202:FML/Src/W25QXX.c **** 		cmd[1] = (uint8_t)(current_addr >> 16);
 203:FML/Src/W25QXX.c **** 		cmd[2] = (uint8_t)(current_addr >> 8);
 204:FML/Src/W25QXX.c **** 		cmd[3] = (uint8_t)(current_addr);
 205:FML/Src/W25QXX.c **** 
 206:FML/Src/W25QXX.c **** 		/* Enable write operations */
 207:FML/Src/W25QXX.c **** 		BSP_W25Qx_WriteEnable();
 208:FML/Src/W25QXX.c **** 	
 209:FML/Src/W25QXX.c **** 		W25Qx_Enable();
 210:FML/Src/W25QXX.c ****     /* Send the command */
 211:FML/Src/W25QXX.c ****     if (HAL_SPI_Transmit(&hspi3,cmd, 4, W25Qx_TIMEOUT_VALUE) != HAL_OK)
 212:FML/Src/W25QXX.c ****     {
 213:FML/Src/W25QXX.c ****       return W25Qx_ERROR;
 214:FML/Src/W25QXX.c ****     }
 215:FML/Src/W25QXX.c ****     
 216:FML/Src/W25QXX.c ****     /* Transmission of the data */
 217:FML/Src/W25QXX.c ****     if (HAL_SPI_Transmit(&hspi3, pData,current_size, W25Qx_TIMEOUT_VALUE) != HAL_OK)
 218:FML/Src/W25QXX.c ****     {
 219:FML/Src/W25QXX.c ****       return W25Qx_ERROR;
 220:FML/Src/W25QXX.c ****     }
 221:FML/Src/W25QXX.c **** 			W25Qx_Disable();
 222:FML/Src/W25QXX.c ****     	/* Wait the end of Flash writing */
 223:FML/Src/W25QXX.c **** 		while(BSP_W25Qx_GetStatus() == W25Qx_BUSY);
 224:FML/Src/W25QXX.c **** 		{
 225:FML/Src/W25QXX.c **** 			/* Check for the Timeout */
 226:FML/Src/W25QXX.c **** 			if((HAL_GetTick() - tickstart) > W25Qx_TIMEOUT_VALUE)
 227:FML/Src/W25QXX.c **** 			{        
 228:FML/Src/W25QXX.c **** 				return W25Qx_TIMEOUT;
 229:FML/Src/W25QXX.c **** 			}
 230:FML/Src/W25QXX.c **** 		}
 231:FML/Src/W25QXX.c ****     
 232:FML/Src/W25QXX.c ****     /* Update the address and size variables for next page programming */
 233:FML/Src/W25QXX.c ****     current_addr += current_size;
 234:FML/Src/W25QXX.c ****     pData += current_size;
 235:FML/Src/W25QXX.c ****     current_size = ((current_addr + W25Q128FV_PAGE_SIZE) > end_addr) ? (end_addr - current_addr) : 
 611              		.loc 1 235 98 view .LVU117
 612 002a 4FF48075 		mov	r5, #256
 613              	.LVL52:
 614              	.L41:
 236:FML/Src/W25QXX.c ****   } while (current_addr < end_addr);
 615              		.loc 1 236 25 is_stmt 1 discriminator 4 view .LVU118
 616 002e A742     		cmp	r7, r4
 617 0030 41D9     		bls	.L39
 618              	.L42:
 198:FML/Src/W25QXX.c ****   {
 619              		.loc 1 198 3 view .LVU119
 201:FML/Src/W25QXX.c **** 		cmd[1] = (uint8_t)(current_addr >> 16);
 620              		.loc 1 201 3 view .LVU120
ARM GAS  /var/folders/h7/llxr0vxd5sd9z74__7r6nx9r0000gn/T//cc7Yj8cp.s 			page 16


 201:FML/Src/W25QXX.c **** 		cmd[1] = (uint8_t)(current_addr >> 16);
 621              		.loc 1 201 10 is_stmt 0 view .LVU121
 622 0032 0223     		movs	r3, #2
 623 0034 8DF80430 		strb	r3, [sp, #4]
 202:FML/Src/W25QXX.c **** 		cmd[2] = (uint8_t)(current_addr >> 8);
 624              		.loc 1 202 3 is_stmt 1 view .LVU122
 202:FML/Src/W25QXX.c **** 		cmd[2] = (uint8_t)(current_addr >> 8);
 625              		.loc 1 202 12 is_stmt 0 view .LVU123
 626 0038 C4F30743 		ubfx	r3, r4, #16, #8
 202:FML/Src/W25QXX.c **** 		cmd[2] = (uint8_t)(current_addr >> 8);
 627              		.loc 1 202 10 view .LVU124
 628 003c 8DF80530 		strb	r3, [sp, #5]
 203:FML/Src/W25QXX.c **** 		cmd[3] = (uint8_t)(current_addr);
 629              		.loc 1 203 3 is_stmt 1 view .LVU125
 203:FML/Src/W25QXX.c **** 		cmd[3] = (uint8_t)(current_addr);
 630              		.loc 1 203 12 is_stmt 0 view .LVU126
 631 0040 C4F30723 		ubfx	r3, r4, #8, #8
 203:FML/Src/W25QXX.c **** 		cmd[3] = (uint8_t)(current_addr);
 632              		.loc 1 203 10 view .LVU127
 633 0044 8DF80630 		strb	r3, [sp, #6]
 204:FML/Src/W25QXX.c **** 
 634              		.loc 1 204 3 is_stmt 1 view .LVU128
 204:FML/Src/W25QXX.c **** 
 635              		.loc 1 204 10 is_stmt 0 view .LVU129
 636 0048 8DF80740 		strb	r4, [sp, #7]
 207:FML/Src/W25QXX.c **** 	
 637              		.loc 1 207 3 is_stmt 1 view .LVU130
 638 004c FFF7FEFF 		bl	BSP_W25Qx_WriteEnable
 639              	.LVL53:
 209:FML/Src/W25QXX.c ****     /* Send the command */
 640              		.loc 1 209 3 view .LVU131
 641 0050 0022     		movs	r2, #0
 642 0052 1021     		movs	r1, #16
 643 0054 4FF09040 		mov	r0, #1207959552
 644 0058 FFF7FEFF 		bl	HAL_GPIO_WritePin
 645              	.LVL54:
 211:FML/Src/W25QXX.c ****     {
 646              		.loc 1 211 5 view .LVU132
 211:FML/Src/W25QXX.c ****     {
 647              		.loc 1 211 9 is_stmt 0 view .LVU133
 648 005c 4FF47A73 		mov	r3, #1000
 649 0060 0422     		movs	r2, #4
 650 0062 0DEB0201 		add	r1, sp, r2
 651 0066 1948     		ldr	r0, .L49
 652 0068 FFF7FEFF 		bl	HAL_SPI_Transmit
 653              	.LVL55:
 211:FML/Src/W25QXX.c ****     {
 654              		.loc 1 211 8 view .LVU134
 655 006c 08BB     		cbnz	r0, .L44
 217:FML/Src/W25QXX.c ****     {
 656              		.loc 1 217 5 is_stmt 1 view .LVU135
 217:FML/Src/W25QXX.c ****     {
 657              		.loc 1 217 9 is_stmt 0 view .LVU136
 658 006e 4FF47A73 		mov	r3, #1000
 659 0072 AAB2     		uxth	r2, r5
 660 0074 3146     		mov	r1, r6
 661 0076 1548     		ldr	r0, .L49
ARM GAS  /var/folders/h7/llxr0vxd5sd9z74__7r6nx9r0000gn/T//cc7Yj8cp.s 			page 17


 662 0078 FFF7FEFF 		bl	HAL_SPI_Transmit
 663              	.LVL56:
 217:FML/Src/W25QXX.c ****     {
 664              		.loc 1 217 8 view .LVU137
 665 007c 8146     		mov	r9, r0
 666 007e F0B9     		cbnz	r0, .L45
 221:FML/Src/W25QXX.c ****     	/* Wait the end of Flash writing */
 667              		.loc 1 221 4 is_stmt 1 view .LVU138
 668 0080 0122     		movs	r2, #1
 669 0082 1021     		movs	r1, #16
 670 0084 4FF09040 		mov	r0, #1207959552
 671 0088 FFF7FEFF 		bl	HAL_GPIO_WritePin
 672              	.LVL57:
 223:FML/Src/W25QXX.c **** 		{
 673              		.loc 1 223 3 view .LVU139
 674              	.L40:
 223:FML/Src/W25QXX.c **** 		{
 675              		.loc 1 223 31 discriminator 1 view .LVU140
 223:FML/Src/W25QXX.c **** 		{
 676              		.loc 1 223 9 is_stmt 0 discriminator 1 view .LVU141
 677 008c FFF7FEFF 		bl	BSP_W25Qx_GetStatus
 678              	.LVL58:
 223:FML/Src/W25QXX.c **** 		{
 679              		.loc 1 223 31 discriminator 1 view .LVU142
 680 0090 0228     		cmp	r0, #2
 681 0092 FBD0     		beq	.L40
 226:FML/Src/W25QXX.c **** 			{        
 682              		.loc 1 226 4 is_stmt 1 view .LVU143
 226:FML/Src/W25QXX.c **** 			{        
 683              		.loc 1 226 8 is_stmt 0 view .LVU144
 684 0094 FFF7FEFF 		bl	HAL_GetTick
 685              	.LVL59:
 226:FML/Src/W25QXX.c **** 			{        
 686              		.loc 1 226 22 view .LVU145
 687 0098 A0EB0803 		sub	r3, r0, r8
 226:FML/Src/W25QXX.c **** 			{        
 688              		.loc 1 226 6 view .LVU146
 689 009c B3F57A7F 		cmp	r3, #1000
 690 00a0 10D8     		bhi	.L46
 233:FML/Src/W25QXX.c ****     pData += current_size;
 691              		.loc 1 233 5 is_stmt 1 view .LVU147
 233:FML/Src/W25QXX.c ****     pData += current_size;
 692              		.loc 1 233 18 is_stmt 0 view .LVU148
 693 00a2 2C44     		add	r4, r4, r5
 694              	.LVL60:
 234:FML/Src/W25QXX.c ****     current_size = ((current_addr + W25Q128FV_PAGE_SIZE) > end_addr) ? (end_addr - current_addr) : 
 695              		.loc 1 234 5 is_stmt 1 view .LVU149
 234:FML/Src/W25QXX.c ****     current_size = ((current_addr + W25Q128FV_PAGE_SIZE) > end_addr) ? (end_addr - current_addr) : 
 696              		.loc 1 234 11 is_stmt 0 view .LVU150
 697 00a4 2E44     		add	r6, r6, r5
 698              	.LVL61:
 235:FML/Src/W25QXX.c ****   } while (current_addr < end_addr);
 699              		.loc 1 235 5 is_stmt 1 view .LVU151
 235:FML/Src/W25QXX.c ****   } while (current_addr < end_addr);
 700              		.loc 1 235 35 is_stmt 0 view .LVU152
 701 00a6 04F58073 		add	r3, r4, #256
 235:FML/Src/W25QXX.c ****   } while (current_addr < end_addr);
ARM GAS  /var/folders/h7/llxr0vxd5sd9z74__7r6nx9r0000gn/T//cc7Yj8cp.s 			page 18


 702              		.loc 1 235 98 view .LVU153
 703 00aa BB42     		cmp	r3, r7
 704 00ac BDD9     		bls	.L47
 235:FML/Src/W25QXX.c ****   } while (current_addr < end_addr);
 705              		.loc 1 235 98 discriminator 1 view .LVU154
 706 00ae 3D1B     		subs	r5, r7, r4
 707              	.LVL62:
 235:FML/Src/W25QXX.c ****   } while (current_addr < end_addr);
 708              		.loc 1 235 98 discriminator 1 view .LVU155
 709 00b0 BDE7     		b	.L41
 710              	.LVL63:
 711              	.L44:
 213:FML/Src/W25QXX.c ****     }
 712              		.loc 1 213 14 view .LVU156
 713 00b2 4FF00109 		mov	r9, #1
 714              	.L39:
 237:FML/Src/W25QXX.c **** 
 238:FML/Src/W25QXX.c **** 	
 239:FML/Src/W25QXX.c **** 	return W25Qx_OK;
 240:FML/Src/W25QXX.c **** }
 715              		.loc 1 240 1 view .LVU157
 716 00b6 4846     		mov	r0, r9
 717 00b8 03B0     		add	sp, sp, #12
 718              	.LCFI24:
 719              		.cfi_remember_state
 720              		.cfi_def_cfa_offset 28
 721              		@ sp needed
 722 00ba BDE8F083 		pop	{r4, r5, r6, r7, r8, r9, pc}
 723              	.LVL64:
 724              	.L45:
 725              	.LCFI25:
 726              		.cfi_restore_state
 219:FML/Src/W25QXX.c ****     }
 727              		.loc 1 219 14 view .LVU158
 728 00be 4FF00109 		mov	r9, #1
 729 00c2 F8E7     		b	.L39
 730              	.L46:
 228:FML/Src/W25QXX.c **** 			}
 731              		.loc 1 228 12 view .LVU159
 732 00c4 4FF00309 		mov	r9, #3
 733 00c8 F5E7     		b	.L39
 734              	.L50:
 735 00ca 00BF     		.align	2
 736              	.L49:
 737 00cc 00000000 		.word	hspi3
 738              		.cfi_endproc
 739              	.LFE295:
 741              		.section	.text.BSP_W25Qx_Erase_Page,"ax",%progbits
 742              		.align	1
 743              		.global	BSP_W25Qx_Erase_Page
 744              		.syntax unified
 745              		.thumb
 746              		.thumb_func
 748              	BSP_W25Qx_Erase_Page:
 749              	.LVL65:
 750              	.LFB296:
 241:FML/Src/W25QXX.c **** /**
ARM GAS  /var/folders/h7/llxr0vxd5sd9z74__7r6nx9r0000gn/T//cc7Yj8cp.s 			page 19


 242:FML/Src/W25QXX.c ****   * @brief  Erases the specified Page of the QSPI memory. 
 243:FML/Src/W25QXX.c ****   * @param  BlockAddress: Page address to erase  
 244:FML/Src/W25QXX.c ****   * @retval QSPI memory status
 245:FML/Src/W25QXX.c ****   */
 246:FML/Src/W25QXX.c **** uint8_t BSP_W25Qx_Erase_Page(uint32_t Address)
 247:FML/Src/W25QXX.c **** {
 751              		.loc 1 247 1 is_stmt 1 view -0
 752              		.cfi_startproc
 753              		@ args = 0, pretend = 0, frame = 8
 754              		@ frame_needed = 0, uses_anonymous_args = 0
 755              		.loc 1 247 1 is_stmt 0 view .LVU161
 756 0000 30B5     		push	{r4, r5, lr}
 757              	.LCFI26:
 758              		.cfi_def_cfa_offset 12
 759              		.cfi_offset 4, -12
 760              		.cfi_offset 5, -8
 761              		.cfi_offset 14, -4
 762 0002 83B0     		sub	sp, sp, #12
 763              	.LCFI27:
 764              		.cfi_def_cfa_offset 24
 765 0004 0446     		mov	r4, r0
 248:FML/Src/W25QXX.c **** 	uint8_t cmd[4];
 766              		.loc 1 248 2 is_stmt 1 view .LVU162
 249:FML/Src/W25QXX.c **** 	uint32_t tickstart = HAL_GetTick();
 767              		.loc 1 249 2 view .LVU163
 768              		.loc 1 249 23 is_stmt 0 view .LVU164
 769 0006 FFF7FEFF 		bl	HAL_GetTick
 770              	.LVL66:
 771              		.loc 1 249 23 view .LVU165
 772 000a 0546     		mov	r5, r0
 773              	.LVL67:
 250:FML/Src/W25QXX.c **** 	cmd[0] = PAGE_ERASE_CMD;
 774              		.loc 1 250 2 is_stmt 1 view .LVU166
 775              		.loc 1 250 9 is_stmt 0 view .LVU167
 776 000c 8123     		movs	r3, #129
 777 000e 8DF80430 		strb	r3, [sp, #4]
 251:FML/Src/W25QXX.c **** 	cmd[1] = (uint8_t)(Address >> 16);
 778              		.loc 1 251 2 is_stmt 1 view .LVU168
 779              		.loc 1 251 11 is_stmt 0 view .LVU169
 780 0012 C4F30743 		ubfx	r3, r4, #16, #8
 781              		.loc 1 251 9 view .LVU170
 782 0016 8DF80530 		strb	r3, [sp, #5]
 252:FML/Src/W25QXX.c **** 	cmd[2] = (uint8_t)(Address >> 8);
 783              		.loc 1 252 2 is_stmt 1 view .LVU171
 784              		.loc 1 252 11 is_stmt 0 view .LVU172
 785 001a C4F30723 		ubfx	r3, r4, #8, #8
 786              		.loc 1 252 9 view .LVU173
 787 001e 8DF80630 		strb	r3, [sp, #6]
 253:FML/Src/W25QXX.c **** 	cmd[3] = (uint8_t)(Address);
 788              		.loc 1 253 2 is_stmt 1 view .LVU174
 789              		.loc 1 253 9 is_stmt 0 view .LVU175
 790 0022 8DF80740 		strb	r4, [sp, #7]
 254:FML/Src/W25QXX.c **** 	
 255:FML/Src/W25QXX.c **** 	/* Enable write operations */
 256:FML/Src/W25QXX.c **** 	BSP_W25Qx_WriteEnable();
 791              		.loc 1 256 2 is_stmt 1 view .LVU176
 792 0026 FFF7FEFF 		bl	BSP_W25Qx_WriteEnable
ARM GAS  /var/folders/h7/llxr0vxd5sd9z74__7r6nx9r0000gn/T//cc7Yj8cp.s 			page 20


 793              	.LVL68:
 257:FML/Src/W25QXX.c **** 	
 258:FML/Src/W25QXX.c **** 	/*Select the FLASH: Chip Select low */
 259:FML/Src/W25QXX.c **** 	W25Qx_Enable();
 794              		.loc 1 259 2 view .LVU177
 795 002a 0022     		movs	r2, #0
 796 002c 1021     		movs	r1, #16
 797 002e 4FF09040 		mov	r0, #1207959552
 798 0032 FFF7FEFF 		bl	HAL_GPIO_WritePin
 799              	.LVL69:
 260:FML/Src/W25QXX.c **** 	/* Send the read ID command */
 261:FML/Src/W25QXX.c **** 	HAL_SPI_Transmit(&hspi3, cmd, 4, W25Qx_TIMEOUT_VALUE);	
 800              		.loc 1 261 2 view .LVU178
 801 0036 4FF47A73 		mov	r3, #1000
 802 003a 0422     		movs	r2, #4
 803 003c 0DEB0201 		add	r1, sp, r2
 804 0040 0C48     		ldr	r0, .L56
 805 0042 FFF7FEFF 		bl	HAL_SPI_Transmit
 806              	.LVL70:
 262:FML/Src/W25QXX.c **** 	/*Deselect the FLASH: Chip Select high */
 263:FML/Src/W25QXX.c **** 	W25Qx_Disable();
 807              		.loc 1 263 2 view .LVU179
 808 0046 0122     		movs	r2, #1
 809 0048 1021     		movs	r1, #16
 810 004a 4FF09040 		mov	r0, #1207959552
 811 004e FFF7FEFF 		bl	HAL_GPIO_WritePin
 812              	.LVL71:
 264:FML/Src/W25QXX.c **** 	
 265:FML/Src/W25QXX.c **** 	/* Wait the end of Flash writing */
 266:FML/Src/W25QXX.c **** 	while(BSP_W25Qx_GetStatus() == W25Qx_BUSY);
 813              		.loc 1 266 2 view .LVU180
 814              	.L52:
 815              		.loc 1 266 30 discriminator 1 view .LVU181
 816              		.loc 1 266 8 is_stmt 0 discriminator 1 view .LVU182
 817 0052 FFF7FEFF 		bl	BSP_W25Qx_GetStatus
 818              	.LVL72:
 819              		.loc 1 266 30 discriminator 1 view .LVU183
 820 0056 0228     		cmp	r0, #2
 821 0058 FBD0     		beq	.L52
 267:FML/Src/W25QXX.c **** 	{
 268:FML/Src/W25QXX.c **** 		/* Check for the Timeout */
 269:FML/Src/W25QXX.c ****     if((HAL_GetTick() - tickstart) > W25Q128FV_SECTOR_ERASE_MAX_TIME)
 822              		.loc 1 269 5 is_stmt 1 view .LVU184
 823              		.loc 1 269 9 is_stmt 0 view .LVU185
 824 005a FFF7FEFF 		bl	HAL_GetTick
 825              	.LVL73:
 826              		.loc 1 269 23 view .LVU186
 827 005e 401B     		subs	r0, r0, r5
 828              		.loc 1 269 7 view .LVU187
 829 0060 40F6B833 		movw	r3, #3000
 830 0064 9842     		cmp	r0, r3
 831 0066 02D8     		bhi	.L54
 270:FML/Src/W25QXX.c ****     {        
 271:FML/Src/W25QXX.c **** 			return W25Qx_TIMEOUT;
 272:FML/Src/W25QXX.c ****     }
 273:FML/Src/W25QXX.c **** 	}
 274:FML/Src/W25QXX.c **** 	return W25Qx_OK;
ARM GAS  /var/folders/h7/llxr0vxd5sd9z74__7r6nx9r0000gn/T//cc7Yj8cp.s 			page 21


 832              		.loc 1 274 9 view .LVU188
 833 0068 0020     		movs	r0, #0
 834              	.L53:
 275:FML/Src/W25QXX.c **** }
 835              		.loc 1 275 1 view .LVU189
 836 006a 03B0     		add	sp, sp, #12
 837              	.LCFI28:
 838              		.cfi_remember_state
 839              		.cfi_def_cfa_offset 12
 840              		@ sp needed
 841 006c 30BD     		pop	{r4, r5, pc}
 842              	.LVL74:
 843              	.L54:
 844              	.LCFI29:
 845              		.cfi_restore_state
 271:FML/Src/W25QXX.c ****     }
 846              		.loc 1 271 11 view .LVU190
 847 006e 0320     		movs	r0, #3
 848 0070 FBE7     		b	.L53
 849              	.L57:
 850 0072 00BF     		.align	2
 851              	.L56:
 852 0074 00000000 		.word	hspi3
 853              		.cfi_endproc
 854              	.LFE296:
 856              		.section	.text.BSP_W25Qx_Erase_Block,"ax",%progbits
 857              		.align	1
 858              		.global	BSP_W25Qx_Erase_Block
 859              		.syntax unified
 860              		.thumb
 861              		.thumb_func
 863              	BSP_W25Qx_Erase_Block:
 864              	.LVL75:
 865              	.LFB297:
 276:FML/Src/W25QXX.c **** /**
 277:FML/Src/W25QXX.c ****   * @brief  Erases the specified block of the QSPI memory. 
 278:FML/Src/W25QXX.c ****   * @param  BlockAddress: Block address to erase  
 279:FML/Src/W25QXX.c ****   * @retval QSPI memory status
 280:FML/Src/W25QXX.c ****   */
 281:FML/Src/W25QXX.c **** uint8_t BSP_W25Qx_Erase_Block(uint32_t Address)
 282:FML/Src/W25QXX.c **** {
 866              		.loc 1 282 1 is_stmt 1 view -0
 867              		.cfi_startproc
 868              		@ args = 0, pretend = 0, frame = 8
 869              		@ frame_needed = 0, uses_anonymous_args = 0
 870              		.loc 1 282 1 is_stmt 0 view .LVU192
 871 0000 30B5     		push	{r4, r5, lr}
 872              	.LCFI30:
 873              		.cfi_def_cfa_offset 12
 874              		.cfi_offset 4, -12
 875              		.cfi_offset 5, -8
 876              		.cfi_offset 14, -4
 877 0002 83B0     		sub	sp, sp, #12
 878              	.LCFI31:
 879              		.cfi_def_cfa_offset 24
 880 0004 0446     		mov	r4, r0
 283:FML/Src/W25QXX.c **** 	uint8_t cmd[4];
ARM GAS  /var/folders/h7/llxr0vxd5sd9z74__7r6nx9r0000gn/T//cc7Yj8cp.s 			page 22


 881              		.loc 1 283 2 is_stmt 1 view .LVU193
 284:FML/Src/W25QXX.c **** 	uint32_t tickstart = HAL_GetTick();
 882              		.loc 1 284 2 view .LVU194
 883              		.loc 1 284 23 is_stmt 0 view .LVU195
 884 0006 FFF7FEFF 		bl	HAL_GetTick
 885              	.LVL76:
 886              		.loc 1 284 23 view .LVU196
 887 000a 0546     		mov	r5, r0
 888              	.LVL77:
 285:FML/Src/W25QXX.c **** 	cmd[0] = SECTOR_ERASE_CMD;
 889              		.loc 1 285 2 is_stmt 1 view .LVU197
 890              		.loc 1 285 9 is_stmt 0 view .LVU198
 891 000c 2023     		movs	r3, #32
 892 000e 8DF80430 		strb	r3, [sp, #4]
 286:FML/Src/W25QXX.c **** 	cmd[1] = (uint8_t)(Address >> 16);
 893              		.loc 1 286 2 is_stmt 1 view .LVU199
 894              		.loc 1 286 11 is_stmt 0 view .LVU200
 895 0012 C4F30743 		ubfx	r3, r4, #16, #8
 896              		.loc 1 286 9 view .LVU201
 897 0016 8DF80530 		strb	r3, [sp, #5]
 287:FML/Src/W25QXX.c **** 	cmd[2] = (uint8_t)(Address >> 8);
 898              		.loc 1 287 2 is_stmt 1 view .LVU202
 899              		.loc 1 287 11 is_stmt 0 view .LVU203
 900 001a C4F30723 		ubfx	r3, r4, #8, #8
 901              		.loc 1 287 9 view .LVU204
 902 001e 8DF80630 		strb	r3, [sp, #6]
 288:FML/Src/W25QXX.c **** 	cmd[3] = (uint8_t)(Address);
 903              		.loc 1 288 2 is_stmt 1 view .LVU205
 904              		.loc 1 288 9 is_stmt 0 view .LVU206
 905 0022 8DF80740 		strb	r4, [sp, #7]
 289:FML/Src/W25QXX.c **** 	
 290:FML/Src/W25QXX.c **** 	/* Enable write operations */
 291:FML/Src/W25QXX.c **** 	BSP_W25Qx_WriteEnable();
 906              		.loc 1 291 2 is_stmt 1 view .LVU207
 907 0026 FFF7FEFF 		bl	BSP_W25Qx_WriteEnable
 908              	.LVL78:
 292:FML/Src/W25QXX.c **** 	
 293:FML/Src/W25QXX.c **** 	/*Select the FLASH: Chip Select low */
 294:FML/Src/W25QXX.c **** 	W25Qx_Enable();
 909              		.loc 1 294 2 view .LVU208
 910 002a 0022     		movs	r2, #0
 911 002c 1021     		movs	r1, #16
 912 002e 4FF09040 		mov	r0, #1207959552
 913 0032 FFF7FEFF 		bl	HAL_GPIO_WritePin
 914              	.LVL79:
 295:FML/Src/W25QXX.c **** 	/* Send the read ID command */
 296:FML/Src/W25QXX.c **** 	HAL_SPI_Transmit(&hspi3, cmd, 4, W25Qx_TIMEOUT_VALUE);	
 915              		.loc 1 296 2 view .LVU209
 916 0036 4FF47A73 		mov	r3, #1000
 917 003a 0422     		movs	r2, #4
 918 003c 0DEB0201 		add	r1, sp, r2
 919 0040 0C48     		ldr	r0, .L63
 920 0042 FFF7FEFF 		bl	HAL_SPI_Transmit
 921              	.LVL80:
 297:FML/Src/W25QXX.c **** 	/*Deselect the FLASH: Chip Select high */
 298:FML/Src/W25QXX.c **** 	W25Qx_Disable();
 922              		.loc 1 298 2 view .LVU210
ARM GAS  /var/folders/h7/llxr0vxd5sd9z74__7r6nx9r0000gn/T//cc7Yj8cp.s 			page 23


 923 0046 0122     		movs	r2, #1
 924 0048 1021     		movs	r1, #16
 925 004a 4FF09040 		mov	r0, #1207959552
 926 004e FFF7FEFF 		bl	HAL_GPIO_WritePin
 927              	.LVL81:
 299:FML/Src/W25QXX.c **** 	
 300:FML/Src/W25QXX.c **** 	/* Wait the end of Flash writing */
 301:FML/Src/W25QXX.c **** 	while(BSP_W25Qx_GetStatus() == W25Qx_BUSY);
 928              		.loc 1 301 2 view .LVU211
 929              	.L59:
 930              		.loc 1 301 30 discriminator 1 view .LVU212
 931              		.loc 1 301 8 is_stmt 0 discriminator 1 view .LVU213
 932 0052 FFF7FEFF 		bl	BSP_W25Qx_GetStatus
 933              	.LVL82:
 934              		.loc 1 301 30 discriminator 1 view .LVU214
 935 0056 0228     		cmp	r0, #2
 936 0058 FBD0     		beq	.L59
 302:FML/Src/W25QXX.c **** 	{
 303:FML/Src/W25QXX.c **** 		/* Check for the Timeout */
 304:FML/Src/W25QXX.c ****     if((HAL_GetTick() - tickstart) > W25Q128FV_SECTOR_ERASE_MAX_TIME)
 937              		.loc 1 304 5 is_stmt 1 view .LVU215
 938              		.loc 1 304 9 is_stmt 0 view .LVU216
 939 005a FFF7FEFF 		bl	HAL_GetTick
 940              	.LVL83:
 941              		.loc 1 304 23 view .LVU217
 942 005e 401B     		subs	r0, r0, r5
 943              		.loc 1 304 7 view .LVU218
 944 0060 40F6B833 		movw	r3, #3000
 945 0064 9842     		cmp	r0, r3
 946 0066 02D8     		bhi	.L61
 305:FML/Src/W25QXX.c ****     {        
 306:FML/Src/W25QXX.c **** 			return W25Qx_TIMEOUT;
 307:FML/Src/W25QXX.c ****     }
 308:FML/Src/W25QXX.c **** 	}
 309:FML/Src/W25QXX.c **** 	return W25Qx_OK;
 947              		.loc 1 309 9 view .LVU219
 948 0068 0020     		movs	r0, #0
 949              	.L60:
 310:FML/Src/W25QXX.c **** }
 950              		.loc 1 310 1 view .LVU220
 951 006a 03B0     		add	sp, sp, #12
 952              	.LCFI32:
 953              		.cfi_remember_state
 954              		.cfi_def_cfa_offset 12
 955              		@ sp needed
 956 006c 30BD     		pop	{r4, r5, pc}
 957              	.LVL84:
 958              	.L61:
 959              	.LCFI33:
 960              		.cfi_restore_state
 306:FML/Src/W25QXX.c ****     }
 961              		.loc 1 306 11 view .LVU221
 962 006e 0320     		movs	r0, #3
 963 0070 FBE7     		b	.L60
 964              	.L64:
 965 0072 00BF     		.align	2
 966              	.L63:
ARM GAS  /var/folders/h7/llxr0vxd5sd9z74__7r6nx9r0000gn/T//cc7Yj8cp.s 			page 24


 967 0074 00000000 		.word	hspi3
 968              		.cfi_endproc
 969              	.LFE297:
 971              		.section	.text.BSP_W25Qx_Erase_Chip,"ax",%progbits
 972              		.align	1
 973              		.global	BSP_W25Qx_Erase_Chip
 974              		.syntax unified
 975              		.thumb
 976              		.thumb_func
 978              	BSP_W25Qx_Erase_Chip:
 979              	.LFB298:
 311:FML/Src/W25QXX.c **** 
 312:FML/Src/W25QXX.c **** /**
 313:FML/Src/W25QXX.c ****   * @brief  Erases the entire QSPI memory.This function will take a very long time.
 314:FML/Src/W25QXX.c ****   * @retval QSPI memory status
 315:FML/Src/W25QXX.c ****   */
 316:FML/Src/W25QXX.c **** uint8_t BSP_W25Qx_Erase_Chip(void)
 317:FML/Src/W25QXX.c **** {
 980              		.loc 1 317 1 is_stmt 1 view -0
 981              		.cfi_startproc
 982              		@ args = 0, pretend = 0, frame = 8
 983              		@ frame_needed = 0, uses_anonymous_args = 0
 984 0000 10B5     		push	{r4, lr}
 985              	.LCFI34:
 986              		.cfi_def_cfa_offset 8
 987              		.cfi_offset 4, -8
 988              		.cfi_offset 14, -4
 989 0002 82B0     		sub	sp, sp, #8
 990              	.LCFI35:
 991              		.cfi_def_cfa_offset 16
 318:FML/Src/W25QXX.c **** 	uint8_t cmd[4];
 992              		.loc 1 318 2 view .LVU223
 319:FML/Src/W25QXX.c **** 	uint32_t tickstart = HAL_GetTick();
 993              		.loc 1 319 2 view .LVU224
 994              		.loc 1 319 23 is_stmt 0 view .LVU225
 995 0004 FFF7FEFF 		bl	HAL_GetTick
 996              	.LVL85:
 997 0008 0446     		mov	r4, r0
 998              	.LVL86:
 320:FML/Src/W25QXX.c **** 	cmd[0] = SECTOR_ERASE_CMD;
 999              		.loc 1 320 2 is_stmt 1 view .LVU226
 1000              		.loc 1 320 9 is_stmt 0 view .LVU227
 1001 000a 2023     		movs	r3, #32
 1002 000c 8DF80430 		strb	r3, [sp, #4]
 321:FML/Src/W25QXX.c **** 	
 322:FML/Src/W25QXX.c **** 	/* Enable write operations */
 323:FML/Src/W25QXX.c **** 	BSP_W25Qx_WriteEnable();
 1003              		.loc 1 323 2 is_stmt 1 view .LVU228
 1004 0010 FFF7FEFF 		bl	BSP_W25Qx_WriteEnable
 1005              	.LVL87:
 324:FML/Src/W25QXX.c **** 	
 325:FML/Src/W25QXX.c **** 	/*Select the FLASH: Chip Select low */
 326:FML/Src/W25QXX.c **** 	W25Qx_Enable();
 1006              		.loc 1 326 2 view .LVU229
 1007 0014 0022     		movs	r2, #0
 1008 0016 1021     		movs	r1, #16
 1009 0018 4FF09040 		mov	r0, #1207959552
ARM GAS  /var/folders/h7/llxr0vxd5sd9z74__7r6nx9r0000gn/T//cc7Yj8cp.s 			page 25


 1010 001c FFF7FEFF 		bl	HAL_GPIO_WritePin
 1011              	.LVL88:
 327:FML/Src/W25QXX.c **** 	/* Send the read ID command */
 328:FML/Src/W25QXX.c **** 	HAL_SPI_Transmit(&hspi3, cmd, 1, W25Qx_TIMEOUT_VALUE);	
 1012              		.loc 1 328 2 view .LVU230
 1013 0020 4FF47A73 		mov	r3, #1000
 1014 0024 0122     		movs	r2, #1
 1015 0026 01A9     		add	r1, sp, #4
 1016 0028 0B48     		ldr	r0, .L70
 1017 002a FFF7FEFF 		bl	HAL_SPI_Transmit
 1018              	.LVL89:
 329:FML/Src/W25QXX.c **** 	/*Deselect the FLASH: Chip Select high */
 330:FML/Src/W25QXX.c **** 	W25Qx_Disable();
 1019              		.loc 1 330 2 view .LVU231
 1020 002e 0122     		movs	r2, #1
 1021 0030 1021     		movs	r1, #16
 1022 0032 4FF09040 		mov	r0, #1207959552
 1023 0036 FFF7FEFF 		bl	HAL_GPIO_WritePin
 1024              	.LVL90:
 331:FML/Src/W25QXX.c **** 	
 332:FML/Src/W25QXX.c **** 	/* Wait the end of Flash writing */
 333:FML/Src/W25QXX.c **** 	while(BSP_W25Qx_GetStatus() != W25Qx_BUSY);
 1025              		.loc 1 333 2 view .LVU232
 1026              	.L66:
 1027              		.loc 1 333 30 discriminator 1 view .LVU233
 1028              		.loc 1 333 8 is_stmt 0 discriminator 1 view .LVU234
 1029 003a FFF7FEFF 		bl	BSP_W25Qx_GetStatus
 1030              	.LVL91:
 1031              		.loc 1 333 30 discriminator 1 view .LVU235
 1032 003e 0228     		cmp	r0, #2
 1033 0040 FBD1     		bne	.L66
 334:FML/Src/W25QXX.c **** 	{
 335:FML/Src/W25QXX.c **** 		/* Check for the Timeout */
 336:FML/Src/W25QXX.c ****     if((HAL_GetTick() - tickstart) > W25Q128FV_BULK_ERASE_MAX_TIME)
 1034              		.loc 1 336 5 is_stmt 1 view .LVU236
 1035              		.loc 1 336 9 is_stmt 0 view .LVU237
 1036 0042 FFF7FEFF 		bl	HAL_GetTick
 1037              	.LVL92:
 1038              		.loc 1 336 23 view .LVU238
 1039 0046 001B     		subs	r0, r0, r4
 1040              		.loc 1 336 7 view .LVU239
 1041 0048 044B     		ldr	r3, .L70+4
 1042 004a 9842     		cmp	r0, r3
 1043 004c 02D8     		bhi	.L68
 337:FML/Src/W25QXX.c ****     {        
 338:FML/Src/W25QXX.c **** 			return W25Qx_TIMEOUT;
 339:FML/Src/W25QXX.c ****     }
 340:FML/Src/W25QXX.c **** 	}
 341:FML/Src/W25QXX.c **** 	return W25Qx_OK;
 1044              		.loc 1 341 9 view .LVU240
 1045 004e 0020     		movs	r0, #0
 1046              	.L67:
 342:FML/Src/W25QXX.c **** }
 1047              		.loc 1 342 1 view .LVU241
 1048 0050 02B0     		add	sp, sp, #8
 1049              	.LCFI36:
 1050              		.cfi_remember_state
ARM GAS  /var/folders/h7/llxr0vxd5sd9z74__7r6nx9r0000gn/T//cc7Yj8cp.s 			page 26


 1051              		.cfi_def_cfa_offset 8
 1052              		@ sp needed
 1053 0052 10BD     		pop	{r4, pc}
 1054              	.LVL93:
 1055              	.L68:
 1056              	.LCFI37:
 1057              		.cfi_restore_state
 338:FML/Src/W25QXX.c ****     }
 1058              		.loc 1 338 11 view .LVU242
 1059 0054 0320     		movs	r0, #3
 1060 0056 FBE7     		b	.L67
 1061              	.L71:
 1062              		.align	2
 1063              	.L70:
 1064 0058 00000000 		.word	hspi3
 1065 005c 90D00300 		.word	250000
 1066              		.cfi_endproc
 1067              	.LFE298:
 1069              		.text
 1070              	.Letext0:
 1071              		.file 2 "/Applications/ArmGNUToolchain/12.3.rel1/arm-none-eabi/arm-none-eabi/include/machine/_defa
 1072              		.file 3 "/Applications/ArmGNUToolchain/12.3.rel1/arm-none-eabi/arm-none-eabi/include/sys/_stdint.h
 1073              		.file 4 "Drivers/CMSIS/Device/ST/STM32L4xx/Include/stm32l431xx.h"
 1074              		.file 5 "Drivers/STM32L4xx_HAL_Driver/Inc/stm32l4xx_hal_def.h"
 1075              		.file 6 "Drivers/STM32L4xx_HAL_Driver/Inc/stm32l4xx_hal_gpio.h"
 1076              		.file 7 "Drivers/STM32L4xx_HAL_Driver/Inc/stm32l4xx_hal_dma.h"
 1077              		.file 8 "Drivers/STM32L4xx_HAL_Driver/Inc/stm32l4xx_hal_spi.h"
 1078              		.file 9 "HAL/Inc/spi.h"
 1079              		.file 10 "Drivers/STM32L4xx_HAL_Driver/Inc/stm32l4xx_hal.h"
ARM GAS  /var/folders/h7/llxr0vxd5sd9z74__7r6nx9r0000gn/T//cc7Yj8cp.s 			page 27


DEFINED SYMBOLS
                            *ABS*:00000000 W25QXX.c
/var/folders/h7/llxr0vxd5sd9z74__7r6nx9r0000gn/T//cc7Yj8cp.s:21     .text.BSP_W25Qx_Reset:00000000 $t
/var/folders/h7/llxr0vxd5sd9z74__7r6nx9r0000gn/T//cc7Yj8cp.s:26     .text.BSP_W25Qx_Reset:00000000 BSP_W25Qx_Reset
/var/folders/h7/llxr0vxd5sd9z74__7r6nx9r0000gn/T//cc7Yj8cp.s:71     .text.BSP_W25Qx_Reset:00000038 $d
/var/folders/h7/llxr0vxd5sd9z74__7r6nx9r0000gn/T//cc7Yj8cp.s:76     .text.BSP_W25Qx_GetStatus:00000000 $t
/var/folders/h7/llxr0vxd5sd9z74__7r6nx9r0000gn/T//cc7Yj8cp.s:81     .text.BSP_W25Qx_GetStatus:00000000 BSP_W25Qx_GetStatus
/var/folders/h7/llxr0vxd5sd9z74__7r6nx9r0000gn/T//cc7Yj8cp.s:150    .text.BSP_W25Qx_GetStatus:00000054 $d
/var/folders/h7/llxr0vxd5sd9z74__7r6nx9r0000gn/T//cc7Yj8cp.s:155    .text.BSP_W25Qx_Init:00000000 $t
/var/folders/h7/llxr0vxd5sd9z74__7r6nx9r0000gn/T//cc7Yj8cp.s:161    .text.BSP_W25Qx_Init:00000000 BSP_W25Qx_Init
/var/folders/h7/llxr0vxd5sd9z74__7r6nx9r0000gn/T//cc7Yj8cp.s:185    .text.BSP_W25Qx_WriteEnable:00000000 $t
/var/folders/h7/llxr0vxd5sd9z74__7r6nx9r0000gn/T//cc7Yj8cp.s:191    .text.BSP_W25Qx_WriteEnable:00000000 BSP_W25Qx_WriteEnable
/var/folders/h7/llxr0vxd5sd9z74__7r6nx9r0000gn/T//cc7Yj8cp.s:274    .text.BSP_W25Qx_WriteEnable:00000054 $d
/var/folders/h7/llxr0vxd5sd9z74__7r6nx9r0000gn/T//cc7Yj8cp.s:279    .text.BSP_W25Qx_Read_ID:00000000 $t
/var/folders/h7/llxr0vxd5sd9z74__7r6nx9r0000gn/T//cc7Yj8cp.s:285    .text.BSP_W25Qx_Read_ID:00000000 BSP_W25Qx_Read_ID
/var/folders/h7/llxr0vxd5sd9z74__7r6nx9r0000gn/T//cc7Yj8cp.s:347    .text.BSP_W25Qx_Read_ID:00000048 $d
/var/folders/h7/llxr0vxd5sd9z74__7r6nx9r0000gn/T//cc7Yj8cp.s:352    .text.BSP_W25Qx_Read_JEDEC_ID:00000000 $t
/var/folders/h7/llxr0vxd5sd9z74__7r6nx9r0000gn/T//cc7Yj8cp.s:358    .text.BSP_W25Qx_Read_JEDEC_ID:00000000 BSP_W25Qx_Read_JEDEC_ID
/var/folders/h7/llxr0vxd5sd9z74__7r6nx9r0000gn/T//cc7Yj8cp.s:420    .text.BSP_W25Qx_Read_JEDEC_ID:00000044 $d
/var/folders/h7/llxr0vxd5sd9z74__7r6nx9r0000gn/T//cc7Yj8cp.s:425    .text.BSP_W25Qx_Read:00000000 $t
/var/folders/h7/llxr0vxd5sd9z74__7r6nx9r0000gn/T//cc7Yj8cp.s:431    .text.BSP_W25Qx_Read:00000000 BSP_W25Qx_Read
/var/folders/h7/llxr0vxd5sd9z74__7r6nx9r0000gn/T//cc7Yj8cp.s:530    .text.BSP_W25Qx_Read:00000068 $d
/var/folders/h7/llxr0vxd5sd9z74__7r6nx9r0000gn/T//cc7Yj8cp.s:535    .text.BSP_W25Qx_Write:00000000 $t
/var/folders/h7/llxr0vxd5sd9z74__7r6nx9r0000gn/T//cc7Yj8cp.s:541    .text.BSP_W25Qx_Write:00000000 BSP_W25Qx_Write
/var/folders/h7/llxr0vxd5sd9z74__7r6nx9r0000gn/T//cc7Yj8cp.s:737    .text.BSP_W25Qx_Write:000000cc $d
/var/folders/h7/llxr0vxd5sd9z74__7r6nx9r0000gn/T//cc7Yj8cp.s:742    .text.BSP_W25Qx_Erase_Page:00000000 $t
/var/folders/h7/llxr0vxd5sd9z74__7r6nx9r0000gn/T//cc7Yj8cp.s:748    .text.BSP_W25Qx_Erase_Page:00000000 BSP_W25Qx_Erase_Page
/var/folders/h7/llxr0vxd5sd9z74__7r6nx9r0000gn/T//cc7Yj8cp.s:852    .text.BSP_W25Qx_Erase_Page:00000074 $d
/var/folders/h7/llxr0vxd5sd9z74__7r6nx9r0000gn/T//cc7Yj8cp.s:857    .text.BSP_W25Qx_Erase_Block:00000000 $t
/var/folders/h7/llxr0vxd5sd9z74__7r6nx9r0000gn/T//cc7Yj8cp.s:863    .text.BSP_W25Qx_Erase_Block:00000000 BSP_W25Qx_Erase_Block
/var/folders/h7/llxr0vxd5sd9z74__7r6nx9r0000gn/T//cc7Yj8cp.s:967    .text.BSP_W25Qx_Erase_Block:00000074 $d
/var/folders/h7/llxr0vxd5sd9z74__7r6nx9r0000gn/T//cc7Yj8cp.s:972    .text.BSP_W25Qx_Erase_Chip:00000000 $t
/var/folders/h7/llxr0vxd5sd9z74__7r6nx9r0000gn/T//cc7Yj8cp.s:978    .text.BSP_W25Qx_Erase_Chip:00000000 BSP_W25Qx_Erase_Chip
/var/folders/h7/llxr0vxd5sd9z74__7r6nx9r0000gn/T//cc7Yj8cp.s:1064   .text.BSP_W25Qx_Erase_Chip:00000058 $d

UNDEFINED SYMBOLS
HAL_GPIO_WritePin
HAL_SPI_Transmit
hspi3
HAL_SPI_Receive
HAL_GetTick
